
output\a.out:     file format elf32-littlearm


Disassembly of section .text:

00000000 <__isr_vector>:
       0:	10014000 	.word	0x10014000
       4:	00000d69 	.word	0x00000d69
       8:	00000db1 	.word	0x00000db1
       c:	00000db1 	.word	0x00000db1
	...
      3c:	00000db1 	.word	0x00000db1
      40:	00000db1 	.word	0x00000db1
      44:	00000db1 	.word	0x00000db1
      48:	00000db1 	.word	0x00000db1
      4c:	00000db1 	.word	0x00000db1
      50:	00000db1 	.word	0x00000db1
      54:	00000db1 	.word	0x00000db1
      58:	00000db1 	.word	0x00000db1
      5c:	00000db1 	.word	0x00000db1
      60:	00000db1 	.word	0x00000db1
      64:	00000db1 	.word	0x00000db1
      68:	00000db1 	.word	0x00000db1
      6c:	00000db1 	.word	0x00000db1
      70:	00000db1 	.word	0x00000db1
      74:	00000db1 	.word	0x00000db1
      78:	00000db1 	.word	0x00000db1
      7c:	00000db1 	.word	0x00000db1
      80:	00000db1 	.word	0x00000db1
      84:	00000db1 	.word	0x00000db1
      88:	00000db1 	.word	0x00000db1
      8c:	00000db1 	.word	0x00000db1
      90:	00000db1 	.word	0x00000db1
      94:	00000db1 	.word	0x00000db1

00000098 <Bt_BleCallBack>:
      98:	4770      	bx	lr

0000009a <Event_call_back>:
{

}

void Event_call_back(uint8_t da)
{
      9a:	0001      	movs	r1, r0
      9c:	b510      	push	{r4, lr}
      9e:	480b      	ldr	r0, [pc, #44]	; (cc <Event_call_back+0x32>)
	switch(da){
      a0:	2915      	cmp	r1, #21
      a2:	d007      	beq.n	b4 <Event_call_back+0x1a>
      a4:	2965      	cmp	r1, #101	; 0x65
      a6:	d002      	beq.n	ae <Event_call_back+0x14>
      a8:	2914      	cmp	r1, #20
      aa:	d10a      	bne.n	c2 <Event_call_back+0x28>
		case 0x65:
			printf("BLE 0x65\r\n");
			break;
		case IPC_EVT_LE_CONNECTED:{
			printf("BLE connect\r\n");
      ac:	300a      	adds	r0, #10
      ae:	f001 fa5f 	bl	1570 <puts>
		}break;
      b2:	e009      	b.n	c8 <Event_call_back+0x2e>
			
		case IPC_EVT_LE_DISCONNECTED:{
			printf("BLE disconnect\r\n");
      b4:	3017      	adds	r0, #23
      b6:	f001 fa5b 	bl	1570 <puts>
			HWRITE(mem_le_adv_enable, 0x01);
      ba:	2201      	movs	r2, #1
      bc:	4b04      	ldr	r3, [pc, #16]	; (d0 <Event_call_back+0x36>)
      be:	701a      	strb	r2, [r3, #0]
      c0:	e002      	b.n	c8 <Event_call_back+0x2e>
		}break;
		default:
			printf("enter event [%d]\r\n", da);
      c2:	3027      	adds	r0, #39	; 0x27
      c4:	f001 fa0a 	bl	14dc <printf>
			break;
	}
}
      c8:	bd10      	pop	{r4, pc}
      ca:	46c0      	nop			; (mov r8, r8)
      cc:	00008ef0 	.word	0x00008ef0
      d0:	100043b1 	.word	0x100043b1

000000d4 <Mesh_Adv_Cb>:
void Mesh_Adv_Cb(uint8_t* sour, uint16_t len)
{

}
      d4:	4770      	bx	lr

000000d6 <ble_read_req_cb>:

void ble_read_req_cb(uint8_t* buf, uint16_t len)
{
      d6:	b570      	push	{r4, r5, r6, lr}
	printf("%s:", __FUNCTION__);
      d8:	4c06      	ldr	r4, [pc, #24]	; (f4 <ble_read_req_cb+0x1e>)
{

}

void ble_read_req_cb(uint8_t* buf, uint16_t len)
{
      da:	0005      	movs	r5, r0
	printf("%s:", __FUNCTION__);
      dc:	0021      	movs	r1, r4
      de:	0020      	movs	r0, r4
      e0:	313a      	adds	r1, #58	; 0x3a
      e2:	304a      	adds	r0, #74	; 0x4a
      e4:	f001 f9fa 	bl	14dc <printf>
	printf("hadler[%x]\r\n", (uint16_t)*buf);
      e8:	0020      	movs	r0, r4
      ea:	7829      	ldrb	r1, [r5, #0]
      ec:	304e      	adds	r0, #78	; 0x4e
      ee:	f001 f9f5 	bl	14dc <printf>
}
      f2:	bd70      	pop	{r4, r5, r6, pc}
      f4:	00008ef0 	.word	0x00008ef0

000000f8 <ble_read_conn_param>:

void ble_read_conn_param(uint8_t* buf, uint16_t len)
{
      f8:	b5f8      	push	{r3, r4, r5, r6, r7, lr}
	printf("%s:", __FUNCTION__);
      fa:	4c0c      	ldr	r4, [pc, #48]	; (12c <ble_read_conn_param+0x34>)
	printf("%s:", __FUNCTION__);
	printf("hadler[%x]\r\n", (uint16_t)*buf);
}

void ble_read_conn_param(uint8_t* buf, uint16_t len)
{
      fc:	0006      	movs	r6, r0
      fe:	000f      	movs	r7, r1
	printf("%s:", __FUNCTION__);
     100:	0020      	movs	r0, r4
     102:	0021      	movs	r1, r4
     104:	304a      	adds	r0, #74	; 0x4a
     106:	315b      	adds	r1, #91	; 0x5b
     108:	f001 f9e8 	bl	14dc <printf>
	for(int i = 0; i < len; ++i){
     10c:	0035      	movs	r5, r6
     10e:	1bab      	subs	r3, r5, r6
     110:	429f      	cmp	r7, r3
     112:	dd06      	ble.n	122 <ble_read_conn_param+0x2a>
		printf("%02x ", buf[i]);
     114:	0020      	movs	r0, r4
     116:	7829      	ldrb	r1, [r5, #0]
     118:	306f      	adds	r0, #111	; 0x6f
     11a:	f001 f9df 	bl	14dc <printf>
     11e:	3501      	adds	r5, #1
     120:	e7f5      	b.n	10e <ble_read_conn_param+0x16>
	}
	printf("\r\n");
     122:	0020      	movs	r0, r4
     124:	3075      	adds	r0, #117	; 0x75
     126:	f001 fa23 	bl	1570 <puts>
}
     12a:	bdf8      	pop	{r3, r4, r5, r6, r7, pc}
     12c:	00008ef0 	.word	0x00008ef0

00000130 <main>:
const uint8_t ucUuid[] = {0xB9 ,0x40, 0x7F, 0x30, 0xF5, 0xF8, 0x46, 0x6E, 0xAF, 0xF9, 0x25, 0x55, 0x6B, 0x57, 0xFE, 0x6D};
const uint8_t ucFlags[] = {0x02, 0x01, 0x06};
void main()
{	
     130:	b5f0      	push	{r4, r5, r6, r7, lr}
		
	UART_RemapToPrintf(UARTB, GPIO_UART_TX, GPIO_UART_RX);
     132:	221c      	movs	r2, #28
	printf("\r\n");
}
const uint8_t ucUuid[] = {0xB9 ,0x40, 0x7F, 0x30, 0xF5, 0xF8, 0x46, 0x6E, 0xAF, 0xF9, 0x25, 0x55, 0x6B, 0x57, 0xFE, 0x6D};
const uint8_t ucFlags[] = {0x02, 0x01, 0x06};
void main()
{	
     134:	b08b      	sub	sp, #44	; 0x2c
		
	UART_RemapToPrintf(UARTB, GPIO_UART_TX, GPIO_UART_RX);
     136:	211b      	movs	r1, #27
     138:	2001      	movs	r0, #1
     13a:	f000 fd1d 	bl	b78 <UART_RemapToPrintf>
	printf("-----------IBEACON Example-----------\r\n");
     13e:	4e31      	ldr	r6, [pc, #196]	; (204 <main+0xd4>)

	//tBTADDR _ucAddr = {0xFF, 0x01, 0x02, 0x03, 0x04, 0x05};
	//BLE_SetMacAddr(_ucAddr);
#if 1

	HWRITE(mem_tx_power,0x02);
     140:	2702      	movs	r7, #2
const uint8_t ucFlags[] = {0x02, 0x01, 0x06};
void main()
{	
		
	UART_RemapToPrintf(UARTB, GPIO_UART_TX, GPIO_UART_RX);
	printf("-----------IBEACON Example-----------\r\n");
     142:	0030      	movs	r0, r6
     144:	300a      	adds	r0, #10
     146:	f001 fa13 	bl	1570 <puts>

	//tBTADDR _ucAddr = {0xFF, 0x01, 0x02, 0x03, 0x04, 0x05};
	//BLE_SetMacAddr(_ucAddr);
#if 1

	HWRITE(mem_tx_power,0x02);
     14a:	4b2f      	ldr	r3, [pc, #188]	; (208 <main+0xd8>)
	
	tIPCControlBlock cb;
	memset(&cb, 0, sizeof(tIPCControlBlock));
     14c:	2228      	movs	r2, #40	; 0x28

	//tBTADDR _ucAddr = {0xFF, 0x01, 0x02, 0x03, 0x04, 0x05};
	//BLE_SetMacAddr(_ucAddr);
#if 1

	HWRITE(mem_tx_power,0x02);
     14e:	701f      	strb	r7, [r3, #0]
	
	tIPCControlBlock cb;
	memset(&cb, 0, sizeof(tIPCControlBlock));
     150:	2100      	movs	r1, #0
     152:	4668      	mov	r0, sp
     154:	f001 f96a 	bl	142c <memset>
	cb.blecb = Bt_BleCallBack;
     158:	4b2c      	ldr	r3, [pc, #176]	; (20c <main+0xdc>)
	cb.readconnparamcb = ble_read_conn_param;
	
	IPC_Initialize(&cb);	//Register callback function.

	/*ADV Parameter init*/
	HWRITE(mem_le_adv_type, ADV_TYPE_NOMAL);
     15a:	2500      	movs	r5, #0

	HWRITE(mem_tx_power,0x02);
	
	tIPCControlBlock cb;
	memset(&cb, 0, sizeof(tIPCControlBlock));
	cb.blecb = Bt_BleCallBack;
     15c:	9304      	str	r3, [sp, #16]
	cb.evtcb = Event_call_back;
     15e:	4b2c      	ldr	r3, [pc, #176]	; (210 <main+0xe0>)
	cb.advcb = Mesh_Adv_Cb;
	//cb.readreqcb = ble_read_req_cb;
	cb.readconnparamcb = ble_read_conn_param;
	
	IPC_Initialize(&cb);	//Register callback function.
     160:	4668      	mov	r0, sp
	HWRITE(mem_tx_power,0x02);
	
	tIPCControlBlock cb;
	memset(&cb, 0, sizeof(tIPCControlBlock));
	cb.blecb = Bt_BleCallBack;
	cb.evtcb = Event_call_back;
     162:	9300      	str	r3, [sp, #0]
	cb.advcb = Mesh_Adv_Cb;
     164:	4b2b      	ldr	r3, [pc, #172]	; (214 <main+0xe4>)
     166:	9305      	str	r3, [sp, #20]
	//cb.readreqcb = ble_read_req_cb;
	cb.readconnparamcb = ble_read_conn_param;
     168:	4b2b      	ldr	r3, [pc, #172]	; (218 <main+0xe8>)
     16a:	9309      	str	r3, [sp, #36]	; 0x24
	
	IPC_Initialize(&cb);	//Register callback function.
     16c:	f000 f886 	bl	27c <IPC_Initialize>
#define OS_EXIT_CRITICAL() __enable_irq() 


static inline void HW_REG_16BIT(uint32_t reg, uint16_t word)
{
    HW_REG_8BIT(reg, word & 0x00FF);
     170:	2240      	movs	r2, #64	; 0x40

	/*ADV Parameter init*/
	HWRITE(mem_le_adv_type, ADV_TYPE_NOMAL);
     172:	4b2a      	ldr	r3, [pc, #168]	; (21c <main+0xec>)
     174:	701d      	strb	r5, [r3, #0]
     176:	4b2a      	ldr	r3, [pc, #168]	; (220 <main+0xf0>)
     178:	701a      	strb	r2, [r3, #0]

#define BW(addr)			(int)*(addr) << 24 | (int)*(addr + 1) << 16 | (int)*(addr + 2) << 8 | *(addr + 3)

static inline void hw_delay() 
{
	__asm__ __volatile__("nop");
     17a:	46c0      	nop			; (mov r8, r8)
	__asm__ __volatile__("nop");
     17c:	46c0      	nop			; (mov r8, r8)
	__asm__ __volatile__("nop");
     17e:	46c0      	nop			; (mov r8, r8)
	__asm__ __volatile__("nop");
     180:	46c0      	nop			; (mov r8, r8)
	__asm__ __volatile__("nop");
     182:	46c0      	nop			; (mov r8, r8)
	HW_REG_16BIT(reg_map(mem_le_adv_interval_max), 1600);	//itl : 1s; unit: 0.625ms
	
	/*Set IBEACON Information*/
	static ibeacon_t stIBeacon;
	memcpy(stIBeacon.sucFlag, ucFlags, sizeof(ucFlags));
     184:	4c27      	ldr	r4, [pc, #156]	; (224 <main+0xf4>)
    hw_delay();
    HW_REG_8BIT(reg + 1,(word >> 8));
     186:	4b28      	ldr	r3, [pc, #160]	; (228 <main+0xf8>)
     188:	3a3a      	subs	r2, #58	; 0x3a
     18a:	701a      	strb	r2, [r3, #0]
     18c:	1df1      	adds	r1, r6, #7
     18e:	3a03      	subs	r2, #3
     190:	0020      	movs	r0, r4
     192:	f001 f90d 	bl	13b0 <memcpy>
	stIBeacon.sucLength = 0x1A;
     196:	231a      	movs	r3, #26
	stIBeacon.sucType = 0xff;
	stIBeacon.susCpyId = 0x004c;
     198:	224c      	movs	r2, #76	; 0x4c
	HW_REG_16BIT(reg_map(mem_le_adv_interval_max), 1600);	//itl : 1s; unit: 0.625ms
	
	/*Set IBEACON Information*/
	static ibeacon_t stIBeacon;
	memcpy(stIBeacon.sucFlag, ucFlags, sizeof(ucFlags));
	stIBeacon.sucLength = 0x1A;
     19a:	70e3      	strb	r3, [r4, #3]
	stIBeacon.sucType = 0xff;
	stIBeacon.susCpyId = 0x004c;
	stIBeacon.susBcnType = 0x1502;
	memcpy(stIBeacon.sucUuid, ucUuid, sizeof(ucUuid));
     19c:	0020      	movs	r0, r4
	
	/*Set IBEACON Information*/
	static ibeacon_t stIBeacon;
	memcpy(stIBeacon.sucFlag, ucFlags, sizeof(ucFlags));
	stIBeacon.sucLength = 0x1A;
	stIBeacon.sucType = 0xff;
     19e:	33e5      	adds	r3, #229	; 0xe5
     1a0:	7123      	strb	r3, [r4, #4]
	stIBeacon.susCpyId = 0x004c;
	stIBeacon.susBcnType = 0x1502;
     1a2:	2315      	movs	r3, #21
	memcpy(stIBeacon.sucUuid, ucUuid, sizeof(ucUuid));
     1a4:	4921      	ldr	r1, [pc, #132]	; (22c <main+0xfc>)
	/*Set IBEACON Information*/
	static ibeacon_t stIBeacon;
	memcpy(stIBeacon.sucFlag, ucFlags, sizeof(ucFlags));
	stIBeacon.sucLength = 0x1A;
	stIBeacon.sucType = 0xff;
	stIBeacon.susCpyId = 0x004c;
     1a6:	7162      	strb	r2, [r4, #5]
	stIBeacon.susBcnType = 0x1502;
	memcpy(stIBeacon.sucUuid, ucUuid, sizeof(ucUuid));
     1a8:	3177      	adds	r1, #119	; 0x77
     1aa:	3a3c      	subs	r2, #60	; 0x3c
     1ac:	3009      	adds	r0, #9
	static ibeacon_t stIBeacon;
	memcpy(stIBeacon.sucFlag, ucFlags, sizeof(ucFlags));
	stIBeacon.sucLength = 0x1A;
	stIBeacon.sucType = 0xff;
	stIBeacon.susCpyId = 0x004c;
	stIBeacon.susBcnType = 0x1502;
     1ae:	71e7      	strb	r7, [r4, #7]
     1b0:	7223      	strb	r3, [r4, #8]
	/*Set IBEACON Information*/
	static ibeacon_t stIBeacon;
	memcpy(stIBeacon.sucFlag, ucFlags, sizeof(ucFlags));
	stIBeacon.sucLength = 0x1A;
	stIBeacon.sucType = 0xff;
	stIBeacon.susCpyId = 0x004c;
     1b2:	71a5      	strb	r5, [r4, #6]
	stIBeacon.susBcnType = 0x1502;
	memcpy(stIBeacon.sucUuid, ucUuid, sizeof(ucUuid));
     1b4:	f001 f8fc 	bl	13b0 <memcpy>
	stIBeacon.susMajor = 0x0101;
     1b8:	2301      	movs	r3, #1
	stIBeacon.susMinor = 0x0202;
     1ba:	76e7      	strb	r7, [r4, #27]
     1bc:	7727      	strb	r7, [r4, #28]
	stIBeacon.sucMPower = 0xc5;
	
	memcpy((unsigned char*)reg_map(mem_le_adv_data),&stIBeacon,sizeof(stIBeacon));
     1be:	371c      	adds	r7, #28
	stIBeacon.sucLength = 0x1A;
	stIBeacon.sucType = 0xff;
	stIBeacon.susCpyId = 0x004c;
	stIBeacon.susBcnType = 0x1502;
	memcpy(stIBeacon.sucUuid, ucUuid, sizeof(ucUuid));
	stIBeacon.susMajor = 0x0101;
     1c0:	7663      	strb	r3, [r4, #25]
     1c2:	76a3      	strb	r3, [r4, #26]
	stIBeacon.susMinor = 0x0202;
	stIBeacon.sucMPower = 0xc5;
	
	memcpy((unsigned char*)reg_map(mem_le_adv_data),&stIBeacon,sizeof(stIBeacon));
     1c4:	003a      	movs	r2, r7
	stIBeacon.susCpyId = 0x004c;
	stIBeacon.susBcnType = 0x1502;
	memcpy(stIBeacon.sucUuid, ucUuid, sizeof(ucUuid));
	stIBeacon.susMajor = 0x0101;
	stIBeacon.susMinor = 0x0202;
	stIBeacon.sucMPower = 0xc5;
     1c6:	33c4      	adds	r3, #196	; 0xc4
	
	memcpy((unsigned char*)reg_map(mem_le_adv_data),&stIBeacon,sizeof(stIBeacon));
     1c8:	0021      	movs	r1, r4
     1ca:	4819      	ldr	r0, [pc, #100]	; (230 <main+0x100>)
	stIBeacon.susCpyId = 0x004c;
	stIBeacon.susBcnType = 0x1502;
	memcpy(stIBeacon.sucUuid, ucUuid, sizeof(ucUuid));
	stIBeacon.susMajor = 0x0101;
	stIBeacon.susMinor = 0x0202;
	stIBeacon.sucMPower = 0xc5;
     1cc:	7763      	strb	r3, [r4, #29]
	
	memcpy((unsigned char*)reg_map(mem_le_adv_data),&stIBeacon,sizeof(stIBeacon));
     1ce:	f001 f8ef 	bl	13b0 <memcpy>
	HWRITE(mem_le_adv_data_len,sizeof(stIBeacon));
     1d2:	4b18      	ldr	r3, [pc, #96]	; (234 <main+0x104>)
     1d4:	701f      	strb	r7, [r3, #0]
     1d6:	4f15      	ldr	r7, [pc, #84]	; (22c <main+0xfc>)

	for(int i = 0; i < sizeof(stIBeacon); ++i){
		printf("%02x ", ((uint8_t*)&stIBeacon)[i]);
     1d8:	0038      	movs	r0, r7
     1da:	5d61      	ldrb	r1, [r4, r5]
     1dc:	306f      	adds	r0, #111	; 0x6f
	stIBeacon.sucMPower = 0xc5;
	
	memcpy((unsigned char*)reg_map(mem_le_adv_data),&stIBeacon,sizeof(stIBeacon));
	HWRITE(mem_le_adv_data_len,sizeof(stIBeacon));

	for(int i = 0; i < sizeof(stIBeacon); ++i){
     1de:	3501      	adds	r5, #1
		printf("%02x ", ((uint8_t*)&stIBeacon)[i]);
     1e0:	f001 f97c 	bl	14dc <printf>
	stIBeacon.sucMPower = 0xc5;
	
	memcpy((unsigned char*)reg_map(mem_le_adv_data),&stIBeacon,sizeof(stIBeacon));
	HWRITE(mem_le_adv_data_len,sizeof(stIBeacon));

	for(int i = 0; i < sizeof(stIBeacon); ++i){
     1e4:	2d1e      	cmp	r5, #30
     1e6:	d1f7      	bne.n	1d8 <main+0xa8>
		printf("%02x ", ((uint8_t*)&stIBeacon)[i]);
	}
	printf("\r\n");
     1e8:	0038      	movs	r0, r7
     1ea:	3075      	adds	r0, #117	; 0x75
     1ec:	f001 f9c0 	bl	1570 <puts>

	/*Start ADV*/
	HWRITE(mem_le_adv_enable, 0x01);
     1f0:	2201      	movs	r2, #1
#endif	


	printf("-----------Start IBEACON-----------\r\n");
     1f2:	0030      	movs	r0, r6
		printf("%02x ", ((uint8_t*)&stIBeacon)[i]);
	}
	printf("\r\n");

	/*Start ADV*/
	HWRITE(mem_le_adv_enable, 0x01);
     1f4:	4b10      	ldr	r3, [pc, #64]	; (238 <main+0x108>)
#endif	


	printf("-----------Start IBEACON-----------\r\n");
     1f6:	3031      	adds	r0, #49	; 0x31
		printf("%02x ", ((uint8_t*)&stIBeacon)[i]);
	}
	printf("\r\n");

	/*Start ADV*/
	HWRITE(mem_le_adv_enable, 0x01);
     1f8:	701a      	strb	r2, [r3, #0]
#endif	


	printf("-----------Start IBEACON-----------\r\n");
     1fa:	f001 f9b9 	bl	1570 <puts>

	while(1){
		//WDT_Kick();

		//ble process
		IPC_DealSingleStep();	
     1fe:	f000 f96b 	bl	4d8 <IPC_DealSingleStep>
     202:	e7fc      	b.n	1fe <main+0xce>
     204:	00008f70 	.word	0x00008f70
     208:	10004291 	.word	0x10004291
     20c:	00000099 	.word	0x00000099
     210:	0000009b 	.word	0x0000009b
     214:	000000d5 	.word	0x000000d5
     218:	000000f9 	.word	0x000000f9
     21c:	100044ee 	.word	0x100044ee
     220:	100044ec 	.word	0x100044ec
     224:	10010eb0 	.word	0x10010eb0
     228:	100044ed 	.word	0x100044ed
     22c:	00008ef0 	.word	0x00008ef0
     230:	100043b3 	.word	0x100043b3
     234:	100043b2 	.word	0x100043b2
     238:	100043b1 	.word	0x100043b1

0000023c <hw_delay>:

#define BW(addr)			(int)*(addr) << 24 | (int)*(addr + 1) << 16 | (int)*(addr + 2) << 8 | *(addr + 3)

static inline void hw_delay() 
{
	__asm__ __volatile__("nop");
     23c:	46c0      	nop			; (mov r8, r8)
	__asm__ __volatile__("nop");
     23e:	46c0      	nop			; (mov r8, r8)
	__asm__ __volatile__("nop");
     240:	46c0      	nop			; (mov r8, r8)
	__asm__ __volatile__("nop");
     242:	46c0      	nop			; (mov r8, r8)
	__asm__ __volatile__("nop");
     244:	46c0      	nop			; (mov r8, r8)
}
     246:	4770      	bx	lr

00000248 <HR_REG_24BIT>:
	return_data = (return_data | ((H_data << 8) & 0xFF00));
	return return_data;
}

static inline uint32_t HR_REG_24BIT(uint32_t reg)
{
     248:	b570      	push	{r4, r5, r6, lr}
     24a:	0006      	movs	r6, r0
	uint32_t return_data = 0;
	hw_delay();
     24c:	f7ff fff6 	bl	23c <hw_delay>
	return_data = HR_REG_8BIT(reg);
     250:	7834      	ldrb	r4, [r6, #0]
	hw_delay();
     252:	f7ff fff3 	bl	23c <hw_delay>
	return_data = return_data |(HR_REG_8BIT(reg + 1)<<8);
     256:	7875      	ldrb	r5, [r6, #1]
	hw_delay();
     258:	f7ff fff0 	bl	23c <hw_delay>
	return_data = return_data | (HR_REG_8BIT(reg + 2)<<16);
     25c:	78b3      	ldrb	r3, [r6, #2]
{
	uint32_t return_data = 0;
	hw_delay();
	return_data = HR_REG_8BIT(reg);
	hw_delay();
	return_data = return_data |(HR_REG_8BIT(reg + 1)<<8);
     25e:	b2ed      	uxtb	r5, r5
	hw_delay();
	return_data = return_data | (HR_REG_8BIT(reg + 2)<<16);
	
	return return_data;
     260:	0228      	lsls	r0, r5, #8
     262:	041b      	lsls	r3, r3, #16

static inline uint32_t HR_REG_24BIT(uint32_t reg)
{
	uint32_t return_data = 0;
	hw_delay();
	return_data = HR_REG_8BIT(reg);
     264:	b2e4      	uxtb	r4, r4
	hw_delay();
	return_data = return_data |(HR_REG_8BIT(reg + 1)<<8);
	hw_delay();
	return_data = return_data | (HR_REG_8BIT(reg + 2)<<16);
	
	return return_data;
     266:	4318      	orrs	r0, r3
     268:	4320      	orrs	r0, r4
}
     26a:	bd70      	pop	{r4, r5, r6, pc}

0000026c <IpcDefaultCallBack>:
uint8_t gIPC_test;


void IpcDefaultCallBack(uint8_t len,uint8_t *dataPtr)
{
	gIPC_test++;
     26c:	4a02      	ldr	r2, [pc, #8]	; (278 <IpcDefaultCallBack+0xc>)
     26e:	7813      	ldrb	r3, [r2, #0]
     270:	3301      	adds	r3, #1
     272:	7013      	strb	r3, [r2, #0]
	return;
}
     274:	4770      	bx	lr
     276:	46c0      	nop			; (mov r8, r8)
     278:	10011020 	.word	0x10011020

0000027c <IPC_Initialize>:

void IPC_Initialize(tIPCControlBlock *Cb)
{
	ipcCb = *Cb;
     27c:	4a05      	ldr	r2, [pc, #20]	; (294 <IPC_Initialize+0x18>)
	gIPC_test++;
	return;
}

void IPC_Initialize(tIPCControlBlock *Cb)
{
     27e:	b510      	push	{r4, lr}
	ipcCb = *Cb;
     280:	0013      	movs	r3, r2
     282:	c816      	ldmia	r0!, {r1, r2, r4}
     284:	c316      	stmia	r3!, {r1, r2, r4}
     286:	c816      	ldmia	r0!, {r1, r2, r4}
     288:	c316      	stmia	r3!, {r1, r2, r4}
     28a:	c816      	ldmia	r0!, {r1, r2, r4}
     28c:	c316      	stmia	r3!, {r1, r2, r4}
     28e:	6802      	ldr	r2, [r0, #0]
     290:	601a      	str	r2, [r3, #0]
}
     292:	bd10      	pop	{r4, pc}
     294:	10010ed0 	.word	0x10010ed0

00000298 <IPC_init>:

void IPC_init(tIPCHandleCbArray cbArrayPtr)
{
	ipcCbArray = cbArrayPtr;
     298:	4b01      	ldr	r3, [pc, #4]	; (2a0 <IPC_init+0x8>)
     29a:	6298      	str	r0, [r3, #40]	; 0x28
	return;
}
     29c:	4770      	bx	lr
     29e:	46c0      	nop			; (mov r8, r8)
     2a0:	10010ed0 	.word	0x10010ed0

000002a4 <ipcRx>:

static void ipcRx(uint8_t* Dest, uint16_t Len)
{
     2a4:	b570      	push	{r4, r5, r6, lr}
     2a6:	0005      	movs	r5, r0
	uint32_t RxPtr = HR_REG_24BIT(reg_map(IPC_RX_READ_PTR));
     2a8:	4810      	ldr	r0, [pc, #64]	; (2ec <ipcRx+0x48>)
	ipcCbArray = cbArrayPtr;
	return;
}

static void ipcRx(uint8_t* Dest, uint16_t Len)
{
     2aa:	000c      	movs	r4, r1
	uint32_t RxPtr = HR_REG_24BIT(reg_map(IPC_RX_READ_PTR));
     2ac:	f7ff ffcc 	bl	248 <HR_REG_24BIT>
	for (uint16_t i=0; i<Len; i++) {
		Dest[i] = HREAD(RxPtr);
     2b0:	2180      	movs	r1, #128	; 0x80
}

static void ipcRx(uint8_t* Dest, uint16_t Len)
{
	uint32_t RxPtr = HR_REG_24BIT(reg_map(IPC_RX_READ_PTR));
	for (uint16_t i=0; i<Len; i++) {
     2b2:	2300      	movs	r3, #0
		Dest[i] = HREAD(RxPtr);
		if(++RxPtr >= IPC_RX_END) 
     2b4:	4e0e      	ldr	r6, [pc, #56]	; (2f0 <ipcRx+0x4c>)

static void ipcRx(uint8_t* Dest, uint16_t Len)
{
	uint32_t RxPtr = HR_REG_24BIT(reg_map(IPC_RX_READ_PTR));
	for (uint16_t i=0; i<Len; i++) {
		Dest[i] = HREAD(RxPtr);
     2b6:	0549      	lsls	r1, r1, #21
}

static void ipcRx(uint8_t* Dest, uint16_t Len)
{
	uint32_t RxPtr = HR_REG_24BIT(reg_map(IPC_RX_READ_PTR));
	for (uint16_t i=0; i<Len; i++) {
     2b8:	b29a      	uxth	r2, r3
     2ba:	4294      	cmp	r4, r2
     2bc:	d909      	bls.n	2d2 <ipcRx+0x2e>
		Dest[i] = HREAD(RxPtr);
     2be:	000a      	movs	r2, r1
     2c0:	4302      	orrs	r2, r0
     2c2:	7812      	ldrb	r2, [r2, #0]
		if(++RxPtr >= IPC_RX_END) 
     2c4:	3001      	adds	r0, #1

static void ipcRx(uint8_t* Dest, uint16_t Len)
{
	uint32_t RxPtr = HR_REG_24BIT(reg_map(IPC_RX_READ_PTR));
	for (uint16_t i=0; i<Len; i++) {
		Dest[i] = HREAD(RxPtr);
     2c6:	54ea      	strb	r2, [r5, r3]
		if(++RxPtr >= IPC_RX_END) 
     2c8:	42b0      	cmp	r0, r6
     2ca:	d900      	bls.n	2ce <ipcRx+0x2a>
			RxPtr = IPC_RX_HEAD;
     2cc:	4809      	ldr	r0, [pc, #36]	; (2f4 <ipcRx+0x50>)
     2ce:	3301      	adds	r3, #1
     2d0:	e7f2      	b.n	2b8 <ipcRx+0x14>
	}
	
	HWRITE24BIT(IPC_RX_READ_PTR, RxPtr);
     2d2:	4b06      	ldr	r3, [pc, #24]	; (2ec <ipcRx+0x48>)
     2d4:	b2c2      	uxtb	r2, r0
     2d6:	701a      	strb	r2, [r3, #0]
     2d8:	1203      	asrs	r3, r0, #8
     2da:	4a07      	ldr	r2, [pc, #28]	; (2f8 <ipcRx+0x54>)
     2dc:	b2db      	uxtb	r3, r3
     2de:	7013      	strb	r3, [r2, #0]
     2e0:	1400      	asrs	r0, r0, #16
     2e2:	4b06      	ldr	r3, [pc, #24]	; (2fc <ipcRx+0x58>)
     2e4:	b2c0      	uxtb	r0, r0
     2e6:	7018      	strb	r0, [r3, #0]
}
     2e8:	bd70      	pop	{r4, r5, r6, pc}
     2ea:	46c0      	nop			; (mov r8, r8)
     2ec:	1001030c 	.word	0x1001030c
     2f0:	000104ff 	.word	0x000104ff
     2f4:	00010350 	.word	0x00010350
     2f8:	1001030d 	.word	0x1001030d
     2fc:	1001030e 	.word	0x1001030e

00000300 <ipcTx>:

static void ipcTx(uint8_t* Src, uint8_t Len)
{
     300:	b570      	push	{r4, r5, r6, lr}
     302:	0004      	movs	r4, r0
	int me;
	uint32_t TxPtr = HR_REG_24BIT(reg_map(IPC_TX_WRITE_PTR));
     304:	4810      	ldr	r0, [pc, #64]	; (348 <ipcTx+0x48>)
	
	HWRITE24BIT(IPC_RX_READ_PTR, RxPtr);
}

static void ipcTx(uint8_t* Src, uint8_t Len)
{
     306:	000d      	movs	r5, r1
	int me;
	uint32_t TxPtr = HR_REG_24BIT(reg_map(IPC_TX_WRITE_PTR));
     308:	f7ff ff9e 	bl	248 <HR_REG_24BIT>
	for (uint16_t i=0; i<Len; i++) {
		HWRITE(TxPtr, Src[i]);
     30c:	2280      	movs	r2, #128	; 0x80
     30e:	0023      	movs	r3, r4
		if(++TxPtr >= IPC_TX_END) 
     310:	490e      	ldr	r1, [pc, #56]	; (34c <ipcTx+0x4c>)
     312:	1965      	adds	r5, r4, r5
static void ipcTx(uint8_t* Src, uint8_t Len)
{
	int me;
	uint32_t TxPtr = HR_REG_24BIT(reg_map(IPC_TX_WRITE_PTR));
	for (uint16_t i=0; i<Len; i++) {
		HWRITE(TxPtr, Src[i]);
     314:	0552      	lsls	r2, r2, #21

static void ipcTx(uint8_t* Src, uint8_t Len)
{
	int me;
	uint32_t TxPtr = HR_REG_24BIT(reg_map(IPC_TX_WRITE_PTR));
	for (uint16_t i=0; i<Len; i++) {
     316:	429d      	cmp	r5, r3
     318:	d00a      	beq.n	330 <ipcTx+0x30>
		HWRITE(TxPtr, Src[i]);
     31a:	0014      	movs	r4, r2
     31c:	781e      	ldrb	r6, [r3, #0]
     31e:	4304      	orrs	r4, r0
		if(++TxPtr >= IPC_TX_END) 
     320:	3001      	adds	r0, #1
static void ipcTx(uint8_t* Src, uint8_t Len)
{
	int me;
	uint32_t TxPtr = HR_REG_24BIT(reg_map(IPC_TX_WRITE_PTR));
	for (uint16_t i=0; i<Len; i++) {
		HWRITE(TxPtr, Src[i]);
     322:	7026      	strb	r6, [r4, #0]
		if(++TxPtr >= IPC_TX_END) 
     324:	4288      	cmp	r0, r1
     326:	d901      	bls.n	32c <ipcTx+0x2c>
			TxPtr = IPC_TX_HEAD;
     328:	2080      	movs	r0, #128	; 0x80
     32a:	0240      	lsls	r0, r0, #9
     32c:	3301      	adds	r3, #1
     32e:	e7f2      	b.n	316 <ipcTx+0x16>
		me=100;
		while(me--);
	}
	HWRITE24BIT(IPC_TX_WRITE_PTR, TxPtr);
     330:	4b05      	ldr	r3, [pc, #20]	; (348 <ipcTx+0x48>)
     332:	b2c2      	uxtb	r2, r0
     334:	701a      	strb	r2, [r3, #0]
     336:	1203      	asrs	r3, r0, #8
     338:	4a05      	ldr	r2, [pc, #20]	; (350 <ipcTx+0x50>)
     33a:	b2db      	uxtb	r3, r3
     33c:	7013      	strb	r3, [r2, #0]
     33e:	1400      	asrs	r0, r0, #16
     340:	4b04      	ldr	r3, [pc, #16]	; (354 <ipcTx+0x54>)
     342:	b2c0      	uxtb	r0, r0
     344:	7018      	strb	r0, [r3, #0]
}
     346:	bd70      	pop	{r4, r5, r6, pc}
     348:	10010300 	.word	0x10010300
     34c:	000102ff 	.word	0x000102ff
     350:	10010301 	.word	0x10010301
     354:	10010302 	.word	0x10010302

00000358 <IPC_TxBufferIsEnough>:

unsigned char IPC_TxBufferIsEnough(uint8_t Len)
{
     358:	b570      	push	{r4, r5, r6, lr}
     35a:	0005      	movs	r5, r0
	uint32_t TxPtr = HR_REG_24BIT(reg_map(IPC_TX_WRITE_PTR));
     35c:	480c      	ldr	r0, [pc, #48]	; (390 <IPC_TxBufferIsEnough+0x38>)
     35e:	f7ff ff73 	bl	248 <HR_REG_24BIT>
     362:	0004      	movs	r4, r0
	uint32_t TxReadPtr = HR_REG_24BIT(reg_map(IPC_TX_READ_PTR));
     364:	480b      	ldr	r0, [pc, #44]	; (394 <IPC_TxBufferIsEnough+0x3c>)
     366:	f7ff ff6f 	bl	248 <HR_REG_24BIT>

	for (uint16_t i=0; i<Len; i++) {
     36a:	2300      	movs	r3, #0
		if(++TxPtr >= IPC_TX_END) 
     36c:	4a0a      	ldr	r2, [pc, #40]	; (398 <IPC_TxBufferIsEnough+0x40>)
unsigned char IPC_TxBufferIsEnough(uint8_t Len)
{
	uint32_t TxPtr = HR_REG_24BIT(reg_map(IPC_TX_WRITE_PTR));
	uint32_t TxReadPtr = HR_REG_24BIT(reg_map(IPC_TX_READ_PTR));

	for (uint16_t i=0; i<Len; i++) {
     36e:	b2ad      	uxth	r5, r5
     370:	42ab      	cmp	r3, r5
     372:	d209      	bcs.n	388 <IPC_TxBufferIsEnough+0x30>
		if(++TxPtr >= IPC_TX_END) 
     374:	3401      	adds	r4, #1
     376:	4294      	cmp	r4, r2
     378:	d901      	bls.n	37e <IPC_TxBufferIsEnough+0x26>
			TxPtr = IPC_TX_HEAD;
     37a:	2480      	movs	r4, #128	; 0x80
     37c:	0264      	lsls	r4, r4, #9

		if(TxPtr == TxReadPtr)
     37e:	4284      	cmp	r4, r0
     380:	d004      	beq.n	38c <IPC_TxBufferIsEnough+0x34>
unsigned char IPC_TxBufferIsEnough(uint8_t Len)
{
	uint32_t TxPtr = HR_REG_24BIT(reg_map(IPC_TX_WRITE_PTR));
	uint32_t TxReadPtr = HR_REG_24BIT(reg_map(IPC_TX_READ_PTR));

	for (uint16_t i=0; i<Len; i++) {
     382:	3301      	adds	r3, #1
     384:	b29b      	uxth	r3, r3
     386:	e7f3      	b.n	370 <IPC_TxBufferIsEnough+0x18>

		if(TxPtr == TxReadPtr)
			return 0;

	}
	return 1;
     388:	2001      	movs	r0, #1
     38a:	e000      	b.n	38e <IPC_TxBufferIsEnough+0x36>
	for (uint16_t i=0; i<Len; i++) {
		if(++TxPtr >= IPC_TX_END) 
			TxPtr = IPC_TX_HEAD;

		if(TxPtr == TxReadPtr)
			return 0;
     38c:	2000      	movs	r0, #0

	}
	return 1;
}
     38e:	bd70      	pop	{r4, r5, r6, pc}
     390:	10010300 	.word	0x10010300
     394:	10010304 	.word	0x10010304
     398:	000102ff 	.word	0x000102ff

0000039c <IPC_WaitBufferEnough>:

unsigned char IPC_WaitBufferEnough(uint8_t Len)
{
     39c:	b510      	push	{r4, lr}
     39e:	0004      	movs	r4, r0
	int m;
	while(1){
		if(IPC_TxBufferIsEnough(Len))
     3a0:	0020      	movs	r0, r4
     3a2:	f7ff ffd9 	bl	358 <IPC_TxBufferIsEnough>
     3a6:	2800      	cmp	r0, #0
     3a8:	d0fa      	beq.n	3a0 <IPC_WaitBufferEnough+0x4>
		{
			m = 1000;
			while(m--);
		}
	}
}
     3aa:	2001      	movs	r0, #1
     3ac:	bd10      	pop	{r4, pc}

000003ae <IPC_TxCommon>:

void IPC_TxCommon(uint8_t Type, uint8_t* Dt, uint8_t Len)
{
     3ae:	b570      	push	{r4, r5, r6, lr}
	ipcSendBuff[0] = Type;
     3b0:	4d07      	ldr	r5, [pc, #28]	; (3d0 <IPC_TxCommon+0x22>)
	if (Len == 0 || Len > IPC_TX_BUFF_LEN-2)
     3b2:	1e53      	subs	r3, r2, #1
		}
	}
}

void IPC_TxCommon(uint8_t Type, uint8_t* Dt, uint8_t Len)
{
     3b4:	0014      	movs	r4, r2
	ipcSendBuff[0] = Type;
     3b6:	7028      	strb	r0, [r5, #0]
	if (Len == 0 || Len > IPC_TX_BUFF_LEN-2)
     3b8:	2b1b      	cmp	r3, #27
     3ba:	d808      	bhi.n	3ce <IPC_TxCommon+0x20>
		return;
	ipcSendBuff[1] = Len;
	memcpy(&ipcSendBuff[2], Dt, Len);
     3bc:	4805      	ldr	r0, [pc, #20]	; (3d4 <IPC_TxCommon+0x26>)
	ipcTx(ipcSendBuff, Len + 2);
     3be:	3402      	adds	r4, #2
void IPC_TxCommon(uint8_t Type, uint8_t* Dt, uint8_t Len)
{
	ipcSendBuff[0] = Type;
	if (Len == 0 || Len > IPC_TX_BUFF_LEN-2)
		return;
	ipcSendBuff[1] = Len;
     3c0:	706a      	strb	r2, [r5, #1]
	memcpy(&ipcSendBuff[2], Dt, Len);
     3c2:	f000 fff5 	bl	13b0 <memcpy>
	ipcTx(ipcSendBuff, Len + 2);
     3c6:	b2e1      	uxtb	r1, r4
     3c8:	0028      	movs	r0, r5
     3ca:	f7ff ff99 	bl	300 <ipcTx>
}
     3ce:	bd70      	pop	{r4, r5, r6, pc}
     3d0:	10011002 	.word	0x10011002
     3d4:	10011004 	.word	0x10011004

000003d8 <IPC_TxPacket>:

void IPC_TxPacket(IPC_DATA_FORMAT *packet)
{
	if (packet->len == 0)
     3d8:	7841      	ldrb	r1, [r0, #1]
	memcpy(&ipcSendBuff[2], Dt, Len);
	ipcTx(ipcSendBuff, Len + 2);
}

void IPC_TxPacket(IPC_DATA_FORMAT *packet)
{
     3da:	b510      	push	{r4, lr}
	if (packet->len == 0)
     3dc:	2900      	cmp	r1, #0
     3de:	d003      	beq.n	3e8 <IPC_TxPacket+0x10>
		return;

	ipcTx((unsigned char*)packet,  packet->len+ 2);
     3e0:	3102      	adds	r1, #2
     3e2:	b2c9      	uxtb	r1, r1
     3e4:	f7ff ff8c 	bl	300 <ipcTx>
}
     3e8:	bd10      	pop	{r4, pc}

000003ea <IPC_TxControlCmd>:

void IPC_TxControlCmd(uint8_t Cmd)
{
     3ea:	b573      	push	{r0, r1, r4, r5, r6, lr}
#define IPC_CMD_LEN 3
	uint8_t cmdBuff[IPC_CMD_LEN] = {IPC_CONTROL_CMD,0x01};
     3ec:	2503      	movs	r5, #3
     3ee:	ac01      	add	r4, sp, #4

	ipcTx((unsigned char*)packet,  packet->len+ 2);
}

void IPC_TxControlCmd(uint8_t Cmd)
{
     3f0:	0006      	movs	r6, r0
#define IPC_CMD_LEN 3
	uint8_t cmdBuff[IPC_CMD_LEN] = {IPC_CONTROL_CMD,0x01};
     3f2:	002a      	movs	r2, r5
     3f4:	2100      	movs	r1, #0
     3f6:	0020      	movs	r0, r4
     3f8:	f001 f818 	bl	142c <memset>
     3fc:	2301      	movs	r3, #1
	cmdBuff[IPC_CMD_LEN - 1] = Cmd;
	ipcTx(cmdBuff, IPC_CMD_LEN);
     3fe:	0029      	movs	r1, r5
     400:	0020      	movs	r0, r4

void IPC_TxControlCmd(uint8_t Cmd)
{
#define IPC_CMD_LEN 3
	uint8_t cmdBuff[IPC_CMD_LEN] = {IPC_CONTROL_CMD,0x01};
	cmdBuff[IPC_CMD_LEN - 1] = Cmd;
     402:	70a6      	strb	r6, [r4, #2]
}

void IPC_TxControlCmd(uint8_t Cmd)
{
#define IPC_CMD_LEN 3
	uint8_t cmdBuff[IPC_CMD_LEN] = {IPC_CONTROL_CMD,0x01};
     404:	7023      	strb	r3, [r4, #0]
     406:	7063      	strb	r3, [r4, #1]
	cmdBuff[IPC_CMD_LEN - 1] = Cmd;
	ipcTx(cmdBuff, IPC_CMD_LEN);
     408:	f7ff ff7a 	bl	300 <ipcTx>
}
     40c:	bd73      	pop	{r0, r1, r4, r5, r6, pc}

0000040e <IPC_GetBBDIsconnectReason>:
     40e:	2000      	movs	r0, #0
     410:	4770      	bx	lr

00000412 <IPC_CheckServerConenct>:
}

uint8_t IPC_CheckServerConenct()
{
	return 0;
}
     412:	2000      	movs	r0, #0
     414:	4770      	bx	lr

00000416 <IPC_CheckReconnect>:

uint8_t IPC_CheckReconnect()
{
	return 0;
}
     416:	2000      	movs	r0, #0
     418:	4770      	bx	lr

0000041a <IPC_WaitLpm>:

void IPC_WaitLpm()
{
     41a:	b510      	push	{r4, lr}
	int dayloop = 10000;
	while(dayloop--) hw_delay();
     41c:	4c03      	ldr	r4, [pc, #12]	; (42c <IPC_WaitLpm+0x12>)
     41e:	3c01      	subs	r4, #1
     420:	2c00      	cmp	r4, #0
     422:	d002      	beq.n	42a <IPC_WaitLpm+0x10>
     424:	f7ff ff0a 	bl	23c <hw_delay>
     428:	e7f9      	b.n	41e <IPC_WaitLpm+0x4>
}
     42a:	bd10      	pop	{r4, pc}
     42c:	00002711 	.word	0x00002711

00000430 <IPC_AbandonLpm>:

void IPC_AbandonLpm()
{
     430:	b510      	push	{r4, lr}
	hw_delay();
     432:	f7ff ff03 	bl	23c <hw_delay>
	//HW_REG_8BIT(IPC_M0_BUSY_FALG_ADDR, 0);
}
     436:	bd10      	pop	{r4, pc}

00000438 <IPC_DisableLpm>:
     438:	b510      	push	{r4, lr}
     43a:	f7ff feff 	bl	23c <hw_delay>
     43e:	bd10      	pop	{r4, pc}

00000440 <IPC_EnableLpm>:
	hw_delay();
	//HW_REG_8BIT(IPC_LPM_FLAG_ADDR, 0);
}

void IPC_EnableLpm()
{
     440:	b510      	push	{r4, lr}
	hw_delay();
     442:	f7ff fefb 	bl	23c <hw_delay>
	//HW_REG_8BIT(IPC_LPM_FLAG_ADDR, 1);
}
     446:	bd10      	pop	{r4, pc}

00000448 <IPC_IsTxBuffEmpty>:


uint8_t IPC_IsTxBuffEmpty()
{
     448:	b510      	push	{r4, lr}
	uint32_t TxReadPtr = HR_REG_24BIT(reg_map(IPC_TX_READ_PTR));
     44a:	4806      	ldr	r0, [pc, #24]	; (464 <IPC_IsTxBuffEmpty+0x1c>)
     44c:	f7ff fefc 	bl	248 <HR_REG_24BIT>
     450:	0004      	movs	r4, r0
	uint32_t TxWritePtr = HR_REG_24BIT(reg_map(IPC_TX_WRITE_PTR));
     452:	4805      	ldr	r0, [pc, #20]	; (468 <IPC_IsTxBuffEmpty+0x20>)
     454:	f7ff fef8 	bl	248 <HR_REG_24BIT>
     458:	1a20      	subs	r0, r4, r0
     45a:	4244      	negs	r4, r0
     45c:	4160      	adcs	r0, r4
	if (TxWritePtr == TxReadPtr)
		return 1;
	return 0;
}
     45e:	b2c0      	uxtb	r0, r0
     460:	bd10      	pop	{r4, pc}
     462:	46c0      	nop			; (mov r8, r8)
     464:	10010304 	.word	0x10010304
     468:	10010300 	.word	0x10010300

0000046c <IPC_IsRxBuffEmpty>:

uint8_t IPC_IsRxBuffEmpty()
{
     46c:	b510      	push	{r4, lr}
	uint32_t RxReadPtr = HR_REG_24BIT(reg_map(IPC_RX_READ_PTR));
     46e:	4806      	ldr	r0, [pc, #24]	; (488 <IPC_IsRxBuffEmpty+0x1c>)
     470:	f7ff feea 	bl	248 <HR_REG_24BIT>
     474:	0004      	movs	r4, r0
	uint32_t RxWritePtr = HR_REG_24BIT(reg_map(IPC_RX_WRITE_PTR));
     476:	4805      	ldr	r0, [pc, #20]	; (48c <IPC_IsRxBuffEmpty+0x20>)
     478:	f7ff fee6 	bl	248 <HR_REG_24BIT>
     47c:	1a20      	subs	r0, r4, r0
     47e:	4244      	negs	r4, r0
     480:	4160      	adcs	r0, r4
//	printf("RxReadPtr = %06x, RxWritePtr = %06x \n",RxReadPtr,RxWritePtr);
	if (RxReadPtr == RxWritePtr)
		return 1;
	return 0;
}
     482:	b2c0      	uxtb	r0, r0
     484:	bd10      	pop	{r4, pc}
     486:	46c0      	nop			; (mov r8, r8)
     488:	1001030c 	.word	0x1001030c
     48c:	10010308 	.word	0x10010308

00000490 <IPC_HandleRxPacket>:

uint16_t a2dpLen;


void IPC_HandleRxPacket()
{
     490:	b570      	push	{r4, r5, r6, lr}
	uint8_t *pbuff = ipcReadBuff;
	if (IPC_IsRxBuffEmpty())
     492:	f7ff ffeb 	bl	46c <IPC_IsRxBuffEmpty>
     496:	2800      	cmp	r0, #0
     498:	d117      	bne.n	4ca <IPC_HandleRxPacket+0x3a>
		return;

	ipcRx(ipcReadBuff, 2);
     49a:	4c0c      	ldr	r4, [pc, #48]	; (4cc <IPC_HandleRxPacket+0x3c>)
     49c:	2102      	movs	r1, #2
     49e:	0020      	movs	r0, r4
     4a0:	f7ff ff00 	bl	2a4 <ipcRx>
	if(*pbuff > IPC_TYPE_START && *pbuff < IPC_TYPE_NUM)
     4a4:	7823      	ldrb	r3, [r4, #0]
     4a6:	3b01      	subs	r3, #1
     4a8:	2b0a      	cmp	r3, #10
     4aa:	d80d      	bhi.n	4c8 <IPC_HandleRxPacket+0x38>
	{
		ipcRx(ipcReadBuff+2, *(pbuff+1));	
     4ac:	4d08      	ldr	r5, [pc, #32]	; (4d0 <IPC_HandleRxPacket+0x40>)
     4ae:	7861      	ldrb	r1, [r4, #1]
     4b0:	0028      	movs	r0, r5
     4b2:	f7ff fef7 	bl	2a4 <ipcRx>
		//(*gIPCHandleCb[*pbuff])(*(pbuff+1),pbuff+2);
		(*(*ipcCbArray)[*pbuff])(*(pbuff+1),pbuff+2);
     4b6:	4b07      	ldr	r3, [pc, #28]	; (4d4 <IPC_HandleRxPacket+0x44>)
     4b8:	7860      	ldrb	r0, [r4, #1]
     4ba:	6a9a      	ldr	r2, [r3, #40]	; 0x28
     4bc:	7823      	ldrb	r3, [r4, #0]
     4be:	0029      	movs	r1, r5
     4c0:	009b      	lsls	r3, r3, #2
     4c2:	589b      	ldr	r3, [r3, r2]
     4c4:	4798      	blx	r3
     4c6:	e000      	b.n	4ca <IPC_HandleRxPacket+0x3a>
     4c8:	e7fe      	b.n	4c8 <IPC_HandleRxPacket+0x38>
	else
	{
		while(1);
	}

}
     4ca:	bd70      	pop	{r4, r5, r6, pc}
     4cc:	10010f3a 	.word	0x10010f3a
     4d0:	10010f3c 	.word	0x10010f3c
     4d4:	10010ed0 	.word	0x10010ed0

000004d8 <IPC_DealSingleStep>:

void IPC_DealSingleStep()
{
     4d8:	b570      	push	{r4, r5, r6, lr}
#define IPC_FRAME_HEAD_SIZE 3
	uint8_t *pbuff = ipcReadBuff;//大小为30个字节
	if (IPC_IsRxBuffEmpty())
     4da:	f7ff ffc7 	bl	46c <IPC_IsRxBuffEmpty>
     4de:	2800      	cmp	r0, #0
     4e0:	d000      	beq.n	4e4 <IPC_DealSingleStep+0xc>
     4e2:	e082      	b.n	5ea <IPC_DealSingleStep+0x112>
		return;
			
	ipcRx(ipcReadBuff, IPC_FRAME_HEAD_SIZE);
     4e4:	4d41      	ldr	r5, [pc, #260]	; (5ec <IPC_DealSingleStep+0x114>)
     4e6:	2103      	movs	r1, #3
     4e8:	0028      	movs	r0, r5
     4ea:	f7ff fedb 	bl	2a4 <ipcRx>
 		
	if (*pbuff == IPC_CONTROL_EVT) {
     4ee:	782b      	ldrb	r3, [r5, #0]
     4f0:	2b02      	cmp	r3, #2
     4f2:	d108      	bne.n	506 <IPC_DealSingleStep+0x2e>
		pbuff += 2;
		if(ipcCb.evtcb) ipcCb.evtcb(*pbuff);//处理收到的命令
     4f4:	4b3e      	ldr	r3, [pc, #248]	; (5f0 <IPC_DealSingleStep+0x118>)
     4f6:	4e3f      	ldr	r6, [pc, #252]	; (5f4 <IPC_DealSingleStep+0x11c>)
     4f8:	681b      	ldr	r3, [r3, #0]
		return;
			
	ipcRx(ipcReadBuff, IPC_FRAME_HEAD_SIZE);
 		
	if (*pbuff == IPC_CONTROL_EVT) {
		pbuff += 2;
     4fa:	0034      	movs	r4, r6
		if(ipcCb.evtcb) ipcCb.evtcb(*pbuff);//处理收到的命令
     4fc:	2b00      	cmp	r3, #0
     4fe:	d016      	beq.n	52e <IPC_DealSingleStep+0x56>
     500:	78a8      	ldrb	r0, [r5, #2]
     502:	4798      	blx	r3
     504:	e013      	b.n	52e <IPC_DealSingleStep+0x56>
}

void IPC_DealSingleStep()
{
#define IPC_FRAME_HEAD_SIZE 3
	uint8_t *pbuff = ipcReadBuff;//大小为30个字节
     506:	002c      	movs	r4, r5
 		
	if (*pbuff == IPC_CONTROL_EVT) {
		pbuff += 2;
		if(ipcCb.evtcb) ipcCb.evtcb(*pbuff);//处理收到的命令
	}
	else if (*pbuff == IPC_SPP_DATA) {
     508:	2b04      	cmp	r3, #4
     50a:	d110      	bne.n	52e <IPC_DealSingleStep+0x56>
		pbuff++;
		ipcRx(ipcReadBuff+IPC_FRAME_HEAD_SIZE, *pbuff -1);
     50c:	7869      	ldrb	r1, [r5, #1]
     50e:	483a      	ldr	r0, [pc, #232]	; (5f8 <IPC_DealSingleStep+0x120>)
     510:	3901      	subs	r1, #1
     512:	b289      	uxth	r1, r1
     514:	f7ff fec6 	bl	2a4 <ipcRx>
		if(ipcCb.sppcb) ipcCb.sppcb(pbuff+1, *pbuff);
     518:	4b35      	ldr	r3, [pc, #212]	; (5f0 <IPC_DealSingleStep+0x118>)
     51a:	4d38      	ldr	r5, [pc, #224]	; (5fc <IPC_DealSingleStep+0x124>)
     51c:	685b      	ldr	r3, [r3, #4]
     51e:	2b00      	cmp	r3, #0
     520:	d004      	beq.n	52c <IPC_DealSingleStep+0x54>
     522:	7861      	ldrb	r1, [r4, #1]
     524:	4833      	ldr	r0, [pc, #204]	; (5f4 <IPC_DealSingleStep+0x11c>)
     526:	4798      	blx	r3
	if (*pbuff == IPC_CONTROL_EVT) {
		pbuff += 2;
		if(ipcCb.evtcb) ipcCb.evtcb(*pbuff);//处理收到的命令
	}
	else if (*pbuff == IPC_SPP_DATA) {
		pbuff++;
     528:	002c      	movs	r4, r5
     52a:	e000      	b.n	52e <IPC_DealSingleStep+0x56>
     52c:	002c      	movs	r4, r5
		ipcRx(ipcReadBuff+IPC_FRAME_HEAD_SIZE, *pbuff -1);
		if(ipcCb.sppcb) ipcCb.sppcb(pbuff+1, *pbuff);
	}	
	if (*pbuff == IPC_BLE_DATA) {
     52e:	7823      	ldrb	r3, [r4, #0]
     530:	2b05      	cmp	r3, #5
     532:	d10a      	bne.n	54a <IPC_DealSingleStep+0x72>
		pbuff++;
		ipcRx(ipcReadBuff+IPC_FRAME_HEAD_SIZE, *pbuff -1);				
     534:	7861      	ldrb	r1, [r4, #1]
     536:	4830      	ldr	r0, [pc, #192]	; (5f8 <IPC_DealSingleStep+0x120>)
     538:	3901      	subs	r1, #1
     53a:	b289      	uxth	r1, r1
     53c:	f7ff feb2 	bl	2a4 <ipcRx>
		if(ipcCb.blecb) ipcCb.blecb(pbuff+1, *pbuff);//处理收到的数据
     540:	4b2b      	ldr	r3, [pc, #172]	; (5f0 <IPC_DealSingleStep+0x118>)
     542:	691b      	ldr	r3, [r3, #16]
     544:	2b00      	cmp	r3, #0
     546:	d14d      	bne.n	5e4 <IPC_DealSingleStep+0x10c>
     548:	e04f      	b.n	5ea <IPC_DealSingleStep+0x112>
	}	
	else if (*pbuff == IPC_HID_DATA) {
     54a:	2b03      	cmp	r3, #3
     54c:	d10a      	bne.n	564 <IPC_DealSingleStep+0x8c>
		pbuff++;
		ipcRx(ipcReadBuff+IPC_FRAME_HEAD_SIZE, *pbuff -1);
     54e:	7861      	ldrb	r1, [r4, #1]
     550:	4829      	ldr	r0, [pc, #164]	; (5f8 <IPC_DealSingleStep+0x120>)
     552:	3901      	subs	r1, #1
     554:	b289      	uxth	r1, r1
     556:	f7ff fea5 	bl	2a4 <ipcRx>
		if(ipcCb.hidcb) ipcCb.hidcb(pbuff+1, *pbuff);
     55a:	4b25      	ldr	r3, [pc, #148]	; (5f0 <IPC_DealSingleStep+0x118>)
     55c:	699b      	ldr	r3, [r3, #24]
     55e:	2b00      	cmp	r3, #0
     560:	d140      	bne.n	5e4 <IPC_DealSingleStep+0x10c>
     562:	e042      	b.n	5ea <IPC_DealSingleStep+0x112>
	}
	else if (*pbuff == IPC_MESH_DATA) {
     564:	2b07      	cmp	r3, #7
     566:	d110      	bne.n	58a <IPC_DealSingleStep+0xb2>
 		pbuff++;
		ipcRx(ipcReadBuff+IPC_FRAME_HEAD_SIZE, *pbuff -1);
     568:	7861      	ldrb	r1, [r4, #1]
     56a:	4823      	ldr	r0, [pc, #140]	; (5f8 <IPC_DealSingleStep+0x120>)
     56c:	3901      	subs	r1, #1
     56e:	b289      	uxth	r1, r1
     570:	f7ff fe98 	bl	2a4 <ipcRx>
		if(ipcCb.meshcb) ipcCb.meshcb(*(pbuff+1), pbuff+2, *pbuff-1);
     574:	4b1e      	ldr	r3, [pc, #120]	; (5f0 <IPC_DealSingleStep+0x118>)
     576:	69db      	ldr	r3, [r3, #28]
     578:	2b00      	cmp	r3, #0
     57a:	d036      	beq.n	5ea <IPC_DealSingleStep+0x112>
     57c:	7862      	ldrb	r2, [r4, #1]
     57e:	1ce1      	adds	r1, r4, #3
     580:	3a01      	subs	r2, #1
     582:	b292      	uxth	r2, r2
     584:	78a0      	ldrb	r0, [r4, #2]
     586:	4798      	blx	r3
     588:	e02f      	b.n	5ea <IPC_DealSingleStep+0x112>
	}
	else if (*pbuff == IPC_A2DP_DATA) {
     58a:	2b0a      	cmp	r3, #10
     58c:	d111      	bne.n	5b2 <IPC_DealSingleStep+0xda>
		pbuff++;
		a2dpLen = pbuff[0]|pbuff[1]<<8;
     58e:	78a1      	ldrb	r1, [r4, #2]
     590:	7863      	ldrb	r3, [r4, #1]
		ipcRx(ipcReadBuff+IPC_FRAME_HEAD_SIZE, a2dpLen);
     592:	4c19      	ldr	r4, [pc, #100]	; (5f8 <IPC_DealSingleStep+0x120>)
		ipcRx(ipcReadBuff+IPC_FRAME_HEAD_SIZE, *pbuff -1);
		if(ipcCb.meshcb) ipcCb.meshcb(*(pbuff+1), pbuff+2, *pbuff-1);
	}
	else if (*pbuff == IPC_A2DP_DATA) {
		pbuff++;
		a2dpLen = pbuff[0]|pbuff[1]<<8;
     594:	4d1a      	ldr	r5, [pc, #104]	; (600 <IPC_DealSingleStep+0x128>)
     596:	0209      	lsls	r1, r1, #8
     598:	4319      	orrs	r1, r3
		ipcRx(ipcReadBuff+IPC_FRAME_HEAD_SIZE, a2dpLen);
     59a:	0020      	movs	r0, r4
		ipcRx(ipcReadBuff+IPC_FRAME_HEAD_SIZE, *pbuff -1);
		if(ipcCb.meshcb) ipcCb.meshcb(*(pbuff+1), pbuff+2, *pbuff-1);
	}
	else if (*pbuff == IPC_A2DP_DATA) {
		pbuff++;
		a2dpLen = pbuff[0]|pbuff[1]<<8;
     59c:	8029      	strh	r1, [r5, #0]
		ipcRx(ipcReadBuff+IPC_FRAME_HEAD_SIZE, a2dpLen);
     59e:	f7ff fe81 	bl	2a4 <ipcRx>
		if(ipcCb.a2dpcb) ipcCb.a2dpcb(ipcReadBuff+IPC_FRAME_HEAD_SIZE,a2dpLen);
     5a2:	4b13      	ldr	r3, [pc, #76]	; (5f0 <IPC_DealSingleStep+0x118>)
     5a4:	6a1b      	ldr	r3, [r3, #32]
     5a6:	2b00      	cmp	r3, #0
     5a8:	d01f      	beq.n	5ea <IPC_DealSingleStep+0x112>
     5aa:	8829      	ldrh	r1, [r5, #0]
     5ac:	0020      	movs	r0, r4
     5ae:	4798      	blx	r3
     5b0:	e01b      	b.n	5ea <IPC_DealSingleStep+0x112>
	}
	else if(*pbuff == IPC_MESH_ADV_DATA) {
     5b2:	2b08      	cmp	r3, #8
     5b4:	d10a      	bne.n	5cc <IPC_DealSingleStep+0xf4>
		pbuff++;
		ipcRx(ipcReadBuff+IPC_FRAME_HEAD_SIZE,*pbuff -1);
     5b6:	7861      	ldrb	r1, [r4, #1]
     5b8:	480f      	ldr	r0, [pc, #60]	; (5f8 <IPC_DealSingleStep+0x120>)
     5ba:	3901      	subs	r1, #1
     5bc:	b289      	uxth	r1, r1
     5be:	f7ff fe71 	bl	2a4 <ipcRx>
		if(ipcCb.advcb) ipcCb.advcb(pbuff+1,*pbuff);
     5c2:	4b0b      	ldr	r3, [pc, #44]	; (5f0 <IPC_DealSingleStep+0x118>)
     5c4:	695b      	ldr	r3, [r3, #20]
     5c6:	2b00      	cmp	r3, #0
     5c8:	d10c      	bne.n	5e4 <IPC_DealSingleStep+0x10c>
     5ca:	e00e      	b.n	5ea <IPC_DealSingleStep+0x112>
	}else if(*pbuff == IPC_READ_CONN_PARA) {
     5cc:	2b0c      	cmp	r3, #12
     5ce:	d10c      	bne.n	5ea <IPC_DealSingleStep+0x112>
		pbuff++;
		ipcRx(ipcReadBuff+IPC_FRAME_HEAD_SIZE,*pbuff-1);
     5d0:	7861      	ldrb	r1, [r4, #1]
     5d2:	4809      	ldr	r0, [pc, #36]	; (5f8 <IPC_DealSingleStep+0x120>)
     5d4:	3901      	subs	r1, #1
     5d6:	b289      	uxth	r1, r1
     5d8:	f7ff fe64 	bl	2a4 <ipcRx>
		if(ipcCb.readconnparamcb) ipcCb.readconnparamcb(pbuff+1,*pbuff);//
     5dc:	4b04      	ldr	r3, [pc, #16]	; (5f0 <IPC_DealSingleStep+0x118>)
     5de:	6a5b      	ldr	r3, [r3, #36]	; 0x24
     5e0:	2b00      	cmp	r3, #0
     5e2:	d002      	beq.n	5ea <IPC_DealSingleStep+0x112>
     5e4:	7861      	ldrb	r1, [r4, #1]
     5e6:	1ca0      	adds	r0, r4, #2
     5e8:	4798      	blx	r3
	}
//	while(1);
}
     5ea:	bd70      	pop	{r4, r5, r6, pc}
     5ec:	10010f3a 	.word	0x10010f3a
     5f0:	10010ed0 	.word	0x10010ed0
     5f4:	10010f3c 	.word	0x10010f3c
     5f8:	10010f3d 	.word	0x10010f3d
     5fc:	10010f3b 	.word	0x10010f3b
     600:	10011022 	.word	0x10011022

00000604 <IPC_set_ack_flag>:

void IPC_set_ack_flag()
{
  HWRITE(IPC_MCU_PHASE,IPC_MCU_PHASE1_ACK);
     604:	2302      	movs	r3, #2
     606:	490b      	ldr	r1, [pc, #44]	; (634 <IPC_set_ack_flag+0x30>)
	}
//	while(1);
}

void IPC_set_ack_flag()
{
     608:	b570      	push	{r4, r5, r6, lr}
  HWRITE(IPC_MCU_PHASE,IPC_MCU_PHASE1_ACK);
     60a:	700b      	strb	r3, [r1, #0]
  HWRITE(IPC_MCU_STATE,IPC_MCU_STATE_RUNNING);
     60c:	4b0a      	ldr	r3, [pc, #40]	; (638 <IPC_set_ack_flag+0x34>)
     60e:	2200      	movs	r2, #0
  while(HREAD(IPC_MCU_STATE))
     610:	001c      	movs	r4, r3
    {
    HWRITE(0x4ff1,IPC_MCU_STATE_HIBERNATE);
     612:	2601      	movs	r6, #1
     614:	4d09      	ldr	r5, [pc, #36]	; (63c <IPC_set_ack_flag+0x38>)
}

void IPC_set_ack_flag()
{
  HWRITE(IPC_MCU_PHASE,IPC_MCU_PHASE1_ACK);
  HWRITE(IPC_MCU_STATE,IPC_MCU_STATE_RUNNING);
     616:	701a      	strb	r2, [r3, #0]
  while(HREAD(IPC_MCU_STATE))
     618:	7818      	ldrb	r0, [r3, #0]
     61a:	2800      	cmp	r0, #0
     61c:	d002      	beq.n	624 <IPC_set_ack_flag+0x20>
    {
    HWRITE(0x4ff1,IPC_MCU_STATE_HIBERNATE);
     61e:	702e      	strb	r6, [r5, #0]
    HWRITE(IPC_MCU_STATE,IPC_MCU_STATE_RUNNING);
     620:	7022      	strb	r2, [r4, #0]
     622:	e7f9      	b.n	618 <IPC_set_ack_flag+0x14>
    }
  while(HREAD(IPC_MCU_PHASE) != IPC_MCU_PHASE1_ACK)
     624:	4a03      	ldr	r2, [pc, #12]	; (634 <IPC_set_ack_flag+0x30>)
    {
    HWRITE(IPC_MCU_PHASE,IPC_MCU_PHASE1_ACK);
     626:	3002      	adds	r0, #2
  while(HREAD(IPC_MCU_STATE))
    {
    HWRITE(0x4ff1,IPC_MCU_STATE_HIBERNATE);
    HWRITE(IPC_MCU_STATE,IPC_MCU_STATE_RUNNING);
    }
  while(HREAD(IPC_MCU_PHASE) != IPC_MCU_PHASE1_ACK)
     628:	780b      	ldrb	r3, [r1, #0]
     62a:	2b02      	cmp	r3, #2
     62c:	d001      	beq.n	632 <IPC_set_ack_flag+0x2e>
    {
    HWRITE(IPC_MCU_PHASE,IPC_MCU_PHASE1_ACK);
     62e:	7010      	strb	r0, [r2, #0]
     630:	e7fa      	b.n	628 <IPC_set_ack_flag+0x24>
    }
}
     632:	bd70      	pop	{r4, r5, r6, pc}
     634:	10004333 	.word	0x10004333
     638:	10004334 	.word	0x10004334
     63c:	10004ff1 	.word	0x10004ff1

00000640 <IPC_set_nack_flag>:

void IPC_set_nack_flag()
{
	HWRITE(IPC_MCU_PHASE,IPC_MCU_PHASE1_NACK);
     640:	2201      	movs	r2, #1
     642:	4b03      	ldr	r3, [pc, #12]	; (650 <IPC_set_nack_flag+0x10>)
     644:	701a      	strb	r2, [r3, #0]
	HWRITE(IPC_MCU_STATE,IPC_MCU_STATE_RUNNING);
     646:	2200      	movs	r2, #0
     648:	4b02      	ldr	r3, [pc, #8]	; (654 <IPC_set_nack_flag+0x14>)
     64a:	701a      	strb	r2, [r3, #0]
}
     64c:	4770      	bx	lr
     64e:	46c0      	nop			; (mov r8, r8)
     650:	10004333 	.word	0x10004333
     654:	10004334 	.word	0x10004334

00000658 <IPC_clear_flag>:

void IPC_clear_flag()
{
	HWRITE(IPC_MCU_PHASE,IPC_MCU_PHASE_IDLE);
     658:	2300      	movs	r3, #0
     65a:	4a02      	ldr	r2, [pc, #8]	; (664 <IPC_clear_flag+0xc>)
     65c:	7013      	strb	r3, [r2, #0]
	HWRITE(IPC_MCU_STATE,IPC_MCU_STATE_RUNNING);
     65e:	4a02      	ldr	r2, [pc, #8]	; (668 <IPC_clear_flag+0x10>)
     660:	7013      	strb	r3, [r2, #0]
}
     662:	4770      	bx	lr
     664:	10004333 	.word	0x10004333
     668:	10004334 	.word	0x10004334

0000066c <IPC_wait_ack>:
	int i;
	while(1)
	{
		i = 500;
		while(i--);
		switch (HREAD(IPC_MCU_PHASE))
     66c:	4a02      	ldr	r2, [pc, #8]	; (678 <IPC_wait_ack+0xc>)
     66e:	7813      	ldrb	r3, [r2, #0]
     670:	2b00      	cmp	r3, #0
     672:	d1fc      	bne.n	66e <IPC_wait_ack+0x2>
				break;
			case IPC_MCU_PHASE_IDLE:
				return;
		}
	}
}
     674:	4770      	bx	lr
     676:	46c0      	nop			; (mov r8, r8)
     678:	10004333 	.word	0x10004333

0000067c <hw_delay>:

#define BW(addr)			(int)*(addr) << 24 | (int)*(addr + 1) << 16 | (int)*(addr + 2) << 8 | *(addr + 3)

static inline void hw_delay() 
{
	__asm__ __volatile__("nop");
     67c:	46c0      	nop			; (mov r8, r8)
	__asm__ __volatile__("nop");
     67e:	46c0      	nop			; (mov r8, r8)
	__asm__ __volatile__("nop");
     680:	46c0      	nop			; (mov r8, r8)
	__asm__ __volatile__("nop");
     682:	46c0      	nop			; (mov r8, r8)
	__asm__ __volatile__("nop");
     684:	46c0      	nop			; (mov r8, r8)
}
     686:	4770      	bx	lr

00000688 <BLE_SetAdvData>:
#include "ble_adv.h"


void BLE_SetAdvData(uint8_t* Dt, uint16_t Size)
{
     688:	b510      	push	{r4, lr}
	IPC_TxCommon(IPC_MESH_ADV_DATA, Dt, Size);
     68a:	b2ca      	uxtb	r2, r1
     68c:	0001      	movs	r1, r0
     68e:	2008      	movs	r0, #8
     690:	f7ff fe8d 	bl	3ae <IPC_TxCommon>
}
     694:	bd10      	pop	{r4, pc}

00000696 <BLE_SetScanData>:

void BLE_SetScanData(uint8_t* Dt, uint16_t Size)
{
     696:	b510      	push	{r4, lr}
	IPC_TxCommon(IPC_MESH_RSP_DATA, Dt, Size);
     698:	b2ca      	uxtb	r2, r1
     69a:	0001      	movs	r1, r0
     69c:	2009      	movs	r0, #9
     69e:	f7ff fe86 	bl	3ae <IPC_TxCommon>
}
     6a2:	bd10      	pop	{r4, pc}

000006a4 <BLE_StopAdv>:

void BLE_StopAdv()
{
     6a4:	b510      	push	{r4, lr}
	IPC_TxControlCmd(IPC_CMD_STOP_ADV);
     6a6:	200e      	movs	r0, #14
     6a8:	f7ff fe9f 	bl	3ea <IPC_TxControlCmd>
}
     6ac:	bd10      	pop	{r4, pc}

000006ae <BLE_StartAdv>:

void BLE_StartAdv()
{
     6ae:	b510      	push	{r4, lr}
	IPC_TxControlCmd(IPC_CMD_START_ADV);
     6b0:	200d      	movs	r0, #13
     6b2:	f7ff fe9a 	bl	3ea <IPC_TxControlCmd>
}
     6b6:	bd10      	pop	{r4, pc}

000006b8 <BLE_StartScan>:

void BLE_StartScan()
{
     6b8:	b510      	push	{r4, lr}
	IPC_TxControlCmd(IPC_CMD_START_SCAN);
     6ba:	2017      	movs	r0, #23
     6bc:	f7ff fe95 	bl	3ea <IPC_TxControlCmd>
}
     6c0:	bd10      	pop	{r4, pc}

000006c2 <BLE_StopScan>:

void BLE_StopScan()
{
     6c2:	b510      	push	{r4, lr}
	IPC_TxControlCmd(IPC_CMD_STOP_SCAN);
     6c4:	2018      	movs	r0, #24
     6c6:	f7ff fe90 	bl	3ea <IPC_TxControlCmd>
}
     6ca:	bd10      	pop	{r4, pc}

000006cc <BLE_SetMacAddr>:


void BLE_SetMacAddr(tBTADDR Addr)
{
     6cc:	b530      	push	{r4, r5, lr}
	for (uint8_t i=0; i< BT_ADDR_SIZE; i++) {
		HWRITE(mem_le_lap+i, Addr[BT_ADDR_SIZE-1-i]);
     6ce:	2480      	movs	r4, #128	; 0x80
	IPC_TxControlCmd(IPC_CMD_STOP_SCAN);
}


void BLE_SetMacAddr(tBTADDR Addr)
{
     6d0:	2300      	movs	r3, #0
	for (uint8_t i=0; i< BT_ADDR_SIZE; i++) {
		HWRITE(mem_le_lap+i, Addr[BT_ADDR_SIZE-1-i]);
     6d2:	4d05      	ldr	r5, [pc, #20]	; (6e8 <BLE_SetMacAddr+0x1c>)
     6d4:	0564      	lsls	r4, r4, #21
     6d6:	18c1      	adds	r1, r0, r3
     6d8:	1aea      	subs	r2, r5, r3
     6da:	7949      	ldrb	r1, [r1, #5]
     6dc:	4322      	orrs	r2, r4
     6de:	3b01      	subs	r3, #1
     6e0:	7011      	strb	r1, [r2, #0]
}


void BLE_SetMacAddr(tBTADDR Addr)
{
	for (uint8_t i=0; i< BT_ADDR_SIZE; i++) {
     6e2:	1d9a      	adds	r2, r3, #6
     6e4:	d1f7      	bne.n	6d6 <BLE_SetMacAddr+0xa>
		HWRITE(mem_le_lap+i, Addr[BT_ADDR_SIZE-1-i]);
	}
}
     6e6:	bd30      	pop	{r4, r5, pc}
     6e8:	0000450c 	.word	0x0000450c

000006ec <BLE_SetAdvType>:

void BLE_SetAdvType(enum advType Type)
{
	HWRITE(mem_le_adv_type, Type);
     6ec:	4b01      	ldr	r3, [pc, #4]	; (6f4 <BLE_SetAdvType+0x8>)
     6ee:	7018      	strb	r0, [r3, #0]
}
     6f0:	4770      	bx	lr
     6f2:	46c0      	nop			; (mov r8, r8)
     6f4:	100044ee 	.word	0x100044ee

000006f8 <BLE_SetScanRspType>:

void BLE_SetScanRspType(enum scanType Type)
{
	HWRITE(mem_le_scan_type, Type);
     6f8:	4b01      	ldr	r3, [pc, #4]	; (700 <BLE_SetScanRspType+0x8>)
     6fa:	7018      	strb	r0, [r3, #0]
}
     6fc:	4770      	bx	lr
     6fe:	46c0      	nop			; (mov r8, r8)
     700:	10004509 	.word	0x10004509

00000704 <BLE_SetAdvInterval>:

void BLE_SetAdvInterval(uint16_t Intv)
{
     704:	b510      	push	{r4, lr}
     706:	0004      	movs	r4, r0
#define OS_EXIT_CRITICAL() __enable_irq() 


static inline void HW_REG_16BIT(uint32_t reg, uint16_t word)
{
    HW_REG_8BIT(reg, word & 0x00FF);
     708:	4b04      	ldr	r3, [pc, #16]	; (71c <BLE_SetAdvInterval+0x18>)
     70a:	b2c2      	uxtb	r2, r0
     70c:	701a      	strb	r2, [r3, #0]
    hw_delay();
     70e:	f7ff ffb5 	bl	67c <hw_delay>
    HW_REG_8BIT(reg + 1,(word >> 8));
     712:	4b03      	ldr	r3, [pc, #12]	; (720 <BLE_SetAdvInterval+0x1c>)
     714:	0a24      	lsrs	r4, r4, #8
     716:	701c      	strb	r4, [r3, #0]
	HW_REG_16BIT(reg_map(mem_le_adv_interval_max), Intv);
}
     718:	bd10      	pop	{r4, pc}
     71a:	46c0      	nop			; (mov r8, r8)
     71c:	100044ec 	.word	0x100044ec
     720:	100044ed 	.word	0x100044ed

00000724 <BLE_SetScanInterval>:

void BLE_SetScanInterval(uint16_t Intv)
{
     724:	b510      	push	{r4, lr}
     726:	0004      	movs	r4, r0
#define OS_EXIT_CRITICAL() __enable_irq() 


static inline void HW_REG_16BIT(uint32_t reg, uint16_t word)
{
    HW_REG_8BIT(reg, word & 0x00FF);
     728:	4b04      	ldr	r3, [pc, #16]	; (73c <BLE_SetScanInterval+0x18>)
     72a:	b2c2      	uxtb	r2, r0
     72c:	701a      	strb	r2, [r3, #0]
    hw_delay();
     72e:	f7ff ffa5 	bl	67c <hw_delay>
    HW_REG_8BIT(reg + 1,(word >> 8));
     732:	4b03      	ldr	r3, [pc, #12]	; (740 <BLE_SetScanInterval+0x1c>)
     734:	0a24      	lsrs	r4, r4, #8
     736:	701c      	strb	r4, [r3, #0]
	HW_REG_16BIT(reg_map(mem_le_scan_interval), Intv);
}
     738:	bd10      	pop	{r4, pc}
     73a:	46c0      	nop			; (mov r8, r8)
     73c:	100043ac 	.word	0x100043ac
     740:	100043ad 	.word	0x100043ad

00000744 <BLE_SetScanParameter>:
void BLE_SetScanParameter(uint16_t Intv, uint16_t uIntWindow)
{
     744:	b570      	push	{r4, r5, r6, lr}
     746:	0005      	movs	r5, r0
     748:	000c      	movs	r4, r1
#define OS_EXIT_CRITICAL() __enable_irq() 


static inline void HW_REG_16BIT(uint32_t reg, uint16_t word)
{
    HW_REG_8BIT(reg, word & 0x00FF);
     74a:	4b08      	ldr	r3, [pc, #32]	; (76c <BLE_SetScanParameter+0x28>)
     74c:	b2c2      	uxtb	r2, r0
     74e:	701a      	strb	r2, [r3, #0]
    hw_delay();
     750:	f7ff ff94 	bl	67c <hw_delay>
    HW_REG_8BIT(reg + 1,(word >> 8));
     754:	4b06      	ldr	r3, [pc, #24]	; (770 <BLE_SetScanParameter+0x2c>)
     756:	0a2d      	lsrs	r5, r5, #8
     758:	701d      	strb	r5, [r3, #0]
#define OS_EXIT_CRITICAL() __enable_irq() 


static inline void HW_REG_16BIT(uint32_t reg, uint16_t word)
{
    HW_REG_8BIT(reg, word & 0x00FF);
     75a:	4b06      	ldr	r3, [pc, #24]	; (774 <BLE_SetScanParameter+0x30>)
     75c:	b2e2      	uxtb	r2, r4
     75e:	701a      	strb	r2, [r3, #0]
    hw_delay();
     760:	f7ff ff8c 	bl	67c <hw_delay>
    HW_REG_8BIT(reg + 1,(word >> 8));
     764:	4b04      	ldr	r3, [pc, #16]	; (778 <BLE_SetScanParameter+0x34>)
     766:	0a24      	lsrs	r4, r4, #8
     768:	701c      	strb	r4, [r3, #0]
	HW_REG_16BIT(reg_map(mem_le_scan_interval), Intv);
	
	HW_REG_16BIT(reg_map(mem_le_scan_window), uIntWindow);
}
     76a:	bd70      	pop	{r4, r5, r6, pc}
     76c:	100043ac 	.word	0x100043ac
     770:	100043ad 	.word	0x100043ad
     774:	100043ae 	.word	0x100043ae
     778:	100043af 	.word	0x100043af

0000077c <hw_delay>:

#define BW(addr)			(int)*(addr) << 24 | (int)*(addr + 1) << 16 | (int)*(addr + 2) << 8 | *(addr + 3)

static inline void hw_delay() 
{
	__asm__ __volatile__("nop");
     77c:	46c0      	nop			; (mov r8, r8)
	__asm__ __volatile__("nop");
     77e:	46c0      	nop			; (mov r8, r8)
	__asm__ __volatile__("nop");
     780:	46c0      	nop			; (mov r8, r8)
	__asm__ __volatile__("nop");
     782:	46c0      	nop			; (mov r8, r8)
	__asm__ __volatile__("nop");
     784:	46c0      	nop			; (mov r8, r8)
}
     786:	4770      	bx	lr

00000788 <HW_REG_16BIT>:
#define OS_ENTER_CRITICAL() __disable_irq() 
#define OS_EXIT_CRITICAL() __enable_irq() 


static inline void HW_REG_16BIT(uint32_t reg, uint16_t word)
{
     788:	b570      	push	{r4, r5, r6, lr}
     78a:	000c      	movs	r4, r1
     78c:	0005      	movs	r5, r0
    HW_REG_8BIT(reg, word & 0x00FF);
     78e:	b2cb      	uxtb	r3, r1
     790:	7003      	strb	r3, [r0, #0]
    hw_delay();
    HW_REG_8BIT(reg + 1,(word >> 8));
     792:	0a24      	lsrs	r4, r4, #8


static inline void HW_REG_16BIT(uint32_t reg, uint16_t word)
{
    HW_REG_8BIT(reg, word & 0x00FF);
    hw_delay();
     794:	f7ff fff2 	bl	77c <hw_delay>
    HW_REG_8BIT(reg + 1,(word >> 8));
     798:	706c      	strb	r4, [r5, #1]
}
     79a:	bd70      	pop	{r4, r5, r6, pc}

0000079c <HR_REG_16BIT>:
static inline uint16_t HR_REG_16BIT(uint32_t reg)
{
     79c:	b570      	push	{r4, r5, r6, lr}
     79e:	0005      	movs	r5, r0
	uint16_t return_data = 0;
	uint16_t H_data = 0;
	hw_delay();
     7a0:	f7ff ffec 	bl	77c <hw_delay>
	return_data = HR_REG_8BIT(reg);
     7a4:	782c      	ldrb	r4, [r5, #0]
	hw_delay();
     7a6:	f7ff ffe9 	bl	77c <hw_delay>
	H_data = HR_REG_8BIT(reg + 1);
     7aa:	7868      	ldrb	r0, [r5, #1]
static inline uint16_t HR_REG_16BIT(uint32_t reg)
{
	uint16_t return_data = 0;
	uint16_t H_data = 0;
	hw_delay();
	return_data = HR_REG_8BIT(reg);
     7ac:	b2e4      	uxtb	r4, r4
	hw_delay();
	H_data = HR_REG_8BIT(reg + 1);
	return_data = (return_data | ((H_data << 8) & 0xFF00));
	return return_data;
     7ae:	0200      	lsls	r0, r0, #8
     7b0:	4320      	orrs	r0, r4
}
     7b2:	bd70      	pop	{r4, r5, r6, pc}

000007b4 <usartInitByBackup>:

UartxRegControlBackup regBeck[UART_PER_NUM];


static void usartInitByBackup(USART_TypeDef USARTx)
{
     7b4:	b5f8      	push	{r3, r4, r5, r6, r7, lr}
	uint16_t UartxCtrlAdr = 0;
	UartxRegDef *UartAdr = NULL;
	/*set uart control*/
	if(USARTx == UARTA) {
     7b6:	2800      	cmp	r0, #0
     7b8:	d004      	beq.n	7c4 <usartInitByBackup+0x10>
		UartxCtrlAdr = CORE_UART_CTRL;
		UartAdr = (UartxRegDef *)(reg_map(CORE_UART_BAUD));
	}else if(USARTx == UARTB) {
     7ba:	2801      	cmp	r0, #1
     7bc:	d105      	bne.n	7ca <usartInitByBackup+0x16>
		UartxCtrlAdr = CORE_UARTB_CTRL;
		UartAdr = (UartxRegDef *)(reg_map(CORE_UARTB_BAUD));
     7be:	4e1b      	ldr	r6, [pc, #108]	; (82c <usartInitByBackup+0x78>)
	/*set uart control*/
	if(USARTx == UARTA) {
		UartxCtrlAdr = CORE_UART_CTRL;
		UartAdr = (UartxRegDef *)(reg_map(CORE_UART_BAUD));
	}else if(USARTx == UARTB) {
		UartxCtrlAdr = CORE_UARTB_CTRL;
     7c0:	4b1b      	ldr	r3, [pc, #108]	; (830 <usartInitByBackup+0x7c>)
     7c2:	e004      	b.n	7ce <usartInitByBackup+0x1a>
	uint16_t UartxCtrlAdr = 0;
	UartxRegDef *UartAdr = NULL;
	/*set uart control*/
	if(USARTx == UARTA) {
		UartxCtrlAdr = CORE_UART_CTRL;
		UartAdr = (UartxRegDef *)(reg_map(CORE_UART_BAUD));
     7c4:	4e1b      	ldr	r6, [pc, #108]	; (834 <usartInitByBackup+0x80>)
{
	uint16_t UartxCtrlAdr = 0;
	UartxRegDef *UartAdr = NULL;
	/*set uart control*/
	if(USARTx == UARTA) {
		UartxCtrlAdr = CORE_UART_CTRL;
     7c6:	4b1c      	ldr	r3, [pc, #112]	; (838 <usartInitByBackup+0x84>)
     7c8:	e001      	b.n	7ce <usartInitByBackup+0x1a>


static void usartInitByBackup(USART_TypeDef USARTx)
{
	uint16_t UartxCtrlAdr = 0;
	UartxRegDef *UartAdr = NULL;
     7ca:	2600      	movs	r6, #0
UartxRegControlBackup regBeck[UART_PER_NUM];


static void usartInitByBackup(USART_TypeDef USARTx)
{
	uint16_t UartxCtrlAdr = 0;
     7cc:	0033      	movs	r3, r6
	}else if(USARTx == UARTB) {
		UartxCtrlAdr = CORE_UARTB_CTRL;
		UartAdr = (UartxRegDef *)(reg_map(CORE_UARTB_BAUD));
	}

	HWCOR(UartxCtrlAdr, 1);
     7ce:	2580      	movs	r5, #128	; 0x80
     7d0:	2201      	movs	r2, #1
     7d2:	056d      	lsls	r5, r5, #21
     7d4:	431d      	orrs	r5, r3
     7d6:	782b      	ldrb	r3, [r5, #0]

	/*init all reg by backup*/
	HW_REG_16BIT(((uint32_t)(&UartAdr->Baudrate)), regBeck[USARTx].rbu.Baudrate);
     7d8:	4f18      	ldr	r7, [pc, #96]	; (83c <usartInitByBackup+0x88>)
	}else if(USARTx == UARTB) {
		UartxCtrlAdr = CORE_UARTB_CTRL;
		UartAdr = (UartxRegDef *)(reg_map(CORE_UARTB_BAUD));
	}

	HWCOR(UartxCtrlAdr, 1);
     7da:	4393      	bics	r3, r2
     7dc:	702b      	strb	r3, [r5, #0]

	/*init all reg by backup*/
	HW_REG_16BIT(((uint32_t)(&UartAdr->Baudrate)), regBeck[USARTx].rbu.Baudrate);
     7de:	0104      	lsls	r4, r0, #4
     7e0:	5be1      	ldrh	r1, [r4, r7]
     7e2:	0030      	movs	r0, r6
     7e4:	f7ff ffd0 	bl	788 <HW_REG_16BIT>
	HW_REG_16BIT(((uint32_t)(&UartAdr->TxSadr)), (uint32_t)regBeck[USARTx].rbu.TxSadr);
     7e8:	0030      	movs	r0, r6
     7ea:	193c      	adds	r4, r7, r4
     7ec:	8921      	ldrh	r1, [r4, #8]
     7ee:	3008      	adds	r0, #8
     7f0:	f7ff ffca 	bl	788 <HW_REG_16BIT>
	HW_REG_16BIT(((uint32_t)(&UartAdr->TxEadr)), (uint32_t)regBeck[USARTx].rbu.TxEadr);
     7f4:	0030      	movs	r0, r6
     7f6:	8961      	ldrh	r1, [r4, #10]
     7f8:	300a      	adds	r0, #10
     7fa:	f7ff ffc5 	bl	788 <HW_REG_16BIT>
	HW_REG_16BIT(((uint32_t)(&UartAdr->TxWptr)), (uint32_t)regBeck[USARTx].rbu.TxSadr);
     7fe:	0030      	movs	r0, r6
     800:	8921      	ldrh	r1, [r4, #8]
     802:	300c      	adds	r0, #12
     804:	f7ff ffc0 	bl	788 <HW_REG_16BIT>
	HW_REG_16BIT(((uint32_t)(&UartAdr->RxSadr)), (uint32_t)regBeck[USARTx].rbu.RxSadr);
     808:	1cb0      	adds	r0, r6, #2
     80a:	8861      	ldrh	r1, [r4, #2]
     80c:	f7ff ffbc 	bl	788 <HW_REG_16BIT>
	HW_REG_16BIT(((uint32_t)(&UartAdr->RxEadr)), (uint32_t)regBeck[USARTx].rbu.RxEadr);
     810:	1d30      	adds	r0, r6, #4
     812:	88a1      	ldrh	r1, [r4, #4]
     814:	f7ff ffb8 	bl	788 <HW_REG_16BIT>
	HW_REG_16BIT(((uint32_t)(&UartAdr->RxRptr)), (uint32_t)regBeck[USARTx].rbu.RxSadr);
     818:	1db0      	adds	r0, r6, #6
     81a:	8861      	ldrh	r1, [r4, #2]
     81c:	f7ff ffb4 	bl	788 <HW_REG_16BIT>
	HWOR(UartxCtrlAdr, regBeck[USARTx].cbu);
     820:	782a      	ldrb	r2, [r5, #0]
     822:	7ba3      	ldrb	r3, [r4, #14]
     824:	4313      	orrs	r3, r2
     826:	702b      	strb	r3, [r5, #0]
}
     828:	bdf8      	pop	{r3, r4, r5, r6, r7, pc}
     82a:	46c0      	nop			; (mov r8, r8)
     82c:	10008072 	.word	0x10008072
     830:	00008071 	.word	0x00008071
     834:	10008052 	.word	0x10008052
     838:	00008060 	.word	0x00008060
     83c:	10011024 	.word	0x10011024

00000840 <USART_Init>:
	return SUCCESS;
}
#endif

void USART_Init(USART_TypeDef USARTx, USART_InitTypeDef* USART_InitStruct)
{	
     840:	b5f7      	push	{r0, r1, r2, r4, r5, r6, r7, lr}
     842:	0006      	movs	r6, r0
     844:	1e0c      	subs	r4, r1, #0
#define BAUD_USE_SETTING (1<<7)
	void *Ptr = NULL;
	uint8_t CtrValue = 0;

	/*check parameter*/
	ASSERT(USART_InitStruct != NULL);
     846:	d100      	bne.n	84a <USART_Init+0xa>
     848:	e7fe      	b.n	848 <USART_Init+0x8>
	ASSERT(IS_USARTAB(USARTx));
     84a:	2e01      	cmp	r6, #1
     84c:	d8fd      	bhi.n	84a <USART_Init+0xa>
	ASSERT(IS_UARTE_BAUDRATE(USART_InitStruct->USART_BaudRate));
     84e:	6823      	ldr	r3, [r4, #0]
     850:	4a33      	ldr	r2, [pc, #204]	; (920 <USART_Init+0xe0>)
     852:	3b01      	subs	r3, #1
     854:	4293      	cmp	r3, r2
     856:	d8fd      	bhi.n	854 <USART_Init+0x14>
	ASSERT(IS_USART_WORD_LENGTH(USART_InitStruct->USART_WordLength));
     858:	2204      	movs	r2, #4
     85a:	88a3      	ldrh	r3, [r4, #4]
     85c:	4393      	bics	r3, r2
     85e:	2b00      	cmp	r3, #0
     860:	d1fd      	bne.n	85e <USART_Init+0x1e>
	ASSERT(IS_USART_STOPBITS(USART_InitStruct->USART_StopBits));
     862:	2208      	movs	r2, #8
     864:	88e3      	ldrh	r3, [r4, #6]
     866:	4393      	bics	r3, r2
     868:	2b00      	cmp	r3, #0
     86a:	d1fd      	bne.n	868 <USART_Init+0x28>
	ASSERT(IS_USART_PARITY(USART_InitStruct->USART_Parity));
     86c:	2202      	movs	r2, #2
     86e:	8923      	ldrh	r3, [r4, #8]
     870:	4393      	bics	r3, r2
     872:	2b00      	cmp	r3, #0
     874:	d1fd      	bne.n	872 <USART_Init+0x32>
	ASSERT(IS_USART_MODE(USART_InitStruct->USART_Mode));
     876:	2240      	movs	r2, #64	; 0x40
     878:	8963      	ldrh	r3, [r4, #10]
     87a:	4393      	bics	r3, r2
     87c:	2b00      	cmp	r3, #0
     87e:	d1fd      	bne.n	87c <USART_Init+0x3c>
	ASSERT(IS_USART_HARDWARE_FLOW_CONTROL(USART_InitStruct->USART_HardwareFlowControl));
     880:	2210      	movs	r2, #16
     882:	89a3      	ldrh	r3, [r4, #12]
     884:	4393      	bics	r3, r2
     886:	2b00      	cmp	r3, #0
     888:	d1fd      	bne.n	886 <USART_Init+0x46>
	ASSERT(IS_USART_TXLen(USART_InitStruct->USART_TXLen));
     88a:	89e3      	ldrh	r3, [r4, #14]
     88c:	2b00      	cmp	r3, #0
     88e:	d100      	bne.n	892 <USART_Init+0x52>
     890:	e7fe      	b.n	890 <USART_Init+0x50>
	ASSERT(IS_USART_RXLen(USART_InitStruct->USART_RXLen));
     892:	8a23      	ldrh	r3, [r4, #16]
     894:	2b00      	cmp	r3, #0
     896:	d100      	bne.n	89a <USART_Init+0x5a>
     898:	e7fe      	b.n	898 <USART_Init+0x58>

	HWRITE(CORE_UART_CLKSEL, 1);
     89a:	2101      	movs	r1, #1
	HWCOR(CORE_CLKOFF + 1, 0x80);
     89c:	227f      	movs	r2, #127	; 0x7f
	ASSERT(IS_USART_MODE(USART_InitStruct->USART_Mode));
	ASSERT(IS_USART_HARDWARE_FLOW_CONTROL(USART_InitStruct->USART_HardwareFlowControl));
	ASSERT(IS_USART_TXLen(USART_InitStruct->USART_TXLen));
	ASSERT(IS_USART_RXLen(USART_InitStruct->USART_RXLen));

	HWRITE(CORE_UART_CLKSEL, 1);
     89e:	4b21      	ldr	r3, [pc, #132]	; (924 <USART_Init+0xe4>)
	HWCOR(CORE_CLKOFF + 1, 0x80);
     8a0:	4821      	ldr	r0, [pc, #132]	; (928 <USART_Init+0xe8>)
	ASSERT(IS_USART_MODE(USART_InitStruct->USART_Mode));
	ASSERT(IS_USART_HARDWARE_FLOW_CONTROL(USART_InitStruct->USART_HardwareFlowControl));
	ASSERT(IS_USART_TXLen(USART_InitStruct->USART_TXLen));
	ASSERT(IS_USART_RXLen(USART_InitStruct->USART_RXLen));

	HWRITE(CORE_UART_CLKSEL, 1);
     8a2:	7019      	strb	r1, [r3, #0]
	HWCOR(CORE_CLKOFF + 1, 0x80);
     8a4:	7805      	ldrb	r5, [r0, #0]
     8a6:	402a      	ands	r2, r5
     8a8:	7002      	strb	r2, [r0, #0]
	if(USART_InitStruct->USART_BaudRate == BAUD9600){
     8aa:	6820      	ldr	r0, [r4, #0]
     8ac:	4a1f      	ldr	r2, [pc, #124]	; (92c <USART_Init+0xec>)
     8ae:	4290      	cmp	r0, r2
     8b0:	d102      	bne.n	8b8 <USART_Init+0x78>
		HWCOR(CORE_UART_CLKSEL, 0x01);
     8b2:	781a      	ldrb	r2, [r3, #0]
     8b4:	438a      	bics	r2, r1
     8b6:	701a      	strb	r2, [r3, #0]
	}

	/*init baud backup*/
	regBeck[USARTx].rbu.Baudrate = USART_InitStruct->USART_BaudRate;
     8b8:	4f1d      	ldr	r7, [pc, #116]	; (930 <USART_Init+0xf0>)
     8ba:	8823      	ldrh	r3, [r4, #0]
     8bc:	0135      	lsls	r5, r6, #4
     8be:	53eb      	strh	r3, [r5, r7]
	
	/*init tx ring buffer backup*/
	Ptr = malloc(USART_InitStruct->USART_TXLen);
     8c0:	89e3      	ldrh	r3, [r4, #14]
	regBeck[USARTx].rbu.TxSadr = (uint32_t)Ptr;
     8c2:	197d      	adds	r5, r7, r5

	/*init baud backup*/
	regBeck[USARTx].rbu.Baudrate = USART_InitStruct->USART_BaudRate;
	
	/*init tx ring buffer backup*/
	Ptr = malloc(USART_InitStruct->USART_TXLen);
     8c4:	0018      	movs	r0, r3
     8c6:	9301      	str	r3, [sp, #4]
     8c8:	f000 fab4 	bl	e34 <malloc>
	regBeck[USARTx].rbu.TxSadr = (uint32_t)Ptr;
     8cc:	b283      	uxth	r3, r0
     8ce:	812b      	strh	r3, [r5, #8]

	ASSERT(Ptr != NULL);	
     8d0:	2800      	cmp	r0, #0
     8d2:	d100      	bne.n	8d6 <USART_Init+0x96>
     8d4:	e7fe      	b.n	8d4 <USART_Init+0x94>
	regBeck[USARTx].rbu.TxEadr = ((uint32_t)Ptr) + USART_InitStruct->USART_TXLen;
     8d6:	9a01      	ldr	r2, [sp, #4]
     8d8:	18d3      	adds	r3, r2, r3
     8da:	816b      	strh	r3, [r5, #10]
	Ptr = NULL;
	
	/*init rx ring buffer backup*/
	Ptr = malloc(USART_InitStruct->USART_RXLen);
     8dc:	8a27      	ldrh	r7, [r4, #16]
     8de:	0038      	movs	r0, r7
     8e0:	f000 faa8 	bl	e34 <malloc>
	regBeck[USARTx].rbu.RxSadr = (uint32_t)Ptr;
     8e4:	b283      	uxth	r3, r0
     8e6:	806b      	strh	r3, [r5, #2]
	ASSERT(Ptr != NULL);	
     8e8:	2800      	cmp	r0, #0
     8ea:	d100      	bne.n	8ee <USART_Init+0xae>
     8ec:	e7fe      	b.n	8ec <USART_Init+0xac>
	regBeck[USARTx].rbu.RxEadr = ((uint32_t)Ptr) + USART_InitStruct->USART_RXLen;
     8ee:	18ff      	adds	r7, r7, r3
     8f0:	80af      	strh	r7, [r5, #4]

	CtrValue =  USART_InitStruct->USART_Mode | USART_InitStruct->USART_HardwareFlowControl |\
			  USART_InitStruct->USART_Parity |USART_InitStruct->USART_StopBits| \
			  USART_InitStruct->USART_WordLength|BAUD_USE_SETTING|UARTC_BIT_ENABLE;
	
	regBeck[USARTx].cbu = CtrValue;
     8f2:	8962      	ldrh	r2, [r4, #10]
     8f4:	89a3      	ldrh	r3, [r4, #12]
     8f6:	4313      	orrs	r3, r2
     8f8:	227f      	movs	r2, #127	; 0x7f
     8fa:	4252      	negs	r2, r2
     8fc:	4313      	orrs	r3, r2
     8fe:	8922      	ldrh	r2, [r4, #8]
     900:	4313      	orrs	r3, r2
     902:	88e2      	ldrh	r2, [r4, #6]
     904:	4313      	orrs	r3, r2
     906:	88a2      	ldrh	r2, [r4, #4]
     908:	4313      	orrs	r3, r2
     90a:	73ab      	strb	r3, [r5, #14]

	/*init rx ring buffer regs*/
	if(USARTx == UARTA) {
     90c:	2e00      	cmp	r6, #0
     90e:	d103      	bne.n	918 <USART_Init+0xd8>
		usartInitByBackup(UARTA);
     910:	0030      	movs	r0, r6
     912:	f7ff ff4f 	bl	7b4 <usartInitByBackup>
     916:	e002      	b.n	91e <USART_Init+0xde>
		//DEV_Register(Device_Id_UartA, usartAReinit, NULL);
	}
	else {
		usartInitByBackup(UARTB);
     918:	2001      	movs	r0, #1
     91a:	f7ff ff4b 	bl	7b4 <usartInitByBackup>
		//DEV_Register(Device_Id_UartB, usartBReinit, NULL);
	}

}
     91e:	bdf7      	pop	{r0, r1, r2, r4, r5, r6, r7, pc}
     920:	00008ffe 	.word	0x00008ffe
     924:	10008043 	.word	0x10008043
     928:	10008051 	.word	0x10008051
     92c:	000089c4 	.word	0x000089c4
     930:	10011024 	.word	0x10011024

00000934 <USART_DeInit>:


void USART_DeInit(USART_TypeDef USARTx)
{
     934:	b510      	push	{r4, lr}
	UartxRegDef *UartAdr = NULL;
	ASSERT(IS_USARTAB(USARTx));
     936:	2801      	cmp	r0, #1
     938:	d8fd      	bhi.n	936 <USART_DeInit+0x2>
     93a:	2201      	movs	r2, #1
	
	if(USARTx == UARTA) {
     93c:	2800      	cmp	r0, #0
     93e:	d108      	bne.n	952 <USART_DeInit+0x1e>
		HWOR(reg_map(CORE_UART_CTRL), (1<<0));
     940:	4b0b      	ldr	r3, [pc, #44]	; (970 <USART_DeInit+0x3c>)
		HWOR(reg_map(CORE_UART_CTRL), (0<<0));
		UartAdr = (UartxRegDef *)(reg_map(CORE_UART_BAUD));
     942:	4c0c      	ldr	r4, [pc, #48]	; (974 <USART_DeInit+0x40>)
{
	UartxRegDef *UartAdr = NULL;
	ASSERT(IS_USARTAB(USARTx));
	
	if(USARTx == UARTA) {
		HWOR(reg_map(CORE_UART_CTRL), (1<<0));
     944:	7819      	ldrb	r1, [r3, #0]
     946:	430a      	orrs	r2, r1
     948:	701a      	strb	r2, [r3, #0]
		HWOR(reg_map(CORE_UART_CTRL), (0<<0));
     94a:	781a      	ldrb	r2, [r3, #0]
     94c:	b2d2      	uxtb	r2, r2
     94e:	701a      	strb	r2, [r3, #0]
     950:	e007      	b.n	962 <USART_DeInit+0x2e>
		UartAdr = (UartxRegDef *)(reg_map(CORE_UART_BAUD));
	}else {

		HWOR(reg_map(CORE_UARTB_CTRL), (1<<0));
     952:	4b09      	ldr	r3, [pc, #36]	; (978 <USART_DeInit+0x44>)
		HWOR(reg_map(CORE_UARTB_CTRL), (0<<0));
		UartAdr = (UartxRegDef *)(reg_map(CORE_UARTB_BAUD));
     954:	4c09      	ldr	r4, [pc, #36]	; (97c <USART_DeInit+0x48>)
		HWOR(reg_map(CORE_UART_CTRL), (1<<0));
		HWOR(reg_map(CORE_UART_CTRL), (0<<0));
		UartAdr = (UartxRegDef *)(reg_map(CORE_UART_BAUD));
	}else {

		HWOR(reg_map(CORE_UARTB_CTRL), (1<<0));
     956:	7819      	ldrb	r1, [r3, #0]
     958:	430a      	orrs	r2, r1
     95a:	701a      	strb	r2, [r3, #0]
		HWOR(reg_map(CORE_UARTB_CTRL), (0<<0));
     95c:	781a      	ldrb	r2, [r3, #0]
     95e:	b2d2      	uxtb	r2, r2
     960:	701a      	strb	r2, [r3, #0]
		UartAdr = (UartxRegDef *)(reg_map(CORE_UARTB_BAUD));
	}
	free((void *)((uint32_t)(UartAdr->TxSadr)));
     962:	8920      	ldrh	r0, [r4, #8]
     964:	f000 fa70 	bl	e48 <free>
	free((void *)((uint32_t)(UartAdr->RxSadr)));
     968:	8860      	ldrh	r0, [r4, #2]
     96a:	f000 fa6d 	bl	e48 <free>
}
     96e:	bd10      	pop	{r4, pc}
     970:	10008060 	.word	0x10008060
     974:	10008052 	.word	0x10008052
     978:	10008071 	.word	0x10008071
     97c:	10008072 	.word	0x10008072

00000980 <USART_SendData>:



void USART_SendData(USART_TypeDef USARTx, uint16_t Data)
{
     980:	b5f7      	push	{r0, r1, r2, r4, r5, r6, r7, lr}
     982:	0006      	movs	r6, r0
     984:	9101      	str	r1, [sp, #4]
	UartxRegDef * UartAdr = NULL;
	uint16_t  WPtr = 0; 
	ASSERT(IS_USARTAB(USARTx));
     986:	2e01      	cmp	r6, #1
     988:	d8fd      	bhi.n	986 <USART_SendData+0x6>
	
	if(USARTx == UARTA) {
     98a:	2e00      	cmp	r6, #0
     98c:	d001      	beq.n	992 <USART_SendData+0x12>
		UartAdr = (UartxRegDef *)(reg_map(CORE_UART_BAUD));	
	}else {
		UartAdr = (UartxRegDef *)(reg_map(CORE_UARTB_BAUD));
     98e:	4c15      	ldr	r4, [pc, #84]	; (9e4 <USART_SendData+0x64>)
     990:	e000      	b.n	994 <USART_SendData+0x14>
	UartxRegDef * UartAdr = NULL;
	uint16_t  WPtr = 0; 
	ASSERT(IS_USARTAB(USARTx));
	
	if(USARTx == UARTA) {
		UartAdr = (UartxRegDef *)(reg_map(CORE_UART_BAUD));	
     992:	4c15      	ldr	r4, [pc, #84]	; (9e8 <USART_SendData+0x68>)
	}else {
		UartAdr = (UartxRegDef *)(reg_map(CORE_UARTB_BAUD));
	}
	ASSERT((&UartAdr->TxSadr  != NULL));
	
	WPtr = HR_REG_16BIT((uint32_t)(&UartAdr->TxWptr));
     994:	0027      	movs	r7, r4
     996:	370c      	adds	r7, #12
     998:	0038      	movs	r0, r7
     99a:	f7ff feff 	bl	79c <HR_REG_16BIT>
     99e:	0005      	movs	r5, r0
	if(USARTx == UARTA) {
     9a0:	2e00      	cmp	r6, #0
     9a2:	d104      	bne.n	9ae <USART_SendData+0x2e>
		while(HREAD(CORE_UART_TX_ITEMS) > 0);
     9a4:	4a11      	ldr	r2, [pc, #68]	; (9ec <USART_SendData+0x6c>)
     9a6:	7813      	ldrb	r3, [r2, #0]
     9a8:	2b00      	cmp	r3, #0
     9aa:	d1fc      	bne.n	9a6 <USART_SendData+0x26>
     9ac:	e003      	b.n	9b6 <USART_SendData+0x36>
	}else {
		while(HREAD(CORE_UARTB_TX_ITEMS) > 0);
     9ae:	4a10      	ldr	r2, [pc, #64]	; (9f0 <USART_SendData+0x70>)
     9b0:	7813      	ldrb	r3, [r2, #0]
     9b2:	2b00      	cmp	r3, #0
     9b4:	d1fc      	bne.n	9b0 <USART_SendData+0x30>
	}	
	HW_REG_8BIT(WPtr|M0_MEMORY_BASE,Data);	
     9b6:	466a      	mov	r2, sp
	RB_UPDATE_PTR(WPtr, HR_REG_16BIT((uint32_t)(&UartAdr->TxSadr)),  HR_REG_16BIT((uint32_t)(&UartAdr->TxEadr)));	
     9b8:	0020      	movs	r0, r4
	if(USARTx == UARTA) {
		while(HREAD(CORE_UART_TX_ITEMS) > 0);
	}else {
		while(HREAD(CORE_UARTB_TX_ITEMS) > 0);
	}	
	HW_REG_8BIT(WPtr|M0_MEMORY_BASE,Data);	
     9ba:	4b0e      	ldr	r3, [pc, #56]	; (9f4 <USART_SendData+0x74>)
     9bc:	7912      	ldrb	r2, [r2, #4]
     9be:	432b      	orrs	r3, r5
     9c0:	701a      	strb	r2, [r3, #0]
	RB_UPDATE_PTR(WPtr, HR_REG_16BIT((uint32_t)(&UartAdr->TxSadr)),  HR_REG_16BIT((uint32_t)(&UartAdr->TxEadr)));	
     9c2:	300a      	adds	r0, #10
     9c4:	f7ff feea 	bl	79c <HR_REG_16BIT>
     9c8:	1c69      	adds	r1, r5, #1
     9ca:	b289      	uxth	r1, r1
     9cc:	4285      	cmp	r5, r0
     9ce:	d104      	bne.n	9da <USART_SendData+0x5a>
	if(USARTx == UARTA) {
		UartAdr = (UartxRegDef *)(reg_map(CORE_UART_BAUD));	
	}else {
		UartAdr = (UartxRegDef *)(reg_map(CORE_UARTB_BAUD));
	}
	ASSERT((&UartAdr->TxSadr  != NULL));
     9d0:	0020      	movs	r0, r4
     9d2:	3008      	adds	r0, #8
		while(HREAD(CORE_UART_TX_ITEMS) > 0);
	}else {
		while(HREAD(CORE_UARTB_TX_ITEMS) > 0);
	}	
	HW_REG_8BIT(WPtr|M0_MEMORY_BASE,Data);	
	RB_UPDATE_PTR(WPtr, HR_REG_16BIT((uint32_t)(&UartAdr->TxSadr)),  HR_REG_16BIT((uint32_t)(&UartAdr->TxEadr)));	
     9d4:	f7ff fee2 	bl	79c <HR_REG_16BIT>
     9d8:	0001      	movs	r1, r0
	HW_REG_16BIT((uint32_t)(&UartAdr->TxWptr),  WPtr);                                                                                                		
     9da:	0038      	movs	r0, r7
     9dc:	f7ff fed4 	bl	788 <HW_REG_16BIT>
}
     9e0:	bdf7      	pop	{r0, r1, r2, r4, r5, r6, r7, pc}
     9e2:	46c0      	nop			; (mov r8, r8)
     9e4:	10008072 	.word	0x10008072
     9e8:	10008052 	.word	0x10008052
     9ec:	1000830e 	.word	0x1000830e
     9f0:	10008356 	.word	0x10008356
     9f4:	10010000 	.word	0x10010000

000009f8 <USART_ReceiveData>:



uint16_t USART_ReceiveData(USART_TypeDef USARTx)
{	
     9f8:	b5f8      	push	{r3, r4, r5, r6, r7, lr}
	UartxRegDef *UartAdr = NULL;
	uint16_t  RPtr = 0;
	uint16_t  RdData = 0;
	ASSERT(IS_USARTAB(USARTx)); 
     9fa:	2801      	cmp	r0, #1
     9fc:	d8fd      	bhi.n	9fa <USART_ReceiveData+0x2>

	if(USARTx == UARTA) {
     9fe:	2800      	cmp	r0, #0
     a00:	d001      	beq.n	a06 <USART_ReceiveData+0xe>
		UartAdr = (UartxRegDef *)(reg_map(CORE_UART_BAUD));	
	}else {
		UartAdr = (UartxRegDef *)(reg_map(CORE_UARTB_BAUD));
     a02:	4c0e      	ldr	r4, [pc, #56]	; (a3c <USART_ReceiveData+0x44>)
     a04:	e000      	b.n	a08 <USART_ReceiveData+0x10>
	uint16_t  RPtr = 0;
	uint16_t  RdData = 0;
	ASSERT(IS_USARTAB(USARTx)); 

	if(USARTx == UARTA) {
		UartAdr = (UartxRegDef *)(reg_map(CORE_UART_BAUD));	
     a06:	4c0e      	ldr	r4, [pc, #56]	; (a40 <USART_ReceiveData+0x48>)
	}else {
		UartAdr = (UartxRegDef *)(reg_map(CORE_UARTB_BAUD));
	}
	RPtr = HR_REG_16BIT((uint32_t)(&UartAdr->RxRptr));
     a08:	1da5      	adds	r5, r4, #6
     a0a:	0028      	movs	r0, r5
     a0c:	f7ff fec6 	bl	79c <HR_REG_16BIT>
     a10:	0007      	movs	r7, r0
	RdData = HR_REG_16BIT(RPtr|M0_MEMORY_BASE);
     a12:	480c      	ldr	r0, [pc, #48]	; (a44 <USART_ReceiveData+0x4c>)
     a14:	4338      	orrs	r0, r7
     a16:	f7ff fec1 	bl	79c <HR_REG_16BIT>
     a1a:	0006      	movs	r6, r0
	RB_UPDATE_PTR(RPtr, HR_REG_16BIT((uint32_t)(&UartAdr->RxSadr)), HR_REG_16BIT((uint32_t)(&UartAdr->RxEadr)));
     a1c:	1d20      	adds	r0, r4, #4
     a1e:	f7ff febd 	bl	79c <HR_REG_16BIT>
     a22:	1c79      	adds	r1, r7, #1
     a24:	b289      	uxth	r1, r1
     a26:	4287      	cmp	r7, r0
     a28:	d103      	bne.n	a32 <USART_ReceiveData+0x3a>
     a2a:	1ca0      	adds	r0, r4, #2
     a2c:	f7ff feb6 	bl	79c <HR_REG_16BIT>
     a30:	0001      	movs	r1, r0
	HW_REG_16BIT((uint32_t)(&UartAdr->RxRptr), RPtr);	
     a32:	0028      	movs	r0, r5
     a34:	f7ff fea8 	bl	788 <HW_REG_16BIT>
	return RdData;
}
     a38:	0030      	movs	r0, r6
     a3a:	bdf8      	pop	{r3, r4, r5, r6, r7, pc}
     a3c:	10008072 	.word	0x10008072
     a40:	10008052 	.word	0x10008052
     a44:	10010000 	.word	0x10010000

00000a48 <USART_GetRxCount>:


uint16_t USART_GetRxCount(USART_TypeDef USARTx)
{
     a48:	b510      	push	{r4, lr}
	ASSERT(IS_USARTAB(USARTx));
     a4a:	2801      	cmp	r0, #1
     a4c:	d8fd      	bhi.n	a4a <USART_GetRxCount+0x2>
	if(USARTx == UARTA) {
     a4e:	2800      	cmp	r0, #0
     a50:	d103      	bne.n	a5a <USART_GetRxCount+0x12>
		return HR_REG_16BIT(reg_map(CORE_UART_RX_ITEMS));
     a52:	4804      	ldr	r0, [pc, #16]	; (a64 <USART_GetRxCount+0x1c>)
     a54:	f7ff fea2 	bl	79c <HR_REG_16BIT>
     a58:	e002      	b.n	a60 <USART_GetRxCount+0x18>
	}else {
		return HR_REG_16BIT(reg_map(CORE_UARTB_RX_ITEMS));
     a5a:	4803      	ldr	r0, [pc, #12]	; (a68 <USART_GetRxCount+0x20>)
     a5c:	f7ff fe9e 	bl	79c <HR_REG_16BIT>
	}
}
     a60:	bd10      	pop	{r4, pc}
     a62:	46c0      	nop			; (mov r8, r8)
     a64:	10008312 	.word	0x10008312
     a68:	1000835a 	.word	0x1000835a

00000a6c <USART_ReadDatatoBuff>:


uint16_t USART_ReadDatatoBuff(USART_TypeDef USARTx, uint8_t* RxBuff, uint16_t RxSize)
{
     a6c:	b5f7      	push	{r0, r1, r2, r4, r5, r6, r7, lr}
     a6e:	000d      	movs	r5, r1
     a70:	0016      	movs	r6, r2
	uint16_t RxLen = 0;	
	uint16_t RPtr = 0;
	uint16_t RdataLen = 0;
	uint32_t RxITEMS = 0;
	UartxRegDef *UartAdr = NULL;
	ASSERT(IS_USARTAB(USARTx));
     a72:	2801      	cmp	r0, #1
     a74:	d8fd      	bhi.n	a72 <USART_ReadDatatoBuff+0x6>
	ASSERT(RxBuff != NULL);
     a76:	2d00      	cmp	r5, #0
     a78:	d100      	bne.n	a7c <USART_ReadDatatoBuff+0x10>
     a7a:	e7fe      	b.n	a7a <USART_ReadDatatoBuff+0xe>
	
	if(USARTx == UARTA) {
     a7c:	2800      	cmp	r0, #0
     a7e:	d002      	beq.n	a86 <USART_ReadDatatoBuff+0x1a>
		UartAdr = (UartxRegDef *)(reg_map(CORE_UART_BAUD));
		RxITEMS = reg_map(CORE_UART_RX_ITEMS);
	}else {
		UartAdr = (UartxRegDef *)(reg_map(CORE_UARTB_BAUD));
     a80:	4f1a      	ldr	r7, [pc, #104]	; (aec <USART_ReadDatatoBuff+0x80>)
		RxITEMS = reg_map(CORE_UARTB_RX_ITEMS);
     a82:	481b      	ldr	r0, [pc, #108]	; (af0 <USART_ReadDatatoBuff+0x84>)
     a84:	e001      	b.n	a8a <USART_ReadDatatoBuff+0x1e>
	UartxRegDef *UartAdr = NULL;
	ASSERT(IS_USARTAB(USARTx));
	ASSERT(RxBuff != NULL);
	
	if(USARTx == UARTA) {
		UartAdr = (UartxRegDef *)(reg_map(CORE_UART_BAUD));
     a86:	4f1b      	ldr	r7, [pc, #108]	; (af4 <USART_ReadDatatoBuff+0x88>)
		RxITEMS = reg_map(CORE_UART_RX_ITEMS);
     a88:	481b      	ldr	r0, [pc, #108]	; (af8 <USART_ReadDatatoBuff+0x8c>)
	}else {
		UartAdr = (UartxRegDef *)(reg_map(CORE_UARTB_BAUD));
		RxITEMS = reg_map(CORE_UARTB_RX_ITEMS);
	}
	RxLen = HR_REG_16BIT(reg_map(RxITEMS)); 
     a8a:	f7ff fe87 	bl	79c <HR_REG_16BIT>
	if (RxSize!=0) {
     a8e:	2e00      	cmp	r6, #0
     a90:	d003      	beq.n	a9a <USART_ReadDatatoBuff+0x2e>
		if (RxLen < RxSize) return 0; else RxLen = RxSize;
     a92:	2300      	movs	r3, #0
     a94:	42b0      	cmp	r0, r6
     a96:	d204      	bcs.n	aa2 <USART_ReadDatatoBuff+0x36>
     a98:	e025      	b.n	ae6 <USART_ReadDatatoBuff+0x7a>
     a9a:	0033      	movs	r3, r6
	}
	if (0 == RxLen) {
     a9c:	2800      	cmp	r0, #0
     a9e:	d022      	beq.n	ae6 <USART_ReadDatatoBuff+0x7a>
     aa0:	0006      	movs	r6, r0
        return 0;
	} else {
		RPtr = HR_REG_16BIT((uint32_t)(&UartAdr->RxRptr));
     aa2:	1dbb      	adds	r3, r7, #6
     aa4:	0018      	movs	r0, r3
     aa6:	9300      	str	r3, [sp, #0]
     aa8:	f7ff fe78 	bl	79c <HR_REG_16BIT>
     aac:	0004      	movs	r4, r0
     aae:	19ab      	adds	r3, r5, r6
     ab0:	9301      	str	r3, [sp, #4]
		for(RdataLen = 0; RdataLen<RxLen; RdataLen++ ){
     ab2:	9b01      	ldr	r3, [sp, #4]
     ab4:	429d      	cmp	r5, r3
     ab6:	d011      	beq.n	adc <USART_ReadDatatoBuff+0x70>
			RxBuff[RdataLen] = HR_REG_8BIT(RPtr|M0_MEMORY_BASE);   
     ab8:	4b10      	ldr	r3, [pc, #64]	; (afc <USART_ReadDatatoBuff+0x90>)
			RB_UPDATE_PTR(RPtr, HR_REG_16BIT((uint32_t)(&UartAdr->RxSadr)), HR_REG_16BIT((uint32_t)(&UartAdr->RxEadr)));
     aba:	1d38      	adds	r0, r7, #4
	if (0 == RxLen) {
        return 0;
	} else {
		RPtr = HR_REG_16BIT((uint32_t)(&UartAdr->RxRptr));
		for(RdataLen = 0; RdataLen<RxLen; RdataLen++ ){
			RxBuff[RdataLen] = HR_REG_8BIT(RPtr|M0_MEMORY_BASE);   
     abc:	4323      	orrs	r3, r4
     abe:	781b      	ldrb	r3, [r3, #0]
     ac0:	702b      	strb	r3, [r5, #0]
			RB_UPDATE_PTR(RPtr, HR_REG_16BIT((uint32_t)(&UartAdr->RxSadr)), HR_REG_16BIT((uint32_t)(&UartAdr->RxEadr)));
     ac2:	f7ff fe6b 	bl	79c <HR_REG_16BIT>
     ac6:	4284      	cmp	r4, r0
     ac8:	d104      	bne.n	ad4 <USART_ReadDatatoBuff+0x68>
     aca:	1cb8      	adds	r0, r7, #2
     acc:	f7ff fe66 	bl	79c <HR_REG_16BIT>
     ad0:	0004      	movs	r4, r0
     ad2:	e001      	b.n	ad8 <USART_ReadDatatoBuff+0x6c>
     ad4:	3401      	adds	r4, #1
     ad6:	b2a4      	uxth	r4, r4
     ad8:	3501      	adds	r5, #1
     ada:	e7ea      	b.n	ab2 <USART_ReadDatatoBuff+0x46>
		}
	}
	HW_REG_16BIT((uint32_t)(&UartAdr->RxRptr), (RPtr));
     adc:	0021      	movs	r1, r4
     ade:	9800      	ldr	r0, [sp, #0]
     ae0:	f7ff fe52 	bl	788 <HW_REG_16BIT>
	return RdataLen;
     ae4:	0033      	movs	r3, r6
}
     ae6:	0018      	movs	r0, r3
     ae8:	bdfe      	pop	{r1, r2, r3, r4, r5, r6, r7, pc}
     aea:	46c0      	nop			; (mov r8, r8)
     aec:	10008072 	.word	0x10008072
     af0:	1000835a 	.word	0x1000835a
     af4:	10008052 	.word	0x10008052
     af8:	10008312 	.word	0x10008312
     afc:	10010000 	.word	0x10010000

00000b00 <USART_SendDataFromBuff>:

uint16_t USART_SendDataFromBuff(USART_TypeDef USARTx, uint8_t* TxBuff, uint16_t TxLen)
{
     b00:	b5f7      	push	{r0, r1, r2, r4, r5, r6, r7, lr}
     b02:	000d      	movs	r5, r1
     b04:	0017      	movs	r7, r2
	uint16_t  WPtr = 0;
	uint16_t  SDataLen = 0;	
	UartxRegDef *UartAdr = NULL;
	ASSERT(IS_USARTAB(USARTx));
     b06:	2801      	cmp	r0, #1
     b08:	d8fd      	bhi.n	b06 <USART_SendDataFromBuff+0x6>
	ASSERT(TxBuff != 0);
     b0a:	2d00      	cmp	r5, #0
     b0c:	d100      	bne.n	b10 <USART_SendDataFromBuff+0x10>
     b0e:	e7fe      	b.n	b0e <USART_SendDataFromBuff+0xe>
	ASSERT(TxLen > 0);
     b10:	2f00      	cmp	r7, #0
     b12:	d100      	bne.n	b16 <USART_SendDataFromBuff+0x16>
     b14:	e7fe      	b.n	b14 <USART_SendDataFromBuff+0x14>
	
	if(USARTx == UARTA) {
     b16:	2800      	cmp	r0, #0
     b18:	d001      	beq.n	b1e <USART_SendDataFromBuff+0x1e>
		UartAdr = (UartxRegDef *)(reg_map(CORE_UART_BAUD));	
	}else {
		UartAdr = (UartxRegDef *)(reg_map(CORE_UARTB_BAUD));
     b1a:	4e14      	ldr	r6, [pc, #80]	; (b6c <USART_SendDataFromBuff+0x6c>)
     b1c:	e000      	b.n	b20 <USART_SendDataFromBuff+0x20>
	ASSERT(IS_USARTAB(USARTx));
	ASSERT(TxBuff != 0);
	ASSERT(TxLen > 0);
	
	if(USARTx == UARTA) {
		UartAdr = (UartxRegDef *)(reg_map(CORE_UART_BAUD));	
     b1e:	4e14      	ldr	r6, [pc, #80]	; (b70 <USART_SendDataFromBuff+0x70>)
	}else {
		UartAdr = (UartxRegDef *)(reg_map(CORE_UARTB_BAUD));
	}
   	WPtr = HR_REG_16BIT((uint32_t)(&UartAdr->TxWptr));
     b20:	0033      	movs	r3, r6
     b22:	330c      	adds	r3, #12
     b24:	0018      	movs	r0, r3
     b26:	9300      	str	r3, [sp, #0]
     b28:	f7ff fe38 	bl	79c <HR_REG_16BIT>
     b2c:	0004      	movs	r4, r0
     b2e:	19eb      	adds	r3, r5, r7
     b30:	9301      	str	r3, [sp, #4]
   	for (uint16_t i=0; i<TxLen; i++)  {	
     b32:	9b01      	ldr	r3, [sp, #4]
     b34:	429d      	cmp	r5, r3
     b36:	d013      	beq.n	b60 <USART_SendDataFromBuff+0x60>
		HW_REG_8BIT(WPtr|M0_MEMORY_BASE,TxBuff[i]);	
		RB_UPDATE_PTR(WPtr, HR_REG_16BIT((uint32_t)(&UartAdr->TxSadr)),  HR_REG_16BIT((uint32_t)(&UartAdr->TxEadr)));	   
     b38:	0030      	movs	r0, r6
	}else {
		UartAdr = (UartxRegDef *)(reg_map(CORE_UARTB_BAUD));
	}
   	WPtr = HR_REG_16BIT((uint32_t)(&UartAdr->TxWptr));
   	for (uint16_t i=0; i<TxLen; i++)  {	
		HW_REG_8BIT(WPtr|M0_MEMORY_BASE,TxBuff[i]);	
     b3a:	4b0e      	ldr	r3, [pc, #56]	; (b74 <USART_SendDataFromBuff+0x74>)
     b3c:	782a      	ldrb	r2, [r5, #0]
     b3e:	4323      	orrs	r3, r4
     b40:	701a      	strb	r2, [r3, #0]
		RB_UPDATE_PTR(WPtr, HR_REG_16BIT((uint32_t)(&UartAdr->TxSadr)),  HR_REG_16BIT((uint32_t)(&UartAdr->TxEadr)));	   
     b42:	300a      	adds	r0, #10
     b44:	f7ff fe2a 	bl	79c <HR_REG_16BIT>
     b48:	4284      	cmp	r4, r0
     b4a:	d105      	bne.n	b58 <USART_SendDataFromBuff+0x58>
     b4c:	0030      	movs	r0, r6
     b4e:	3008      	adds	r0, #8
     b50:	f7ff fe24 	bl	79c <HR_REG_16BIT>
     b54:	0004      	movs	r4, r0
     b56:	e001      	b.n	b5c <USART_SendDataFromBuff+0x5c>
     b58:	3401      	adds	r4, #1
     b5a:	b2a4      	uxth	r4, r4
     b5c:	3501      	adds	r5, #1
     b5e:	e7e8      	b.n	b32 <USART_SendDataFromBuff+0x32>
		SDataLen++;	
	}
	HW_REG_16BIT((uint32_t)(&UartAdr->TxWptr),  WPtr);  
     b60:	9800      	ldr	r0, [sp, #0]
     b62:	0021      	movs	r1, r4
     b64:	f7ff fe10 	bl	788 <HW_REG_16BIT>
	return SDataLen;
}
     b68:	0038      	movs	r0, r7
     b6a:	bdfe      	pop	{r1, r2, r3, r4, r5, r6, r7, pc}
     b6c:	10008072 	.word	0x10008072
     b70:	10008052 	.word	0x10008052
     b74:	10010000 	.word	0x10010000

00000b78 <UART_RemapToPrintf>:

static USART_TypeDef _printf_uart = UARTN;

int UART_RemapToPrintf(USART_TypeDef USARTx, uint8_t txPin, uint8_t rxPin)
{
     b78:	b5f0      	push	{r4, r5, r6, r7, lr}
     b7a:	0007      	movs	r7, r0
	_printf_uart = USARTx;
	/*init gpio*/	
	GPIO_CFG cfgTx ={FUNC_UARTB_TXD, GFG_PULLUP};
     b7c:	4b17      	ldr	r3, [pc, #92]	; (bdc <UART_RemapToPrintf+0x64>)
}

static USART_TypeDef _printf_uart = UARTN;

int UART_RemapToPrintf(USART_TypeDef USARTx, uint8_t txPin, uint8_t rxPin)
{
     b7e:	b089      	sub	sp, #36	; 0x24
     b80:	0016      	movs	r6, r2
	_printf_uart = USARTx;
     b82:	4d17      	ldr	r5, [pc, #92]	; (be0 <UART_RemapToPrintf+0x68>)
	/*init gpio*/	
	GPIO_CFG cfgTx ={FUNC_UARTB_TXD, GFG_PULLUP};
     b84:	781a      	ldrb	r2, [r3, #0]
}

static USART_TypeDef _printf_uart = UARTN;

int UART_RemapToPrintf(USART_TypeDef USARTx, uint8_t txPin, uint8_t rxPin)
{
     b86:	0008      	movs	r0, r1
	_printf_uart = USARTx;
	/*init gpio*/	
	GPIO_CFG cfgTx ={FUNC_UARTB_TXD, GFG_PULLUP};
     b88:	a901      	add	r1, sp, #4

static USART_TypeDef _printf_uart = UARTN;

int UART_RemapToPrintf(USART_TypeDef USARTx, uint8_t txPin, uint8_t rxPin)
{
	_printf_uart = USARTx;
     b8a:	702f      	strb	r7, [r5, #0]
	/*init gpio*/	
	GPIO_CFG cfgTx ={FUNC_UARTB_TXD, GFG_PULLUP};
     b8c:	700a      	strb	r2, [r1, #0]
     b8e:	001c      	movs	r4, r3
	if(USARTx == UARTA)
     b90:	2f00      	cmp	r7, #0
     b92:	d105      	bne.n	ba0 <UART_RemapToPrintf+0x28>
		cfgTx.pin_func = FUNC_UART_TXD;
     b94:	b2d3      	uxtb	r3, r2
     b96:	223f      	movs	r2, #63	; 0x3f
     b98:	4393      	bics	r3, r2
     b9a:	3a37      	subs	r2, #55	; 0x37
     b9c:	4313      	orrs	r3, r2
     b9e:	700b      	strb	r3, [r1, #0]
	bc_gpio_init(txPin, &cfgTx);
     ba0:	f000 f832 	bl	c08 <bc_gpio_init>
	
	GPIO_CFG cfgRx ={FUNC_UARTB_RXD, GFG_PULLUP};
     ba4:	7863      	ldrb	r3, [r4, #1]
     ba6:	a902      	add	r1, sp, #8
     ba8:	700b      	strb	r3, [r1, #0]
	if(USARTx == UARTA)
     baa:	2f00      	cmp	r7, #0
     bac:	d105      	bne.n	bba <UART_RemapToPrintf+0x42>
		cfgRx.pin_func = FUNC_UART_RXD;
     bae:	223f      	movs	r2, #63	; 0x3f
     bb0:	b2db      	uxtb	r3, r3
     bb2:	4393      	bics	r3, r2
     bb4:	3a36      	subs	r2, #54	; 0x36
     bb6:	4313      	orrs	r3, r2
     bb8:	700b      	strb	r3, [r1, #0]
	bc_gpio_init(rxPin, &cfgRx);
     bba:	0030      	movs	r0, r6
     bbc:	f000 f824 	bl	c08 <bc_gpio_init>

	/*cofig uart parameter*/	
	USART_InitTypeDef Uart = {BAUD921600, DATA_BITS_8b, STOP_BITS_1, PARITY_EVEN,
     bc0:	a903      	add	r1, sp, #12
     bc2:	000a      	movs	r2, r1
     bc4:	1d23      	adds	r3, r4, #4
     bc6:	cb51      	ldmia	r3!, {r0, r4, r6}
     bc8:	c251      	stmia	r2!, {r0, r4, r6}
     bca:	cb11      	ldmia	r3!, {r0, r4}
     bcc:	c211      	stmia	r2!, {r0, r4}
								MODE_DUPLEX, FLOW_CTRL_NONE, 128, 128};
	USART_Init(_printf_uart, &Uart);
     bce:	7828      	ldrb	r0, [r5, #0]
     bd0:	f7ff fe36 	bl	840 <USART_Init>
	return 0;
}
     bd4:	2000      	movs	r0, #0
     bd6:	b009      	add	sp, #36	; 0x24
     bd8:	bdf0      	pop	{r4, r5, r6, r7, pc}
     bda:	46c0      	nop			; (mov r8, r8)
     bdc:	00008fc8 	.word	0x00008fc8
     be0:	10010500 	.word	0x10010500

00000be4 <UART_PutChar>:

void UART_PutChar(char c)
{
	if(_printf_uart != UARTN)
     be4:	4b04      	ldr	r3, [pc, #16]	; (bf8 <UART_PutChar+0x14>)
	USART_Init(_printf_uart, &Uart);
	return 0;
}

void UART_PutChar(char c)
{
     be6:	0001      	movs	r1, r0
	if(_printf_uart != UARTN)
     be8:	7818      	ldrb	r0, [r3, #0]
	USART_Init(_printf_uart, &Uart);
	return 0;
}

void UART_PutChar(char c)
{
     bea:	b510      	push	{r4, lr}
	if(_printf_uart != UARTN)
     bec:	2802      	cmp	r0, #2
     bee:	d002      	beq.n	bf6 <UART_PutChar+0x12>
		USART_SendData(_printf_uart, (uint16_t)c);
     bf0:	b289      	uxth	r1, r1
     bf2:	f7ff fec5 	bl	980 <USART_SendData>
}
     bf6:	bd10      	pop	{r4, pc}
     bf8:	10010500 	.word	0x10010500

00000bfc <hw_delay>:

#define BW(addr)			(int)*(addr) << 24 | (int)*(addr + 1) << 16 | (int)*(addr + 2) << 8 | *(addr + 3)

static inline void hw_delay() 
{
	__asm__ __volatile__("nop");
     bfc:	46c0      	nop			; (mov r8, r8)
	__asm__ __volatile__("nop");
     bfe:	46c0      	nop			; (mov r8, r8)
	__asm__ __volatile__("nop");
     c00:	46c0      	nop			; (mov r8, r8)
	__asm__ __volatile__("nop");
     c02:	46c0      	nop			; (mov r8, r8)
	__asm__ __volatile__("nop");
     c04:	46c0      	nop			; (mov r8, r8)
}
     c06:	4770      	bx	lr

00000c08 <bc_gpio_init>:
#define IS_VALID_PIN(PIN)
#endif

void bc_gpio_init(uint8_t pin, GPIO_CFG* t)
{
	ASSERT(t != NULL);
     c08:	2900      	cmp	r1, #0
     c0a:	d100      	bne.n	c0e <bc_gpio_init+0x6>
     c0c:	e7fe      	b.n	c0c <bc_gpio_init+0x4>
     c0e:	2301      	movs	r3, #1
     c10:	281c      	cmp	r0, #28
     c12:	d803      	bhi.n	c1c <bc_gpio_init+0x14>
     c14:	4a07      	ldr	r2, [pc, #28]	; (c34 <bc_gpio_init+0x2c>)
     c16:	2301      	movs	r3, #1
     c18:	40c2      	lsrs	r2, r0
     c1a:	4393      	bics	r3, r2
     c1c:	b2db      	uxtb	r3, r3
	ASSERT(IS_VALID_PIN(pin));
     c1e:	2b00      	cmp	r3, #0
     c20:	d1fd      	bne.n	c1e <bc_gpio_init+0x16>
	HWRITE(CORE_GPIO_CONF + pin, *(uint8_t*)t);
     c22:	4b05      	ldr	r3, [pc, #20]	; (c38 <bc_gpio_init+0x30>)
     c24:	18c0      	adds	r0, r0, r3
     c26:	2380      	movs	r3, #128	; 0x80
     c28:	055b      	lsls	r3, r3, #21
     c2a:	4318      	orrs	r0, r3
     c2c:	780b      	ldrb	r3, [r1, #0]
     c2e:	7003      	strb	r3, [r0, #0]
}
     c30:	4770      	bx	lr
     c32:	46c0      	nop			; (mov r8, r8)
     c34:	1b884040 	.word	0x1b884040
     c38:	00008080 	.word	0x00008080

00000c3c <bc_gpio_deinit>:

void bc_gpio_deinit(uint8_t pin, GPIO_CFG* t)
{
	ASSERT(t != NULL);
     c3c:	2900      	cmp	r1, #0
     c3e:	d100      	bne.n	c42 <bc_gpio_deinit+0x6>
     c40:	e7fe      	b.n	c40 <bc_gpio_deinit+0x4>
     c42:	2301      	movs	r3, #1
     c44:	281c      	cmp	r0, #28
     c46:	d803      	bhi.n	c50 <bc_gpio_deinit+0x14>
     c48:	4a03      	ldr	r2, [pc, #12]	; (c58 <bc_gpio_deinit+0x1c>)
     c4a:	2301      	movs	r3, #1
     c4c:	40c2      	lsrs	r2, r0
     c4e:	4393      	bics	r3, r2
     c50:	b2db      	uxtb	r3, r3
	ASSERT(IS_VALID_PIN(pin));
     c52:	2b00      	cmp	r3, #0
     c54:	d1fd      	bne.n	c52 <bc_gpio_deinit+0x16>
}
     c56:	4770      	bx	lr
     c58:	1b884040 	.word	0x1b884040

00000c5c <bc_gpio_set>:

void bc_gpio_set(uint8_t pin, bool val)
{
     c5c:	b570      	push	{r4, r5, r6, lr}
     c5e:	2301      	movs	r3, #1
     c60:	0004      	movs	r4, r0
     c62:	000d      	movs	r5, r1
     c64:	281c      	cmp	r0, #28
     c66:	d803      	bhi.n	c70 <bc_gpio_set+0x14>
     c68:	4a0b      	ldr	r2, [pc, #44]	; (c98 <bc_gpio_set+0x3c>)
     c6a:	2301      	movs	r3, #1
     c6c:	40c2      	lsrs	r2, r0
     c6e:	4393      	bics	r3, r2
     c70:	b2db      	uxtb	r3, r3
	ASSERT(IS_VALID_PIN(pin));
     c72:	2b00      	cmp	r3, #0
     c74:	d1fd      	bne.n	c72 <bc_gpio_set+0x16>
	//GPIO_SetOut(pin, val);
	hw_delay();
     c76:	f7ff ffc1 	bl	bfc <hw_delay>
     c7a:	4b08      	ldr	r3, [pc, #32]	; (c9c <bc_gpio_set+0x40>)
     c7c:	18e4      	adds	r4, r4, r3
     c7e:	2380      	movs	r3, #128	; 0x80
     c80:	055b      	lsls	r3, r3, #21
	if (val)
		HWRITE(CORE_GPIO_CONF + pin, GPCFG_OUTPUT_HIGH);
     c82:	431c      	orrs	r4, r3
void bc_gpio_set(uint8_t pin, bool val)
{
	ASSERT(IS_VALID_PIN(pin));
	//GPIO_SetOut(pin, val);
	hw_delay();
	if (val)
     c84:	2d00      	cmp	r5, #0
     c86:	d002      	beq.n	c8e <bc_gpio_set+0x32>
		HWRITE(CORE_GPIO_CONF + pin, GPCFG_OUTPUT_HIGH);
     c88:	233f      	movs	r3, #63	; 0x3f
     c8a:	7023      	strb	r3, [r4, #0]
     c8c:	e001      	b.n	c92 <bc_gpio_set+0x36>
	else
		HWRITE(CORE_GPIO_CONF + pin, GPCFG_OUTPUT_LOW);
     c8e:	233e      	movs	r3, #62	; 0x3e
     c90:	7023      	strb	r3, [r4, #0]
	hw_delay();
     c92:	f7ff ffb3 	bl	bfc <hw_delay>
}
     c96:	bd70      	pop	{r4, r5, r6, pc}
     c98:	1b884040 	.word	0x1b884040
     c9c:	00008080 	.word	0x00008080

00000ca0 <bc_gpio_get>:

bool bc_gpio_get(uint8_t pin)
{
     ca0:	b510      	push	{r4, lr}
     ca2:	2301      	movs	r3, #1
     ca4:	0004      	movs	r4, r0
     ca6:	281c      	cmp	r0, #28
     ca8:	d803      	bhi.n	cb2 <bc_gpio_get+0x12>
     caa:	4a0d      	ldr	r2, [pc, #52]	; (ce0 <bc_gpio_get+0x40>)
     cac:	2301      	movs	r3, #1
     cae:	40c2      	lsrs	r2, r0
     cb0:	4393      	bics	r3, r2
     cb2:	b2db      	uxtb	r3, r3
	ASSERT(IS_VALID_PIN(pin));
     cb4:	2b00      	cmp	r3, #0
     cb6:	d1fd      	bne.n	cb4 <bc_gpio_get+0x14>
	hw_delay();
     cb8:	f7ff ffa0 	bl	bfc <hw_delay>
	register uint8_t group = 0;
	uint8_t st = 0;
	
	queue = (pin & 7);
	group = pin >> 3 & 3;
	st = HREAD(CORE_GPIO_IN+group);
     cbc:	06e3      	lsls	r3, r4, #27
     cbe:	4a09      	ldr	r2, [pc, #36]	; (ce4 <bc_gpio_get+0x44>)
     cc0:	0f9b      	lsrs	r3, r3, #30
     cc2:	189b      	adds	r3, r3, r2
     cc4:	2280      	movs	r2, #128	; 0x80
     cc6:	0552      	lsls	r2, r2, #21
     cc8:	4313      	orrs	r3, r2
     cca:	781a      	ldrb	r2, [r3, #0]
	return (st & (1 << queue));
     ccc:	2307      	movs	r3, #7
     cce:	401c      	ands	r4, r3
     cd0:	3b06      	subs	r3, #6
     cd2:	40a3      	lsls	r3, r4
     cd4:	0018      	movs	r0, r3
     cd6:	4010      	ands	r0, r2
     cd8:	1e43      	subs	r3, r0, #1
     cda:	4198      	sbcs	r0, r3
     cdc:	b2c0      	uxtb	r0, r0
}
     cde:	bd10      	pop	{r4, pc}
     ce0:	1b884040 	.word	0x1b884040
     ce4:	0000831c 	.word	0x0000831c

00000ce8 <_fstat>:
#include "bc62xx_ble.h"
//#include "Drv_debug.h"

int _fstat (int fd, struct stat *pStat)
{
	pStat->st_mode = S_IFCHR;
     ce8:	2380      	movs	r3, #128	; 0x80
     cea:	019b      	lsls	r3, r3, #6
	return 0;
}
     cec:	2000      	movs	r0, #0
#include "bc62xx_ble.h"
//#include "Drv_debug.h"

int _fstat (int fd, struct stat *pStat)
{
	pStat->st_mode = S_IFCHR;
     cee:	604b      	str	r3, [r1, #4]
	return 0;
}
     cf0:	4770      	bx	lr

00000cf2 <_close>:

int _close(int fd)
{
	return -1;
}
     cf2:	2001      	movs	r0, #1
     cf4:	4240      	negs	r0, r0
     cf6:	4770      	bx	lr

00000cf8 <_write>:

extern void UART_PutChar(char c);
int _write (int fd, char *ptr, int len)
{
     cf8:	b570      	push	{r4, r5, r6, lr}
     cfa:	000e      	movs	r6, r1
     cfc:	0014      	movs	r4, r2
     cfe:	000d      	movs	r5, r1
	int i = 0;

	if (fd > 2)
     d00:	2802      	cmp	r0, #2
     d02:	dc09      	bgt.n	d18 <_write+0x20>
		return -1;

	while(*ptr && (i < len))\
     d04:	7828      	ldrb	r0, [r5, #0]
     d06:	2800      	cmp	r0, #0
     d08:	d009      	beq.n	d1e <_write+0x26>
     d0a:	1bab      	subs	r3, r5, r6
     d0c:	429c      	cmp	r4, r3
     d0e:	dd06      	ble.n	d1e <_write+0x26>
	{
		UART_PutChar(*ptr);
     d10:	f7ff ff68 	bl	be4 <UART_PutChar>
		i++;
		ptr++;
     d14:	3501      	adds	r5, #1
     d16:	e7f5      	b.n	d04 <_write+0xc>
int _write (int fd, char *ptr, int len)
{
	int i = 0;

	if (fd > 2)
		return -1;
     d18:	2001      	movs	r0, #1
     d1a:	4240      	negs	r0, r0
     d1c:	e000      	b.n	d20 <_write+0x28>
     d1e:	0020      	movs	r0, r4
		i++;
		ptr++;
	}
   
 	return len;
}
     d20:	bd70      	pop	{r4, r5, r6, pc}

00000d22 <_isatty>:

int _isatty (int fd)
{
	return 1;
}
     d22:	2001      	movs	r0, #1
     d24:	4770      	bx	lr

00000d26 <_lseek>:

int _lseek(int fd, int offset, int fromwhere)
{
	return 0;
}
     d26:	2000      	movs	r0, #0
     d28:	4770      	bx	lr

00000d2a <_read>:

int _read (int fd, char *pBuffer, int size)
{
	return 0;
}
     d2a:	2000      	movs	r0, #0
     d2c:	4770      	bx	lr

00000d2e <_sbrk>:
caddr_t _sbrk(int increment)
{
	extern char end asm("end");
	register char *pStack asm("sp");
	static char *s_pHeapEnd;
	if (!s_pHeapEnd)
     d2e:	4b08      	ldr	r3, [pc, #32]	; (d50 <_sbrk+0x22>)
{
	return 0;
}

caddr_t _sbrk(int increment)
{
     d30:	0002      	movs	r2, r0
	extern char end asm("end");
	register char *pStack asm("sp");
	static char *s_pHeapEnd;
	if (!s_pHeapEnd)
     d32:	6819      	ldr	r1, [r3, #0]
     d34:	2900      	cmp	r1, #0
     d36:	d101      	bne.n	d3c <_sbrk+0xe>
		s_pHeapEnd = &end;
     d38:	4906      	ldr	r1, [pc, #24]	; (d54 <_sbrk+0x26>)
     d3a:	6019      	str	r1, [r3, #0]

	if (s_pHeapEnd + increment > pStack)
     d3c:	4669      	mov	r1, sp
     d3e:	6818      	ldr	r0, [r3, #0]
     d40:	1882      	adds	r2, r0, r2
     d42:	428a      	cmp	r2, r1
     d44:	d801      	bhi.n	d4a <_sbrk+0x1c>
		return (caddr_t)-1;

	char *pOldHeapEnd = s_pHeapEnd;
	s_pHeapEnd += increment;
     d46:	601a      	str	r2, [r3, #0]
	return (caddr_t)pOldHeapEnd;
     d48:	e001      	b.n	d4e <_sbrk+0x20>
	static char *s_pHeapEnd;
	if (!s_pHeapEnd)
		s_pHeapEnd = &end;

	if (s_pHeapEnd + increment > pStack)
		return (caddr_t)-1;
     d4a:	2001      	movs	r0, #1
     d4c:	4240      	negs	r0, r0

	char *pOldHeapEnd = s_pHeapEnd;
	s_pHeapEnd += increment;
	return (caddr_t)pOldHeapEnd;
}
     d4e:	4770      	bx	lr
     d50:	10010efc 	.word	0x10010efc
     d54:	10011048 	.word	0x10011048

00000d58 <_exit>:

void _exit(int status)
{
     d58:	e7fe      	b.n	d58 <_exit>

00000d5a <Default_Handler>:
	while(1);
}


void Default_Handler(void)
{
     d5a:	b510      	push	{r4, lr}
	printf("\r\n\r\nDefault_Handler\r\n\r\n");
     d5c:	4801      	ldr	r0, [pc, #4]	; (d64 <Default_Handler+0xa>)
     d5e:	f000 fc07 	bl	1570 <puts>
     d62:	e7fe      	b.n	d62 <Default_Handler+0x8>
     d64:	00008fe0 	.word	0x00008fe0

00000d68 <Reset_Handler>:
     d68:	490a      	ldr	r1, [pc, #40]	; (d94 <Reset_Handler+0x2c>)
     d6a:	4a0b      	ldr	r2, [pc, #44]	; (d98 <Reset_Handler+0x30>)
     d6c:	4b0b      	ldr	r3, [pc, #44]	; (d9c <Reset_Handler+0x34>)
     d6e:	1a9b      	subs	r3, r3, r2
     d70:	dd03      	ble.n	d7a <Reset_Handler+0x12>
     d72:	3b04      	subs	r3, #4
     d74:	58c8      	ldr	r0, [r1, r3]
     d76:	50d0      	str	r0, [r2, r3]
     d78:	dcfb      	bgt.n	d72 <Reset_Handler+0xa>
     d7a:	4909      	ldr	r1, [pc, #36]	; (da0 <Reset_Handler+0x38>)
     d7c:	4a09      	ldr	r2, [pc, #36]	; (da4 <Reset_Handler+0x3c>)
     d7e:	2000      	movs	r0, #0
     d80:	1a52      	subs	r2, r2, r1
     d82:	dd02      	ble.n	d8a <Reset_Handler+0x22>
     d84:	3a04      	subs	r2, #4
     d86:	5088      	str	r0, [r1, r2]
     d88:	dcfc      	bgt.n	d84 <Reset_Handler+0x1c>
     d8a:	4807      	ldr	r0, [pc, #28]	; (da8 <Reset_Handler+0x40>)
     d8c:	4b07      	ldr	r3, [pc, #28]	; (dac <Reset_Handler+0x44>)
     d8e:	f7ff f9cf 	bl	130 <main>
     d92:	0000      	.short	0x0000
     d94:	00009620 	.word	0x00009620
     d98:	10010500 	.word	0x10010500
     d9c:	10010eb0 	.word	0x10010eb0
     da0:	10010eb0 	.word	0x10010eb0
     da4:	10011048 	.word	0x10011048
     da8:	00012345 	.word	0x00012345
     dac:	00001111 	.word	0x00001111

00000db0 <DEF_IRQHandler>:
     db0:	e7fe      	b.n	db0 <DEF_IRQHandler>

00000db2 <__aeabi_idiv>:
     db2:	2800      	cmp	r0, #0
     db4:	da04      	bge.n	dc0 <L_num_pos>
     db6:	4240      	negs	r0, r0
     db8:	2900      	cmp	r1, #0
     dba:	da04      	bge.n	dc6 <L_neg_result>
     dbc:	4249      	negs	r1, r1
     dbe:	e020      	b.n	e02 <__aeabi_uidiv>

00000dc0 <L_num_pos>:
     dc0:	2900      	cmp	r1, #0
     dc2:	da1e      	bge.n	e02 <__aeabi_uidiv>
     dc4:	4249      	negs	r1, r1

00000dc6 <L_neg_result>:
     dc6:	b500      	push	{lr}
     dc8:	f000 f81b 	bl	e02 <__aeabi_uidiv>
     dcc:	4240      	negs	r0, r0
     dce:	bd00      	pop	{pc}

00000dd0 <__aeabi_idivmod>:
     dd0:	2800      	cmp	r0, #0
     dd2:	da0e      	bge.n	df2 <L_num_pos_bis>
     dd4:	4240      	negs	r0, r0
     dd6:	2900      	cmp	r1, #0
     dd8:	da05      	bge.n	de6 <L_neg_both>
     dda:	4249      	negs	r1, r1
     ddc:	b500      	push	{lr}
     dde:	f000 f810 	bl	e02 <__aeabi_uidiv>
     de2:	4249      	negs	r1, r1
     de4:	bd00      	pop	{pc}

00000de6 <L_neg_both>:
     de6:	b500      	push	{lr}
     de8:	f000 f80b 	bl	e02 <__aeabi_uidiv>
     dec:	4240      	negs	r0, r0
     dee:	4249      	negs	r1, r1
     df0:	bd00      	pop	{pc}

00000df2 <L_num_pos_bis>:
     df2:	2900      	cmp	r1, #0
     df4:	da05      	bge.n	e02 <__aeabi_uidiv>
     df6:	4249      	negs	r1, r1
     df8:	b500      	push	{lr}
     dfa:	f000 f802 	bl	e02 <__aeabi_uidiv>
     dfe:	4240      	negs	r0, r0
     e00:	bd00      	pop	{pc}

00000e02 <__aeabi_uidiv>:
     e02:	2900      	cmp	r1, #0
     e04:	d100      	bne.n	e08 <L_no_div0>
     e06:	e014      	b.n	e32 <__aeabi_idiv0>

00000e08 <L_no_div0>:
     e08:	2201      	movs	r2, #1
     e0a:	2300      	movs	r3, #0
     e0c:	4288      	cmp	r0, r1
     e0e:	d906      	bls.n	e1e <L_sub_loop0>
     e10:	3100      	adds	r1, #0
     e12:	d404      	bmi.n	e1e <L_sub_loop0>

00000e14 <L_denom_shift_loop>:
     e14:	0052      	lsls	r2, r2, #1
     e16:	0049      	lsls	r1, r1, #1
     e18:	d401      	bmi.n	e1e <L_sub_loop0>
     e1a:	4288      	cmp	r0, r1
     e1c:	d8fa      	bhi.n	e14 <L_denom_shift_loop>

00000e1e <L_sub_loop0>:
     e1e:	4288      	cmp	r0, r1
     e20:	d301      	bcc.n	e26 <L_dont_sub0>
     e22:	1a40      	subs	r0, r0, r1
     e24:	4313      	orrs	r3, r2

00000e26 <L_dont_sub0>:
     e26:	0849      	lsrs	r1, r1, #1
     e28:	0852      	lsrs	r2, r2, #1
     e2a:	d1f8      	bne.n	e1e <L_sub_loop0>
     e2c:	4601      	mov	r1, r0
     e2e:	4618      	mov	r0, r3
     e30:	4770      	bx	lr

00000e32 <__aeabi_idiv0>:
     e32:	e7fe      	b.n	e32 <__aeabi_idiv0>

00000e34 <malloc>:
     e34:	b510      	push	{r4, lr}
     e36:	4b03      	ldr	r3, [pc, #12]	; (e44 <malloc+0x10>)
     e38:	0001      	movs	r1, r0
     e3a:	6818      	ldr	r0, [r3, #0]
     e3c:	f000 f80e 	bl	e5c <_malloc_r>
     e40:	bd10      	pop	{r4, pc}
     e42:	46c0      	nop			; (mov r8, r8)
     e44:	10010d40 	.word	0x10010d40

00000e48 <free>:
     e48:	b510      	push	{r4, lr}
     e4a:	4b03      	ldr	r3, [pc, #12]	; (e58 <free+0x10>)
     e4c:	0001      	movs	r1, r0
     e4e:	6818      	ldr	r0, [r3, #0]
     e50:	f003 fb2e 	bl	44b0 <_free_r>
     e54:	bd10      	pop	{r4, pc}
     e56:	46c0      	nop			; (mov r8, r8)
     e58:	10010d40 	.word	0x10010d40

00000e5c <_malloc_r>:
     e5c:	b5f0      	push	{r4, r5, r6, r7, lr}
     e5e:	465f      	mov	r7, fp
     e60:	464d      	mov	r5, r9
     e62:	4656      	mov	r6, sl
     e64:	4644      	mov	r4, r8
     e66:	b4f0      	push	{r4, r5, r6, r7}
     e68:	000d      	movs	r5, r1
     e6a:	350b      	adds	r5, #11
     e6c:	b083      	sub	sp, #12
     e6e:	0007      	movs	r7, r0
     e70:	2d16      	cmp	r5, #22
     e72:	d800      	bhi.n	e76 <_malloc_r+0x1a>
     e74:	e0a8      	b.n	fc8 <_malloc_r+0x16c>
     e76:	2307      	movs	r3, #7
     e78:	439d      	bics	r5, r3
     e7a:	d500      	bpl.n	e7e <_malloc_r+0x22>
     e7c:	e0ce      	b.n	101c <Stack_Size+0x1c>
     e7e:	42a9      	cmp	r1, r5
     e80:	d900      	bls.n	e84 <_malloc_r+0x28>
     e82:	e0cb      	b.n	101c <Stack_Size+0x1c>
     e84:	f000 fb18 	bl	14b8 <__malloc_lock>
     e88:	23f8      	movs	r3, #248	; 0xf8
     e8a:	33ff      	adds	r3, #255	; 0xff
     e8c:	429d      	cmp	r5, r3
     e8e:	d800      	bhi.n	e92 <_malloc_r+0x36>
     e90:	e284      	b.n	139c <Stack_Size+0x39c>
     e92:	0a6b      	lsrs	r3, r5, #9
     e94:	d100      	bne.n	e98 <_malloc_r+0x3c>
     e96:	e0c5      	b.n	1024 <Stack_Size+0x24>
     e98:	2b04      	cmp	r3, #4
     e9a:	d900      	bls.n	e9e <_malloc_r+0x42>
     e9c:	e16c      	b.n	1178 <Stack_Size+0x178>
     e9e:	2338      	movs	r3, #56	; 0x38
     ea0:	09a9      	lsrs	r1, r5, #6
     ea2:	469c      	mov	ip, r3
     ea4:	3301      	adds	r3, #1
     ea6:	4698      	mov	r8, r3
     ea8:	4488      	add	r8, r1
     eaa:	4643      	mov	r3, r8
     eac:	448c      	add	ip, r1
     eae:	0059      	lsls	r1, r3, #1
     eb0:	4ec9      	ldr	r6, [pc, #804]	; (11d8 <Stack_Size+0x1d8>)
     eb2:	0089      	lsls	r1, r1, #2
     eb4:	1871      	adds	r1, r6, r1
     eb6:	3908      	subs	r1, #8
     eb8:	68cc      	ldr	r4, [r1, #12]
     eba:	42a1      	cmp	r1, r4
     ebc:	d017      	beq.n	eee <_malloc_r+0x92>
     ebe:	2303      	movs	r3, #3
     ec0:	6862      	ldr	r2, [r4, #4]
     ec2:	439a      	bics	r2, r3
     ec4:	0013      	movs	r3, r2
     ec6:	1b52      	subs	r2, r2, r5
     ec8:	2a0f      	cmp	r2, #15
     eca:	dd00      	ble.n	ece <_malloc_r+0x72>
     ecc:	e0b0      	b.n	1030 <Stack_Size+0x30>
     ece:	2003      	movs	r0, #3
     ed0:	2a00      	cmp	r2, #0
     ed2:	db09      	blt.n	ee8 <_malloc_r+0x8c>
     ed4:	e08d      	b.n	ff2 <_malloc_r+0x196>
     ed6:	6863      	ldr	r3, [r4, #4]
     ed8:	4383      	bics	r3, r0
     eda:	1b5a      	subs	r2, r3, r5
     edc:	2a0f      	cmp	r2, #15
     ede:	dd00      	ble.n	ee2 <_malloc_r+0x86>
     ee0:	e0a6      	b.n	1030 <Stack_Size+0x30>
     ee2:	2a00      	cmp	r2, #0
     ee4:	db00      	blt.n	ee8 <_malloc_r+0x8c>
     ee6:	e084      	b.n	ff2 <_malloc_r+0x196>
     ee8:	68e4      	ldr	r4, [r4, #12]
     eea:	42a1      	cmp	r1, r4
     eec:	d1f3      	bne.n	ed6 <_malloc_r+0x7a>
     eee:	4643      	mov	r3, r8
     ef0:	9300      	str	r3, [sp, #0]
     ef2:	0032      	movs	r2, r6
     ef4:	6934      	ldr	r4, [r6, #16]
     ef6:	3208      	adds	r2, #8
     ef8:	4294      	cmp	r4, r2
     efa:	d100      	bne.n	efe <_malloc_r+0xa2>
     efc:	e18f      	b.n	121e <Stack_Size+0x21e>
     efe:	2303      	movs	r3, #3
     f00:	6861      	ldr	r1, [r4, #4]
     f02:	4399      	bics	r1, r3
     f04:	000b      	movs	r3, r1
     f06:	1b48      	subs	r0, r1, r5
     f08:	280f      	cmp	r0, #15
     f0a:	dd00      	ble.n	f0e <_malloc_r+0xb2>
     f0c:	e176      	b.n	11fc <Stack_Size+0x1fc>
     f0e:	6172      	str	r2, [r6, #20]
     f10:	6132      	str	r2, [r6, #16]
     f12:	2800      	cmp	r0, #0
     f14:	da71      	bge.n	ffa <_malloc_r+0x19e>
     f16:	4ab1      	ldr	r2, [pc, #708]	; (11dc <Stack_Size+0x1dc>)
     f18:	4291      	cmp	r1, r2
     f1a:	d900      	bls.n	f1e <_malloc_r+0xc2>
     f1c:	e134      	b.n	1188 <Stack_Size+0x188>
     f1e:	2301      	movs	r3, #1
     f20:	08c8      	lsrs	r0, r1, #3
     f22:	1082      	asrs	r2, r0, #2
     f24:	4093      	lsls	r3, r2
     f26:	6872      	ldr	r2, [r6, #4]
     f28:	431a      	orrs	r2, r3
     f2a:	00c3      	lsls	r3, r0, #3
     f2c:	199b      	adds	r3, r3, r6
     f2e:	6898      	ldr	r0, [r3, #8]
     f30:	6072      	str	r2, [r6, #4]
     f32:	60e3      	str	r3, [r4, #12]
     f34:	60a0      	str	r0, [r4, #8]
     f36:	609c      	str	r4, [r3, #8]
     f38:	0013      	movs	r3, r2
     f3a:	60c4      	str	r4, [r0, #12]
     f3c:	2001      	movs	r0, #1
     f3e:	9900      	ldr	r1, [sp, #0]
     f40:	108a      	asrs	r2, r1, #2
     f42:	4090      	lsls	r0, r2
     f44:	4298      	cmp	r0, r3
     f46:	d900      	bls.n	f4a <_malloc_r+0xee>
     f48:	e075      	b.n	1036 <Stack_Size+0x36>
     f4a:	4203      	tst	r3, r0
     f4c:	d10c      	bne.n	f68 <_malloc_r+0x10c>
     f4e:	2203      	movs	r2, #3
     f50:	4391      	bics	r1, r2
     f52:	1d0a      	adds	r2, r1, #4
     f54:	0040      	lsls	r0, r0, #1
     f56:	9200      	str	r2, [sp, #0]
     f58:	4203      	tst	r3, r0
     f5a:	d105      	bne.n	f68 <_malloc_r+0x10c>
     f5c:	9a00      	ldr	r2, [sp, #0]
     f5e:	0040      	lsls	r0, r0, #1
     f60:	3204      	adds	r2, #4
     f62:	9200      	str	r2, [sp, #0]
     f64:	4203      	tst	r3, r0
     f66:	d0f9      	beq.n	f5c <_malloc_r+0x100>
     f68:	2303      	movs	r3, #3
     f6a:	4698      	mov	r8, r3
     f6c:	9a00      	ldr	r2, [sp, #0]
     f6e:	00d3      	lsls	r3, r2, #3
     f70:	4699      	mov	r9, r3
     f72:	44b1      	add	r9, r6
     f74:	46cc      	mov	ip, r9
     f76:	4692      	mov	sl, r2
     f78:	4663      	mov	r3, ip
     f7a:	68dc      	ldr	r4, [r3, #12]
     f7c:	45a4      	cmp	ip, r4
     f7e:	d107      	bne.n	f90 <_malloc_r+0x134>
     f80:	e14f      	b.n	1222 <Stack_Size+0x222>
     f82:	2a00      	cmp	r2, #0
     f84:	db00      	blt.n	f88 <_malloc_r+0x12c>
     f86:	e15f      	b.n	1248 <Stack_Size+0x248>
     f88:	68e4      	ldr	r4, [r4, #12]
     f8a:	45a4      	cmp	ip, r4
     f8c:	d100      	bne.n	f90 <_malloc_r+0x134>
     f8e:	e148      	b.n	1222 <Stack_Size+0x222>
     f90:	4642      	mov	r2, r8
     f92:	6863      	ldr	r3, [r4, #4]
     f94:	4393      	bics	r3, r2
     f96:	1b5a      	subs	r2, r3, r5
     f98:	2a0f      	cmp	r2, #15
     f9a:	ddf2      	ble.n	f82 <_malloc_r+0x126>
     f9c:	2101      	movs	r1, #1
     f9e:	1963      	adds	r3, r4, r5
     fa0:	430d      	orrs	r5, r1
     fa2:	6065      	str	r5, [r4, #4]
     fa4:	68e0      	ldr	r0, [r4, #12]
     fa6:	68a5      	ldr	r5, [r4, #8]
     fa8:	3608      	adds	r6, #8
     faa:	60e8      	str	r0, [r5, #12]
     fac:	4311      	orrs	r1, r2
     fae:	6085      	str	r5, [r0, #8]
     fb0:	60f3      	str	r3, [r6, #12]
     fb2:	60b3      	str	r3, [r6, #8]
     fb4:	0038      	movs	r0, r7
     fb6:	60de      	str	r6, [r3, #12]
     fb8:	609e      	str	r6, [r3, #8]
     fba:	6059      	str	r1, [r3, #4]
     fbc:	509a      	str	r2, [r3, r2]
     fbe:	f000 fa7d 	bl	14bc <__malloc_unlock>
     fc2:	0020      	movs	r0, r4
     fc4:	3008      	adds	r0, #8
     fc6:	e022      	b.n	100e <Stack_Size+0xe>
     fc8:	2910      	cmp	r1, #16
     fca:	d827      	bhi.n	101c <Stack_Size+0x1c>
     fcc:	0038      	movs	r0, r7
     fce:	f000 fa73 	bl	14b8 <__malloc_lock>
     fd2:	2510      	movs	r5, #16
     fd4:	2306      	movs	r3, #6
     fd6:	2102      	movs	r1, #2
     fd8:	4e7f      	ldr	r6, [pc, #508]	; (11d8 <Stack_Size+0x1d8>)
     fda:	009b      	lsls	r3, r3, #2
     fdc:	18f3      	adds	r3, r6, r3
     fde:	001a      	movs	r2, r3
     fe0:	685c      	ldr	r4, [r3, #4]
     fe2:	3a08      	subs	r2, #8
     fe4:	4294      	cmp	r4, r2
     fe6:	d100      	bne.n	fea <_malloc_r+0x18e>
     fe8:	e127      	b.n	123a <Stack_Size+0x23a>
     fea:	2303      	movs	r3, #3
     fec:	6862      	ldr	r2, [r4, #4]
     fee:	439a      	bics	r2, r3
     ff0:	0013      	movs	r3, r2
     ff2:	68e2      	ldr	r2, [r4, #12]
     ff4:	68a1      	ldr	r1, [r4, #8]
     ff6:	60ca      	str	r2, [r1, #12]
     ff8:	6091      	str	r1, [r2, #8]
     ffa:	2201      	movs	r2, #1
     ffc:	18e3      	adds	r3, r4, r3
     ffe:	6859      	ldr	r1, [r3, #4]
    1000:	0038      	movs	r0, r7
    1002:	430a      	orrs	r2, r1
    1004:	605a      	str	r2, [r3, #4]
    1006:	f000 fa59 	bl	14bc <__malloc_unlock>
    100a:	0020      	movs	r0, r4
    100c:	3008      	adds	r0, #8
    100e:	b003      	add	sp, #12
    1010:	bc3c      	pop	{r2, r3, r4, r5}
    1012:	4690      	mov	r8, r2
    1014:	4699      	mov	r9, r3
    1016:	46a2      	mov	sl, r4
    1018:	46ab      	mov	fp, r5
    101a:	bdf0      	pop	{r4, r5, r6, r7, pc}
    101c:	230c      	movs	r3, #12
    101e:	2000      	movs	r0, #0
    1020:	603b      	str	r3, [r7, #0]
    1022:	e7f4      	b.n	100e <Stack_Size+0xe>
    1024:	2340      	movs	r3, #64	; 0x40
    1026:	4698      	mov	r8, r3
    1028:	3b01      	subs	r3, #1
    102a:	2180      	movs	r1, #128	; 0x80
    102c:	469c      	mov	ip, r3
    102e:	e73f      	b.n	eb0 <_malloc_r+0x54>
    1030:	4663      	mov	r3, ip
    1032:	9300      	str	r3, [sp, #0]
    1034:	e75d      	b.n	ef2 <_malloc_r+0x96>
    1036:	2303      	movs	r3, #3
    1038:	68b4      	ldr	r4, [r6, #8]
    103a:	6862      	ldr	r2, [r4, #4]
    103c:	439a      	bics	r2, r3
    103e:	4690      	mov	r8, r2
    1040:	42aa      	cmp	r2, r5
    1042:	d303      	bcc.n	104c <Stack_Size+0x4c>
    1044:	1b52      	subs	r2, r2, r5
    1046:	2a0f      	cmp	r2, #15
    1048:	dd00      	ble.n	104c <Stack_Size+0x4c>
    104a:	e087      	b.n	115c <Stack_Size+0x15c>
    104c:	0023      	movs	r3, r4
    104e:	4443      	add	r3, r8
    1050:	4a63      	ldr	r2, [pc, #396]	; (11e0 <Stack_Size+0x1e0>)
    1052:	9301      	str	r3, [sp, #4]
    1054:	4b63      	ldr	r3, [pc, #396]	; (11e4 <Stack_Size+0x1e4>)
    1056:	4693      	mov	fp, r2
    1058:	681b      	ldr	r3, [r3, #0]
    105a:	6812      	ldr	r2, [r2, #0]
    105c:	18eb      	adds	r3, r5, r3
    105e:	3201      	adds	r2, #1
    1060:	d100      	bne.n	1064 <Stack_Size+0x64>
    1062:	e157      	b.n	1314 <Stack_Size+0x314>
    1064:	4a60      	ldr	r2, [pc, #384]	; (11e8 <Stack_Size+0x1e8>)
    1066:	4694      	mov	ip, r2
    1068:	4463      	add	r3, ip
    106a:	0b1b      	lsrs	r3, r3, #12
    106c:	031b      	lsls	r3, r3, #12
    106e:	9300      	str	r3, [sp, #0]
    1070:	9900      	ldr	r1, [sp, #0]
    1072:	0038      	movs	r0, r7
    1074:	f000 fa86 	bl	1584 <_sbrk_r>
    1078:	0003      	movs	r3, r0
    107a:	4681      	mov	r9, r0
    107c:	3301      	adds	r3, #1
    107e:	d061      	beq.n	1144 <Stack_Size+0x144>
    1080:	9b01      	ldr	r3, [sp, #4]
    1082:	4283      	cmp	r3, r0
    1084:	d900      	bls.n	1088 <Stack_Size+0x88>
    1086:	e0fd      	b.n	1284 <Stack_Size+0x284>
    1088:	4b58      	ldr	r3, [pc, #352]	; (11ec <Stack_Size+0x1ec>)
    108a:	9a00      	ldr	r2, [sp, #0]
    108c:	469a      	mov	sl, r3
    108e:	681b      	ldr	r3, [r3, #0]
    1090:	469c      	mov	ip, r3
    1092:	4653      	mov	r3, sl
    1094:	4462      	add	r2, ip
    1096:	601a      	str	r2, [r3, #0]
    1098:	9b01      	ldr	r3, [sp, #4]
    109a:	0011      	movs	r1, r2
    109c:	454b      	cmp	r3, r9
    109e:	d100      	bne.n	10a2 <Stack_Size+0xa2>
    10a0:	e143      	b.n	132a <Stack_Size+0x32a>
    10a2:	465b      	mov	r3, fp
    10a4:	681b      	ldr	r3, [r3, #0]
    10a6:	3301      	adds	r3, #1
    10a8:	d100      	bne.n	10ac <Stack_Size+0xac>
    10aa:	e14f      	b.n	134c <Stack_Size+0x34c>
    10ac:	464b      	mov	r3, r9
    10ae:	9a01      	ldr	r2, [sp, #4]
    10b0:	1a9b      	subs	r3, r3, r2
    10b2:	1859      	adds	r1, r3, r1
    10b4:	4653      	mov	r3, sl
    10b6:	6019      	str	r1, [r3, #0]
    10b8:	2307      	movs	r3, #7
    10ba:	464a      	mov	r2, r9
    10bc:	4013      	ands	r3, r2
    10be:	d100      	bne.n	10c2 <Stack_Size+0xc2>
    10c0:	e117      	b.n	12f2 <Stack_Size+0x2f2>
    10c2:	2108      	movs	r1, #8
    10c4:	4689      	mov	r9, r1
    10c6:	494a      	ldr	r1, [pc, #296]	; (11f0 <Stack_Size+0x1f0>)
    10c8:	1ad2      	subs	r2, r2, r3
    10ca:	4491      	add	r9, r2
    10cc:	1ac9      	subs	r1, r1, r3
    10ce:	9b00      	ldr	r3, [sp, #0]
    10d0:	0038      	movs	r0, r7
    10d2:	444b      	add	r3, r9
    10d4:	051b      	lsls	r3, r3, #20
    10d6:	0d1b      	lsrs	r3, r3, #20
    10d8:	1acb      	subs	r3, r1, r3
    10da:	0019      	movs	r1, r3
    10dc:	469b      	mov	fp, r3
    10de:	f000 fa51 	bl	1584 <_sbrk_r>
    10e2:	1c43      	adds	r3, r0, #1
    10e4:	d100      	bne.n	10e8 <Stack_Size+0xe8>
    10e6:	e135      	b.n	1354 <Stack_Size+0x354>
    10e8:	464b      	mov	r3, r9
    10ea:	1ac0      	subs	r0, r0, r3
    10ec:	2301      	movs	r3, #1
    10ee:	4458      	add	r0, fp
    10f0:	4318      	orrs	r0, r3
    10f2:	4653      	mov	r3, sl
    10f4:	681b      	ldr	r3, [r3, #0]
    10f6:	445b      	add	r3, fp
    10f8:	0019      	movs	r1, r3
    10fa:	4653      	mov	r3, sl
    10fc:	6019      	str	r1, [r3, #0]
    10fe:	464b      	mov	r3, r9
    1100:	60b3      	str	r3, [r6, #8]
    1102:	6058      	str	r0, [r3, #4]
    1104:	42b4      	cmp	r4, r6
    1106:	d013      	beq.n	1130 <Stack_Size+0x130>
    1108:	4643      	mov	r3, r8
    110a:	2b0f      	cmp	r3, #15
    110c:	d800      	bhi.n	1110 <Stack_Size+0x110>
    110e:	e0e1      	b.n	12d4 <Stack_Size+0x2d4>
    1110:	4643      	mov	r3, r8
    1112:	2207      	movs	r2, #7
    1114:	6860      	ldr	r0, [r4, #4]
    1116:	3b0c      	subs	r3, #12
    1118:	4393      	bics	r3, r2
    111a:	3a06      	subs	r2, #6
    111c:	4002      	ands	r2, r0
    111e:	2005      	movs	r0, #5
    1120:	431a      	orrs	r2, r3
    1122:	6062      	str	r2, [r4, #4]
    1124:	18e2      	adds	r2, r4, r3
    1126:	6050      	str	r0, [r2, #4]
    1128:	6090      	str	r0, [r2, #8]
    112a:	2b0f      	cmp	r3, #15
    112c:	d900      	bls.n	1130 <Stack_Size+0x130>
    112e:	e115      	b.n	135c <Stack_Size+0x35c>
    1130:	4b30      	ldr	r3, [pc, #192]	; (11f4 <Stack_Size+0x1f4>)
    1132:	681a      	ldr	r2, [r3, #0]
    1134:	4291      	cmp	r1, r2
    1136:	d900      	bls.n	113a <Stack_Size+0x13a>
    1138:	6019      	str	r1, [r3, #0]
    113a:	4b2f      	ldr	r3, [pc, #188]	; (11f8 <Stack_Size+0x1f8>)
    113c:	681a      	ldr	r2, [r3, #0]
    113e:	4291      	cmp	r1, r2
    1140:	d900      	bls.n	1144 <Stack_Size+0x144>
    1142:	6019      	str	r1, [r3, #0]
    1144:	2303      	movs	r3, #3
    1146:	68b4      	ldr	r4, [r6, #8]
    1148:	6862      	ldr	r2, [r4, #4]
    114a:	439a      	bics	r2, r3
    114c:	0013      	movs	r3, r2
    114e:	1b52      	subs	r2, r2, r5
    1150:	429d      	cmp	r5, r3
    1152:	d900      	bls.n	1156 <Stack_Size+0x156>
    1154:	e0c1      	b.n	12da <Stack_Size+0x2da>
    1156:	2a0f      	cmp	r2, #15
    1158:	dc00      	bgt.n	115c <Stack_Size+0x15c>
    115a:	e0be      	b.n	12da <Stack_Size+0x2da>
    115c:	2301      	movs	r3, #1
    115e:	0029      	movs	r1, r5
    1160:	1965      	adds	r5, r4, r5
    1162:	4319      	orrs	r1, r3
    1164:	4313      	orrs	r3, r2
    1166:	6061      	str	r1, [r4, #4]
    1168:	0038      	movs	r0, r7
    116a:	60b5      	str	r5, [r6, #8]
    116c:	606b      	str	r3, [r5, #4]
    116e:	f000 f9a5 	bl	14bc <__malloc_unlock>
    1172:	0020      	movs	r0, r4
    1174:	3008      	adds	r0, #8
    1176:	e74a      	b.n	100e <Stack_Size+0xe>
    1178:	2b14      	cmp	r3, #20
    117a:	d974      	bls.n	1266 <Stack_Size+0x266>
    117c:	2b54      	cmp	r3, #84	; 0x54
    117e:	d900      	bls.n	1182 <Stack_Size+0x182>
    1180:	e0b0      	b.n	12e4 <Stack_Size+0x2e4>
    1182:	0b29      	lsrs	r1, r5, #12
    1184:	236e      	movs	r3, #110	; 0x6e
    1186:	e68c      	b.n	ea2 <_malloc_r+0x46>
    1188:	0a4a      	lsrs	r2, r1, #9
    118a:	2a04      	cmp	r2, #4
    118c:	d974      	bls.n	1278 <Stack_Size+0x278>
    118e:	2a14      	cmp	r2, #20
    1190:	d900      	bls.n	1194 <Stack_Size+0x194>
    1192:	e0c2      	b.n	131a <Stack_Size+0x31a>
    1194:	0010      	movs	r0, r2
    1196:	325c      	adds	r2, #92	; 0x5c
    1198:	305b      	adds	r0, #91	; 0x5b
    119a:	0052      	lsls	r2, r2, #1
    119c:	2108      	movs	r1, #8
    119e:	4249      	negs	r1, r1
    11a0:	468c      	mov	ip, r1
    11a2:	0092      	lsls	r2, r2, #2
    11a4:	18b2      	adds	r2, r6, r2
    11a6:	4494      	add	ip, r2
    11a8:	4662      	mov	r2, ip
    11aa:	6892      	ldr	r2, [r2, #8]
    11ac:	310b      	adds	r1, #11
    11ae:	4688      	mov	r8, r1
    11b0:	4594      	cmp	ip, r2
    11b2:	d100      	bne.n	11b6 <Stack_Size+0x1b6>
    11b4:	e0a0      	b.n	12f8 <Stack_Size+0x2f8>
    11b6:	4641      	mov	r1, r8
    11b8:	6850      	ldr	r0, [r2, #4]
    11ba:	4388      	bics	r0, r1
    11bc:	4283      	cmp	r3, r0
    11be:	d202      	bcs.n	11c6 <Stack_Size+0x1c6>
    11c0:	6892      	ldr	r2, [r2, #8]
    11c2:	4594      	cmp	ip, r2
    11c4:	d1f7      	bne.n	11b6 <Stack_Size+0x1b6>
    11c6:	68d3      	ldr	r3, [r2, #12]
    11c8:	469c      	mov	ip, r3
    11ca:	6873      	ldr	r3, [r6, #4]
    11cc:	4661      	mov	r1, ip
    11ce:	60a2      	str	r2, [r4, #8]
    11d0:	60e1      	str	r1, [r4, #12]
    11d2:	608c      	str	r4, [r1, #8]
    11d4:	60d4      	str	r4, [r2, #12]
    11d6:	e6b1      	b.n	f3c <_malloc_r+0xe0>
    11d8:	10010504 	.word	0x10010504
    11dc:	000001ff 	.word	0x000001ff
    11e0:	10010910 	.word	0x10010910
    11e4:	10010f08 	.word	0x10010f08
    11e8:	0000100f 	.word	0x0000100f
    11ec:	10010f0c 	.word	0x10010f0c
    11f0:	00001008 	.word	0x00001008
    11f4:	10010f04 	.word	0x10010f04
    11f8:	10010f00 	.word	0x10010f00
    11fc:	2101      	movs	r1, #1
    11fe:	1963      	adds	r3, r4, r5
    1200:	430d      	orrs	r5, r1
    1202:	4301      	orrs	r1, r0
    1204:	6065      	str	r5, [r4, #4]
    1206:	6173      	str	r3, [r6, #20]
    1208:	6133      	str	r3, [r6, #16]
    120a:	60da      	str	r2, [r3, #12]
    120c:	609a      	str	r2, [r3, #8]
    120e:	6059      	str	r1, [r3, #4]
    1210:	5018      	str	r0, [r3, r0]
    1212:	0038      	movs	r0, r7
    1214:	f000 f952 	bl	14bc <__malloc_unlock>
    1218:	0020      	movs	r0, r4
    121a:	3008      	adds	r0, #8
    121c:	e6f7      	b.n	100e <Stack_Size+0xe>
    121e:	6873      	ldr	r3, [r6, #4]
    1220:	e68c      	b.n	f3c <_malloc_r+0xe0>
    1222:	2308      	movs	r3, #8
    1224:	469b      	mov	fp, r3
    1226:	3b07      	subs	r3, #7
    1228:	44dc      	add	ip, fp
    122a:	469b      	mov	fp, r3
    122c:	44da      	add	sl, fp
    122e:	4643      	mov	r3, r8
    1230:	4652      	mov	r2, sl
    1232:	4213      	tst	r3, r2
    1234:	d000      	beq.n	1238 <Stack_Size+0x238>
    1236:	e69f      	b.n	f78 <_malloc_r+0x11c>
    1238:	e033      	b.n	12a2 <Stack_Size+0x2a2>
    123a:	68dc      	ldr	r4, [r3, #12]
    123c:	1c8a      	adds	r2, r1, #2
    123e:	9200      	str	r2, [sp, #0]
    1240:	42a3      	cmp	r3, r4
    1242:	d100      	bne.n	1246 <Stack_Size+0x246>
    1244:	e655      	b.n	ef2 <_malloc_r+0x96>
    1246:	e6d0      	b.n	fea <_malloc_r+0x18e>
    1248:	2201      	movs	r2, #1
    124a:	18e3      	adds	r3, r4, r3
    124c:	6859      	ldr	r1, [r3, #4]
    124e:	0038      	movs	r0, r7
    1250:	430a      	orrs	r2, r1
    1252:	605a      	str	r2, [r3, #4]
    1254:	68e3      	ldr	r3, [r4, #12]
    1256:	68a2      	ldr	r2, [r4, #8]
    1258:	60d3      	str	r3, [r2, #12]
    125a:	609a      	str	r2, [r3, #8]
    125c:	f000 f92e 	bl	14bc <__malloc_unlock>
    1260:	0020      	movs	r0, r4
    1262:	3008      	adds	r0, #8
    1264:	e6d3      	b.n	100e <Stack_Size+0xe>
    1266:	225b      	movs	r2, #91	; 0x5b
    1268:	4694      	mov	ip, r2
    126a:	3201      	adds	r2, #1
    126c:	4690      	mov	r8, r2
    126e:	4498      	add	r8, r3
    1270:	449c      	add	ip, r3
    1272:	4643      	mov	r3, r8
    1274:	0059      	lsls	r1, r3, #1
    1276:	e61b      	b.n	eb0 <_malloc_r+0x54>
    1278:	098a      	lsrs	r2, r1, #6
    127a:	0010      	movs	r0, r2
    127c:	3239      	adds	r2, #57	; 0x39
    127e:	3038      	adds	r0, #56	; 0x38
    1280:	0052      	lsls	r2, r2, #1
    1282:	e78b      	b.n	119c <Stack_Size+0x19c>
    1284:	42b4      	cmp	r4, r6
    1286:	d000      	beq.n	128a <Stack_Size+0x28a>
    1288:	e75c      	b.n	1144 <Stack_Size+0x144>
    128a:	e6fd      	b.n	1088 <Stack_Size+0x88>
    128c:	9b00      	ldr	r3, [sp, #0]
    128e:	3b01      	subs	r3, #1
    1290:	9300      	str	r3, [sp, #0]
    1292:	2308      	movs	r3, #8
    1294:	425b      	negs	r3, r3
    1296:	469c      	mov	ip, r3
    1298:	44e1      	add	r9, ip
    129a:	464b      	mov	r3, r9
    129c:	689b      	ldr	r3, [r3, #8]
    129e:	4599      	cmp	r9, r3
    12a0:	d17a      	bne.n	1398 <Stack_Size+0x398>
    12a2:	4643      	mov	r3, r8
    12a4:	9a00      	ldr	r2, [sp, #0]
    12a6:	4213      	tst	r3, r2
    12a8:	d1f0      	bne.n	128c <Stack_Size+0x28c>
    12aa:	6873      	ldr	r3, [r6, #4]
    12ac:	4383      	bics	r3, r0
    12ae:	6073      	str	r3, [r6, #4]
    12b0:	0040      	lsls	r0, r0, #1
    12b2:	4298      	cmp	r0, r3
    12b4:	d900      	bls.n	12b8 <Stack_Size+0x2b8>
    12b6:	e6be      	b.n	1036 <Stack_Size+0x36>
    12b8:	2800      	cmp	r0, #0
    12ba:	d100      	bne.n	12be <Stack_Size+0x2be>
    12bc:	e6bb      	b.n	1036 <Stack_Size+0x36>
    12be:	4203      	tst	r3, r0
    12c0:	d170      	bne.n	13a4 <Stack_Size+0x3a4>
    12c2:	4652      	mov	r2, sl
    12c4:	9200      	str	r2, [sp, #0]
    12c6:	9a00      	ldr	r2, [sp, #0]
    12c8:	0040      	lsls	r0, r0, #1
    12ca:	3204      	adds	r2, #4
    12cc:	9200      	str	r2, [sp, #0]
    12ce:	4203      	tst	r3, r0
    12d0:	d0f9      	beq.n	12c6 <Stack_Size+0x2c6>
    12d2:	e64b      	b.n	f6c <_malloc_r+0x110>
    12d4:	2301      	movs	r3, #1
    12d6:	464a      	mov	r2, r9
    12d8:	6053      	str	r3, [r2, #4]
    12da:	0038      	movs	r0, r7
    12dc:	f000 f8ee 	bl	14bc <__malloc_unlock>
    12e0:	2000      	movs	r0, #0
    12e2:	e694      	b.n	100e <Stack_Size+0xe>
    12e4:	22aa      	movs	r2, #170	; 0xaa
    12e6:	0052      	lsls	r2, r2, #1
    12e8:	4293      	cmp	r3, r2
    12ea:	d80d      	bhi.n	1308 <Stack_Size+0x308>
    12ec:	0be9      	lsrs	r1, r5, #15
    12ee:	2377      	movs	r3, #119	; 0x77
    12f0:	e5d7      	b.n	ea2 <_malloc_r+0x46>
    12f2:	2180      	movs	r1, #128	; 0x80
    12f4:	0149      	lsls	r1, r1, #5
    12f6:	e6ea      	b.n	10ce <Stack_Size+0xce>
    12f8:	2301      	movs	r3, #1
    12fa:	1080      	asrs	r0, r0, #2
    12fc:	4083      	lsls	r3, r0
    12fe:	6872      	ldr	r2, [r6, #4]
    1300:	4313      	orrs	r3, r2
    1302:	6073      	str	r3, [r6, #4]
    1304:	4662      	mov	r2, ip
    1306:	e761      	b.n	11cc <Stack_Size+0x1cc>
    1308:	4a28      	ldr	r2, [pc, #160]	; (13ac <Stack_Size+0x3ac>)
    130a:	4293      	cmp	r3, r2
    130c:	d818      	bhi.n	1340 <Stack_Size+0x340>
    130e:	0ca9      	lsrs	r1, r5, #18
    1310:	237c      	movs	r3, #124	; 0x7c
    1312:	e5c6      	b.n	ea2 <_malloc_r+0x46>
    1314:	3310      	adds	r3, #16
    1316:	9300      	str	r3, [sp, #0]
    1318:	e6aa      	b.n	1070 <Stack_Size+0x70>
    131a:	2a54      	cmp	r2, #84	; 0x54
    131c:	d826      	bhi.n	136c <Stack_Size+0x36c>
    131e:	0b0a      	lsrs	r2, r1, #12
    1320:	0010      	movs	r0, r2
    1322:	326f      	adds	r2, #111	; 0x6f
    1324:	306e      	adds	r0, #110	; 0x6e
    1326:	0052      	lsls	r2, r2, #1
    1328:	e738      	b.n	119c <Stack_Size+0x19c>
    132a:	051b      	lsls	r3, r3, #20
    132c:	d000      	beq.n	1330 <Stack_Size+0x330>
    132e:	e6b8      	b.n	10a2 <Stack_Size+0xa2>
    1330:	9b00      	ldr	r3, [sp, #0]
    1332:	68b2      	ldr	r2, [r6, #8]
    1334:	4443      	add	r3, r8
    1336:	0018      	movs	r0, r3
    1338:	2301      	movs	r3, #1
    133a:	4303      	orrs	r3, r0
    133c:	6053      	str	r3, [r2, #4]
    133e:	e6f7      	b.n	1130 <Stack_Size+0x130>
    1340:	237f      	movs	r3, #127	; 0x7f
    1342:	4698      	mov	r8, r3
    1344:	3b01      	subs	r3, #1
    1346:	21fe      	movs	r1, #254	; 0xfe
    1348:	469c      	mov	ip, r3
    134a:	e5b1      	b.n	eb0 <_malloc_r+0x54>
    134c:	465b      	mov	r3, fp
    134e:	464a      	mov	r2, r9
    1350:	601a      	str	r2, [r3, #0]
    1352:	e6b1      	b.n	10b8 <Stack_Size+0xb8>
    1354:	2300      	movs	r3, #0
    1356:	2001      	movs	r0, #1
    1358:	469b      	mov	fp, r3
    135a:	e6ca      	b.n	10f2 <Stack_Size+0xf2>
    135c:	0021      	movs	r1, r4
    135e:	0038      	movs	r0, r7
    1360:	3108      	adds	r1, #8
    1362:	f003 f8a5 	bl	44b0 <_free_r>
    1366:	4653      	mov	r3, sl
    1368:	6819      	ldr	r1, [r3, #0]
    136a:	e6e1      	b.n	1130 <Stack_Size+0x130>
    136c:	20aa      	movs	r0, #170	; 0xaa
    136e:	0040      	lsls	r0, r0, #1
    1370:	4282      	cmp	r2, r0
    1372:	d805      	bhi.n	1380 <Stack_Size+0x380>
    1374:	0bca      	lsrs	r2, r1, #15
    1376:	0010      	movs	r0, r2
    1378:	3278      	adds	r2, #120	; 0x78
    137a:	3077      	adds	r0, #119	; 0x77
    137c:	0052      	lsls	r2, r2, #1
    137e:	e70d      	b.n	119c <Stack_Size+0x19c>
    1380:	480a      	ldr	r0, [pc, #40]	; (13ac <Stack_Size+0x3ac>)
    1382:	4282      	cmp	r2, r0
    1384:	d805      	bhi.n	1392 <Stack_Size+0x392>
    1386:	0c8a      	lsrs	r2, r1, #18
    1388:	0010      	movs	r0, r2
    138a:	327d      	adds	r2, #125	; 0x7d
    138c:	307c      	adds	r0, #124	; 0x7c
    138e:	0052      	lsls	r2, r2, #1
    1390:	e704      	b.n	119c <Stack_Size+0x19c>
    1392:	22fe      	movs	r2, #254	; 0xfe
    1394:	207e      	movs	r0, #126	; 0x7e
    1396:	e701      	b.n	119c <Stack_Size+0x19c>
    1398:	6873      	ldr	r3, [r6, #4]
    139a:	e789      	b.n	12b0 <Stack_Size+0x2b0>
    139c:	08e9      	lsrs	r1, r5, #3
    139e:	1c4b      	adds	r3, r1, #1
    13a0:	005b      	lsls	r3, r3, #1
    13a2:	e619      	b.n	fd8 <_malloc_r+0x17c>
    13a4:	4653      	mov	r3, sl
    13a6:	9300      	str	r3, [sp, #0]
    13a8:	e5e0      	b.n	f6c <_malloc_r+0x110>
    13aa:	46c0      	nop			; (mov r8, r8)
    13ac:	00000554 	.word	0x00000554

000013b0 <memcpy>:
    13b0:	b570      	push	{r4, r5, r6, lr}
    13b2:	2a0f      	cmp	r2, #15
    13b4:	d932      	bls.n	141c <memcpy+0x6c>
    13b6:	000c      	movs	r4, r1
    13b8:	4304      	orrs	r4, r0
    13ba:	000b      	movs	r3, r1
    13bc:	07a4      	lsls	r4, r4, #30
    13be:	d131      	bne.n	1424 <memcpy+0x74>
    13c0:	0015      	movs	r5, r2
    13c2:	0004      	movs	r4, r0
    13c4:	3d10      	subs	r5, #16
    13c6:	092d      	lsrs	r5, r5, #4
    13c8:	3501      	adds	r5, #1
    13ca:	012d      	lsls	r5, r5, #4
    13cc:	1949      	adds	r1, r1, r5
    13ce:	681e      	ldr	r6, [r3, #0]
    13d0:	6026      	str	r6, [r4, #0]
    13d2:	685e      	ldr	r6, [r3, #4]
    13d4:	6066      	str	r6, [r4, #4]
    13d6:	689e      	ldr	r6, [r3, #8]
    13d8:	60a6      	str	r6, [r4, #8]
    13da:	68de      	ldr	r6, [r3, #12]
    13dc:	3310      	adds	r3, #16
    13de:	60e6      	str	r6, [r4, #12]
    13e0:	3410      	adds	r4, #16
    13e2:	4299      	cmp	r1, r3
    13e4:	d1f3      	bne.n	13ce <memcpy+0x1e>
    13e6:	230f      	movs	r3, #15
    13e8:	1945      	adds	r5, r0, r5
    13ea:	4013      	ands	r3, r2
    13ec:	2b03      	cmp	r3, #3
    13ee:	d91b      	bls.n	1428 <memcpy+0x78>
    13f0:	1f1c      	subs	r4, r3, #4
    13f2:	2300      	movs	r3, #0
    13f4:	08a4      	lsrs	r4, r4, #2
    13f6:	3401      	adds	r4, #1
    13f8:	00a4      	lsls	r4, r4, #2
    13fa:	58ce      	ldr	r6, [r1, r3]
    13fc:	50ee      	str	r6, [r5, r3]
    13fe:	3304      	adds	r3, #4
    1400:	429c      	cmp	r4, r3
    1402:	d1fa      	bne.n	13fa <memcpy+0x4a>
    1404:	2303      	movs	r3, #3
    1406:	192d      	adds	r5, r5, r4
    1408:	1909      	adds	r1, r1, r4
    140a:	401a      	ands	r2, r3
    140c:	d005      	beq.n	141a <memcpy+0x6a>
    140e:	2300      	movs	r3, #0
    1410:	5ccc      	ldrb	r4, [r1, r3]
    1412:	54ec      	strb	r4, [r5, r3]
    1414:	3301      	adds	r3, #1
    1416:	429a      	cmp	r2, r3
    1418:	d1fa      	bne.n	1410 <memcpy+0x60>
    141a:	bd70      	pop	{r4, r5, r6, pc}
    141c:	0005      	movs	r5, r0
    141e:	2a00      	cmp	r2, #0
    1420:	d1f5      	bne.n	140e <memcpy+0x5e>
    1422:	e7fa      	b.n	141a <memcpy+0x6a>
    1424:	0005      	movs	r5, r0
    1426:	e7f2      	b.n	140e <memcpy+0x5e>
    1428:	001a      	movs	r2, r3
    142a:	e7f8      	b.n	141e <memcpy+0x6e>

0000142c <memset>:
    142c:	b570      	push	{r4, r5, r6, lr}
    142e:	0783      	lsls	r3, r0, #30
    1430:	d03f      	beq.n	14b2 <memset+0x86>
    1432:	1e54      	subs	r4, r2, #1
    1434:	2a00      	cmp	r2, #0
    1436:	d03b      	beq.n	14b0 <memset+0x84>
    1438:	b2ce      	uxtb	r6, r1
    143a:	0003      	movs	r3, r0
    143c:	2503      	movs	r5, #3
    143e:	e003      	b.n	1448 <memset+0x1c>
    1440:	1e62      	subs	r2, r4, #1
    1442:	2c00      	cmp	r4, #0
    1444:	d034      	beq.n	14b0 <memset+0x84>
    1446:	0014      	movs	r4, r2
    1448:	3301      	adds	r3, #1
    144a:	1e5a      	subs	r2, r3, #1
    144c:	7016      	strb	r6, [r2, #0]
    144e:	422b      	tst	r3, r5
    1450:	d1f6      	bne.n	1440 <memset+0x14>
    1452:	2c03      	cmp	r4, #3
    1454:	d924      	bls.n	14a0 <memset+0x74>
    1456:	25ff      	movs	r5, #255	; 0xff
    1458:	400d      	ands	r5, r1
    145a:	022a      	lsls	r2, r5, #8
    145c:	4315      	orrs	r5, r2
    145e:	042a      	lsls	r2, r5, #16
    1460:	4315      	orrs	r5, r2
    1462:	2c0f      	cmp	r4, #15
    1464:	d911      	bls.n	148a <memset+0x5e>
    1466:	0026      	movs	r6, r4
    1468:	3e10      	subs	r6, #16
    146a:	0936      	lsrs	r6, r6, #4
    146c:	3601      	adds	r6, #1
    146e:	0136      	lsls	r6, r6, #4
    1470:	001a      	movs	r2, r3
    1472:	199b      	adds	r3, r3, r6
    1474:	6015      	str	r5, [r2, #0]
    1476:	6055      	str	r5, [r2, #4]
    1478:	6095      	str	r5, [r2, #8]
    147a:	60d5      	str	r5, [r2, #12]
    147c:	3210      	adds	r2, #16
    147e:	4293      	cmp	r3, r2
    1480:	d1f8      	bne.n	1474 <memset+0x48>
    1482:	220f      	movs	r2, #15
    1484:	4014      	ands	r4, r2
    1486:	2c03      	cmp	r4, #3
    1488:	d90a      	bls.n	14a0 <memset+0x74>
    148a:	1f26      	subs	r6, r4, #4
    148c:	08b6      	lsrs	r6, r6, #2
    148e:	3601      	adds	r6, #1
    1490:	00b6      	lsls	r6, r6, #2
    1492:	001a      	movs	r2, r3
    1494:	199b      	adds	r3, r3, r6
    1496:	c220      	stmia	r2!, {r5}
    1498:	4293      	cmp	r3, r2
    149a:	d1fc      	bne.n	1496 <memset+0x6a>
    149c:	2203      	movs	r2, #3
    149e:	4014      	ands	r4, r2
    14a0:	2c00      	cmp	r4, #0
    14a2:	d005      	beq.n	14b0 <memset+0x84>
    14a4:	b2c9      	uxtb	r1, r1
    14a6:	191c      	adds	r4, r3, r4
    14a8:	7019      	strb	r1, [r3, #0]
    14aa:	3301      	adds	r3, #1
    14ac:	429c      	cmp	r4, r3
    14ae:	d1fb      	bne.n	14a8 <memset+0x7c>
    14b0:	bd70      	pop	{r4, r5, r6, pc}
    14b2:	0014      	movs	r4, r2
    14b4:	0003      	movs	r3, r0
    14b6:	e7cc      	b.n	1452 <memset+0x26>

000014b8 <__malloc_lock>:
    14b8:	4770      	bx	lr
    14ba:	46c0      	nop			; (mov r8, r8)

000014bc <__malloc_unlock>:
    14bc:	4770      	bx	lr
    14be:	46c0      	nop			; (mov r8, r8)

000014c0 <_printf_r>:
    14c0:	b40e      	push	{r1, r2, r3}
    14c2:	b500      	push	{lr}
    14c4:	b082      	sub	sp, #8
    14c6:	ab03      	add	r3, sp, #12
    14c8:	cb04      	ldmia	r3!, {r2}
    14ca:	6881      	ldr	r1, [r0, #8]
    14cc:	9301      	str	r3, [sp, #4]
    14ce:	f000 f89f 	bl	1610 <_vfprintf_r>
    14d2:	b002      	add	sp, #8
    14d4:	bc08      	pop	{r3}
    14d6:	b003      	add	sp, #12
    14d8:	4718      	bx	r3
    14da:	46c0      	nop			; (mov r8, r8)

000014dc <printf>:
    14dc:	b40f      	push	{r0, r1, r2, r3}
    14de:	b500      	push	{lr}
    14e0:	4906      	ldr	r1, [pc, #24]	; (14fc <printf+0x20>)
    14e2:	b083      	sub	sp, #12
    14e4:	ab04      	add	r3, sp, #16
    14e6:	6808      	ldr	r0, [r1, #0]
    14e8:	cb04      	ldmia	r3!, {r2}
    14ea:	6881      	ldr	r1, [r0, #8]
    14ec:	9301      	str	r3, [sp, #4]
    14ee:	f000 f88f 	bl	1610 <_vfprintf_r>
    14f2:	b003      	add	sp, #12
    14f4:	bc08      	pop	{r3}
    14f6:	b004      	add	sp, #16
    14f8:	4718      	bx	r3
    14fa:	46c0      	nop			; (mov r8, r8)
    14fc:	10010d40 	.word	0x10010d40

00001500 <_puts_r>:
    1500:	b530      	push	{r4, r5, lr}
    1502:	0005      	movs	r5, r0
    1504:	b089      	sub	sp, #36	; 0x24
    1506:	0008      	movs	r0, r1
    1508:	000c      	movs	r4, r1
    150a:	f000 f84d 	bl	15a8 <strlen>
    150e:	ab04      	add	r3, sp, #16
    1510:	4a15      	ldr	r2, [pc, #84]	; (1568 <_puts_r+0x68>)
    1512:	9301      	str	r3, [sp, #4]
    1514:	2302      	movs	r3, #2
    1516:	9206      	str	r2, [sp, #24]
    1518:	2201      	movs	r2, #1
    151a:	9302      	str	r3, [sp, #8]
    151c:	6bab      	ldr	r3, [r5, #56]	; 0x38
    151e:	9005      	str	r0, [sp, #20]
    1520:	3001      	adds	r0, #1
    1522:	9404      	str	r4, [sp, #16]
    1524:	9207      	str	r2, [sp, #28]
    1526:	9003      	str	r0, [sp, #12]
    1528:	68ac      	ldr	r4, [r5, #8]
    152a:	2b00      	cmp	r3, #0
    152c:	d017      	beq.n	155e <_puts_r+0x5e>
    152e:	220c      	movs	r2, #12
    1530:	5ea3      	ldrsh	r3, [r4, r2]
    1532:	2280      	movs	r2, #128	; 0x80
    1534:	0192      	lsls	r2, r2, #6
    1536:	4213      	tst	r3, r2
    1538:	d105      	bne.n	1546 <_puts_r+0x46>
    153a:	4313      	orrs	r3, r2
    153c:	81a3      	strh	r3, [r4, #12]
    153e:	6e62      	ldr	r2, [r4, #100]	; 0x64
    1540:	4b0a      	ldr	r3, [pc, #40]	; (156c <_puts_r+0x6c>)
    1542:	4013      	ands	r3, r2
    1544:	6663      	str	r3, [r4, #100]	; 0x64
    1546:	aa01      	add	r2, sp, #4
    1548:	0021      	movs	r1, r4
    154a:	0028      	movs	r0, r5
    154c:	f003 f892 	bl	4674 <__sfvwrite_r>
    1550:	1e43      	subs	r3, r0, #1
    1552:	4198      	sbcs	r0, r3
    1554:	230a      	movs	r3, #10
    1556:	4240      	negs	r0, r0
    1558:	4318      	orrs	r0, r3
    155a:	b009      	add	sp, #36	; 0x24
    155c:	bd30      	pop	{r4, r5, pc}
    155e:	0028      	movs	r0, r5
    1560:	f002 ff2e 	bl	43c0 <__sinit>
    1564:	e7e3      	b.n	152e <_puts_r+0x2e>
    1566:	46c0      	nop			; (mov r8, r8)
    1568:	00008ff8 	.word	0x00008ff8
    156c:	ffffdfff 	.word	0xffffdfff

00001570 <puts>:
    1570:	b510      	push	{r4, lr}
    1572:	4b03      	ldr	r3, [pc, #12]	; (1580 <puts+0x10>)
    1574:	0001      	movs	r1, r0
    1576:	6818      	ldr	r0, [r3, #0]
    1578:	f7ff ffc2 	bl	1500 <_puts_r>
    157c:	bd10      	pop	{r4, pc}
    157e:	46c0      	nop			; (mov r8, r8)
    1580:	10010d40 	.word	0x10010d40

00001584 <_sbrk_r>:
    1584:	2300      	movs	r3, #0
    1586:	b570      	push	{r4, r5, r6, lr}
    1588:	4c06      	ldr	r4, [pc, #24]	; (15a4 <_sbrk_r+0x20>)
    158a:	0005      	movs	r5, r0
    158c:	0008      	movs	r0, r1
    158e:	6023      	str	r3, [r4, #0]
    1590:	f7ff fbcd 	bl	d2e <_sbrk>
    1594:	1c43      	adds	r3, r0, #1
    1596:	d000      	beq.n	159a <_sbrk_r+0x16>
    1598:	bd70      	pop	{r4, r5, r6, pc}
    159a:	6823      	ldr	r3, [r4, #0]
    159c:	2b00      	cmp	r3, #0
    159e:	d0fb      	beq.n	1598 <_sbrk_r+0x14>
    15a0:	602b      	str	r3, [r5, #0]
    15a2:	e7f9      	b.n	1598 <_sbrk_r+0x14>
    15a4:	10011044 	.word	0x10011044

000015a8 <strlen>:
    15a8:	b510      	push	{r4, lr}
    15aa:	0783      	lsls	r3, r0, #30
    15ac:	d027      	beq.n	15fe <strlen+0x56>
    15ae:	7803      	ldrb	r3, [r0, #0]
    15b0:	2b00      	cmp	r3, #0
    15b2:	d026      	beq.n	1602 <strlen+0x5a>
    15b4:	0003      	movs	r3, r0
    15b6:	2103      	movs	r1, #3
    15b8:	e002      	b.n	15c0 <strlen+0x18>
    15ba:	781a      	ldrb	r2, [r3, #0]
    15bc:	2a00      	cmp	r2, #0
    15be:	d01c      	beq.n	15fa <strlen+0x52>
    15c0:	3301      	adds	r3, #1
    15c2:	420b      	tst	r3, r1
    15c4:	d1f9      	bne.n	15ba <strlen+0x12>
    15c6:	6819      	ldr	r1, [r3, #0]
    15c8:	4a0f      	ldr	r2, [pc, #60]	; (1608 <strlen+0x60>)
    15ca:	4c10      	ldr	r4, [pc, #64]	; (160c <strlen+0x64>)
    15cc:	188a      	adds	r2, r1, r2
    15ce:	438a      	bics	r2, r1
    15d0:	4222      	tst	r2, r4
    15d2:	d10f      	bne.n	15f4 <strlen+0x4c>
    15d4:	3304      	adds	r3, #4
    15d6:	6819      	ldr	r1, [r3, #0]
    15d8:	4a0b      	ldr	r2, [pc, #44]	; (1608 <strlen+0x60>)
    15da:	188a      	adds	r2, r1, r2
    15dc:	438a      	bics	r2, r1
    15de:	4222      	tst	r2, r4
    15e0:	d108      	bne.n	15f4 <strlen+0x4c>
    15e2:	3304      	adds	r3, #4
    15e4:	6819      	ldr	r1, [r3, #0]
    15e6:	4a08      	ldr	r2, [pc, #32]	; (1608 <strlen+0x60>)
    15e8:	188a      	adds	r2, r1, r2
    15ea:	438a      	bics	r2, r1
    15ec:	4222      	tst	r2, r4
    15ee:	d0f1      	beq.n	15d4 <strlen+0x2c>
    15f0:	e000      	b.n	15f4 <strlen+0x4c>
    15f2:	3301      	adds	r3, #1
    15f4:	781a      	ldrb	r2, [r3, #0]
    15f6:	2a00      	cmp	r2, #0
    15f8:	d1fb      	bne.n	15f2 <strlen+0x4a>
    15fa:	1a18      	subs	r0, r3, r0
    15fc:	bd10      	pop	{r4, pc}
    15fe:	0003      	movs	r3, r0
    1600:	e7e1      	b.n	15c6 <strlen+0x1e>
    1602:	2000      	movs	r0, #0
    1604:	e7fa      	b.n	15fc <strlen+0x54>
    1606:	46c0      	nop			; (mov r8, r8)
    1608:	fefefeff 	.word	0xfefefeff
    160c:	80808080 	.word	0x80808080

00001610 <_vfprintf_r>:
    1610:	b5f0      	push	{r4, r5, r6, r7, lr}
    1612:	4644      	mov	r4, r8
    1614:	465f      	mov	r7, fp
    1616:	4656      	mov	r6, sl
    1618:	464d      	mov	r5, r9
    161a:	b4f0      	push	{r4, r5, r6, r7}
    161c:	b0c3      	sub	sp, #268	; 0x10c
    161e:	001c      	movs	r4, r3
    1620:	9311      	str	r3, [sp, #68]	; 0x44
    1622:	4683      	mov	fp, r0
    1624:	4688      	mov	r8, r1
    1626:	920a      	str	r2, [sp, #40]	; 0x28
    1628:	f003 f9fc 	bl	4a24 <_localeconv_r>
    162c:	6800      	ldr	r0, [r0, #0]
    162e:	9019      	str	r0, [sp, #100]	; 0x64
    1630:	f7ff ffba 	bl	15a8 <strlen>
    1634:	465b      	mov	r3, fp
    1636:	9018      	str	r0, [sp, #96]	; 0x60
    1638:	2b00      	cmp	r3, #0
    163a:	d003      	beq.n	1644 <_vfprintf_r+0x34>
    163c:	6b9b      	ldr	r3, [r3, #56]	; 0x38
    163e:	2b00      	cmp	r3, #0
    1640:	d100      	bne.n	1644 <_vfprintf_r+0x34>
    1642:	e0d9      	b.n	17f8 <_vfprintf_r+0x1e8>
    1644:	4643      	mov	r3, r8
    1646:	2180      	movs	r1, #128	; 0x80
    1648:	220c      	movs	r2, #12
    164a:	5e9a      	ldrsh	r2, [r3, r2]
    164c:	0189      	lsls	r1, r1, #6
    164e:	b293      	uxth	r3, r2
    1650:	420b      	tst	r3, r1
    1652:	d109      	bne.n	1668 <_vfprintf_r+0x58>
    1654:	430a      	orrs	r2, r1
    1656:	4643      	mov	r3, r8
    1658:	4641      	mov	r1, r8
    165a:	819a      	strh	r2, [r3, #12]
    165c:	6e49      	ldr	r1, [r1, #100]	; 0x64
    165e:	4bbc      	ldr	r3, [pc, #752]	; (1950 <_vfprintf_r+0x340>)
    1660:	400b      	ands	r3, r1
    1662:	4641      	mov	r1, r8
    1664:	664b      	str	r3, [r1, #100]	; 0x64
    1666:	b293      	uxth	r3, r2
    1668:	071a      	lsls	r2, r3, #28
    166a:	d400      	bmi.n	166e <_vfprintf_r+0x5e>
    166c:	e097      	b.n	179e <_vfprintf_r+0x18e>
    166e:	4642      	mov	r2, r8
    1670:	6912      	ldr	r2, [r2, #16]
    1672:	2a00      	cmp	r2, #0
    1674:	d100      	bne.n	1678 <_vfprintf_r+0x68>
    1676:	e092      	b.n	179e <_vfprintf_r+0x18e>
    1678:	221a      	movs	r2, #26
    167a:	4013      	ands	r3, r2
    167c:	2b0a      	cmp	r3, #10
    167e:	d100      	bne.n	1682 <_vfprintf_r+0x72>
    1680:	e09c      	b.n	17bc <_vfprintf_r+0x1ac>
    1682:	ab32      	add	r3, sp, #200	; 0xc8
    1684:	9325      	str	r3, [sp, #148]	; 0x94
    1686:	2300      	movs	r3, #0
    1688:	af25      	add	r7, sp, #148	; 0x94
    168a:	60bb      	str	r3, [r7, #8]
    168c:	607b      	str	r3, [r7, #4]
    168e:	9314      	str	r3, [sp, #80]	; 0x50
    1690:	9316      	str	r3, [sp, #88]	; 0x58
    1692:	9317      	str	r3, [sp, #92]	; 0x5c
    1694:	931a      	str	r3, [sp, #104]	; 0x68
    1696:	930c      	str	r3, [sp, #48]	; 0x30
    1698:	465b      	mov	r3, fp
    169a:	46c3      	mov	fp, r8
    169c:	ae32      	add	r6, sp, #200	; 0xc8
    169e:	9307      	str	r3, [sp, #28]
    16a0:	9c0a      	ldr	r4, [sp, #40]	; 0x28
    16a2:	7823      	ldrb	r3, [r4, #0]
    16a4:	2b00      	cmp	r3, #0
    16a6:	d100      	bne.n	16aa <_vfprintf_r+0x9a>
    16a8:	e0aa      	b.n	1800 <_vfprintf_r+0x1f0>
    16aa:	2b25      	cmp	r3, #37	; 0x25
    16ac:	d102      	bne.n	16b4 <_vfprintf_r+0xa4>
    16ae:	e0a7      	b.n	1800 <_vfprintf_r+0x1f0>
    16b0:	2b25      	cmp	r3, #37	; 0x25
    16b2:	d003      	beq.n	16bc <_vfprintf_r+0xac>
    16b4:	3401      	adds	r4, #1
    16b6:	7823      	ldrb	r3, [r4, #0]
    16b8:	2b00      	cmp	r3, #0
    16ba:	d1f9      	bne.n	16b0 <_vfprintf_r+0xa0>
    16bc:	9b0a      	ldr	r3, [sp, #40]	; 0x28
    16be:	1ae5      	subs	r5, r4, r3
    16c0:	d011      	beq.n	16e6 <_vfprintf_r+0xd6>
    16c2:	9b0a      	ldr	r3, [sp, #40]	; 0x28
    16c4:	6075      	str	r5, [r6, #4]
    16c6:	6033      	str	r3, [r6, #0]
    16c8:	68bb      	ldr	r3, [r7, #8]
    16ca:	195b      	adds	r3, r3, r5
    16cc:	60bb      	str	r3, [r7, #8]
    16ce:	687b      	ldr	r3, [r7, #4]
    16d0:	3301      	adds	r3, #1
    16d2:	607b      	str	r3, [r7, #4]
    16d4:	2b07      	cmp	r3, #7
    16d6:	dd00      	ble.n	16da <_vfprintf_r+0xca>
    16d8:	e083      	b.n	17e2 <_vfprintf_r+0x1d2>
    16da:	3608      	adds	r6, #8
    16dc:	9b0c      	ldr	r3, [sp, #48]	; 0x30
    16de:	469c      	mov	ip, r3
    16e0:	44ac      	add	ip, r5
    16e2:	4663      	mov	r3, ip
    16e4:	930c      	str	r3, [sp, #48]	; 0x30
    16e6:	7823      	ldrb	r3, [r4, #0]
    16e8:	2b00      	cmp	r3, #0
    16ea:	d101      	bne.n	16f0 <_vfprintf_r+0xe0>
    16ec:	f001 f8da 	bl	28a4 <_vfprintf_r+0x1294>
    16f0:	2300      	movs	r3, #0
    16f2:	aa16      	add	r2, sp, #88	; 0x58
    16f4:	77d3      	strb	r3, [r2, #31]
    16f6:	2201      	movs	r2, #1
    16f8:	4252      	negs	r2, r2
    16fa:	920b      	str	r2, [sp, #44]	; 0x2c
    16fc:	2200      	movs	r2, #0
    16fe:	920d      	str	r2, [sp, #52]	; 0x34
    1700:	9208      	str	r2, [sp, #32]
    1702:	3240      	adds	r2, #64	; 0x40
    1704:	4692      	mov	sl, r2
    1706:	3a38      	subs	r2, #56	; 0x38
    1708:	4691      	mov	r9, r2
    170a:	3278      	adds	r2, #120	; 0x78
    170c:	1c61      	adds	r1, r4, #1
    170e:	7863      	ldrb	r3, [r4, #1]
    1710:	2000      	movs	r0, #0
    1712:	2400      	movs	r4, #0
    1714:	4694      	mov	ip, r2
    1716:	3101      	adds	r1, #1
    1718:	001a      	movs	r2, r3
    171a:	3a20      	subs	r2, #32
    171c:	2a58      	cmp	r2, #88	; 0x58
    171e:	d900      	bls.n	1722 <_vfprintf_r+0x112>
    1720:	e38d      	b.n	1e3e <_vfprintf_r+0x82e>
    1722:	4d8c      	ldr	r5, [pc, #560]	; (1954 <_vfprintf_r+0x344>)
    1724:	0092      	lsls	r2, r2, #2
    1726:	58aa      	ldr	r2, [r5, r2]
    1728:	4697      	mov	pc, r2
    172a:	9b0d      	ldr	r3, [sp, #52]	; 0x34
    172c:	9211      	str	r2, [sp, #68]	; 0x44
    172e:	425b      	negs	r3, r3
    1730:	930d      	str	r3, [sp, #52]	; 0x34
    1732:	2304      	movs	r3, #4
    1734:	9a08      	ldr	r2, [sp, #32]
    1736:	431a      	orrs	r2, r3
    1738:	9208      	str	r2, [sp, #32]
    173a:	780b      	ldrb	r3, [r1, #0]
    173c:	e7eb      	b.n	1716 <_vfprintf_r+0x106>
    173e:	2430      	movs	r4, #48	; 0x30
    1740:	9b11      	ldr	r3, [sp, #68]	; 0x44
    1742:	aa1e      	add	r2, sp, #120	; 0x78
    1744:	7014      	strb	r4, [r2, #0]
    1746:	1d18      	adds	r0, r3, #4
    1748:	3448      	adds	r4, #72	; 0x48
    174a:	681b      	ldr	r3, [r3, #0]
    174c:	7054      	strb	r4, [r2, #1]
    174e:	9d08      	ldr	r5, [sp, #32]
    1750:	2200      	movs	r2, #0
    1752:	930e      	str	r3, [sp, #56]	; 0x38
    1754:	2300      	movs	r3, #0
    1756:	910a      	str	r1, [sp, #40]	; 0x28
    1758:	0029      	movs	r1, r5
    175a:	ac16      	add	r4, sp, #88	; 0x58
    175c:	77e2      	strb	r2, [r4, #31]
    175e:	9a0b      	ldr	r2, [sp, #44]	; 0x2c
    1760:	930f      	str	r3, [sp, #60]	; 0x3c
    1762:	3302      	adds	r3, #2
    1764:	4319      	orrs	r1, r3
    1766:	2a00      	cmp	r2, #0
    1768:	da00      	bge.n	176c <_vfprintf_r+0x15c>
    176a:	e379      	b.n	1e60 <_vfprintf_r+0x850>
    176c:	2280      	movs	r2, #128	; 0x80
    176e:	4395      	bics	r5, r2
    1770:	002a      	movs	r2, r5
    1772:	431a      	orrs	r2, r3
    1774:	9b0e      	ldr	r3, [sp, #56]	; 0x38
    1776:	9208      	str	r2, [sp, #32]
    1778:	9011      	str	r0, [sp, #68]	; 0x44
    177a:	2b00      	cmp	r3, #0
    177c:	d000      	beq.n	1780 <_vfprintf_r+0x170>
    177e:	e358      	b.n	1e32 <_vfprintf_r+0x822>
    1780:	3378      	adds	r3, #120	; 0x78
    1782:	4975      	ldr	r1, [pc, #468]	; (1958 <_vfprintf_r+0x348>)
    1784:	9313      	str	r3, [sp, #76]	; 0x4c
    1786:	9b0b      	ldr	r3, [sp, #44]	; 0x2c
    1788:	4698      	mov	r8, r3
    178a:	2b00      	cmp	r3, #0
    178c:	d100      	bne.n	1790 <_vfprintf_r+0x180>
    178e:	e31e      	b.n	1dce <_vfprintf_r+0x7be>
    1790:	2300      	movs	r3, #0
    1792:	4698      	mov	r8, r3
    1794:	2400      	movs	r4, #0
    1796:	2300      	movs	r3, #0
    1798:	930e      	str	r3, [sp, #56]	; 0x38
    179a:	940f      	str	r4, [sp, #60]	; 0x3c
    179c:	e2c0      	b.n	1d20 <_vfprintf_r+0x710>
    179e:	4641      	mov	r1, r8
    17a0:	4658      	mov	r0, fp
    17a2:	f001 fb8f 	bl	2ec4 <__swsetup_r>
    17a6:	2800      	cmp	r0, #0
    17a8:	d001      	beq.n	17ae <_vfprintf_r+0x19e>
    17aa:	f001 f873 	bl	2894 <_vfprintf_r+0x1284>
    17ae:	4643      	mov	r3, r8
    17b0:	221a      	movs	r2, #26
    17b2:	899b      	ldrh	r3, [r3, #12]
    17b4:	4013      	ands	r3, r2
    17b6:	2b0a      	cmp	r3, #10
    17b8:	d000      	beq.n	17bc <_vfprintf_r+0x1ac>
    17ba:	e762      	b.n	1682 <_vfprintf_r+0x72>
    17bc:	4643      	mov	r3, r8
    17be:	220e      	movs	r2, #14
    17c0:	5e9b      	ldrsh	r3, [r3, r2]
    17c2:	2b00      	cmp	r3, #0
    17c4:	da00      	bge.n	17c8 <_vfprintf_r+0x1b8>
    17c6:	e75c      	b.n	1682 <_vfprintf_r+0x72>
    17c8:	0023      	movs	r3, r4
    17ca:	9a0a      	ldr	r2, [sp, #40]	; 0x28
    17cc:	4641      	mov	r1, r8
    17ce:	4658      	mov	r0, fp
    17d0:	f001 fb3e 	bl	2e50 <__sbprintf>
    17d4:	b043      	add	sp, #268	; 0x10c
    17d6:	bc3c      	pop	{r2, r3, r4, r5}
    17d8:	4690      	mov	r8, r2
    17da:	4699      	mov	r9, r3
    17dc:	46a2      	mov	sl, r4
    17de:	46ab      	mov	fp, r5
    17e0:	bdf0      	pop	{r4, r5, r6, r7, pc}
    17e2:	003a      	movs	r2, r7
    17e4:	4659      	mov	r1, fp
    17e6:	9807      	ldr	r0, [sp, #28]
    17e8:	f004 f9d4 	bl	5b94 <__sprint_r>
    17ec:	2800      	cmp	r0, #0
    17ee:	d001      	beq.n	17f4 <_vfprintf_r+0x1e4>
    17f0:	f000 fd27 	bl	2242 <_vfprintf_r+0xc32>
    17f4:	ae32      	add	r6, sp, #200	; 0xc8
    17f6:	e771      	b.n	16dc <_vfprintf_r+0xcc>
    17f8:	4658      	mov	r0, fp
    17fa:	f002 fde1 	bl	43c0 <__sinit>
    17fe:	e721      	b.n	1644 <_vfprintf_r+0x34>
    1800:	9c0a      	ldr	r4, [sp, #40]	; 0x28
    1802:	e770      	b.n	16e6 <_vfprintf_r+0xd6>
    1804:	9b11      	ldr	r3, [sp, #68]	; 0x44
    1806:	1d1a      	adds	r2, r3, #4
    1808:	681b      	ldr	r3, [r3, #0]
    180a:	930d      	str	r3, [sp, #52]	; 0x34
    180c:	2b00      	cmp	r3, #0
    180e:	da00      	bge.n	1812 <_vfprintf_r+0x202>
    1810:	e78b      	b.n	172a <_vfprintf_r+0x11a>
    1812:	780b      	ldrb	r3, [r1, #0]
    1814:	9211      	str	r2, [sp, #68]	; 0x44
    1816:	e77e      	b.n	1716 <_vfprintf_r+0x106>
    1818:	1c4b      	adds	r3, r1, #1
    181a:	4698      	mov	r8, r3
    181c:	780b      	ldrb	r3, [r1, #0]
    181e:	2b2a      	cmp	r3, #42	; 0x2a
    1820:	d101      	bne.n	1826 <_vfprintf_r+0x216>
    1822:	f001 fabb 	bl	2d9c <_vfprintf_r+0x178c>
    1826:	001a      	movs	r2, r3
    1828:	3a30      	subs	r2, #48	; 0x30
    182a:	2100      	movs	r1, #0
    182c:	2a09      	cmp	r2, #9
    182e:	d901      	bls.n	1834 <_vfprintf_r+0x224>
    1830:	f001 fa60 	bl	2cf4 <_vfprintf_r+0x16e4>
    1834:	4643      	mov	r3, r8
    1836:	4680      	mov	r8, r0
    1838:	0008      	movs	r0, r1
    183a:	0081      	lsls	r1, r0, #2
    183c:	1809      	adds	r1, r1, r0
    183e:	0049      	lsls	r1, r1, #1
    1840:	3301      	adds	r3, #1
    1842:	1888      	adds	r0, r1, r2
    1844:	1e5a      	subs	r2, r3, #1
    1846:	7811      	ldrb	r1, [r2, #0]
    1848:	000a      	movs	r2, r1
    184a:	3a30      	subs	r2, #48	; 0x30
    184c:	2a09      	cmp	r2, #9
    184e:	d9f4      	bls.n	183a <_vfprintf_r+0x22a>
    1850:	4642      	mov	r2, r8
    1852:	4698      	mov	r8, r3
    1854:	000b      	movs	r3, r1
    1856:	0001      	movs	r1, r0
    1858:	0010      	movs	r0, r2
    185a:	2900      	cmp	r1, #0
    185c:	da01      	bge.n	1862 <_vfprintf_r+0x252>
    185e:	f001 f8fd 	bl	2a5c <_vfprintf_r+0x144c>
    1862:	910b      	str	r1, [sp, #44]	; 0x2c
    1864:	4641      	mov	r1, r8
    1866:	e757      	b.n	1718 <_vfprintf_r+0x108>
    1868:	4662      	mov	r2, ip
    186a:	9b08      	ldr	r3, [sp, #32]
    186c:	4313      	orrs	r3, r2
    186e:	9308      	str	r3, [sp, #32]
    1870:	780b      	ldrb	r3, [r1, #0]
    1872:	e750      	b.n	1716 <_vfprintf_r+0x106>
    1874:	2200      	movs	r2, #0
    1876:	0015      	movs	r5, r2
    1878:	3b30      	subs	r3, #48	; 0x30
    187a:	4680      	mov	r8, r0
    187c:	001a      	movs	r2, r3
    187e:	0028      	movs	r0, r5
    1880:	0083      	lsls	r3, r0, #2
    1882:	181b      	adds	r3, r3, r0
    1884:	005b      	lsls	r3, r3, #1
    1886:	3101      	adds	r1, #1
    1888:	18d0      	adds	r0, r2, r3
    188a:	1e4b      	subs	r3, r1, #1
    188c:	781b      	ldrb	r3, [r3, #0]
    188e:	001a      	movs	r2, r3
    1890:	3a30      	subs	r2, #48	; 0x30
    1892:	2a09      	cmp	r2, #9
    1894:	d9f4      	bls.n	1880 <_vfprintf_r+0x270>
    1896:	900d      	str	r0, [sp, #52]	; 0x34
    1898:	4640      	mov	r0, r8
    189a:	e73d      	b.n	1718 <_vfprintf_r+0x108>
    189c:	9313      	str	r3, [sp, #76]	; 0x4c
    189e:	910a      	str	r1, [sp, #40]	; 0x28
    18a0:	2800      	cmp	r0, #0
    18a2:	d001      	beq.n	18a8 <_vfprintf_r+0x298>
    18a4:	f001 faa7 	bl	2df6 <_vfprintf_r+0x17e6>
    18a8:	2310      	movs	r3, #16
    18aa:	9a08      	ldr	r2, [sp, #32]
    18ac:	431a      	orrs	r2, r3
    18ae:	9208      	str	r2, [sp, #32]
    18b0:	9b08      	ldr	r3, [sp, #32]
    18b2:	069b      	lsls	r3, r3, #26
    18b4:	d401      	bmi.n	18ba <_vfprintf_r+0x2aa>
    18b6:	f000 fd9c 	bl	23f2 <_vfprintf_r+0xde2>
    18ba:	2307      	movs	r3, #7
    18bc:	9a11      	ldr	r2, [sp, #68]	; 0x44
    18be:	3207      	adds	r2, #7
    18c0:	439a      	bics	r2, r3
    18c2:	3301      	adds	r3, #1
    18c4:	469c      	mov	ip, r3
    18c6:	4494      	add	ip, r2
    18c8:	4663      	mov	r3, ip
    18ca:	9311      	str	r3, [sp, #68]	; 0x44
    18cc:	6853      	ldr	r3, [r2, #4]
    18ce:	6812      	ldr	r2, [r2, #0]
    18d0:	930f      	str	r3, [sp, #60]	; 0x3c
    18d2:	920e      	str	r2, [sp, #56]	; 0x38
    18d4:	2b00      	cmp	r3, #0
    18d6:	da01      	bge.n	18dc <_vfprintf_r+0x2cc>
    18d8:	f000 fe8e 	bl	25f8 <_vfprintf_r+0xfe8>
    18dc:	ab16      	add	r3, sp, #88	; 0x58
    18de:	7fdb      	ldrb	r3, [r3, #31]
    18e0:	4698      	mov	r8, r3
    18e2:	9b0b      	ldr	r3, [sp, #44]	; 0x2c
    18e4:	2b00      	cmp	r3, #0
    18e6:	da01      	bge.n	18ec <_vfprintf_r+0x2dc>
    18e8:	f000 fde3 	bl	24b2 <_vfprintf_r+0xea2>
    18ec:	2380      	movs	r3, #128	; 0x80
    18ee:	9a08      	ldr	r2, [sp, #32]
    18f0:	439a      	bics	r2, r3
    18f2:	9208      	str	r2, [sp, #32]
    18f4:	9a0e      	ldr	r2, [sp, #56]	; 0x38
    18f6:	9b0f      	ldr	r3, [sp, #60]	; 0x3c
    18f8:	0011      	movs	r1, r2
    18fa:	4319      	orrs	r1, r3
    18fc:	d101      	bne.n	1902 <_vfprintf_r+0x2f2>
    18fe:	f000 fcbd 	bl	227c <_vfprintf_r+0xc6c>
    1902:	9b0f      	ldr	r3, [sp, #60]	; 0x3c
    1904:	2b00      	cmp	r3, #0
    1906:	d101      	bne.n	190c <_vfprintf_r+0x2fc>
    1908:	f001 f8a2 	bl	2a50 <_vfprintf_r+0x1440>
    190c:	9c0e      	ldr	r4, [sp, #56]	; 0x38
    190e:	9d0f      	ldr	r5, [sp, #60]	; 0x3c
    1910:	ab32      	add	r3, sp, #200	; 0xc8
    1912:	46b1      	mov	r9, r6
    1914:	001e      	movs	r6, r3
    1916:	0020      	movs	r0, r4
    1918:	0029      	movs	r1, r5
    191a:	220a      	movs	r2, #10
    191c:	2300      	movs	r3, #0
    191e:	f005 fbed 	bl	70fc <__aeabi_uldivmod>
    1922:	3e01      	subs	r6, #1
    1924:	3230      	adds	r2, #48	; 0x30
    1926:	7032      	strb	r2, [r6, #0]
    1928:	2300      	movs	r3, #0
    192a:	0020      	movs	r0, r4
    192c:	0029      	movs	r1, r5
    192e:	220a      	movs	r2, #10
    1930:	f005 fbe4 	bl	70fc <__aeabi_uldivmod>
    1934:	0003      	movs	r3, r0
    1936:	0004      	movs	r4, r0
    1938:	000d      	movs	r5, r1
    193a:	430b      	orrs	r3, r1
    193c:	d1eb      	bne.n	1916 <_vfprintf_r+0x306>
    193e:	0032      	movs	r2, r6
    1940:	ab32      	add	r3, sp, #200	; 0xc8
    1942:	1a9b      	subs	r3, r3, r2
    1944:	9612      	str	r6, [sp, #72]	; 0x48
    1946:	940e      	str	r4, [sp, #56]	; 0x38
    1948:	950f      	str	r5, [sp, #60]	; 0x3c
    194a:	464e      	mov	r6, r9
    194c:	9310      	str	r3, [sp, #64]	; 0x40
    194e:	e0b1      	b.n	1ab4 <_vfprintf_r+0x4a4>
    1950:	ffffdfff 	.word	0xffffdfff
    1954:	00008ffc 	.word	0x00008ffc
    1958:	00009194 	.word	0x00009194
    195c:	9313      	str	r3, [sp, #76]	; 0x4c
    195e:	910a      	str	r1, [sp, #40]	; 0x28
    1960:	2800      	cmp	r0, #0
    1962:	d001      	beq.n	1968 <_vfprintf_r+0x358>
    1964:	f001 fa32 	bl	2dcc <_vfprintf_r+0x17bc>
    1968:	2207      	movs	r2, #7
    196a:	9b11      	ldr	r3, [sp, #68]	; 0x44
    196c:	3307      	adds	r3, #7
    196e:	4393      	bics	r3, r2
    1970:	3201      	adds	r2, #1
    1972:	4694      	mov	ip, r2
    1974:	449c      	add	ip, r3
    1976:	4662      	mov	r2, ip
    1978:	9211      	str	r2, [sp, #68]	; 0x44
    197a:	681a      	ldr	r2, [r3, #0]
    197c:	9216      	str	r2, [sp, #88]	; 0x58
    197e:	2201      	movs	r2, #1
    1980:	685b      	ldr	r3, [r3, #4]
    1982:	9d16      	ldr	r5, [sp, #88]	; 0x58
    1984:	9317      	str	r3, [sp, #92]	; 0x5c
    1986:	9b17      	ldr	r3, [sp, #92]	; 0x5c
    1988:	4252      	negs	r2, r2
    198a:	005c      	lsls	r4, r3, #1
    198c:	0864      	lsrs	r4, r4, #1
    198e:	4bc2      	ldr	r3, [pc, #776]	; (1c98 <_vfprintf_r+0x688>)
    1990:	0028      	movs	r0, r5
    1992:	0021      	movs	r1, r4
    1994:	f007 f9b0 	bl	8cf8 <__aeabi_dcmpun>
    1998:	2800      	cmp	r0, #0
    199a:	d001      	beq.n	19a0 <_vfprintf_r+0x390>
    199c:	f000 fe6c 	bl	2678 <_vfprintf_r+0x1068>
    19a0:	2201      	movs	r2, #1
    19a2:	4bbd      	ldr	r3, [pc, #756]	; (1c98 <_vfprintf_r+0x688>)
    19a4:	4252      	negs	r2, r2
    19a6:	0028      	movs	r0, r5
    19a8:	0021      	movs	r1, r4
    19aa:	f005 fb89 	bl	70c0 <__aeabi_dcmple>
    19ae:	2800      	cmp	r0, #0
    19b0:	d001      	beq.n	19b6 <_vfprintf_r+0x3a6>
    19b2:	f000 fe61 	bl	2678 <_vfprintf_r+0x1068>
    19b6:	2200      	movs	r2, #0
    19b8:	2300      	movs	r3, #0
    19ba:	9816      	ldr	r0, [sp, #88]	; 0x58
    19bc:	9917      	ldr	r1, [sp, #92]	; 0x5c
    19be:	f005 fb75 	bl	70ac <__aeabi_dcmplt>
    19c2:	2800      	cmp	r0, #0
    19c4:	d001      	beq.n	19ca <_vfprintf_r+0x3ba>
    19c6:	f001 f91f 	bl	2c08 <_vfprintf_r+0x15f8>
    19ca:	ab16      	add	r3, sp, #88	; 0x58
    19cc:	7fdb      	ldrb	r3, [r3, #31]
    19ce:	4698      	mov	r8, r3
    19d0:	9b13      	ldr	r3, [sp, #76]	; 0x4c
    19d2:	2b47      	cmp	r3, #71	; 0x47
    19d4:	dc01      	bgt.n	19da <_vfprintf_r+0x3ca>
    19d6:	f000 ff72 	bl	28be <_vfprintf_r+0x12ae>
    19da:	4bb0      	ldr	r3, [pc, #704]	; (1c9c <_vfprintf_r+0x68c>)
    19dc:	9312      	str	r3, [sp, #72]	; 0x48
    19de:	2380      	movs	r3, #128	; 0x80
    19e0:	9a08      	ldr	r2, [sp, #32]
    19e2:	439a      	bics	r2, r3
    19e4:	9208      	str	r2, [sp, #32]
    19e6:	3b7d      	subs	r3, #125	; 0x7d
    19e8:	9309      	str	r3, [sp, #36]	; 0x24
    19ea:	9310      	str	r3, [sp, #64]	; 0x40
    19ec:	2300      	movs	r3, #0
    19ee:	930b      	str	r3, [sp, #44]	; 0x2c
    19f0:	9315      	str	r3, [sp, #84]	; 0x54
    19f2:	e068      	b.n	1ac6 <_vfprintf_r+0x4b6>
    19f4:	464a      	mov	r2, r9
    19f6:	9b08      	ldr	r3, [sp, #32]
    19f8:	4313      	orrs	r3, r2
    19fa:	9308      	str	r3, [sp, #32]
    19fc:	780b      	ldrb	r3, [r1, #0]
    19fe:	e68a      	b.n	1716 <_vfprintf_r+0x106>
    1a00:	9313      	str	r3, [sp, #76]	; 0x4c
    1a02:	910a      	str	r1, [sp, #40]	; 0x28
    1a04:	2800      	cmp	r0, #0
    1a06:	d001      	beq.n	1a0c <_vfprintf_r+0x3fc>
    1a08:	f001 f9e4 	bl	2dd4 <_vfprintf_r+0x17c4>
    1a0c:	2310      	movs	r3, #16
    1a0e:	9a08      	ldr	r2, [sp, #32]
    1a10:	431a      	orrs	r2, r3
    1a12:	9208      	str	r2, [sp, #32]
    1a14:	2320      	movs	r3, #32
    1a16:	9908      	ldr	r1, [sp, #32]
    1a18:	400b      	ands	r3, r1
    1a1a:	d101      	bne.n	1a20 <_vfprintf_r+0x410>
    1a1c:	f000 fcc1 	bl	23a2 <_vfprintf_r+0xd92>
    1a20:	2207      	movs	r2, #7
    1a22:	9b11      	ldr	r3, [sp, #68]	; 0x44
    1a24:	3307      	adds	r3, #7
    1a26:	4393      	bics	r3, r2
    1a28:	3201      	adds	r2, #1
    1a2a:	4694      	mov	ip, r2
    1a2c:	449c      	add	ip, r3
    1a2e:	4662      	mov	r2, ip
    1a30:	685c      	ldr	r4, [r3, #4]
    1a32:	681b      	ldr	r3, [r3, #0]
    1a34:	0025      	movs	r5, r4
    1a36:	001c      	movs	r4, r3
    1a38:	2300      	movs	r3, #0
    1a3a:	9211      	str	r2, [sp, #68]	; 0x44
    1a3c:	aa16      	add	r2, sp, #88	; 0x58
    1a3e:	77d3      	strb	r3, [r2, #31]
    1a40:	9b0b      	ldr	r3, [sp, #44]	; 0x2c
    1a42:	940e      	str	r4, [sp, #56]	; 0x38
    1a44:	950f      	str	r5, [sp, #60]	; 0x3c
    1a46:	2b00      	cmp	r3, #0
    1a48:	da01      	bge.n	1a4e <_vfprintf_r+0x43e>
    1a4a:	f000 fdfd 	bl	2648 <_vfprintf_r+0x1038>
    1a4e:	2380      	movs	r3, #128	; 0x80
    1a50:	4399      	bics	r1, r3
    1a52:	9108      	str	r1, [sp, #32]
    1a54:	0021      	movs	r1, r4
    1a56:	4329      	orrs	r1, r5
    1a58:	d101      	bne.n	1a5e <_vfprintf_r+0x44e>
    1a5a:	f000 fcbd 	bl	23d8 <_vfprintf_r+0xdc8>
    1a5e:	2300      	movs	r3, #0
    1a60:	4698      	mov	r8, r3
    1a62:	2207      	movs	r2, #7
    1a64:	46b4      	mov	ip, r6
    1a66:	ab32      	add	r3, sp, #200	; 0xc8
    1a68:	4692      	mov	sl, r2
    1a6a:	001c      	movs	r4, r3
    1a6c:	9a0e      	ldr	r2, [sp, #56]	; 0x38
    1a6e:	9b0f      	ldr	r3, [sp, #60]	; 0x3c
    1a70:	0758      	lsls	r0, r3, #29
    1a72:	08d6      	lsrs	r6, r2, #3
    1a74:	4651      	mov	r1, sl
    1a76:	08dd      	lsrs	r5, r3, #3
    1a78:	4330      	orrs	r0, r6
    1a7a:	002b      	movs	r3, r5
    1a7c:	0005      	movs	r5, r0
    1a7e:	4011      	ands	r1, r2
    1a80:	3c01      	subs	r4, #1
    1a82:	3130      	adds	r1, #48	; 0x30
    1a84:	7021      	strb	r1, [r4, #0]
    1a86:	0002      	movs	r2, r0
    1a88:	431d      	orrs	r5, r3
    1a8a:	d1f1      	bne.n	1a70 <_vfprintf_r+0x460>
    1a8c:	920e      	str	r2, [sp, #56]	; 0x38
    1a8e:	930f      	str	r3, [sp, #60]	; 0x3c
    1a90:	9a08      	ldr	r2, [sp, #32]
    1a92:	9412      	str	r4, [sp, #72]	; 0x48
    1a94:	4666      	mov	r6, ip
    1a96:	07d2      	lsls	r2, r2, #31
    1a98:	d400      	bmi.n	1a9c <_vfprintf_r+0x48c>
    1a9a:	e15b      	b.n	1d54 <_vfprintf_r+0x744>
    1a9c:	2930      	cmp	r1, #48	; 0x30
    1a9e:	d101      	bne.n	1aa4 <_vfprintf_r+0x494>
    1aa0:	f000 ff99 	bl	29d6 <_vfprintf_r+0x13c6>
    1aa4:	2330      	movs	r3, #48	; 0x30
    1aa6:	9d12      	ldr	r5, [sp, #72]	; 0x48
    1aa8:	3d01      	subs	r5, #1
    1aaa:	702b      	strb	r3, [r5, #0]
    1aac:	ab32      	add	r3, sp, #200	; 0xc8
    1aae:	1b5b      	subs	r3, r3, r5
    1ab0:	9310      	str	r3, [sp, #64]	; 0x40
    1ab2:	9512      	str	r5, [sp, #72]	; 0x48
    1ab4:	9a10      	ldr	r2, [sp, #64]	; 0x40
    1ab6:	0013      	movs	r3, r2
    1ab8:	9a0b      	ldr	r2, [sp, #44]	; 0x2c
    1aba:	4293      	cmp	r3, r2
    1abc:	da00      	bge.n	1ac0 <_vfprintf_r+0x4b0>
    1abe:	0013      	movs	r3, r2
    1ac0:	9309      	str	r3, [sp, #36]	; 0x24
    1ac2:	2300      	movs	r3, #0
    1ac4:	9315      	str	r3, [sp, #84]	; 0x54
    1ac6:	4643      	mov	r3, r8
    1ac8:	2b00      	cmp	r3, #0
    1aca:	d002      	beq.n	1ad2 <_vfprintf_r+0x4c2>
    1acc:	9b09      	ldr	r3, [sp, #36]	; 0x24
    1ace:	3301      	adds	r3, #1
    1ad0:	9309      	str	r3, [sp, #36]	; 0x24
    1ad2:	2302      	movs	r3, #2
    1ad4:	9a08      	ldr	r2, [sp, #32]
    1ad6:	401a      	ands	r2, r3
    1ad8:	4692      	mov	sl, r2
    1ada:	d002      	beq.n	1ae2 <_vfprintf_r+0x4d2>
    1adc:	9b09      	ldr	r3, [sp, #36]	; 0x24
    1ade:	3302      	adds	r3, #2
    1ae0:	9309      	str	r3, [sp, #36]	; 0x24
    1ae2:	2384      	movs	r3, #132	; 0x84
    1ae4:	9a08      	ldr	r2, [sp, #32]
    1ae6:	401a      	ands	r2, r3
    1ae8:	4691      	mov	r9, r2
    1aea:	d000      	beq.n	1aee <_vfprintf_r+0x4de>
    1aec:	e1c7      	b.n	1e7e <_vfprintf_r+0x86e>
    1aee:	9b0d      	ldr	r3, [sp, #52]	; 0x34
    1af0:	9a09      	ldr	r2, [sp, #36]	; 0x24
    1af2:	1a9c      	subs	r4, r3, r2
    1af4:	2c00      	cmp	r4, #0
    1af6:	dc00      	bgt.n	1afa <_vfprintf_r+0x4ea>
    1af8:	e1c1      	b.n	1e7e <_vfprintf_r+0x86e>
    1afa:	4969      	ldr	r1, [pc, #420]	; (1ca0 <_vfprintf_r+0x690>)
    1afc:	68ba      	ldr	r2, [r7, #8]
    1afe:	687b      	ldr	r3, [r7, #4]
    1b00:	4688      	mov	r8, r1
    1b02:	2c10      	cmp	r4, #16
    1b04:	dd21      	ble.n	1b4a <_vfprintf_r+0x53a>
    1b06:	0031      	movs	r1, r6
    1b08:	2510      	movs	r5, #16
    1b0a:	465e      	mov	r6, fp
    1b0c:	e003      	b.n	1b16 <_vfprintf_r+0x506>
    1b0e:	3c10      	subs	r4, #16
    1b10:	3108      	adds	r1, #8
    1b12:	2c10      	cmp	r4, #16
    1b14:	dd17      	ble.n	1b46 <_vfprintf_r+0x536>
    1b16:	4640      	mov	r0, r8
    1b18:	3210      	adds	r2, #16
    1b1a:	3301      	adds	r3, #1
    1b1c:	6008      	str	r0, [r1, #0]
    1b1e:	604d      	str	r5, [r1, #4]
    1b20:	60ba      	str	r2, [r7, #8]
    1b22:	607b      	str	r3, [r7, #4]
    1b24:	2b07      	cmp	r3, #7
    1b26:	ddf2      	ble.n	1b0e <_vfprintf_r+0x4fe>
    1b28:	003a      	movs	r2, r7
    1b2a:	0031      	movs	r1, r6
    1b2c:	9807      	ldr	r0, [sp, #28]
    1b2e:	f004 f831 	bl	5b94 <__sprint_r>
    1b32:	2800      	cmp	r0, #0
    1b34:	d001      	beq.n	1b3a <_vfprintf_r+0x52a>
    1b36:	f000 fc32 	bl	239e <_vfprintf_r+0xd8e>
    1b3a:	3c10      	subs	r4, #16
    1b3c:	68ba      	ldr	r2, [r7, #8]
    1b3e:	687b      	ldr	r3, [r7, #4]
    1b40:	a932      	add	r1, sp, #200	; 0xc8
    1b42:	2c10      	cmp	r4, #16
    1b44:	dce7      	bgt.n	1b16 <_vfprintf_r+0x506>
    1b46:	46b3      	mov	fp, r6
    1b48:	000e      	movs	r6, r1
    1b4a:	4641      	mov	r1, r8
    1b4c:	6074      	str	r4, [r6, #4]
    1b4e:	3301      	adds	r3, #1
    1b50:	18a4      	adds	r4, r4, r2
    1b52:	6031      	str	r1, [r6, #0]
    1b54:	60bc      	str	r4, [r7, #8]
    1b56:	607b      	str	r3, [r7, #4]
    1b58:	2b07      	cmp	r3, #7
    1b5a:	dd01      	ble.n	1b60 <_vfprintf_r+0x550>
    1b5c:	f000 fc11 	bl	2382 <_vfprintf_r+0xd72>
    1b60:	ab16      	add	r3, sp, #88	; 0x58
    1b62:	7fdb      	ldrb	r3, [r3, #31]
    1b64:	3608      	adds	r6, #8
    1b66:	4698      	mov	r8, r3
    1b68:	e18a      	b.n	1e80 <_vfprintf_r+0x870>
    1b6a:	9313      	str	r3, [sp, #76]	; 0x4c
    1b6c:	910a      	str	r1, [sp, #40]	; 0x28
    1b6e:	2800      	cmp	r0, #0
    1b70:	d001      	beq.n	1b76 <_vfprintf_r+0x566>
    1b72:	f001 f938 	bl	2de6 <_vfprintf_r+0x17d6>
    1b76:	2310      	movs	r3, #16
    1b78:	9a08      	ldr	r2, [sp, #32]
    1b7a:	431a      	orrs	r2, r3
    1b7c:	9208      	str	r2, [sp, #32]
    1b7e:	2320      	movs	r3, #32
    1b80:	9908      	ldr	r1, [sp, #32]
    1b82:	400b      	ands	r3, r1
    1b84:	d100      	bne.n	1b88 <_vfprintf_r+0x578>
    1b86:	e35e      	b.n	2246 <_vfprintf_r+0xc36>
    1b88:	2207      	movs	r2, #7
    1b8a:	9b11      	ldr	r3, [sp, #68]	; 0x44
    1b8c:	3307      	adds	r3, #7
    1b8e:	4393      	bics	r3, r2
    1b90:	3201      	adds	r2, #1
    1b92:	4694      	mov	ip, r2
    1b94:	449c      	add	ip, r3
    1b96:	4662      	mov	r2, ip
    1b98:	685c      	ldr	r4, [r3, #4]
    1b9a:	681b      	ldr	r3, [r3, #0]
    1b9c:	0025      	movs	r5, r4
    1b9e:	001c      	movs	r4, r3
    1ba0:	2300      	movs	r3, #0
    1ba2:	9211      	str	r2, [sp, #68]	; 0x44
    1ba4:	aa16      	add	r2, sp, #88	; 0x58
    1ba6:	77d3      	strb	r3, [r2, #31]
    1ba8:	9b0b      	ldr	r3, [sp, #44]	; 0x2c
    1baa:	940e      	str	r4, [sp, #56]	; 0x38
    1bac:	950f      	str	r5, [sp, #60]	; 0x3c
    1bae:	2b00      	cmp	r3, #0
    1bb0:	da01      	bge.n	1bb6 <_vfprintf_r+0x5a6>
    1bb2:	f000 fc7c 	bl	24ae <_vfprintf_r+0xe9e>
    1bb6:	2380      	movs	r3, #128	; 0x80
    1bb8:	4399      	bics	r1, r3
    1bba:	9108      	str	r1, [sp, #32]
    1bbc:	0021      	movs	r1, r4
    1bbe:	4329      	orrs	r1, r5
    1bc0:	1e0b      	subs	r3, r1, #0
    1bc2:	d100      	bne.n	1bc6 <_vfprintf_r+0x5b6>
    1bc4:	e359      	b.n	227a <_vfprintf_r+0xc6a>
    1bc6:	2300      	movs	r3, #0
    1bc8:	4698      	mov	r8, r3
    1bca:	e69a      	b.n	1902 <_vfprintf_r+0x2f2>
    1bcc:	9313      	str	r3, [sp, #76]	; 0x4c
    1bce:	910a      	str	r1, [sp, #40]	; 0x28
    1bd0:	2800      	cmp	r0, #0
    1bd2:	d100      	bne.n	1bd6 <_vfprintf_r+0x5c6>
    1bd4:	e71e      	b.n	1a14 <_vfprintf_r+0x404>
    1bd6:	ab16      	add	r3, sp, #88	; 0x58
    1bd8:	77dc      	strb	r4, [r3, #31]
    1bda:	e71b      	b.n	1a14 <_vfprintf_r+0x404>
    1bdc:	2220      	movs	r2, #32
    1bde:	9b08      	ldr	r3, [sp, #32]
    1be0:	4313      	orrs	r3, r2
    1be2:	9308      	str	r3, [sp, #32]
    1be4:	780b      	ldrb	r3, [r1, #0]
    1be6:	e596      	b.n	1716 <_vfprintf_r+0x106>
    1be8:	9313      	str	r3, [sp, #76]	; 0x4c
    1bea:	9b11      	ldr	r3, [sp, #68]	; 0x44
    1bec:	910a      	str	r1, [sp, #40]	; 0x28
    1bee:	1d1c      	adds	r4, r3, #4
    1bf0:	681b      	ldr	r3, [r3, #0]
    1bf2:	a916      	add	r1, sp, #88	; 0x58
    1bf4:	001a      	movs	r2, r3
    1bf6:	9312      	str	r3, [sp, #72]	; 0x48
    1bf8:	2300      	movs	r3, #0
    1bfa:	77cb      	strb	r3, [r1, #31]
    1bfc:	2a00      	cmp	r2, #0
    1bfe:	d101      	bne.n	1c04 <_vfprintf_r+0x5f4>
    1c00:	f000 ffc6 	bl	2b90 <_vfprintf_r+0x1580>
    1c04:	9b0b      	ldr	r3, [sp, #44]	; 0x2c
    1c06:	2b00      	cmp	r3, #0
    1c08:	da01      	bge.n	1c0e <_vfprintf_r+0x5fe>
    1c0a:	f000 feea 	bl	29e2 <_vfprintf_r+0x13d2>
    1c0e:	001a      	movs	r2, r3
    1c10:	2100      	movs	r1, #0
    1c12:	9812      	ldr	r0, [sp, #72]	; 0x48
    1c14:	f002 ff96 	bl	4b44 <memchr>
    1c18:	2800      	cmp	r0, #0
    1c1a:	d101      	bne.n	1c20 <_vfprintf_r+0x610>
    1c1c:	f001 f840 	bl	2ca0 <_vfprintf_r+0x1690>
    1c20:	9b12      	ldr	r3, [sp, #72]	; 0x48
    1c22:	1ac3      	subs	r3, r0, r3
    1c24:	001a      	movs	r2, r3
    1c26:	9310      	str	r3, [sp, #64]	; 0x40
    1c28:	43db      	mvns	r3, r3
    1c2a:	17db      	asrs	r3, r3, #31
    1c2c:	401a      	ands	r2, r3
    1c2e:	2300      	movs	r3, #0
    1c30:	a916      	add	r1, sp, #88	; 0x58
    1c32:	7fc9      	ldrb	r1, [r1, #31]
    1c34:	9209      	str	r2, [sp, #36]	; 0x24
    1c36:	4688      	mov	r8, r1
    1c38:	9411      	str	r4, [sp, #68]	; 0x44
    1c3a:	930b      	str	r3, [sp, #44]	; 0x2c
    1c3c:	9315      	str	r3, [sp, #84]	; 0x54
    1c3e:	e742      	b.n	1ac6 <_vfprintf_r+0x4b6>
    1c40:	9313      	str	r3, [sp, #76]	; 0x4c
    1c42:	910a      	str	r1, [sp, #40]	; 0x28
    1c44:	2800      	cmp	r0, #0
    1c46:	d100      	bne.n	1c4a <_vfprintf_r+0x63a>
    1c48:	e632      	b.n	18b0 <_vfprintf_r+0x2a0>
    1c4a:	ab16      	add	r3, sp, #88	; 0x58
    1c4c:	77dc      	strb	r4, [r3, #31]
    1c4e:	e62f      	b.n	18b0 <_vfprintf_r+0x2a0>
    1c50:	4652      	mov	r2, sl
    1c52:	9b08      	ldr	r3, [sp, #32]
    1c54:	4313      	orrs	r3, r2
    1c56:	9308      	str	r3, [sp, #32]
    1c58:	780b      	ldrb	r3, [r1, #0]
    1c5a:	e55c      	b.n	1716 <_vfprintf_r+0x106>
    1c5c:	780b      	ldrb	r3, [r1, #0]
    1c5e:	2b6c      	cmp	r3, #108	; 0x6c
    1c60:	d101      	bne.n	1c66 <_vfprintf_r+0x656>
    1c62:	f000 fea4 	bl	29ae <_vfprintf_r+0x139e>
    1c66:	2510      	movs	r5, #16
    1c68:	9a08      	ldr	r2, [sp, #32]
    1c6a:	432a      	orrs	r2, r5
    1c6c:	9208      	str	r2, [sp, #32]
    1c6e:	e552      	b.n	1716 <_vfprintf_r+0x106>
    1c70:	910a      	str	r1, [sp, #40]	; 0x28
    1c72:	2800      	cmp	r0, #0
    1c74:	d001      	beq.n	1c7a <_vfprintf_r+0x66a>
    1c76:	f001 f8cb 	bl	2e10 <_vfprintf_r+0x1800>
    1c7a:	9b08      	ldr	r3, [sp, #32]
    1c7c:	069b      	lsls	r3, r3, #26
    1c7e:	d401      	bmi.n	1c84 <_vfprintf_r+0x674>
    1c80:	f000 fd85 	bl	278e <_vfprintf_r+0x117e>
    1c84:	9911      	ldr	r1, [sp, #68]	; 0x44
    1c86:	9a0c      	ldr	r2, [sp, #48]	; 0x30
    1c88:	680b      	ldr	r3, [r1, #0]
    1c8a:	601a      	str	r2, [r3, #0]
    1c8c:	17d2      	asrs	r2, r2, #31
    1c8e:	605a      	str	r2, [r3, #4]
    1c90:	000b      	movs	r3, r1
    1c92:	3304      	adds	r3, #4
    1c94:	9311      	str	r3, [sp, #68]	; 0x44
    1c96:	e503      	b.n	16a0 <_vfprintf_r+0x90>
    1c98:	7fefffff 	.word	0x7fefffff
    1c9c:	00009174 	.word	0x00009174
    1ca0:	000091b4 	.word	0x000091b4
    1ca4:	9313      	str	r3, [sp, #76]	; 0x4c
    1ca6:	910a      	str	r1, [sp, #40]	; 0x28
    1ca8:	2800      	cmp	r0, #0
    1caa:	d001      	beq.n	1cb0 <_vfprintf_r+0x6a0>
    1cac:	f001 f89f 	bl	2dee <_vfprintf_r+0x17de>
    1cb0:	9b08      	ldr	r3, [sp, #32]
    1cb2:	49b5      	ldr	r1, [pc, #724]	; (1f88 <_vfprintf_r+0x978>)
    1cb4:	069b      	lsls	r3, r3, #26
    1cb6:	d563      	bpl.n	1d80 <_vfprintf_r+0x770>
    1cb8:	2207      	movs	r2, #7
    1cba:	9b11      	ldr	r3, [sp, #68]	; 0x44
    1cbc:	3307      	adds	r3, #7
    1cbe:	4393      	bics	r3, r2
    1cc0:	3201      	adds	r2, #1
    1cc2:	4694      	mov	ip, r2
    1cc4:	449c      	add	ip, r3
    1cc6:	4662      	mov	r2, ip
    1cc8:	685c      	ldr	r4, [r3, #4]
    1cca:	681b      	ldr	r3, [r3, #0]
    1ccc:	930e      	str	r3, [sp, #56]	; 0x38
    1cce:	940f      	str	r4, [sp, #60]	; 0x3c
    1cd0:	2301      	movs	r3, #1
    1cd2:	9211      	str	r2, [sp, #68]	; 0x44
    1cd4:	9a08      	ldr	r2, [sp, #32]
    1cd6:	4013      	ands	r3, r2
    1cd8:	d065      	beq.n	1da6 <_vfprintf_r+0x796>
    1cda:	9a0e      	ldr	r2, [sp, #56]	; 0x38
    1cdc:	9b0f      	ldr	r3, [sp, #60]	; 0x3c
    1cde:	0010      	movs	r0, r2
    1ce0:	4318      	orrs	r0, r3
    1ce2:	d101      	bne.n	1ce8 <_vfprintf_r+0x6d8>
    1ce4:	f000 fd6c 	bl	27c0 <_vfprintf_r+0x11b0>
    1ce8:	2230      	movs	r2, #48	; 0x30
    1cea:	ab1e      	add	r3, sp, #120	; 0x78
    1cec:	701a      	strb	r2, [r3, #0]
    1cee:	204c      	movs	r0, #76	; 0x4c
    1cf0:	466a      	mov	r2, sp
    1cf2:	1812      	adds	r2, r2, r0
    1cf4:	7812      	ldrb	r2, [r2, #0]
    1cf6:	9c08      	ldr	r4, [sp, #32]
    1cf8:	705a      	strb	r2, [r3, #1]
    1cfa:	2200      	movs	r2, #0
    1cfc:	2302      	movs	r3, #2
    1cfe:	0020      	movs	r0, r4
    1d00:	ad16      	add	r5, sp, #88	; 0x58
    1d02:	77ea      	strb	r2, [r5, #31]
    1d04:	9a0b      	ldr	r2, [sp, #44]	; 0x2c
    1d06:	4318      	orrs	r0, r3
    1d08:	2a00      	cmp	r2, #0
    1d0a:	da01      	bge.n	1d10 <_vfprintf_r+0x700>
    1d0c:	f000 ff82 	bl	2c14 <_vfprintf_r+0x1604>
    1d10:	2280      	movs	r2, #128	; 0x80
    1d12:	0020      	movs	r0, r4
    1d14:	4390      	bics	r0, r2
    1d16:	0002      	movs	r2, r0
    1d18:	431a      	orrs	r2, r3
    1d1a:	2300      	movs	r3, #0
    1d1c:	4698      	mov	r8, r3
    1d1e:	9208      	str	r2, [sp, #32]
    1d20:	200f      	movs	r0, #15
    1d22:	468c      	mov	ip, r1
    1d24:	46b1      	mov	r9, r6
    1d26:	ab32      	add	r3, sp, #200	; 0xc8
    1d28:	001c      	movs	r4, r3
    1d2a:	9a0e      	ldr	r2, [sp, #56]	; 0x38
    1d2c:	9b0f      	ldr	r3, [sp, #60]	; 0x3c
    1d2e:	0001      	movs	r1, r0
    1d30:	4665      	mov	r5, ip
    1d32:	4011      	ands	r1, r2
    1d34:	5c69      	ldrb	r1, [r5, r1]
    1d36:	3c01      	subs	r4, #1
    1d38:	071e      	lsls	r6, r3, #28
    1d3a:	7021      	strb	r1, [r4, #0]
    1d3c:	0911      	lsrs	r1, r2, #4
    1d3e:	091d      	lsrs	r5, r3, #4
    1d40:	430e      	orrs	r6, r1
    1d42:	002b      	movs	r3, r5
    1d44:	0035      	movs	r5, r6
    1d46:	0032      	movs	r2, r6
    1d48:	431d      	orrs	r5, r3
    1d4a:	d1f0      	bne.n	1d2e <_vfprintf_r+0x71e>
    1d4c:	464e      	mov	r6, r9
    1d4e:	920e      	str	r2, [sp, #56]	; 0x38
    1d50:	930f      	str	r3, [sp, #60]	; 0x3c
    1d52:	9412      	str	r4, [sp, #72]	; 0x48
    1d54:	ab32      	add	r3, sp, #200	; 0xc8
    1d56:	1b1b      	subs	r3, r3, r4
    1d58:	9310      	str	r3, [sp, #64]	; 0x40
    1d5a:	e6ab      	b.n	1ab4 <_vfprintf_r+0x4a4>
    1d5c:	9313      	str	r3, [sp, #76]	; 0x4c
    1d5e:	910a      	str	r1, [sp, #40]	; 0x28
    1d60:	2800      	cmp	r0, #0
    1d62:	d100      	bne.n	1d66 <_vfprintf_r+0x756>
    1d64:	e70b      	b.n	1b7e <_vfprintf_r+0x56e>
    1d66:	ab16      	add	r3, sp, #88	; 0x58
    1d68:	77dc      	strb	r4, [r3, #31]
    1d6a:	e708      	b.n	1b7e <_vfprintf_r+0x56e>
    1d6c:	9313      	str	r3, [sp, #76]	; 0x4c
    1d6e:	910a      	str	r1, [sp, #40]	; 0x28
    1d70:	2800      	cmp	r0, #0
    1d72:	d001      	beq.n	1d78 <_vfprintf_r+0x768>
    1d74:	f001 f843 	bl	2dfe <_vfprintf_r+0x17ee>
    1d78:	4984      	ldr	r1, [pc, #528]	; (1f8c <_vfprintf_r+0x97c>)
    1d7a:	9b08      	ldr	r3, [sp, #32]
    1d7c:	069b      	lsls	r3, r3, #26
    1d7e:	d49b      	bmi.n	1cb8 <_vfprintf_r+0x6a8>
    1d80:	9b08      	ldr	r3, [sp, #32]
    1d82:	06db      	lsls	r3, r3, #27
    1d84:	d404      	bmi.n	1d90 <_vfprintf_r+0x780>
    1d86:	9b08      	ldr	r3, [sp, #32]
    1d88:	065b      	lsls	r3, r3, #25
    1d8a:	d501      	bpl.n	1d90 <_vfprintf_r+0x780>
    1d8c:	f000 fdcb 	bl	2926 <_vfprintf_r+0x1316>
    1d90:	9b11      	ldr	r3, [sp, #68]	; 0x44
    1d92:	681a      	ldr	r2, [r3, #0]
    1d94:	920e      	str	r2, [sp, #56]	; 0x38
    1d96:	2200      	movs	r2, #0
    1d98:	3304      	adds	r3, #4
    1d9a:	9311      	str	r3, [sp, #68]	; 0x44
    1d9c:	2301      	movs	r3, #1
    1d9e:	920f      	str	r2, [sp, #60]	; 0x3c
    1da0:	9a08      	ldr	r2, [sp, #32]
    1da2:	4013      	ands	r3, r2
    1da4:	d199      	bne.n	1cda <_vfprintf_r+0x6ca>
    1da6:	a816      	add	r0, sp, #88	; 0x58
    1da8:	77c3      	strb	r3, [r0, #31]
    1daa:	9b0b      	ldr	r3, [sp, #44]	; 0x2c
    1dac:	2b00      	cmp	r3, #0
    1dae:	da01      	bge.n	1db4 <_vfprintf_r+0x7a4>
    1db0:	f000 fd6d 	bl	288e <_vfprintf_r+0x127e>
    1db4:	2380      	movs	r3, #128	; 0x80
    1db6:	439a      	bics	r2, r3
    1db8:	9208      	str	r2, [sp, #32]
    1dba:	9a0e      	ldr	r2, [sp, #56]	; 0x38
    1dbc:	9b0f      	ldr	r3, [sp, #60]	; 0x3c
    1dbe:	0010      	movs	r0, r2
    1dc0:	4318      	orrs	r0, r3
    1dc2:	d159      	bne.n	1e78 <_vfprintf_r+0x868>
    1dc4:	9b0b      	ldr	r3, [sp, #44]	; 0x2c
    1dc6:	4698      	mov	r8, r3
    1dc8:	2b00      	cmp	r3, #0
    1dca:	d000      	beq.n	1dce <_vfprintf_r+0x7be>
    1dcc:	e4e0      	b.n	1790 <_vfprintf_r+0x180>
    1dce:	2300      	movs	r3, #0
    1dd0:	930b      	str	r3, [sp, #44]	; 0x2c
    1dd2:	9310      	str	r3, [sp, #64]	; 0x40
    1dd4:	ab32      	add	r3, sp, #200	; 0xc8
    1dd6:	9312      	str	r3, [sp, #72]	; 0x48
    1dd8:	e66c      	b.n	1ab4 <_vfprintf_r+0x4a4>
    1dda:	780b      	ldrb	r3, [r1, #0]
    1ddc:	2c00      	cmp	r4, #0
    1dde:	d000      	beq.n	1de2 <_vfprintf_r+0x7d2>
    1de0:	e499      	b.n	1716 <_vfprintf_r+0x106>
    1de2:	2001      	movs	r0, #1
    1de4:	3420      	adds	r4, #32
    1de6:	e496      	b.n	1716 <_vfprintf_r+0x106>
    1de8:	2301      	movs	r3, #1
    1dea:	9a08      	ldr	r2, [sp, #32]
    1dec:	431a      	orrs	r2, r3
    1dee:	9208      	str	r2, [sp, #32]
    1df0:	780b      	ldrb	r3, [r1, #0]
    1df2:	e490      	b.n	1716 <_vfprintf_r+0x106>
    1df4:	780b      	ldrb	r3, [r1, #0]
    1df6:	2001      	movs	r0, #1
    1df8:	242b      	movs	r4, #43	; 0x2b
    1dfa:	e48c      	b.n	1716 <_vfprintf_r+0x106>
    1dfc:	9a11      	ldr	r2, [sp, #68]	; 0x44
    1dfe:	9313      	str	r3, [sp, #76]	; 0x4c
    1e00:	6813      	ldr	r3, [r2, #0]
    1e02:	910a      	str	r1, [sp, #40]	; 0x28
    1e04:	9309      	str	r3, [sp, #36]	; 0x24
    1e06:	2124      	movs	r1, #36	; 0x24
    1e08:	466b      	mov	r3, sp
    1e0a:	185b      	adds	r3, r3, r1
    1e0c:	781b      	ldrb	r3, [r3, #0]
    1e0e:	ad28      	add	r5, sp, #160	; 0xa0
    1e10:	702b      	strb	r3, [r5, #0]
    1e12:	2300      	movs	r3, #0
    1e14:	a916      	add	r1, sp, #88	; 0x58
    1e16:	77cb      	strb	r3, [r1, #31]
    1e18:	0013      	movs	r3, r2
    1e1a:	3304      	adds	r3, #4
    1e1c:	9311      	str	r3, [sp, #68]	; 0x44
    1e1e:	2300      	movs	r3, #0
    1e20:	4698      	mov	r8, r3
    1e22:	3301      	adds	r3, #1
    1e24:	9309      	str	r3, [sp, #36]	; 0x24
    1e26:	9310      	str	r3, [sp, #64]	; 0x40
    1e28:	2300      	movs	r3, #0
    1e2a:	9512      	str	r5, [sp, #72]	; 0x48
    1e2c:	930b      	str	r3, [sp, #44]	; 0x2c
    1e2e:	9315      	str	r3, [sp, #84]	; 0x54
    1e30:	e64f      	b.n	1ad2 <_vfprintf_r+0x4c2>
    1e32:	2300      	movs	r3, #0
    1e34:	4698      	mov	r8, r3
    1e36:	3378      	adds	r3, #120	; 0x78
    1e38:	4954      	ldr	r1, [pc, #336]	; (1f8c <_vfprintf_r+0x97c>)
    1e3a:	9313      	str	r3, [sp, #76]	; 0x4c
    1e3c:	e770      	b.n	1d20 <_vfprintf_r+0x710>
    1e3e:	9313      	str	r3, [sp, #76]	; 0x4c
    1e40:	910a      	str	r1, [sp, #40]	; 0x28
    1e42:	2800      	cmp	r0, #0
    1e44:	d001      	beq.n	1e4a <_vfprintf_r+0x83a>
    1e46:	f000 ffdf 	bl	2e08 <_vfprintf_r+0x17f8>
    1e4a:	9b13      	ldr	r3, [sp, #76]	; 0x4c
    1e4c:	2b00      	cmp	r3, #0
    1e4e:	d101      	bne.n	1e54 <_vfprintf_r+0x844>
    1e50:	f000 fd28 	bl	28a4 <_vfprintf_r+0x1294>
    1e54:	ad28      	add	r5, sp, #160	; 0xa0
    1e56:	702b      	strb	r3, [r5, #0]
    1e58:	2300      	movs	r3, #0
    1e5a:	aa16      	add	r2, sp, #88	; 0x58
    1e5c:	77d3      	strb	r3, [r2, #31]
    1e5e:	e7df      	b.n	1e20 <_vfprintf_r+0x810>
    1e60:	2378      	movs	r3, #120	; 0x78
    1e62:	9108      	str	r1, [sp, #32]
    1e64:	4949      	ldr	r1, [pc, #292]	; (1f8c <_vfprintf_r+0x97c>)
    1e66:	9313      	str	r3, [sp, #76]	; 0x4c
    1e68:	9a0e      	ldr	r2, [sp, #56]	; 0x38
    1e6a:	9b0f      	ldr	r3, [sp, #60]	; 0x3c
    1e6c:	0014      	movs	r4, r2
    1e6e:	431c      	orrs	r4, r3
    1e70:	1e23      	subs	r3, r4, #0
    1e72:	9011      	str	r0, [sp, #68]	; 0x44
    1e74:	d100      	bne.n	1e78 <_vfprintf_r+0x868>
    1e76:	e48c      	b.n	1792 <_vfprintf_r+0x182>
    1e78:	2300      	movs	r3, #0
    1e7a:	4698      	mov	r8, r3
    1e7c:	e750      	b.n	1d20 <_vfprintf_r+0x710>
    1e7e:	68bc      	ldr	r4, [r7, #8]
    1e80:	4643      	mov	r3, r8
    1e82:	2b00      	cmp	r3, #0
    1e84:	d00f      	beq.n	1ea6 <_vfprintf_r+0x896>
    1e86:	aa16      	add	r2, sp, #88	; 0x58
    1e88:	231f      	movs	r3, #31
    1e8a:	4694      	mov	ip, r2
    1e8c:	4463      	add	r3, ip
    1e8e:	6033      	str	r3, [r6, #0]
    1e90:	2301      	movs	r3, #1
    1e92:	6073      	str	r3, [r6, #4]
    1e94:	687b      	ldr	r3, [r7, #4]
    1e96:	3401      	adds	r4, #1
    1e98:	3301      	adds	r3, #1
    1e9a:	60bc      	str	r4, [r7, #8]
    1e9c:	607b      	str	r3, [r7, #4]
    1e9e:	2b07      	cmp	r3, #7
    1ea0:	dd00      	ble.n	1ea4 <_vfprintf_r+0x894>
    1ea2:	e20c      	b.n	22be <_vfprintf_r+0xcae>
    1ea4:	3608      	adds	r6, #8
    1ea6:	4653      	mov	r3, sl
    1ea8:	2b00      	cmp	r3, #0
    1eaa:	d00c      	beq.n	1ec6 <_vfprintf_r+0x8b6>
    1eac:	ab1e      	add	r3, sp, #120	; 0x78
    1eae:	6033      	str	r3, [r6, #0]
    1eb0:	2302      	movs	r3, #2
    1eb2:	6073      	str	r3, [r6, #4]
    1eb4:	687b      	ldr	r3, [r7, #4]
    1eb6:	3402      	adds	r4, #2
    1eb8:	3301      	adds	r3, #1
    1eba:	60bc      	str	r4, [r7, #8]
    1ebc:	607b      	str	r3, [r7, #4]
    1ebe:	2b07      	cmp	r3, #7
    1ec0:	dd00      	ble.n	1ec4 <_vfprintf_r+0x8b4>
    1ec2:	e206      	b.n	22d2 <_vfprintf_r+0xcc2>
    1ec4:	3608      	adds	r6, #8
    1ec6:	464b      	mov	r3, r9
    1ec8:	2b80      	cmp	r3, #128	; 0x80
    1eca:	d100      	bne.n	1ece <_vfprintf_r+0x8be>
    1ecc:	e152      	b.n	2174 <_vfprintf_r+0xb64>
    1ece:	9b0b      	ldr	r3, [sp, #44]	; 0x2c
    1ed0:	9a10      	ldr	r2, [sp, #64]	; 0x40
    1ed2:	1a9d      	subs	r5, r3, r2
    1ed4:	2d00      	cmp	r5, #0
    1ed6:	dd32      	ble.n	1f3e <_vfprintf_r+0x92e>
    1ed8:	4a2d      	ldr	r2, [pc, #180]	; (1f90 <_vfprintf_r+0x980>)
    1eda:	687b      	ldr	r3, [r7, #4]
    1edc:	4691      	mov	r9, r2
    1ede:	2d10      	cmp	r5, #16
    1ee0:	dd22      	ble.n	1f28 <_vfprintf_r+0x918>
    1ee2:	2210      	movs	r2, #16
    1ee4:	4692      	mov	sl, r2
    1ee6:	0022      	movs	r2, r4
    1ee8:	465c      	mov	r4, fp
    1eea:	e003      	b.n	1ef4 <_vfprintf_r+0x8e4>
    1eec:	3d10      	subs	r5, #16
    1eee:	3608      	adds	r6, #8
    1ef0:	2d10      	cmp	r5, #16
    1ef2:	dd17      	ble.n	1f24 <_vfprintf_r+0x914>
    1ef4:	4649      	mov	r1, r9
    1ef6:	6031      	str	r1, [r6, #0]
    1ef8:	4651      	mov	r1, sl
    1efa:	3210      	adds	r2, #16
    1efc:	3301      	adds	r3, #1
    1efe:	6071      	str	r1, [r6, #4]
    1f00:	60ba      	str	r2, [r7, #8]
    1f02:	607b      	str	r3, [r7, #4]
    1f04:	2b07      	cmp	r3, #7
    1f06:	ddf1      	ble.n	1eec <_vfprintf_r+0x8dc>
    1f08:	003a      	movs	r2, r7
    1f0a:	0021      	movs	r1, r4
    1f0c:	9807      	ldr	r0, [sp, #28]
    1f0e:	f003 fe41 	bl	5b94 <__sprint_r>
    1f12:	2800      	cmp	r0, #0
    1f14:	d000      	beq.n	1f18 <_vfprintf_r+0x908>
    1f16:	e166      	b.n	21e6 <_vfprintf_r+0xbd6>
    1f18:	3d10      	subs	r5, #16
    1f1a:	68ba      	ldr	r2, [r7, #8]
    1f1c:	687b      	ldr	r3, [r7, #4]
    1f1e:	ae32      	add	r6, sp, #200	; 0xc8
    1f20:	2d10      	cmp	r5, #16
    1f22:	dce7      	bgt.n	1ef4 <_vfprintf_r+0x8e4>
    1f24:	46a3      	mov	fp, r4
    1f26:	0014      	movs	r4, r2
    1f28:	464a      	mov	r2, r9
    1f2a:	1964      	adds	r4, r4, r5
    1f2c:	3301      	adds	r3, #1
    1f2e:	6032      	str	r2, [r6, #0]
    1f30:	6075      	str	r5, [r6, #4]
    1f32:	60bc      	str	r4, [r7, #8]
    1f34:	607b      	str	r3, [r7, #4]
    1f36:	2b07      	cmp	r3, #7
    1f38:	dd00      	ble.n	1f3c <_vfprintf_r+0x92c>
    1f3a:	e1b6      	b.n	22aa <_vfprintf_r+0xc9a>
    1f3c:	3608      	adds	r6, #8
    1f3e:	9b08      	ldr	r3, [sp, #32]
    1f40:	05db      	lsls	r3, r3, #23
    1f42:	d500      	bpl.n	1f46 <_vfprintf_r+0x936>
    1f44:	e0ba      	b.n	20bc <_vfprintf_r+0xaac>
    1f46:	9b12      	ldr	r3, [sp, #72]	; 0x48
    1f48:	6033      	str	r3, [r6, #0]
    1f4a:	9b10      	ldr	r3, [sp, #64]	; 0x40
    1f4c:	469c      	mov	ip, r3
    1f4e:	6073      	str	r3, [r6, #4]
    1f50:	687b      	ldr	r3, [r7, #4]
    1f52:	4464      	add	r4, ip
    1f54:	3301      	adds	r3, #1
    1f56:	60bc      	str	r4, [r7, #8]
    1f58:	607b      	str	r3, [r7, #4]
    1f5a:	2b07      	cmp	r3, #7
    1f5c:	dd00      	ble.n	1f60 <_vfprintf_r+0x950>
    1f5e:	e0a2      	b.n	20a6 <_vfprintf_r+0xa96>
    1f60:	3608      	adds	r6, #8
    1f62:	9b08      	ldr	r3, [sp, #32]
    1f64:	075b      	lsls	r3, r3, #29
    1f66:	d546      	bpl.n	1ff6 <_vfprintf_r+0x9e6>
    1f68:	9b0d      	ldr	r3, [sp, #52]	; 0x34
    1f6a:	9a09      	ldr	r2, [sp, #36]	; 0x24
    1f6c:	1a9d      	subs	r5, r3, r2
    1f6e:	2d00      	cmp	r5, #0
    1f70:	dd41      	ble.n	1ff6 <_vfprintf_r+0x9e6>
    1f72:	4a08      	ldr	r2, [pc, #32]	; (1f94 <_vfprintf_r+0x984>)
    1f74:	687b      	ldr	r3, [r7, #4]
    1f76:	4690      	mov	r8, r2
    1f78:	2d10      	cmp	r5, #16
    1f7a:	dd2b      	ble.n	1fd4 <_vfprintf_r+0x9c4>
    1f7c:	2210      	movs	r2, #16
    1f7e:	4691      	mov	r9, r2
    1f80:	0022      	movs	r2, r4
    1f82:	465c      	mov	r4, fp
    1f84:	e00c      	b.n	1fa0 <_vfprintf_r+0x990>
    1f86:	46c0      	nop			; (mov r8, r8)
    1f88:	00009180 	.word	0x00009180
    1f8c:	00009194 	.word	0x00009194
    1f90:	00009160 	.word	0x00009160
    1f94:	000091b4 	.word	0x000091b4
    1f98:	3d10      	subs	r5, #16
    1f9a:	3608      	adds	r6, #8
    1f9c:	2d10      	cmp	r5, #16
    1f9e:	dd17      	ble.n	1fd0 <_vfprintf_r+0x9c0>
    1fa0:	4641      	mov	r1, r8
    1fa2:	6031      	str	r1, [r6, #0]
    1fa4:	4649      	mov	r1, r9
    1fa6:	3210      	adds	r2, #16
    1fa8:	3301      	adds	r3, #1
    1faa:	6071      	str	r1, [r6, #4]
    1fac:	60ba      	str	r2, [r7, #8]
    1fae:	607b      	str	r3, [r7, #4]
    1fb0:	2b07      	cmp	r3, #7
    1fb2:	ddf1      	ble.n	1f98 <_vfprintf_r+0x988>
    1fb4:	003a      	movs	r2, r7
    1fb6:	0021      	movs	r1, r4
    1fb8:	9807      	ldr	r0, [sp, #28]
    1fba:	f003 fdeb 	bl	5b94 <__sprint_r>
    1fbe:	2800      	cmp	r0, #0
    1fc0:	d000      	beq.n	1fc4 <_vfprintf_r+0x9b4>
    1fc2:	e110      	b.n	21e6 <_vfprintf_r+0xbd6>
    1fc4:	3d10      	subs	r5, #16
    1fc6:	68ba      	ldr	r2, [r7, #8]
    1fc8:	687b      	ldr	r3, [r7, #4]
    1fca:	ae32      	add	r6, sp, #200	; 0xc8
    1fcc:	2d10      	cmp	r5, #16
    1fce:	dce7      	bgt.n	1fa0 <_vfprintf_r+0x990>
    1fd0:	46a3      	mov	fp, r4
    1fd2:	0014      	movs	r4, r2
    1fd4:	4642      	mov	r2, r8
    1fd6:	1964      	adds	r4, r4, r5
    1fd8:	3301      	adds	r3, #1
    1fda:	c624      	stmia	r6!, {r2, r5}
    1fdc:	60bc      	str	r4, [r7, #8]
    1fde:	607b      	str	r3, [r7, #4]
    1fe0:	2b07      	cmp	r3, #7
    1fe2:	dd08      	ble.n	1ff6 <_vfprintf_r+0x9e6>
    1fe4:	003a      	movs	r2, r7
    1fe6:	4659      	mov	r1, fp
    1fe8:	9807      	ldr	r0, [sp, #28]
    1fea:	f003 fdd3 	bl	5b94 <__sprint_r>
    1fee:	2800      	cmp	r0, #0
    1ff0:	d000      	beq.n	1ff4 <_vfprintf_r+0x9e4>
    1ff2:	e126      	b.n	2242 <_vfprintf_r+0xc32>
    1ff4:	68bc      	ldr	r4, [r7, #8]
    1ff6:	9b0d      	ldr	r3, [sp, #52]	; 0x34
    1ff8:	9a09      	ldr	r2, [sp, #36]	; 0x24
    1ffa:	4293      	cmp	r3, r2
    1ffc:	da00      	bge.n	2000 <_vfprintf_r+0x9f0>
    1ffe:	0013      	movs	r3, r2
    2000:	9a0c      	ldr	r2, [sp, #48]	; 0x30
    2002:	4694      	mov	ip, r2
    2004:	449c      	add	ip, r3
    2006:	4663      	mov	r3, ip
    2008:	930c      	str	r3, [sp, #48]	; 0x30
    200a:	2c00      	cmp	r4, #0
    200c:	d000      	beq.n	2010 <_vfprintf_r+0xa00>
    200e:	e110      	b.n	2232 <_vfprintf_r+0xc22>
    2010:	2300      	movs	r3, #0
    2012:	ae32      	add	r6, sp, #200	; 0xc8
    2014:	607b      	str	r3, [r7, #4]
    2016:	f7ff fb43 	bl	16a0 <_vfprintf_r+0x90>
    201a:	9b14      	ldr	r3, [sp, #80]	; 0x50
    201c:	2b01      	cmp	r3, #1
    201e:	dc00      	bgt.n	2022 <_vfprintf_r+0xa12>
    2020:	e0ea      	b.n	21f8 <_vfprintf_r+0xbe8>
    2022:	9b12      	ldr	r3, [sp, #72]	; 0x48
    2024:	3401      	adds	r4, #1
    2026:	6033      	str	r3, [r6, #0]
    2028:	2301      	movs	r3, #1
    202a:	6073      	str	r3, [r6, #4]
    202c:	687b      	ldr	r3, [r7, #4]
    202e:	60bc      	str	r4, [r7, #8]
    2030:	3301      	adds	r3, #1
    2032:	607b      	str	r3, [r7, #4]
    2034:	2b07      	cmp	r3, #7
    2036:	dd00      	ble.n	203a <_vfprintf_r+0xa2a>
    2038:	e2b2      	b.n	25a0 <_vfprintf_r+0xf90>
    203a:	3608      	adds	r6, #8
    203c:	9a19      	ldr	r2, [sp, #100]	; 0x64
    203e:	3301      	adds	r3, #1
    2040:	6032      	str	r2, [r6, #0]
    2042:	9a18      	ldr	r2, [sp, #96]	; 0x60
    2044:	4698      	mov	r8, r3
    2046:	4694      	mov	ip, r2
    2048:	4464      	add	r4, ip
    204a:	6072      	str	r2, [r6, #4]
    204c:	60bc      	str	r4, [r7, #8]
    204e:	607b      	str	r3, [r7, #4]
    2050:	2b07      	cmp	r3, #7
    2052:	dd00      	ble.n	2056 <_vfprintf_r+0xa46>
    2054:	e2b8      	b.n	25c8 <_vfprintf_r+0xfb8>
    2056:	3608      	adds	r6, #8
    2058:	2200      	movs	r2, #0
    205a:	2300      	movs	r3, #0
    205c:	9816      	ldr	r0, [sp, #88]	; 0x58
    205e:	9917      	ldr	r1, [sp, #92]	; 0x5c
    2060:	f005 f81e 	bl	70a0 <__aeabi_dcmpeq>
    2064:	2800      	cmp	r0, #0
    2066:	d000      	beq.n	206a <_vfprintf_r+0xa5a>
    2068:	e1d1      	b.n	240e <_vfprintf_r+0xdfe>
    206a:	9d12      	ldr	r5, [sp, #72]	; 0x48
    206c:	9b14      	ldr	r3, [sp, #80]	; 0x50
    206e:	3501      	adds	r5, #1
    2070:	3b01      	subs	r3, #1
    2072:	6035      	str	r5, [r6, #0]
    2074:	6073      	str	r3, [r6, #4]
    2076:	18e4      	adds	r4, r4, r3
    2078:	2301      	movs	r3, #1
    207a:	469c      	mov	ip, r3
    207c:	44e0      	add	r8, ip
    207e:	4643      	mov	r3, r8
    2080:	60bc      	str	r4, [r7, #8]
    2082:	607b      	str	r3, [r7, #4]
    2084:	2b07      	cmp	r3, #7
    2086:	dd00      	ble.n	208a <_vfprintf_r+0xa7a>
    2088:	e0c7      	b.n	221a <_vfprintf_r+0xc0a>
    208a:	3608      	adds	r6, #8
    208c:	ab21      	add	r3, sp, #132	; 0x84
    208e:	6033      	str	r3, [r6, #0]
    2090:	9b1a      	ldr	r3, [sp, #104]	; 0x68
    2092:	469c      	mov	ip, r3
    2094:	6073      	str	r3, [r6, #4]
    2096:	4643      	mov	r3, r8
    2098:	4464      	add	r4, ip
    209a:	3301      	adds	r3, #1
    209c:	60bc      	str	r4, [r7, #8]
    209e:	607b      	str	r3, [r7, #4]
    20a0:	2b07      	cmp	r3, #7
    20a2:	dc00      	bgt.n	20a6 <_vfprintf_r+0xa96>
    20a4:	e75c      	b.n	1f60 <_vfprintf_r+0x950>
    20a6:	003a      	movs	r2, r7
    20a8:	4659      	mov	r1, fp
    20aa:	9807      	ldr	r0, [sp, #28]
    20ac:	f003 fd72 	bl	5b94 <__sprint_r>
    20b0:	2800      	cmp	r0, #0
    20b2:	d000      	beq.n	20b6 <_vfprintf_r+0xaa6>
    20b4:	e0c5      	b.n	2242 <_vfprintf_r+0xc32>
    20b6:	68bc      	ldr	r4, [r7, #8]
    20b8:	ae32      	add	r6, sp, #200	; 0xc8
    20ba:	e752      	b.n	1f62 <_vfprintf_r+0x952>
    20bc:	9b13      	ldr	r3, [sp, #76]	; 0x4c
    20be:	2b65      	cmp	r3, #101	; 0x65
    20c0:	ddab      	ble.n	201a <_vfprintf_r+0xa0a>
    20c2:	2200      	movs	r2, #0
    20c4:	2300      	movs	r3, #0
    20c6:	9816      	ldr	r0, [sp, #88]	; 0x58
    20c8:	9917      	ldr	r1, [sp, #92]	; 0x5c
    20ca:	f004 ffe9 	bl	70a0 <__aeabi_dcmpeq>
    20ce:	2800      	cmp	r0, #0
    20d0:	d100      	bne.n	20d4 <_vfprintf_r+0xac4>
    20d2:	e108      	b.n	22e6 <_vfprintf_r+0xcd6>
    20d4:	4bd6      	ldr	r3, [pc, #856]	; (2430 <_vfprintf_r+0xe20>)
    20d6:	3401      	adds	r4, #1
    20d8:	6033      	str	r3, [r6, #0]
    20da:	2301      	movs	r3, #1
    20dc:	6073      	str	r3, [r6, #4]
    20de:	687b      	ldr	r3, [r7, #4]
    20e0:	60bc      	str	r4, [r7, #8]
    20e2:	3301      	adds	r3, #1
    20e4:	607b      	str	r3, [r7, #4]
    20e6:	2b07      	cmp	r3, #7
    20e8:	dd00      	ble.n	20ec <_vfprintf_r+0xadc>
    20ea:	e37a      	b.n	27e2 <_vfprintf_r+0x11d2>
    20ec:	3608      	adds	r6, #8
    20ee:	9b1f      	ldr	r3, [sp, #124]	; 0x7c
    20f0:	9a14      	ldr	r2, [sp, #80]	; 0x50
    20f2:	4293      	cmp	r3, r2
    20f4:	db03      	blt.n	20fe <_vfprintf_r+0xaee>
    20f6:	9b08      	ldr	r3, [sp, #32]
    20f8:	07db      	lsls	r3, r3, #31
    20fa:	d400      	bmi.n	20fe <_vfprintf_r+0xaee>
    20fc:	e731      	b.n	1f62 <_vfprintf_r+0x952>
    20fe:	9b19      	ldr	r3, [sp, #100]	; 0x64
    2100:	6033      	str	r3, [r6, #0]
    2102:	9b18      	ldr	r3, [sp, #96]	; 0x60
    2104:	469c      	mov	ip, r3
    2106:	6073      	str	r3, [r6, #4]
    2108:	687b      	ldr	r3, [r7, #4]
    210a:	4464      	add	r4, ip
    210c:	3301      	adds	r3, #1
    210e:	60bc      	str	r4, [r7, #8]
    2110:	607b      	str	r3, [r7, #4]
    2112:	2b07      	cmp	r3, #7
    2114:	dd01      	ble.n	211a <_vfprintf_r+0xb0a>
    2116:	f000 fc52 	bl	29be <_vfprintf_r+0x13ae>
    211a:	3608      	adds	r6, #8
    211c:	9b14      	ldr	r3, [sp, #80]	; 0x50
    211e:	1e5d      	subs	r5, r3, #1
    2120:	2d00      	cmp	r5, #0
    2122:	dc00      	bgt.n	2126 <_vfprintf_r+0xb16>
    2124:	e71d      	b.n	1f62 <_vfprintf_r+0x952>
    2126:	4ac3      	ldr	r2, [pc, #780]	; (2434 <_vfprintf_r+0xe24>)
    2128:	687b      	ldr	r3, [r7, #4]
    212a:	4691      	mov	r9, r2
    212c:	2d10      	cmp	r5, #16
    212e:	dc00      	bgt.n	2132 <_vfprintf_r+0xb22>
    2130:	e19f      	b.n	2472 <_vfprintf_r+0xe62>
    2132:	2210      	movs	r2, #16
    2134:	4690      	mov	r8, r2
    2136:	0022      	movs	r2, r4
    2138:	464c      	mov	r4, r9
    213a:	46d9      	mov	r9, fp
    213c:	e004      	b.n	2148 <_vfprintf_r+0xb38>
    213e:	3608      	adds	r6, #8
    2140:	3d10      	subs	r5, #16
    2142:	2d10      	cmp	r5, #16
    2144:	dc00      	bgt.n	2148 <_vfprintf_r+0xb38>
    2146:	e348      	b.n	27da <_vfprintf_r+0x11ca>
    2148:	4641      	mov	r1, r8
    214a:	3210      	adds	r2, #16
    214c:	3301      	adds	r3, #1
    214e:	6034      	str	r4, [r6, #0]
    2150:	6071      	str	r1, [r6, #4]
    2152:	60ba      	str	r2, [r7, #8]
    2154:	607b      	str	r3, [r7, #4]
    2156:	2b07      	cmp	r3, #7
    2158:	ddf1      	ble.n	213e <_vfprintf_r+0xb2e>
    215a:	003a      	movs	r2, r7
    215c:	4649      	mov	r1, r9
    215e:	9807      	ldr	r0, [sp, #28]
    2160:	f003 fd18 	bl	5b94 <__sprint_r>
    2164:	2800      	cmp	r0, #0
    2166:	d001      	beq.n	216c <_vfprintf_r+0xb5c>
    2168:	f000 fd0f 	bl	2b8a <_vfprintf_r+0x157a>
    216c:	68ba      	ldr	r2, [r7, #8]
    216e:	687b      	ldr	r3, [r7, #4]
    2170:	ae32      	add	r6, sp, #200	; 0xc8
    2172:	e7e5      	b.n	2140 <_vfprintf_r+0xb30>
    2174:	9b0d      	ldr	r3, [sp, #52]	; 0x34
    2176:	9a09      	ldr	r2, [sp, #36]	; 0x24
    2178:	1a9d      	subs	r5, r3, r2
    217a:	2d00      	cmp	r5, #0
    217c:	dc00      	bgt.n	2180 <_vfprintf_r+0xb70>
    217e:	e6a6      	b.n	1ece <_vfprintf_r+0x8be>
    2180:	4aac      	ldr	r2, [pc, #688]	; (2434 <_vfprintf_r+0xe24>)
    2182:	687b      	ldr	r3, [r7, #4]
    2184:	4691      	mov	r9, r2
    2186:	2d10      	cmp	r5, #16
    2188:	dd21      	ble.n	21ce <_vfprintf_r+0xbbe>
    218a:	2210      	movs	r2, #16
    218c:	4692      	mov	sl, r2
    218e:	0022      	movs	r2, r4
    2190:	465c      	mov	r4, fp
    2192:	e003      	b.n	219c <_vfprintf_r+0xb8c>
    2194:	3d10      	subs	r5, #16
    2196:	3608      	adds	r6, #8
    2198:	2d10      	cmp	r5, #16
    219a:	dd16      	ble.n	21ca <_vfprintf_r+0xbba>
    219c:	4649      	mov	r1, r9
    219e:	6031      	str	r1, [r6, #0]
    21a0:	4651      	mov	r1, sl
    21a2:	3210      	adds	r2, #16
    21a4:	3301      	adds	r3, #1
    21a6:	6071      	str	r1, [r6, #4]
    21a8:	60ba      	str	r2, [r7, #8]
    21aa:	607b      	str	r3, [r7, #4]
    21ac:	2b07      	cmp	r3, #7
    21ae:	ddf1      	ble.n	2194 <_vfprintf_r+0xb84>
    21b0:	003a      	movs	r2, r7
    21b2:	0021      	movs	r1, r4
    21b4:	9807      	ldr	r0, [sp, #28]
    21b6:	f003 fced 	bl	5b94 <__sprint_r>
    21ba:	2800      	cmp	r0, #0
    21bc:	d113      	bne.n	21e6 <_vfprintf_r+0xbd6>
    21be:	3d10      	subs	r5, #16
    21c0:	68ba      	ldr	r2, [r7, #8]
    21c2:	687b      	ldr	r3, [r7, #4]
    21c4:	ae32      	add	r6, sp, #200	; 0xc8
    21c6:	2d10      	cmp	r5, #16
    21c8:	dce8      	bgt.n	219c <_vfprintf_r+0xb8c>
    21ca:	46a3      	mov	fp, r4
    21cc:	0014      	movs	r4, r2
    21ce:	464a      	mov	r2, r9
    21d0:	1964      	adds	r4, r4, r5
    21d2:	3301      	adds	r3, #1
    21d4:	6032      	str	r2, [r6, #0]
    21d6:	6075      	str	r5, [r6, #4]
    21d8:	60bc      	str	r4, [r7, #8]
    21da:	607b      	str	r3, [r7, #4]
    21dc:	2b07      	cmp	r3, #7
    21de:	dd00      	ble.n	21e2 <_vfprintf_r+0xbd2>
    21e0:	e1ff      	b.n	25e2 <_vfprintf_r+0xfd2>
    21e2:	3608      	adds	r6, #8
    21e4:	e673      	b.n	1ece <_vfprintf_r+0x8be>
    21e6:	46a0      	mov	r8, r4
    21e8:	4643      	mov	r3, r8
    21ea:	899b      	ldrh	r3, [r3, #12]
    21ec:	065b      	lsls	r3, r3, #25
    21ee:	d500      	bpl.n	21f2 <_vfprintf_r+0xbe2>
    21f0:	e350      	b.n	2894 <_vfprintf_r+0x1284>
    21f2:	980c      	ldr	r0, [sp, #48]	; 0x30
    21f4:	f7ff faee 	bl	17d4 <_vfprintf_r+0x1c4>
    21f8:	2301      	movs	r3, #1
    21fa:	9a08      	ldr	r2, [sp, #32]
    21fc:	4213      	tst	r3, r2
    21fe:	d000      	beq.n	2202 <_vfprintf_r+0xbf2>
    2200:	e70f      	b.n	2022 <_vfprintf_r+0xa12>
    2202:	6073      	str	r3, [r6, #4]
    2204:	687b      	ldr	r3, [r7, #4]
    2206:	9a12      	ldr	r2, [sp, #72]	; 0x48
    2208:	3301      	adds	r3, #1
    220a:	3401      	adds	r4, #1
    220c:	6032      	str	r2, [r6, #0]
    220e:	60bc      	str	r4, [r7, #8]
    2210:	4698      	mov	r8, r3
    2212:	607b      	str	r3, [r7, #4]
    2214:	2b07      	cmp	r3, #7
    2216:	dc00      	bgt.n	221a <_vfprintf_r+0xc0a>
    2218:	e737      	b.n	208a <_vfprintf_r+0xa7a>
    221a:	003a      	movs	r2, r7
    221c:	4659      	mov	r1, fp
    221e:	9807      	ldr	r0, [sp, #28]
    2220:	f003 fcb8 	bl	5b94 <__sprint_r>
    2224:	2800      	cmp	r0, #0
    2226:	d10c      	bne.n	2242 <_vfprintf_r+0xc32>
    2228:	687b      	ldr	r3, [r7, #4]
    222a:	68bc      	ldr	r4, [r7, #8]
    222c:	4698      	mov	r8, r3
    222e:	ae32      	add	r6, sp, #200	; 0xc8
    2230:	e72c      	b.n	208c <_vfprintf_r+0xa7c>
    2232:	003a      	movs	r2, r7
    2234:	4659      	mov	r1, fp
    2236:	9807      	ldr	r0, [sp, #28]
    2238:	f003 fcac 	bl	5b94 <__sprint_r>
    223c:	2800      	cmp	r0, #0
    223e:	d100      	bne.n	2242 <_vfprintf_r+0xc32>
    2240:	e6e6      	b.n	2010 <_vfprintf_r+0xa00>
    2242:	46d8      	mov	r8, fp
    2244:	e7d0      	b.n	21e8 <_vfprintf_r+0xbd8>
    2246:	2210      	movs	r2, #16
    2248:	9908      	ldr	r1, [sp, #32]
    224a:	400a      	ands	r2, r1
    224c:	d100      	bne.n	2250 <_vfprintf_r+0xc40>
    224e:	e11b      	b.n	2488 <_vfprintf_r+0xe78>
    2250:	9811      	ldr	r0, [sp, #68]	; 0x44
    2252:	0002      	movs	r2, r0
    2254:	6800      	ldr	r0, [r0, #0]
    2256:	3204      	adds	r2, #4
    2258:	900e      	str	r0, [sp, #56]	; 0x38
    225a:	2000      	movs	r0, #0
    225c:	900f      	str	r0, [sp, #60]	; 0x3c
    225e:	a816      	add	r0, sp, #88	; 0x58
    2260:	77c3      	strb	r3, [r0, #31]
    2262:	9b0b      	ldr	r3, [sp, #44]	; 0x2c
    2264:	2b00      	cmp	r3, #0
    2266:	da00      	bge.n	226a <_vfprintf_r+0xc5a>
    2268:	e120      	b.n	24ac <_vfprintf_r+0xe9c>
    226a:	2380      	movs	r3, #128	; 0x80
    226c:	4399      	bics	r1, r3
    226e:	9b0e      	ldr	r3, [sp, #56]	; 0x38
    2270:	9108      	str	r1, [sp, #32]
    2272:	9211      	str	r2, [sp, #68]	; 0x44
    2274:	2b00      	cmp	r3, #0
    2276:	d000      	beq.n	227a <_vfprintf_r+0xc6a>
    2278:	e4a5      	b.n	1bc6 <_vfprintf_r+0x5b6>
    227a:	4698      	mov	r8, r3
    227c:	9b0b      	ldr	r3, [sp, #44]	; 0x2c
    227e:	2b00      	cmp	r3, #0
    2280:	d100      	bne.n	2284 <_vfprintf_r+0xc74>
    2282:	e5a4      	b.n	1dce <_vfprintf_r+0x7be>
    2284:	2300      	movs	r3, #0
    2286:	2400      	movs	r4, #0
    2288:	930e      	str	r3, [sp, #56]	; 0x38
    228a:	940f      	str	r4, [sp, #60]	; 0x3c
    228c:	2227      	movs	r2, #39	; 0x27
    228e:	9b0e      	ldr	r3, [sp, #56]	; 0x38
    2290:	a928      	add	r1, sp, #160	; 0xa0
    2292:	3330      	adds	r3, #48	; 0x30
    2294:	548b      	strb	r3, [r1, r2]
    2296:	ab16      	add	r3, sp, #88	; 0x58
    2298:	469c      	mov	ip, r3
    229a:	256f      	movs	r5, #111	; 0x6f
    229c:	ab32      	add	r3, sp, #200	; 0xc8
    229e:	4465      	add	r5, ip
    22a0:	1b5b      	subs	r3, r3, r5
    22a2:	9310      	str	r3, [sp, #64]	; 0x40
    22a4:	9512      	str	r5, [sp, #72]	; 0x48
    22a6:	f7ff fc05 	bl	1ab4 <_vfprintf_r+0x4a4>
    22aa:	003a      	movs	r2, r7
    22ac:	4659      	mov	r1, fp
    22ae:	9807      	ldr	r0, [sp, #28]
    22b0:	f003 fc70 	bl	5b94 <__sprint_r>
    22b4:	2800      	cmp	r0, #0
    22b6:	d1c4      	bne.n	2242 <_vfprintf_r+0xc32>
    22b8:	68bc      	ldr	r4, [r7, #8]
    22ba:	ae32      	add	r6, sp, #200	; 0xc8
    22bc:	e63f      	b.n	1f3e <_vfprintf_r+0x92e>
    22be:	003a      	movs	r2, r7
    22c0:	4659      	mov	r1, fp
    22c2:	9807      	ldr	r0, [sp, #28]
    22c4:	f003 fc66 	bl	5b94 <__sprint_r>
    22c8:	2800      	cmp	r0, #0
    22ca:	d1ba      	bne.n	2242 <_vfprintf_r+0xc32>
    22cc:	68bc      	ldr	r4, [r7, #8]
    22ce:	ae32      	add	r6, sp, #200	; 0xc8
    22d0:	e5e9      	b.n	1ea6 <_vfprintf_r+0x896>
    22d2:	003a      	movs	r2, r7
    22d4:	4659      	mov	r1, fp
    22d6:	9807      	ldr	r0, [sp, #28]
    22d8:	f003 fc5c 	bl	5b94 <__sprint_r>
    22dc:	2800      	cmp	r0, #0
    22de:	d1b0      	bne.n	2242 <_vfprintf_r+0xc32>
    22e0:	68bc      	ldr	r4, [r7, #8]
    22e2:	ae32      	add	r6, sp, #200	; 0xc8
    22e4:	e5ef      	b.n	1ec6 <_vfprintf_r+0x8b6>
    22e6:	981f      	ldr	r0, [sp, #124]	; 0x7c
    22e8:	2800      	cmp	r0, #0
    22ea:	dc00      	bgt.n	22ee <_vfprintf_r+0xcde>
    22ec:	e284      	b.n	27f8 <_vfprintf_r+0x11e8>
    22ee:	9a15      	ldr	r2, [sp, #84]	; 0x54
    22f0:	9914      	ldr	r1, [sp, #80]	; 0x50
    22f2:	0013      	movs	r3, r2
    22f4:	4691      	mov	r9, r2
    22f6:	428b      	cmp	r3, r1
    22f8:	dd00      	ble.n	22fc <_vfprintf_r+0xcec>
    22fa:	4689      	mov	r9, r1
    22fc:	464b      	mov	r3, r9
    22fe:	2b00      	cmp	r3, #0
    2300:	dd0c      	ble.n	231c <_vfprintf_r+0xd0c>
    2302:	9b12      	ldr	r3, [sp, #72]	; 0x48
    2304:	444c      	add	r4, r9
    2306:	6033      	str	r3, [r6, #0]
    2308:	464b      	mov	r3, r9
    230a:	6073      	str	r3, [r6, #4]
    230c:	687b      	ldr	r3, [r7, #4]
    230e:	60bc      	str	r4, [r7, #8]
    2310:	3301      	adds	r3, #1
    2312:	607b      	str	r3, [r7, #4]
    2314:	2b07      	cmp	r3, #7
    2316:	dd00      	ble.n	231a <_vfprintf_r+0xd0a>
    2318:	e3a4      	b.n	2a64 <_vfprintf_r+0x1454>
    231a:	3608      	adds	r6, #8
    231c:	464b      	mov	r3, r9
    231e:	43db      	mvns	r3, r3
    2320:	464a      	mov	r2, r9
    2322:	17db      	asrs	r3, r3, #31
    2324:	4013      	ands	r3, r2
    2326:	9a15      	ldr	r2, [sp, #84]	; 0x54
    2328:	1ad3      	subs	r3, r2, r3
    232a:	4698      	mov	r8, r3
    232c:	2b00      	cmp	r3, #0
    232e:	dc00      	bgt.n	2332 <_vfprintf_r+0xd22>
    2330:	e0d7      	b.n	24e2 <_vfprintf_r+0xed2>
    2332:	2b10      	cmp	r3, #16
    2334:	dc01      	bgt.n	233a <_vfprintf_r+0xd2a>
    2336:	f000 fd19 	bl	2d6c <_vfprintf_r+0x175c>
    233a:	4a3e      	ldr	r2, [pc, #248]	; (2434 <_vfprintf_r+0xe24>)
    233c:	687b      	ldr	r3, [r7, #4]
    233e:	4691      	mov	r9, r2
    2340:	2210      	movs	r2, #16
    2342:	464d      	mov	r5, r9
    2344:	4692      	mov	sl, r2
    2346:	0022      	movs	r2, r4
    2348:	4644      	mov	r4, r8
    234a:	46d8      	mov	r8, fp
    234c:	e004      	b.n	2358 <_vfprintf_r+0xd48>
    234e:	3608      	adds	r6, #8
    2350:	3c10      	subs	r4, #16
    2352:	2c10      	cmp	r4, #16
    2354:	dc00      	bgt.n	2358 <_vfprintf_r+0xd48>
    2356:	e0b4      	b.n	24c2 <_vfprintf_r+0xeb2>
    2358:	4651      	mov	r1, sl
    235a:	3210      	adds	r2, #16
    235c:	3301      	adds	r3, #1
    235e:	6035      	str	r5, [r6, #0]
    2360:	6071      	str	r1, [r6, #4]
    2362:	60ba      	str	r2, [r7, #8]
    2364:	607b      	str	r3, [r7, #4]
    2366:	2b07      	cmp	r3, #7
    2368:	ddf1      	ble.n	234e <_vfprintf_r+0xd3e>
    236a:	003a      	movs	r2, r7
    236c:	4641      	mov	r1, r8
    236e:	9807      	ldr	r0, [sp, #28]
    2370:	f003 fc10 	bl	5b94 <__sprint_r>
    2374:	2800      	cmp	r0, #0
    2376:	d000      	beq.n	237a <_vfprintf_r+0xd6a>
    2378:	e736      	b.n	21e8 <_vfprintf_r+0xbd8>
    237a:	68ba      	ldr	r2, [r7, #8]
    237c:	687b      	ldr	r3, [r7, #4]
    237e:	ae32      	add	r6, sp, #200	; 0xc8
    2380:	e7e6      	b.n	2350 <_vfprintf_r+0xd40>
    2382:	003a      	movs	r2, r7
    2384:	4659      	mov	r1, fp
    2386:	9807      	ldr	r0, [sp, #28]
    2388:	f003 fc04 	bl	5b94 <__sprint_r>
    238c:	2800      	cmp	r0, #0
    238e:	d000      	beq.n	2392 <_vfprintf_r+0xd82>
    2390:	e757      	b.n	2242 <_vfprintf_r+0xc32>
    2392:	ab16      	add	r3, sp, #88	; 0x58
    2394:	7fdb      	ldrb	r3, [r3, #31]
    2396:	68bc      	ldr	r4, [r7, #8]
    2398:	4698      	mov	r8, r3
    239a:	ae32      	add	r6, sp, #200	; 0xc8
    239c:	e570      	b.n	1e80 <_vfprintf_r+0x870>
    239e:	46b0      	mov	r8, r6
    23a0:	e722      	b.n	21e8 <_vfprintf_r+0xbd8>
    23a2:	2210      	movs	r2, #16
    23a4:	9908      	ldr	r1, [sp, #32]
    23a6:	400a      	ands	r2, r1
    23a8:	d100      	bne.n	23ac <_vfprintf_r+0xd9c>
    23aa:	e13b      	b.n	2624 <_vfprintf_r+0x1014>
    23ac:	9811      	ldr	r0, [sp, #68]	; 0x44
    23ae:	0002      	movs	r2, r0
    23b0:	6800      	ldr	r0, [r0, #0]
    23b2:	3204      	adds	r2, #4
    23b4:	900e      	str	r0, [sp, #56]	; 0x38
    23b6:	2000      	movs	r0, #0
    23b8:	900f      	str	r0, [sp, #60]	; 0x3c
    23ba:	a816      	add	r0, sp, #88	; 0x58
    23bc:	77c3      	strb	r3, [r0, #31]
    23be:	9b0b      	ldr	r3, [sp, #44]	; 0x2c
    23c0:	2b00      	cmp	r3, #0
    23c2:	da00      	bge.n	23c6 <_vfprintf_r+0xdb6>
    23c4:	e13f      	b.n	2646 <_vfprintf_r+0x1036>
    23c6:	2380      	movs	r3, #128	; 0x80
    23c8:	4399      	bics	r1, r3
    23ca:	9b0e      	ldr	r3, [sp, #56]	; 0x38
    23cc:	9108      	str	r1, [sp, #32]
    23ce:	9211      	str	r2, [sp, #68]	; 0x44
    23d0:	2b00      	cmp	r3, #0
    23d2:	d001      	beq.n	23d8 <_vfprintf_r+0xdc8>
    23d4:	f7ff fb43 	bl	1a5e <_vfprintf_r+0x44e>
    23d8:	9b0b      	ldr	r3, [sp, #44]	; 0x2c
    23da:	2b00      	cmp	r3, #0
    23dc:	d101      	bne.n	23e2 <_vfprintf_r+0xdd2>
    23de:	f000 fc6b 	bl	2cb8 <_vfprintf_r+0x16a8>
    23e2:	2300      	movs	r3, #0
    23e4:	4698      	mov	r8, r3
    23e6:	2300      	movs	r3, #0
    23e8:	2400      	movs	r4, #0
    23ea:	930e      	str	r3, [sp, #56]	; 0x38
    23ec:	940f      	str	r4, [sp, #60]	; 0x3c
    23ee:	f7ff fb38 	bl	1a62 <_vfprintf_r+0x452>
    23f2:	9b08      	ldr	r3, [sp, #32]
    23f4:	06db      	lsls	r3, r3, #27
    23f6:	d400      	bmi.n	23fa <_vfprintf_r+0xdea>
    23f8:	e130      	b.n	265c <_vfprintf_r+0x104c>
    23fa:	9a11      	ldr	r2, [sp, #68]	; 0x44
    23fc:	6813      	ldr	r3, [r2, #0]
    23fe:	9309      	str	r3, [sp, #36]	; 0x24
    2400:	930e      	str	r3, [sp, #56]	; 0x38
    2402:	3204      	adds	r2, #4
    2404:	17db      	asrs	r3, r3, #31
    2406:	930f      	str	r3, [sp, #60]	; 0x3c
    2408:	9211      	str	r2, [sp, #68]	; 0x44
    240a:	f7ff fa63 	bl	18d4 <_vfprintf_r+0x2c4>
    240e:	9b14      	ldr	r3, [sp, #80]	; 0x50
    2410:	1e5d      	subs	r5, r3, #1
    2412:	2d00      	cmp	r5, #0
    2414:	dc00      	bgt.n	2418 <_vfprintf_r+0xe08>
    2416:	e639      	b.n	208c <_vfprintf_r+0xa7c>
    2418:	4b06      	ldr	r3, [pc, #24]	; (2434 <_vfprintf_r+0xe24>)
    241a:	4699      	mov	r9, r3
    241c:	2d10      	cmp	r5, #16
    241e:	dc00      	bgt.n	2422 <_vfprintf_r+0xe12>
    2420:	e0cd      	b.n	25be <_vfprintf_r+0xfae>
    2422:	2310      	movs	r3, #16
    2424:	0022      	movs	r2, r4
    2426:	469a      	mov	sl, r3
    2428:	465c      	mov	r4, fp
    242a:	4643      	mov	r3, r8
    242c:	e009      	b.n	2442 <_vfprintf_r+0xe32>
    242e:	46c0      	nop			; (mov r8, r8)
    2430:	000091b0 	.word	0x000091b0
    2434:	00009160 	.word	0x00009160
    2438:	3608      	adds	r6, #8
    243a:	3d10      	subs	r5, #16
    243c:	2d10      	cmp	r5, #16
    243e:	dc00      	bgt.n	2442 <_vfprintf_r+0xe32>
    2440:	e0ba      	b.n	25b8 <_vfprintf_r+0xfa8>
    2442:	4649      	mov	r1, r9
    2444:	6031      	str	r1, [r6, #0]
    2446:	4651      	mov	r1, sl
    2448:	3210      	adds	r2, #16
    244a:	3301      	adds	r3, #1
    244c:	6071      	str	r1, [r6, #4]
    244e:	60ba      	str	r2, [r7, #8]
    2450:	607b      	str	r3, [r7, #4]
    2452:	2b07      	cmp	r3, #7
    2454:	ddf0      	ble.n	2438 <_vfprintf_r+0xe28>
    2456:	003a      	movs	r2, r7
    2458:	0021      	movs	r1, r4
    245a:	9807      	ldr	r0, [sp, #28]
    245c:	f003 fb9a 	bl	5b94 <__sprint_r>
    2460:	2800      	cmp	r0, #0
    2462:	d000      	beq.n	2466 <_vfprintf_r+0xe56>
    2464:	e6bf      	b.n	21e6 <_vfprintf_r+0xbd6>
    2466:	68ba      	ldr	r2, [r7, #8]
    2468:	687b      	ldr	r3, [r7, #4]
    246a:	ae32      	add	r6, sp, #200	; 0xc8
    246c:	e7e5      	b.n	243a <_vfprintf_r+0xe2a>
    246e:	46a3      	mov	fp, r4
    2470:	0014      	movs	r4, r2
    2472:	464a      	mov	r2, r9
    2474:	1964      	adds	r4, r4, r5
    2476:	3301      	adds	r3, #1
    2478:	6032      	str	r2, [r6, #0]
    247a:	6075      	str	r5, [r6, #4]
    247c:	60bc      	str	r4, [r7, #8]
    247e:	607b      	str	r3, [r7, #4]
    2480:	2b07      	cmp	r3, #7
    2482:	dc00      	bgt.n	2486 <_vfprintf_r+0xe76>
    2484:	e56c      	b.n	1f60 <_vfprintf_r+0x950>
    2486:	e60e      	b.n	20a6 <_vfprintf_r+0xa96>
    2488:	2340      	movs	r3, #64	; 0x40
    248a:	9908      	ldr	r1, [sp, #32]
    248c:	400b      	ands	r3, r1
    248e:	d000      	beq.n	2492 <_vfprintf_r+0xe82>
    2490:	e230      	b.n	28f4 <_vfprintf_r+0x12e4>
    2492:	9911      	ldr	r1, [sp, #68]	; 0x44
    2494:	000a      	movs	r2, r1
    2496:	6809      	ldr	r1, [r1, #0]
    2498:	3204      	adds	r2, #4
    249a:	910e      	str	r1, [sp, #56]	; 0x38
    249c:	2100      	movs	r1, #0
    249e:	910f      	str	r1, [sp, #60]	; 0x3c
    24a0:	a916      	add	r1, sp, #88	; 0x58
    24a2:	77cb      	strb	r3, [r1, #31]
    24a4:	9b0b      	ldr	r3, [sp, #44]	; 0x2c
    24a6:	2b00      	cmp	r3, #0
    24a8:	db00      	blt.n	24ac <_vfprintf_r+0xe9c>
    24aa:	e0df      	b.n	266c <_vfprintf_r+0x105c>
    24ac:	9211      	str	r2, [sp, #68]	; 0x44
    24ae:	2300      	movs	r3, #0
    24b0:	4698      	mov	r8, r3
    24b2:	9a0e      	ldr	r2, [sp, #56]	; 0x38
    24b4:	9b0f      	ldr	r3, [sp, #60]	; 0x3c
    24b6:	0011      	movs	r1, r2
    24b8:	4319      	orrs	r1, r3
    24ba:	d001      	beq.n	24c0 <_vfprintf_r+0xeb0>
    24bc:	f7ff fa21 	bl	1902 <_vfprintf_r+0x2f2>
    24c0:	e6e0      	b.n	2284 <_vfprintf_r+0xc74>
    24c2:	46c3      	mov	fp, r8
    24c4:	46a9      	mov	r9, r5
    24c6:	46a0      	mov	r8, r4
    24c8:	0014      	movs	r4, r2
    24ca:	464a      	mov	r2, r9
    24cc:	6032      	str	r2, [r6, #0]
    24ce:	4642      	mov	r2, r8
    24d0:	4444      	add	r4, r8
    24d2:	3301      	adds	r3, #1
    24d4:	6072      	str	r2, [r6, #4]
    24d6:	60bc      	str	r4, [r7, #8]
    24d8:	607b      	str	r3, [r7, #4]
    24da:	2b07      	cmp	r3, #7
    24dc:	dd00      	ble.n	24e0 <_vfprintf_r+0xed0>
    24de:	e36a      	b.n	2bb6 <_vfprintf_r+0x15a6>
    24e0:	3608      	adds	r6, #8
    24e2:	9a12      	ldr	r2, [sp, #72]	; 0x48
    24e4:	9b15      	ldr	r3, [sp, #84]	; 0x54
    24e6:	4694      	mov	ip, r2
    24e8:	4463      	add	r3, ip
    24ea:	4698      	mov	r8, r3
    24ec:	9a14      	ldr	r2, [sp, #80]	; 0x50
    24ee:	9b1f      	ldr	r3, [sp, #124]	; 0x7c
    24f0:	4293      	cmp	r3, r2
    24f2:	db46      	blt.n	2582 <_vfprintf_r+0xf72>
    24f4:	9a08      	ldr	r2, [sp, #32]
    24f6:	07d2      	lsls	r2, r2, #31
    24f8:	d443      	bmi.n	2582 <_vfprintf_r+0xf72>
    24fa:	9a12      	ldr	r2, [sp, #72]	; 0x48
    24fc:	9914      	ldr	r1, [sp, #80]	; 0x50
    24fe:	0015      	movs	r5, r2
    2500:	468c      	mov	ip, r1
    2502:	4642      	mov	r2, r8
    2504:	4465      	add	r5, ip
    2506:	1acb      	subs	r3, r1, r3
    2508:	1aad      	subs	r5, r5, r2
    250a:	429d      	cmp	r5, r3
    250c:	dd00      	ble.n	2510 <_vfprintf_r+0xf00>
    250e:	001d      	movs	r5, r3
    2510:	2d00      	cmp	r5, #0
    2512:	dd0b      	ble.n	252c <_vfprintf_r+0xf1c>
    2514:	4642      	mov	r2, r8
    2516:	6032      	str	r2, [r6, #0]
    2518:	687a      	ldr	r2, [r7, #4]
    251a:	1964      	adds	r4, r4, r5
    251c:	3201      	adds	r2, #1
    251e:	6075      	str	r5, [r6, #4]
    2520:	60bc      	str	r4, [r7, #8]
    2522:	607a      	str	r2, [r7, #4]
    2524:	2a07      	cmp	r2, #7
    2526:	dd00      	ble.n	252a <_vfprintf_r+0xf1a>
    2528:	e31c      	b.n	2b64 <_vfprintf_r+0x1554>
    252a:	3608      	adds	r6, #8
    252c:	43ea      	mvns	r2, r5
    252e:	17d2      	asrs	r2, r2, #31
    2530:	4015      	ands	r5, r2
    2532:	1b5d      	subs	r5, r3, r5
    2534:	2d00      	cmp	r5, #0
    2536:	dc00      	bgt.n	253a <_vfprintf_r+0xf2a>
    2538:	e513      	b.n	1f62 <_vfprintf_r+0x952>
    253a:	4ad8      	ldr	r2, [pc, #864]	; (289c <_vfprintf_r+0x128c>)
    253c:	687b      	ldr	r3, [r7, #4]
    253e:	4691      	mov	r9, r2
    2540:	2d10      	cmp	r5, #16
    2542:	dd96      	ble.n	2472 <_vfprintf_r+0xe62>
    2544:	2210      	movs	r2, #16
    2546:	4690      	mov	r8, r2
    2548:	0022      	movs	r2, r4
    254a:	465c      	mov	r4, fp
    254c:	e003      	b.n	2556 <_vfprintf_r+0xf46>
    254e:	3608      	adds	r6, #8
    2550:	3d10      	subs	r5, #16
    2552:	2d10      	cmp	r5, #16
    2554:	dd8b      	ble.n	246e <_vfprintf_r+0xe5e>
    2556:	4649      	mov	r1, r9
    2558:	6031      	str	r1, [r6, #0]
    255a:	4641      	mov	r1, r8
    255c:	3210      	adds	r2, #16
    255e:	3301      	adds	r3, #1
    2560:	6071      	str	r1, [r6, #4]
    2562:	60ba      	str	r2, [r7, #8]
    2564:	607b      	str	r3, [r7, #4]
    2566:	2b07      	cmp	r3, #7
    2568:	ddf1      	ble.n	254e <_vfprintf_r+0xf3e>
    256a:	003a      	movs	r2, r7
    256c:	0021      	movs	r1, r4
    256e:	9807      	ldr	r0, [sp, #28]
    2570:	f003 fb10 	bl	5b94 <__sprint_r>
    2574:	2800      	cmp	r0, #0
    2576:	d000      	beq.n	257a <_vfprintf_r+0xf6a>
    2578:	e635      	b.n	21e6 <_vfprintf_r+0xbd6>
    257a:	68ba      	ldr	r2, [r7, #8]
    257c:	687b      	ldr	r3, [r7, #4]
    257e:	ae32      	add	r6, sp, #200	; 0xc8
    2580:	e7e6      	b.n	2550 <_vfprintf_r+0xf40>
    2582:	9a19      	ldr	r2, [sp, #100]	; 0x64
    2584:	6032      	str	r2, [r6, #0]
    2586:	9a18      	ldr	r2, [sp, #96]	; 0x60
    2588:	4694      	mov	ip, r2
    258a:	6072      	str	r2, [r6, #4]
    258c:	687a      	ldr	r2, [r7, #4]
    258e:	4464      	add	r4, ip
    2590:	3201      	adds	r2, #1
    2592:	60bc      	str	r4, [r7, #8]
    2594:	607a      	str	r2, [r7, #4]
    2596:	2a07      	cmp	r2, #7
    2598:	dd00      	ble.n	259c <_vfprintf_r+0xf8c>
    259a:	e26f      	b.n	2a7c <_vfprintf_r+0x146c>
    259c:	3608      	adds	r6, #8
    259e:	e7ac      	b.n	24fa <_vfprintf_r+0xeea>
    25a0:	003a      	movs	r2, r7
    25a2:	4659      	mov	r1, fp
    25a4:	9807      	ldr	r0, [sp, #28]
    25a6:	f003 faf5 	bl	5b94 <__sprint_r>
    25aa:	2800      	cmp	r0, #0
    25ac:	d000      	beq.n	25b0 <_vfprintf_r+0xfa0>
    25ae:	e648      	b.n	2242 <_vfprintf_r+0xc32>
    25b0:	68bc      	ldr	r4, [r7, #8]
    25b2:	687b      	ldr	r3, [r7, #4]
    25b4:	ae32      	add	r6, sp, #200	; 0xc8
    25b6:	e541      	b.n	203c <_vfprintf_r+0xa2c>
    25b8:	46a3      	mov	fp, r4
    25ba:	4698      	mov	r8, r3
    25bc:	0014      	movs	r4, r2
    25be:	464b      	mov	r3, r9
    25c0:	6075      	str	r5, [r6, #4]
    25c2:	6033      	str	r3, [r6, #0]
    25c4:	1964      	adds	r4, r4, r5
    25c6:	e557      	b.n	2078 <_vfprintf_r+0xa68>
    25c8:	003a      	movs	r2, r7
    25ca:	4659      	mov	r1, fp
    25cc:	9807      	ldr	r0, [sp, #28]
    25ce:	f003 fae1 	bl	5b94 <__sprint_r>
    25d2:	2800      	cmp	r0, #0
    25d4:	d000      	beq.n	25d8 <_vfprintf_r+0xfc8>
    25d6:	e634      	b.n	2242 <_vfprintf_r+0xc32>
    25d8:	687b      	ldr	r3, [r7, #4]
    25da:	68bc      	ldr	r4, [r7, #8]
    25dc:	4698      	mov	r8, r3
    25de:	ae32      	add	r6, sp, #200	; 0xc8
    25e0:	e53a      	b.n	2058 <_vfprintf_r+0xa48>
    25e2:	003a      	movs	r2, r7
    25e4:	4659      	mov	r1, fp
    25e6:	9807      	ldr	r0, [sp, #28]
    25e8:	f003 fad4 	bl	5b94 <__sprint_r>
    25ec:	2800      	cmp	r0, #0
    25ee:	d000      	beq.n	25f2 <_vfprintf_r+0xfe2>
    25f0:	e627      	b.n	2242 <_vfprintf_r+0xc32>
    25f2:	68bc      	ldr	r4, [r7, #8]
    25f4:	ae32      	add	r6, sp, #200	; 0xc8
    25f6:	e46a      	b.n	1ece <_vfprintf_r+0x8be>
    25f8:	990e      	ldr	r1, [sp, #56]	; 0x38
    25fa:	9a0f      	ldr	r2, [sp, #60]	; 0x3c
    25fc:	2400      	movs	r4, #0
    25fe:	424b      	negs	r3, r1
    2600:	4194      	sbcs	r4, r2
    2602:	930e      	str	r3, [sp, #56]	; 0x38
    2604:	940f      	str	r4, [sp, #60]	; 0x3c
    2606:	232d      	movs	r3, #45	; 0x2d
    2608:	aa16      	add	r2, sp, #88	; 0x58
    260a:	77d3      	strb	r3, [r2, #31]
    260c:	9b0b      	ldr	r3, [sp, #44]	; 0x2c
    260e:	2b00      	cmp	r3, #0
    2610:	da00      	bge.n	2614 <_vfprintf_r+0x1004>
    2612:	e2b6      	b.n	2b82 <_vfprintf_r+0x1572>
    2614:	2380      	movs	r3, #128	; 0x80
    2616:	9a08      	ldr	r2, [sp, #32]
    2618:	439a      	bics	r2, r3
    261a:	3b53      	subs	r3, #83	; 0x53
    261c:	9208      	str	r2, [sp, #32]
    261e:	4698      	mov	r8, r3
    2620:	f7ff f96f 	bl	1902 <_vfprintf_r+0x2f2>
    2624:	2340      	movs	r3, #64	; 0x40
    2626:	9908      	ldr	r1, [sp, #32]
    2628:	400b      	ands	r3, r1
    262a:	d000      	beq.n	262e <_vfprintf_r+0x101e>
    262c:	e14b      	b.n	28c6 <_vfprintf_r+0x12b6>
    262e:	9911      	ldr	r1, [sp, #68]	; 0x44
    2630:	000a      	movs	r2, r1
    2632:	6809      	ldr	r1, [r1, #0]
    2634:	3204      	adds	r2, #4
    2636:	910e      	str	r1, [sp, #56]	; 0x38
    2638:	2100      	movs	r1, #0
    263a:	910f      	str	r1, [sp, #60]	; 0x3c
    263c:	a916      	add	r1, sp, #88	; 0x58
    263e:	77cb      	strb	r3, [r1, #31]
    2640:	9b0b      	ldr	r3, [sp, #44]	; 0x2c
    2642:	2b00      	cmp	r3, #0
    2644:	da15      	bge.n	2672 <_vfprintf_r+0x1062>
    2646:	9211      	str	r2, [sp, #68]	; 0x44
    2648:	2300      	movs	r3, #0
    264a:	4698      	mov	r8, r3
    264c:	9a0e      	ldr	r2, [sp, #56]	; 0x38
    264e:	9b0f      	ldr	r3, [sp, #60]	; 0x3c
    2650:	0011      	movs	r1, r2
    2652:	4319      	orrs	r1, r3
    2654:	d001      	beq.n	265a <_vfprintf_r+0x104a>
    2656:	f7ff fa04 	bl	1a62 <_vfprintf_r+0x452>
    265a:	e6c4      	b.n	23e6 <_vfprintf_r+0xdd6>
    265c:	9b08      	ldr	r3, [sp, #32]
    265e:	9a11      	ldr	r2, [sp, #68]	; 0x44
    2660:	065b      	lsls	r3, r3, #25
    2662:	d400      	bmi.n	2666 <_vfprintf_r+0x1056>
    2664:	e6ca      	b.n	23fc <_vfprintf_r+0xdec>
    2666:	2100      	movs	r1, #0
    2668:	5e53      	ldrsh	r3, [r2, r1]
    266a:	e6c9      	b.n	2400 <_vfprintf_r+0xdf0>
    266c:	2380      	movs	r3, #128	; 0x80
    266e:	9908      	ldr	r1, [sp, #32]
    2670:	e5fc      	b.n	226c <_vfprintf_r+0xc5c>
    2672:	2380      	movs	r3, #128	; 0x80
    2674:	9908      	ldr	r1, [sp, #32]
    2676:	e6a7      	b.n	23c8 <_vfprintf_r+0xdb8>
    2678:	9d16      	ldr	r5, [sp, #88]	; 0x58
    267a:	9c17      	ldr	r4, [sp, #92]	; 0x5c
    267c:	002a      	movs	r2, r5
    267e:	0023      	movs	r3, r4
    2680:	0028      	movs	r0, r5
    2682:	0021      	movs	r1, r4
    2684:	f006 fb38 	bl	8cf8 <__aeabi_dcmpun>
    2688:	2800      	cmp	r0, #0
    268a:	d000      	beq.n	268e <_vfprintf_r+0x107e>
    268c:	e35f      	b.n	2d4e <_vfprintf_r+0x173e>
    268e:	9b0b      	ldr	r3, [sp, #44]	; 0x2c
    2690:	3301      	adds	r3, #1
    2692:	d100      	bne.n	2696 <_vfprintf_r+0x1086>
    2694:	e29b      	b.n	2bce <_vfprintf_r+0x15be>
    2696:	2320      	movs	r3, #32
    2698:	9d13      	ldr	r5, [sp, #76]	; 0x4c
    269a:	439d      	bics	r5, r3
    269c:	2d47      	cmp	r5, #71	; 0x47
    269e:	d100      	bne.n	26a2 <_vfprintf_r+0x1092>
    26a0:	e170      	b.n	2984 <_vfprintf_r+0x1374>
    26a2:	2380      	movs	r3, #128	; 0x80
    26a4:	9a08      	ldr	r2, [sp, #32]
    26a6:	005b      	lsls	r3, r3, #1
    26a8:	431a      	orrs	r2, r3
    26aa:	9b17      	ldr	r3, [sp, #92]	; 0x5c
    26ac:	921b      	str	r2, [sp, #108]	; 0x6c
    26ae:	2b00      	cmp	r3, #0
    26b0:	da00      	bge.n	26b4 <_vfprintf_r+0x10a4>
    26b2:	e2c9      	b.n	2c48 <_vfprintf_r+0x1638>
    26b4:	9a16      	ldr	r2, [sp, #88]	; 0x58
    26b6:	4698      	mov	r8, r3
    26b8:	2300      	movs	r3, #0
    26ba:	4691      	mov	r9, r2
    26bc:	9309      	str	r3, [sp, #36]	; 0x24
    26be:	9c13      	ldr	r4, [sp, #76]	; 0x4c
    26c0:	2c66      	cmp	r4, #102	; 0x66
    26c2:	d100      	bne.n	26c6 <_vfprintf_r+0x10b6>
    26c4:	e289      	b.n	2bda <_vfprintf_r+0x15ca>
    26c6:	2c46      	cmp	r4, #70	; 0x46
    26c8:	d100      	bne.n	26cc <_vfprintf_r+0x10bc>
    26ca:	e130      	b.n	292e <_vfprintf_r+0x131e>
    26cc:	002b      	movs	r3, r5
    26ce:	3b45      	subs	r3, #69	; 0x45
    26d0:	4259      	negs	r1, r3
    26d2:	4159      	adcs	r1, r3
    26d4:	9b0b      	ldr	r3, [sp, #44]	; 0x2c
    26d6:	464a      	mov	r2, r9
    26d8:	469a      	mov	sl, r3
    26da:	ab23      	add	r3, sp, #140	; 0x8c
    26dc:	9304      	str	r3, [sp, #16]
    26de:	ab20      	add	r3, sp, #128	; 0x80
    26e0:	448a      	add	sl, r1
    26e2:	9303      	str	r3, [sp, #12]
    26e4:	ab1f      	add	r3, sp, #124	; 0x7c
    26e6:	9302      	str	r3, [sp, #8]
    26e8:	4653      	mov	r3, sl
    26ea:	9301      	str	r3, [sp, #4]
    26ec:	2302      	movs	r3, #2
    26ee:	9807      	ldr	r0, [sp, #28]
    26f0:	9300      	str	r3, [sp, #0]
    26f2:	4643      	mov	r3, r8
    26f4:	f000 fcf8 	bl	30e8 <_dtoa_r>
    26f8:	9012      	str	r0, [sp, #72]	; 0x48
    26fa:	2c67      	cmp	r4, #103	; 0x67
    26fc:	d000      	beq.n	2700 <_vfprintf_r+0x10f0>
    26fe:	e2bb      	b.n	2c78 <_vfprintf_r+0x1668>
    2700:	9b12      	ldr	r3, [sp, #72]	; 0x48
    2702:	4453      	add	r3, sl
    2704:	001c      	movs	r4, r3
    2706:	9b08      	ldr	r3, [sp, #32]
    2708:	07db      	lsls	r3, r3, #31
    270a:	d400      	bmi.n	270e <_vfprintf_r+0x10fe>
    270c:	e306      	b.n	2d1c <_vfprintf_r+0x170c>
    270e:	2300      	movs	r3, #0
    2710:	2200      	movs	r2, #0
    2712:	4648      	mov	r0, r9
    2714:	4641      	mov	r1, r8
    2716:	f004 fcc3 	bl	70a0 <__aeabi_dcmpeq>
    271a:	0023      	movs	r3, r4
    271c:	2800      	cmp	r0, #0
    271e:	d109      	bne.n	2734 <_vfprintf_r+0x1124>
    2720:	9b23      	ldr	r3, [sp, #140]	; 0x8c
    2722:	429c      	cmp	r4, r3
    2724:	d906      	bls.n	2734 <_vfprintf_r+0x1124>
    2726:	2130      	movs	r1, #48	; 0x30
    2728:	1c5a      	adds	r2, r3, #1
    272a:	9223      	str	r2, [sp, #140]	; 0x8c
    272c:	7019      	strb	r1, [r3, #0]
    272e:	9b23      	ldr	r3, [sp, #140]	; 0x8c
    2730:	429c      	cmp	r4, r3
    2732:	d8f9      	bhi.n	2728 <_vfprintf_r+0x1118>
    2734:	9a12      	ldr	r2, [sp, #72]	; 0x48
    2736:	1a9b      	subs	r3, r3, r2
    2738:	9314      	str	r3, [sp, #80]	; 0x50
    273a:	2d47      	cmp	r5, #71	; 0x47
    273c:	d100      	bne.n	2740 <_vfprintf_r+0x1130>
    273e:	e17f      	b.n	2a40 <_vfprintf_r+0x1430>
    2740:	9b13      	ldr	r3, [sp, #76]	; 0x4c
    2742:	2b65      	cmp	r3, #101	; 0x65
    2744:	dc00      	bgt.n	2748 <_vfprintf_r+0x1138>
    2746:	e2a9      	b.n	2c9c <_vfprintf_r+0x168c>
    2748:	9b13      	ldr	r3, [sp, #76]	; 0x4c
    274a:	2b66      	cmp	r3, #102	; 0x66
    274c:	d100      	bne.n	2750 <_vfprintf_r+0x1140>
    274e:	e286      	b.n	2c5e <_vfprintf_r+0x164e>
    2750:	9b1f      	ldr	r3, [sp, #124]	; 0x7c
    2752:	9315      	str	r3, [sp, #84]	; 0x54
    2754:	9a15      	ldr	r2, [sp, #84]	; 0x54
    2756:	9914      	ldr	r1, [sp, #80]	; 0x50
    2758:	428a      	cmp	r2, r1
    275a:	da00      	bge.n	275e <_vfprintf_r+0x114e>
    275c:	e25f      	b.n	2c1e <_vfprintf_r+0x160e>
    275e:	9b08      	ldr	r3, [sp, #32]
    2760:	07db      	lsls	r3, r3, #31
    2762:	d500      	bpl.n	2766 <_vfprintf_r+0x1156>
    2764:	e2cb      	b.n	2cfe <_vfprintf_r+0x16ee>
    2766:	43d3      	mvns	r3, r2
    2768:	17db      	asrs	r3, r3, #31
    276a:	4013      	ands	r3, r2
    276c:	9210      	str	r2, [sp, #64]	; 0x40
    276e:	2267      	movs	r2, #103	; 0x67
    2770:	9213      	str	r2, [sp, #76]	; 0x4c
    2772:	9a09      	ldr	r2, [sp, #36]	; 0x24
    2774:	2a00      	cmp	r2, #0
    2776:	d000      	beq.n	277a <_vfprintf_r+0x116a>
    2778:	e156      	b.n	2a28 <_vfprintf_r+0x1418>
    277a:	9309      	str	r3, [sp, #36]	; 0x24
    277c:	9b1b      	ldr	r3, [sp, #108]	; 0x6c
    277e:	aa16      	add	r2, sp, #88	; 0x58
    2780:	9308      	str	r3, [sp, #32]
    2782:	2300      	movs	r3, #0
    2784:	7fd2      	ldrb	r2, [r2, #31]
    2786:	930b      	str	r3, [sp, #44]	; 0x2c
    2788:	4690      	mov	r8, r2
    278a:	f7ff f99c 	bl	1ac6 <_vfprintf_r+0x4b6>
    278e:	9b08      	ldr	r3, [sp, #32]
    2790:	06db      	lsls	r3, r3, #27
    2792:	d40c      	bmi.n	27ae <_vfprintf_r+0x119e>
    2794:	9b08      	ldr	r3, [sp, #32]
    2796:	065b      	lsls	r3, r3, #25
    2798:	d509      	bpl.n	27ae <_vfprintf_r+0x119e>
    279a:	4669      	mov	r1, sp
    279c:	9b11      	ldr	r3, [sp, #68]	; 0x44
    279e:	8e09      	ldrh	r1, [r1, #48]	; 0x30
    27a0:	681a      	ldr	r2, [r3, #0]
    27a2:	3304      	adds	r3, #4
    27a4:	9208      	str	r2, [sp, #32]
    27a6:	8011      	strh	r1, [r2, #0]
    27a8:	9311      	str	r3, [sp, #68]	; 0x44
    27aa:	f7fe ff79 	bl	16a0 <_vfprintf_r+0x90>
    27ae:	9a11      	ldr	r2, [sp, #68]	; 0x44
    27b0:	990c      	ldr	r1, [sp, #48]	; 0x30
    27b2:	6813      	ldr	r3, [r2, #0]
    27b4:	6019      	str	r1, [r3, #0]
    27b6:	0013      	movs	r3, r2
    27b8:	3304      	adds	r3, #4
    27ba:	9311      	str	r3, [sp, #68]	; 0x44
    27bc:	f7fe ff70 	bl	16a0 <_vfprintf_r+0x90>
    27c0:	9b0b      	ldr	r3, [sp, #44]	; 0x2c
    27c2:	aa16      	add	r2, sp, #88	; 0x58
    27c4:	77d0      	strb	r0, [r2, #31]
    27c6:	2b00      	cmp	r3, #0
    27c8:	da01      	bge.n	27ce <_vfprintf_r+0x11be>
    27ca:	f7fe ffe1 	bl	1790 <_vfprintf_r+0x180>
    27ce:	2380      	movs	r3, #128	; 0x80
    27d0:	9a08      	ldr	r2, [sp, #32]
    27d2:	439a      	bics	r2, r3
    27d4:	9208      	str	r2, [sp, #32]
    27d6:	f7fe ffd6 	bl	1786 <_vfprintf_r+0x176>
    27da:	46cb      	mov	fp, r9
    27dc:	46a1      	mov	r9, r4
    27de:	0014      	movs	r4, r2
    27e0:	e647      	b.n	2472 <_vfprintf_r+0xe62>
    27e2:	003a      	movs	r2, r7
    27e4:	4659      	mov	r1, fp
    27e6:	9807      	ldr	r0, [sp, #28]
    27e8:	f003 f9d4 	bl	5b94 <__sprint_r>
    27ec:	2800      	cmp	r0, #0
    27ee:	d000      	beq.n	27f2 <_vfprintf_r+0x11e2>
    27f0:	e527      	b.n	2242 <_vfprintf_r+0xc32>
    27f2:	68bc      	ldr	r4, [r7, #8]
    27f4:	ae32      	add	r6, sp, #200	; 0xc8
    27f6:	e47a      	b.n	20ee <_vfprintf_r+0xade>
    27f8:	4b29      	ldr	r3, [pc, #164]	; (28a0 <_vfprintf_r+0x1290>)
    27fa:	3401      	adds	r4, #1
    27fc:	6033      	str	r3, [r6, #0]
    27fe:	2301      	movs	r3, #1
    2800:	6073      	str	r3, [r6, #4]
    2802:	687b      	ldr	r3, [r7, #4]
    2804:	60bc      	str	r4, [r7, #8]
    2806:	3301      	adds	r3, #1
    2808:	607b      	str	r3, [r7, #4]
    280a:	2b07      	cmp	r3, #7
    280c:	dd00      	ble.n	2810 <_vfprintf_r+0x1200>
    280e:	e0ad      	b.n	296c <_vfprintf_r+0x135c>
    2810:	3608      	adds	r6, #8
    2812:	2800      	cmp	r0, #0
    2814:	d107      	bne.n	2826 <_vfprintf_r+0x1216>
    2816:	9b14      	ldr	r3, [sp, #80]	; 0x50
    2818:	2b00      	cmp	r3, #0
    281a:	d104      	bne.n	2826 <_vfprintf_r+0x1216>
    281c:	9b08      	ldr	r3, [sp, #32]
    281e:	07db      	lsls	r3, r3, #31
    2820:	d401      	bmi.n	2826 <_vfprintf_r+0x1216>
    2822:	f7ff fb9e 	bl	1f62 <_vfprintf_r+0x952>
    2826:	9b19      	ldr	r3, [sp, #100]	; 0x64
    2828:	6033      	str	r3, [r6, #0]
    282a:	9b18      	ldr	r3, [sp, #96]	; 0x60
    282c:	1919      	adds	r1, r3, r4
    282e:	6073      	str	r3, [r6, #4]
    2830:	687b      	ldr	r3, [r7, #4]
    2832:	60b9      	str	r1, [r7, #8]
    2834:	3301      	adds	r3, #1
    2836:	607b      	str	r3, [r7, #4]
    2838:	2b07      	cmp	r3, #7
    283a:	dd00      	ble.n	283e <_vfprintf_r+0x122e>
    283c:	e24c      	b.n	2cd8 <_vfprintf_r+0x16c8>
    283e:	0032      	movs	r2, r6
    2840:	3208      	adds	r2, #8
    2842:	4244      	negs	r4, r0
    2844:	2c00      	cmp	r4, #0
    2846:	dc00      	bgt.n	284a <_vfprintf_r+0x123a>
    2848:	e0de      	b.n	2a08 <_vfprintf_r+0x13f8>
    284a:	4814      	ldr	r0, [pc, #80]	; (289c <_vfprintf_r+0x128c>)
    284c:	4681      	mov	r9, r0
    284e:	2c10      	cmp	r4, #16
    2850:	dc00      	bgt.n	2854 <_vfprintf_r+0x1244>
    2852:	e121      	b.n	2a98 <_vfprintf_r+0x1488>
    2854:	2610      	movs	r6, #16
    2856:	465d      	mov	r5, fp
    2858:	e004      	b.n	2864 <_vfprintf_r+0x1254>
    285a:	3208      	adds	r2, #8
    285c:	3c10      	subs	r4, #16
    285e:	2c10      	cmp	r4, #16
    2860:	dc00      	bgt.n	2864 <_vfprintf_r+0x1254>
    2862:	e118      	b.n	2a96 <_vfprintf_r+0x1486>
    2864:	4648      	mov	r0, r9
    2866:	3110      	adds	r1, #16
    2868:	3301      	adds	r3, #1
    286a:	6010      	str	r0, [r2, #0]
    286c:	6056      	str	r6, [r2, #4]
    286e:	60b9      	str	r1, [r7, #8]
    2870:	607b      	str	r3, [r7, #4]
    2872:	2b07      	cmp	r3, #7
    2874:	ddf1      	ble.n	285a <_vfprintf_r+0x124a>
    2876:	003a      	movs	r2, r7
    2878:	0029      	movs	r1, r5
    287a:	9807      	ldr	r0, [sp, #28]
    287c:	f003 f98a 	bl	5b94 <__sprint_r>
    2880:	2800      	cmp	r0, #0
    2882:	d000      	beq.n	2886 <_vfprintf_r+0x1276>
    2884:	e260      	b.n	2d48 <_vfprintf_r+0x1738>
    2886:	68b9      	ldr	r1, [r7, #8]
    2888:	687b      	ldr	r3, [r7, #4]
    288a:	aa32      	add	r2, sp, #200	; 0xc8
    288c:	e7e6      	b.n	285c <_vfprintf_r+0x124c>
    288e:	9811      	ldr	r0, [sp, #68]	; 0x44
    2890:	f7ff faea 	bl	1e68 <_vfprintf_r+0x858>
    2894:	2001      	movs	r0, #1
    2896:	4240      	negs	r0, r0
    2898:	f7fe ff9c 	bl	17d4 <_vfprintf_r+0x1c4>
    289c:	00009160 	.word	0x00009160
    28a0:	000091b0 	.word	0x000091b0
    28a4:	9b07      	ldr	r3, [sp, #28]
    28a6:	46d8      	mov	r8, fp
    28a8:	469b      	mov	fp, r3
    28aa:	68bb      	ldr	r3, [r7, #8]
    28ac:	2b00      	cmp	r3, #0
    28ae:	d100      	bne.n	28b2 <_vfprintf_r+0x12a2>
    28b0:	e49a      	b.n	21e8 <_vfprintf_r+0xbd8>
    28b2:	003a      	movs	r2, r7
    28b4:	4641      	mov	r1, r8
    28b6:	4658      	mov	r0, fp
    28b8:	f003 f96c 	bl	5b94 <__sprint_r>
    28bc:	e494      	b.n	21e8 <_vfprintf_r+0xbd8>
    28be:	4be0      	ldr	r3, [pc, #896]	; (2c40 <_vfprintf_r+0x1630>)
    28c0:	9312      	str	r3, [sp, #72]	; 0x48
    28c2:	f7ff f88c 	bl	19de <_vfprintf_r+0x3ce>
    28c6:	9811      	ldr	r0, [sp, #68]	; 0x44
    28c8:	0003      	movs	r3, r0
    28ca:	8800      	ldrh	r0, [r0, #0]
    28cc:	3304      	adds	r3, #4
    28ce:	900e      	str	r0, [sp, #56]	; 0x38
    28d0:	2000      	movs	r0, #0
    28d2:	900f      	str	r0, [sp, #60]	; 0x3c
    28d4:	a816      	add	r0, sp, #88	; 0x58
    28d6:	77c2      	strb	r2, [r0, #31]
    28d8:	9a0b      	ldr	r2, [sp, #44]	; 0x2c
    28da:	2a00      	cmp	r2, #0
    28dc:	da00      	bge.n	28e0 <_vfprintf_r+0x12d0>
    28de:	e215      	b.n	2d0c <_vfprintf_r+0x16fc>
    28e0:	2280      	movs	r2, #128	; 0x80
    28e2:	4391      	bics	r1, r2
    28e4:	9a0e      	ldr	r2, [sp, #56]	; 0x38
    28e6:	9108      	str	r1, [sp, #32]
    28e8:	9311      	str	r3, [sp, #68]	; 0x44
    28ea:	2a00      	cmp	r2, #0
    28ec:	d001      	beq.n	28f2 <_vfprintf_r+0x12e2>
    28ee:	f7ff f8b6 	bl	1a5e <_vfprintf_r+0x44e>
    28f2:	e571      	b.n	23d8 <_vfprintf_r+0xdc8>
    28f4:	9811      	ldr	r0, [sp, #68]	; 0x44
    28f6:	0003      	movs	r3, r0
    28f8:	8800      	ldrh	r0, [r0, #0]
    28fa:	3304      	adds	r3, #4
    28fc:	900e      	str	r0, [sp, #56]	; 0x38
    28fe:	2000      	movs	r0, #0
    2900:	900f      	str	r0, [sp, #60]	; 0x3c
    2902:	a816      	add	r0, sp, #88	; 0x58
    2904:	77c2      	strb	r2, [r0, #31]
    2906:	9a0b      	ldr	r2, [sp, #44]	; 0x2c
    2908:	2a00      	cmp	r2, #0
    290a:	da00      	bge.n	290e <_vfprintf_r+0x12fe>
    290c:	e208      	b.n	2d20 <_vfprintf_r+0x1710>
    290e:	2280      	movs	r2, #128	; 0x80
    2910:	9311      	str	r3, [sp, #68]	; 0x44
    2912:	2300      	movs	r3, #0
    2914:	4391      	bics	r1, r2
    2916:	9a0e      	ldr	r2, [sp, #56]	; 0x38
    2918:	9108      	str	r1, [sp, #32]
    291a:	4698      	mov	r8, r3
    291c:	2a00      	cmp	r2, #0
    291e:	d001      	beq.n	2924 <_vfprintf_r+0x1314>
    2920:	f7fe ffef 	bl	1902 <_vfprintf_r+0x2f2>
    2924:	e4aa      	b.n	227c <_vfprintf_r+0xc6c>
    2926:	9b11      	ldr	r3, [sp, #68]	; 0x44
    2928:	881a      	ldrh	r2, [r3, #0]
    292a:	f7ff fa33 	bl	1d94 <_vfprintf_r+0x784>
    292e:	ab23      	add	r3, sp, #140	; 0x8c
    2930:	9304      	str	r3, [sp, #16]
    2932:	ab20      	add	r3, sp, #128	; 0x80
    2934:	9303      	str	r3, [sp, #12]
    2936:	ab1f      	add	r3, sp, #124	; 0x7c
    2938:	9302      	str	r3, [sp, #8]
    293a:	2303      	movs	r3, #3
    293c:	9c0b      	ldr	r4, [sp, #44]	; 0x2c
    293e:	9300      	str	r3, [sp, #0]
    2940:	9401      	str	r4, [sp, #4]
    2942:	464a      	mov	r2, r9
    2944:	4643      	mov	r3, r8
    2946:	9807      	ldr	r0, [sp, #28]
    2948:	f000 fbce 	bl	30e8 <_dtoa_r>
    294c:	46a2      	mov	sl, r4
    294e:	9012      	str	r0, [sp, #72]	; 0x48
    2950:	9b12      	ldr	r3, [sp, #72]	; 0x48
    2952:	4453      	add	r3, sl
    2954:	001c      	movs	r4, r3
    2956:	9b13      	ldr	r3, [sp, #76]	; 0x4c
    2958:	2b46      	cmp	r3, #70	; 0x46
    295a:	d000      	beq.n	295e <_vfprintf_r+0x134e>
    295c:	e6d7      	b.n	270e <_vfprintf_r+0x10fe>
    295e:	9b12      	ldr	r3, [sp, #72]	; 0x48
    2960:	781b      	ldrb	r3, [r3, #0]
    2962:	2b30      	cmp	r3, #48	; 0x30
    2964:	d015      	beq.n	2992 <_vfprintf_r+0x1382>
    2966:	9b1f      	ldr	r3, [sp, #124]	; 0x7c
    2968:	18e4      	adds	r4, r4, r3
    296a:	e6d0      	b.n	270e <_vfprintf_r+0x10fe>
    296c:	003a      	movs	r2, r7
    296e:	4659      	mov	r1, fp
    2970:	9807      	ldr	r0, [sp, #28]
    2972:	f003 f90f 	bl	5b94 <__sprint_r>
    2976:	2800      	cmp	r0, #0
    2978:	d000      	beq.n	297c <_vfprintf_r+0x136c>
    297a:	e462      	b.n	2242 <_vfprintf_r+0xc32>
    297c:	981f      	ldr	r0, [sp, #124]	; 0x7c
    297e:	68bc      	ldr	r4, [r7, #8]
    2980:	ae32      	add	r6, sp, #200	; 0xc8
    2982:	e746      	b.n	2812 <_vfprintf_r+0x1202>
    2984:	9b0b      	ldr	r3, [sp, #44]	; 0x2c
    2986:	2b00      	cmp	r3, #0
    2988:	d000      	beq.n	298c <_vfprintf_r+0x137c>
    298a:	e68a      	b.n	26a2 <_vfprintf_r+0x1092>
    298c:	3301      	adds	r3, #1
    298e:	930b      	str	r3, [sp, #44]	; 0x2c
    2990:	e687      	b.n	26a2 <_vfprintf_r+0x1092>
    2992:	2200      	movs	r2, #0
    2994:	2300      	movs	r3, #0
    2996:	4648      	mov	r0, r9
    2998:	4641      	mov	r1, r8
    299a:	f004 fb81 	bl	70a0 <__aeabi_dcmpeq>
    299e:	2800      	cmp	r0, #0
    29a0:	d1e1      	bne.n	2966 <_vfprintf_r+0x1356>
    29a2:	2301      	movs	r3, #1
    29a4:	4652      	mov	r2, sl
    29a6:	1a9b      	subs	r3, r3, r2
    29a8:	931f      	str	r3, [sp, #124]	; 0x7c
    29aa:	18e4      	adds	r4, r4, r3
    29ac:	e6af      	b.n	270e <_vfprintf_r+0x10fe>
    29ae:	2220      	movs	r2, #32
    29b0:	9b08      	ldr	r3, [sp, #32]
    29b2:	3101      	adds	r1, #1
    29b4:	4313      	orrs	r3, r2
    29b6:	9308      	str	r3, [sp, #32]
    29b8:	780b      	ldrb	r3, [r1, #0]
    29ba:	f7fe feac 	bl	1716 <_vfprintf_r+0x106>
    29be:	003a      	movs	r2, r7
    29c0:	4659      	mov	r1, fp
    29c2:	9807      	ldr	r0, [sp, #28]
    29c4:	f003 f8e6 	bl	5b94 <__sprint_r>
    29c8:	2800      	cmp	r0, #0
    29ca:	d000      	beq.n	29ce <_vfprintf_r+0x13be>
    29cc:	e439      	b.n	2242 <_vfprintf_r+0xc32>
    29ce:	68bc      	ldr	r4, [r7, #8]
    29d0:	ae32      	add	r6, sp, #200	; 0xc8
    29d2:	f7ff fba3 	bl	211c <_vfprintf_r+0xb0c>
    29d6:	9a12      	ldr	r2, [sp, #72]	; 0x48
    29d8:	ab32      	add	r3, sp, #200	; 0xc8
    29da:	1a9b      	subs	r3, r3, r2
    29dc:	9310      	str	r3, [sp, #64]	; 0x40
    29de:	f7ff f869 	bl	1ab4 <_vfprintf_r+0x4a4>
    29e2:	9812      	ldr	r0, [sp, #72]	; 0x48
    29e4:	f7fe fde0 	bl	15a8 <strlen>
    29e8:	0002      	movs	r2, r0
    29ea:	9010      	str	r0, [sp, #64]	; 0x40
    29ec:	0003      	movs	r3, r0
    29ee:	f7ff f91b 	bl	1c28 <_vfprintf_r+0x618>
    29f2:	003a      	movs	r2, r7
    29f4:	4659      	mov	r1, fp
    29f6:	9807      	ldr	r0, [sp, #28]
    29f8:	f003 f8cc 	bl	5b94 <__sprint_r>
    29fc:	2800      	cmp	r0, #0
    29fe:	d000      	beq.n	2a02 <_vfprintf_r+0x13f2>
    2a00:	e41f      	b.n	2242 <_vfprintf_r+0xc32>
    2a02:	68b9      	ldr	r1, [r7, #8]
    2a04:	687b      	ldr	r3, [r7, #4]
    2a06:	aa32      	add	r2, sp, #200	; 0xc8
    2a08:	9812      	ldr	r0, [sp, #72]	; 0x48
    2a0a:	3301      	adds	r3, #1
    2a0c:	6010      	str	r0, [r2, #0]
    2a0e:	9814      	ldr	r0, [sp, #80]	; 0x50
    2a10:	607b      	str	r3, [r7, #4]
    2a12:	1844      	adds	r4, r0, r1
    2a14:	6050      	str	r0, [r2, #4]
    2a16:	60bc      	str	r4, [r7, #8]
    2a18:	2b07      	cmp	r3, #7
    2a1a:	dd01      	ble.n	2a20 <_vfprintf_r+0x1410>
    2a1c:	f7ff fb43 	bl	20a6 <_vfprintf_r+0xa96>
    2a20:	3208      	adds	r2, #8
    2a22:	0016      	movs	r6, r2
    2a24:	f7ff fa9d 	bl	1f62 <_vfprintf_r+0x952>
    2a28:	9309      	str	r3, [sp, #36]	; 0x24
    2a2a:	9b1b      	ldr	r3, [sp, #108]	; 0x6c
    2a2c:	222d      	movs	r2, #45	; 0x2d
    2a2e:	9308      	str	r3, [sp, #32]
    2a30:	232d      	movs	r3, #45	; 0x2d
    2a32:	4698      	mov	r8, r3
    2a34:	2300      	movs	r3, #0
    2a36:	a916      	add	r1, sp, #88	; 0x58
    2a38:	77ca      	strb	r2, [r1, #31]
    2a3a:	930b      	str	r3, [sp, #44]	; 0x2c
    2a3c:	f7ff f846 	bl	1acc <_vfprintf_r+0x4bc>
    2a40:	9c1f      	ldr	r4, [sp, #124]	; 0x7c
    2a42:	1ce3      	adds	r3, r4, #3
    2a44:	db33      	blt.n	2aae <_vfprintf_r+0x149e>
    2a46:	9b0b      	ldr	r3, [sp, #44]	; 0x2c
    2a48:	42a3      	cmp	r3, r4
    2a4a:	db30      	blt.n	2aae <_vfprintf_r+0x149e>
    2a4c:	9415      	str	r4, [sp, #84]	; 0x54
    2a4e:	e681      	b.n	2754 <_vfprintf_r+0x1144>
    2a50:	9b0e      	ldr	r3, [sp, #56]	; 0x38
    2a52:	2b09      	cmp	r3, #9
    2a54:	d901      	bls.n	2a5a <_vfprintf_r+0x144a>
    2a56:	f7fe ff59 	bl	190c <_vfprintf_r+0x2fc>
    2a5a:	e417      	b.n	228c <_vfprintf_r+0xc7c>
    2a5c:	2101      	movs	r1, #1
    2a5e:	4249      	negs	r1, r1
    2a60:	f7fe feff 	bl	1862 <_vfprintf_r+0x252>
    2a64:	003a      	movs	r2, r7
    2a66:	4659      	mov	r1, fp
    2a68:	9807      	ldr	r0, [sp, #28]
    2a6a:	f003 f893 	bl	5b94 <__sprint_r>
    2a6e:	2800      	cmp	r0, #0
    2a70:	d001      	beq.n	2a76 <_vfprintf_r+0x1466>
    2a72:	f7ff fbe6 	bl	2242 <_vfprintf_r+0xc32>
    2a76:	68bc      	ldr	r4, [r7, #8]
    2a78:	ae32      	add	r6, sp, #200	; 0xc8
    2a7a:	e44f      	b.n	231c <_vfprintf_r+0xd0c>
    2a7c:	003a      	movs	r2, r7
    2a7e:	4659      	mov	r1, fp
    2a80:	9807      	ldr	r0, [sp, #28]
    2a82:	f003 f887 	bl	5b94 <__sprint_r>
    2a86:	2800      	cmp	r0, #0
    2a88:	d001      	beq.n	2a8e <_vfprintf_r+0x147e>
    2a8a:	f7ff fbda 	bl	2242 <_vfprintf_r+0xc32>
    2a8e:	9b1f      	ldr	r3, [sp, #124]	; 0x7c
    2a90:	68bc      	ldr	r4, [r7, #8]
    2a92:	ae32      	add	r6, sp, #200	; 0xc8
    2a94:	e531      	b.n	24fa <_vfprintf_r+0xeea>
    2a96:	46ab      	mov	fp, r5
    2a98:	4648      	mov	r0, r9
    2a9a:	1909      	adds	r1, r1, r4
    2a9c:	3301      	adds	r3, #1
    2a9e:	6010      	str	r0, [r2, #0]
    2aa0:	6054      	str	r4, [r2, #4]
    2aa2:	60b9      	str	r1, [r7, #8]
    2aa4:	607b      	str	r3, [r7, #4]
    2aa6:	2b07      	cmp	r3, #7
    2aa8:	dca3      	bgt.n	29f2 <_vfprintf_r+0x13e2>
    2aaa:	3208      	adds	r2, #8
    2aac:	e7ac      	b.n	2a08 <_vfprintf_r+0x13f8>
    2aae:	9b13      	ldr	r3, [sp, #76]	; 0x4c
    2ab0:	3b02      	subs	r3, #2
    2ab2:	9313      	str	r3, [sp, #76]	; 0x4c
    2ab4:	466b      	mov	r3, sp
    2ab6:	224c      	movs	r2, #76	; 0x4c
    2ab8:	189b      	adds	r3, r3, r2
    2aba:	781b      	ldrb	r3, [r3, #0]
    2abc:	3c01      	subs	r4, #1
    2abe:	ad21      	add	r5, sp, #132	; 0x84
    2ac0:	941f      	str	r4, [sp, #124]	; 0x7c
    2ac2:	702b      	strb	r3, [r5, #0]
    2ac4:	2c00      	cmp	r4, #0
    2ac6:	da00      	bge.n	2aca <_vfprintf_r+0x14ba>
    2ac8:	e155      	b.n	2d76 <_vfprintf_r+0x1766>
    2aca:	232b      	movs	r3, #43	; 0x2b
    2acc:	706b      	strb	r3, [r5, #1]
    2ace:	2c09      	cmp	r4, #9
    2ad0:	dc00      	bgt.n	2ad4 <_vfprintf_r+0x14c4>
    2ad2:	e11d      	b.n	2d10 <_vfprintf_r+0x1700>
    2ad4:	aa16      	add	r2, sp, #88	; 0x58
    2ad6:	233b      	movs	r3, #59	; 0x3b
    2ad8:	4694      	mov	ip, r2
    2ada:	4463      	add	r3, ip
    2adc:	46b0      	mov	r8, r6
    2ade:	469a      	mov	sl, r3
    2ae0:	001e      	movs	r6, r3
    2ae2:	0020      	movs	r0, r4
    2ae4:	210a      	movs	r1, #10
    2ae6:	f7fe f973 	bl	dd0 <__aeabi_idivmod>
    2aea:	3e01      	subs	r6, #1
    2aec:	3130      	adds	r1, #48	; 0x30
    2aee:	7031      	strb	r1, [r6, #0]
    2af0:	0020      	movs	r0, r4
    2af2:	210a      	movs	r1, #10
    2af4:	f7fe f95d 	bl	db2 <__aeabi_idiv>
    2af8:	0004      	movs	r4, r0
    2afa:	2809      	cmp	r0, #9
    2afc:	dcf1      	bgt.n	2ae2 <_vfprintf_r+0x14d2>
    2afe:	0033      	movs	r3, r6
    2b00:	3430      	adds	r4, #48	; 0x30
    2b02:	1e5a      	subs	r2, r3, #1
    2b04:	b2e4      	uxtb	r4, r4
    2b06:	4646      	mov	r6, r8
    2b08:	7014      	strb	r4, [r2, #0]
    2b0a:	4698      	mov	r8, r3
    2b0c:	4552      	cmp	r2, sl
    2b0e:	d300      	bcc.n	2b12 <_vfprintf_r+0x1502>
    2b10:	e164      	b.n	2ddc <_vfprintf_r+0x17cc>
    2b12:	4641      	mov	r1, r8
    2b14:	1a79      	subs	r1, r7, r1
    2b16:	002b      	movs	r3, r5
    2b18:	1869      	adds	r1, r5, r1
    2b1a:	e000      	b.n	2b1e <_vfprintf_r+0x150e>
    2b1c:	7814      	ldrb	r4, [r2, #0]
    2b1e:	709c      	strb	r4, [r3, #2]
    2b20:	3301      	adds	r3, #1
    2b22:	3201      	adds	r2, #1
    2b24:	428b      	cmp	r3, r1
    2b26:	d1f9      	bne.n	2b1c <_vfprintf_r+0x150c>
    2b28:	a916      	add	r1, sp, #88	; 0x58
    2b2a:	468c      	mov	ip, r1
    2b2c:	222e      	movs	r2, #46	; 0x2e
    2b2e:	4643      	mov	r3, r8
    2b30:	4462      	add	r2, ip
    2b32:	4694      	mov	ip, r2
    2b34:	1afb      	subs	r3, r7, r3
    2b36:	4463      	add	r3, ip
    2b38:	9914      	ldr	r1, [sp, #80]	; 0x50
    2b3a:	1b5b      	subs	r3, r3, r5
    2b3c:	000a      	movs	r2, r1
    2b3e:	469c      	mov	ip, r3
    2b40:	4462      	add	r2, ip
    2b42:	931a      	str	r3, [sp, #104]	; 0x68
    2b44:	9210      	str	r2, [sp, #64]	; 0x40
    2b46:	2901      	cmp	r1, #1
    2b48:	dc00      	bgt.n	2b4c <_vfprintf_r+0x153c>
    2b4a:	e11d      	b.n	2d88 <_vfprintf_r+0x1778>
    2b4c:	9a18      	ldr	r2, [sp, #96]	; 0x60
    2b4e:	9b10      	ldr	r3, [sp, #64]	; 0x40
    2b50:	4694      	mov	ip, r2
    2b52:	4463      	add	r3, ip
    2b54:	001a      	movs	r2, r3
    2b56:	9310      	str	r3, [sp, #64]	; 0x40
    2b58:	43db      	mvns	r3, r3
    2b5a:	17db      	asrs	r3, r3, #31
    2b5c:	4013      	ands	r3, r2
    2b5e:	2200      	movs	r2, #0
    2b60:	9215      	str	r2, [sp, #84]	; 0x54
    2b62:	e606      	b.n	2772 <_vfprintf_r+0x1162>
    2b64:	003a      	movs	r2, r7
    2b66:	4659      	mov	r1, fp
    2b68:	9807      	ldr	r0, [sp, #28]
    2b6a:	f003 f813 	bl	5b94 <__sprint_r>
    2b6e:	2800      	cmp	r0, #0
    2b70:	d001      	beq.n	2b76 <_vfprintf_r+0x1566>
    2b72:	f7ff fb66 	bl	2242 <_vfprintf_r+0xc32>
    2b76:	9b14      	ldr	r3, [sp, #80]	; 0x50
    2b78:	9a1f      	ldr	r2, [sp, #124]	; 0x7c
    2b7a:	68bc      	ldr	r4, [r7, #8]
    2b7c:	1a9b      	subs	r3, r3, r2
    2b7e:	ae32      	add	r6, sp, #200	; 0xc8
    2b80:	e4d4      	b.n	252c <_vfprintf_r+0xf1c>
    2b82:	232d      	movs	r3, #45	; 0x2d
    2b84:	4698      	mov	r8, r3
    2b86:	f7fe febc 	bl	1902 <_vfprintf_r+0x2f2>
    2b8a:	46c8      	mov	r8, r9
    2b8c:	f7ff fb2c 	bl	21e8 <_vfprintf_r+0xbd8>
    2b90:	9b0b      	ldr	r3, [sp, #44]	; 0x2c
    2b92:	2b06      	cmp	r3, #6
    2b94:	d900      	bls.n	2b98 <_vfprintf_r+0x1588>
    2b96:	2306      	movs	r3, #6
    2b98:	001a      	movs	r2, r3
    2b9a:	9310      	str	r3, [sp, #64]	; 0x40
    2b9c:	43db      	mvns	r3, r3
    2b9e:	17db      	asrs	r3, r3, #31
    2ba0:	401a      	ands	r2, r3
    2ba2:	2300      	movs	r3, #0
    2ba4:	4698      	mov	r8, r3
    2ba6:	930b      	str	r3, [sp, #44]	; 0x2c
    2ba8:	9315      	str	r3, [sp, #84]	; 0x54
    2baa:	4b26      	ldr	r3, [pc, #152]	; (2c44 <_vfprintf_r+0x1634>)
    2bac:	9209      	str	r2, [sp, #36]	; 0x24
    2bae:	9411      	str	r4, [sp, #68]	; 0x44
    2bb0:	9312      	str	r3, [sp, #72]	; 0x48
    2bb2:	f7fe ff8e 	bl	1ad2 <_vfprintf_r+0x4c2>
    2bb6:	003a      	movs	r2, r7
    2bb8:	4659      	mov	r1, fp
    2bba:	9807      	ldr	r0, [sp, #28]
    2bbc:	f002 ffea 	bl	5b94 <__sprint_r>
    2bc0:	2800      	cmp	r0, #0
    2bc2:	d001      	beq.n	2bc8 <_vfprintf_r+0x15b8>
    2bc4:	f7ff fb3d 	bl	2242 <_vfprintf_r+0xc32>
    2bc8:	68bc      	ldr	r4, [r7, #8]
    2bca:	ae32      	add	r6, sp, #200	; 0xc8
    2bcc:	e489      	b.n	24e2 <_vfprintf_r+0xed2>
    2bce:	2320      	movs	r3, #32
    2bd0:	9d13      	ldr	r5, [sp, #76]	; 0x4c
    2bd2:	439d      	bics	r5, r3
    2bd4:	3b1a      	subs	r3, #26
    2bd6:	930b      	str	r3, [sp, #44]	; 0x2c
    2bd8:	e563      	b.n	26a2 <_vfprintf_r+0x1092>
    2bda:	ab23      	add	r3, sp, #140	; 0x8c
    2bdc:	9304      	str	r3, [sp, #16]
    2bde:	ab20      	add	r3, sp, #128	; 0x80
    2be0:	9303      	str	r3, [sp, #12]
    2be2:	ab1f      	add	r3, sp, #124	; 0x7c
    2be4:	9302      	str	r3, [sp, #8]
    2be6:	2303      	movs	r3, #3
    2be8:	9c0b      	ldr	r4, [sp, #44]	; 0x2c
    2bea:	9300      	str	r3, [sp, #0]
    2bec:	9401      	str	r4, [sp, #4]
    2bee:	464a      	mov	r2, r9
    2bf0:	4643      	mov	r3, r8
    2bf2:	9807      	ldr	r0, [sp, #28]
    2bf4:	f000 fa78 	bl	30e8 <_dtoa_r>
    2bf8:	46a4      	mov	ip, r4
    2bfa:	0001      	movs	r1, r0
    2bfc:	0022      	movs	r2, r4
    2bfe:	4461      	add	r1, ip
    2c00:	9012      	str	r0, [sp, #72]	; 0x48
    2c02:	000c      	movs	r4, r1
    2c04:	4692      	mov	sl, r2
    2c06:	e6aa      	b.n	295e <_vfprintf_r+0x134e>
    2c08:	232d      	movs	r3, #45	; 0x2d
    2c0a:	aa16      	add	r2, sp, #88	; 0x58
    2c0c:	77d3      	strb	r3, [r2, #31]
    2c0e:	4698      	mov	r8, r3
    2c10:	f7fe fede 	bl	19d0 <_vfprintf_r+0x3c0>
    2c14:	2300      	movs	r3, #0
    2c16:	9008      	str	r0, [sp, #32]
    2c18:	4698      	mov	r8, r3
    2c1a:	f7ff f881 	bl	1d20 <_vfprintf_r+0x710>
    2c1e:	9a18      	ldr	r2, [sp, #96]	; 0x60
    2c20:	9b14      	ldr	r3, [sp, #80]	; 0x50
    2c22:	4694      	mov	ip, r2
    2c24:	9a15      	ldr	r2, [sp, #84]	; 0x54
    2c26:	4463      	add	r3, ip
    2c28:	9310      	str	r3, [sp, #64]	; 0x40
    2c2a:	2a00      	cmp	r2, #0
    2c2c:	dc00      	bgt.n	2c30 <_vfprintf_r+0x1620>
    2c2e:	e0a6      	b.n	2d7e <_vfprintf_r+0x176e>
    2c30:	001a      	movs	r2, r3
    2c32:	43db      	mvns	r3, r3
    2c34:	17db      	asrs	r3, r3, #31
    2c36:	4013      	ands	r3, r2
    2c38:	2267      	movs	r2, #103	; 0x67
    2c3a:	9213      	str	r2, [sp, #76]	; 0x4c
    2c3c:	e599      	b.n	2772 <_vfprintf_r+0x1162>
    2c3e:	46c0      	nop			; (mov r8, r8)
    2c40:	00009170 	.word	0x00009170
    2c44:	000091a8 	.word	0x000091a8
    2c48:	2280      	movs	r2, #128	; 0x80
    2c4a:	0612      	lsls	r2, r2, #24
    2c4c:	4694      	mov	ip, r2
    2c4e:	9b16      	ldr	r3, [sp, #88]	; 0x58
    2c50:	4699      	mov	r9, r3
    2c52:	9b17      	ldr	r3, [sp, #92]	; 0x5c
    2c54:	4463      	add	r3, ip
    2c56:	4698      	mov	r8, r3
    2c58:	232d      	movs	r3, #45	; 0x2d
    2c5a:	9309      	str	r3, [sp, #36]	; 0x24
    2c5c:	e52f      	b.n	26be <_vfprintf_r+0x10ae>
    2c5e:	9b1f      	ldr	r3, [sp, #124]	; 0x7c
    2c60:	9315      	str	r3, [sp, #84]	; 0x54
    2c62:	2b00      	cmp	r3, #0
    2c64:	dc00      	bgt.n	2c68 <_vfprintf_r+0x1658>
    2c66:	e0a4      	b.n	2db2 <_vfprintf_r+0x17a2>
    2c68:	9a0b      	ldr	r2, [sp, #44]	; 0x2c
    2c6a:	2a00      	cmp	r2, #0
    2c6c:	d15d      	bne.n	2d2a <_vfprintf_r+0x171a>
    2c6e:	9a08      	ldr	r2, [sp, #32]
    2c70:	07d2      	lsls	r2, r2, #31
    2c72:	d45a      	bmi.n	2d2a <_vfprintf_r+0x171a>
    2c74:	9310      	str	r3, [sp, #64]	; 0x40
    2c76:	e57c      	b.n	2772 <_vfprintf_r+0x1162>
    2c78:	9b12      	ldr	r3, [sp, #72]	; 0x48
    2c7a:	4453      	add	r3, sl
    2c7c:	001c      	movs	r4, r3
    2c7e:	9b13      	ldr	r3, [sp, #76]	; 0x4c
    2c80:	2b47      	cmp	r3, #71	; 0x47
    2c82:	d000      	beq.n	2c86 <_vfprintf_r+0x1676>
    2c84:	e543      	b.n	270e <_vfprintf_r+0x10fe>
    2c86:	9b08      	ldr	r3, [sp, #32]
    2c88:	07db      	lsls	r3, r3, #31
    2c8a:	d500      	bpl.n	2c8e <_vfprintf_r+0x167e>
    2c8c:	e660      	b.n	2950 <_vfprintf_r+0x1340>
    2c8e:	9b23      	ldr	r3, [sp, #140]	; 0x8c
    2c90:	9a12      	ldr	r2, [sp, #72]	; 0x48
    2c92:	1a9b      	subs	r3, r3, r2
    2c94:	9314      	str	r3, [sp, #80]	; 0x50
    2c96:	2d47      	cmp	r5, #71	; 0x47
    2c98:	d100      	bne.n	2c9c <_vfprintf_r+0x168c>
    2c9a:	e6d1      	b.n	2a40 <_vfprintf_r+0x1430>
    2c9c:	9c1f      	ldr	r4, [sp, #124]	; 0x7c
    2c9e:	e709      	b.n	2ab4 <_vfprintf_r+0x14a4>
    2ca0:	ab16      	add	r3, sp, #88	; 0x58
    2ca2:	7fdb      	ldrb	r3, [r3, #31]
    2ca4:	9411      	str	r4, [sp, #68]	; 0x44
    2ca6:	4698      	mov	r8, r3
    2ca8:	9b0b      	ldr	r3, [sp, #44]	; 0x2c
    2caa:	9309      	str	r3, [sp, #36]	; 0x24
    2cac:	9310      	str	r3, [sp, #64]	; 0x40
    2cae:	2300      	movs	r3, #0
    2cb0:	930b      	str	r3, [sp, #44]	; 0x2c
    2cb2:	9315      	str	r3, [sp, #84]	; 0x54
    2cb4:	f7fe ff07 	bl	1ac6 <_vfprintf_r+0x4b6>
    2cb8:	4698      	mov	r8, r3
    2cba:	9b08      	ldr	r3, [sp, #32]
    2cbc:	07db      	lsls	r3, r3, #31
    2cbe:	d505      	bpl.n	2ccc <_vfprintf_r+0x16bc>
    2cc0:	2130      	movs	r1, #48	; 0x30
    2cc2:	2327      	movs	r3, #39	; 0x27
    2cc4:	aa28      	add	r2, sp, #160	; 0xa0
    2cc6:	54d1      	strb	r1, [r2, r3]
    2cc8:	f7ff fae5 	bl	2296 <_vfprintf_r+0xc86>
    2ccc:	2300      	movs	r3, #0
    2cce:	9310      	str	r3, [sp, #64]	; 0x40
    2cd0:	ab32      	add	r3, sp, #200	; 0xc8
    2cd2:	9312      	str	r3, [sp, #72]	; 0x48
    2cd4:	f7fe feee 	bl	1ab4 <_vfprintf_r+0x4a4>
    2cd8:	003a      	movs	r2, r7
    2cda:	4659      	mov	r1, fp
    2cdc:	9807      	ldr	r0, [sp, #28]
    2cde:	f002 ff59 	bl	5b94 <__sprint_r>
    2ce2:	2800      	cmp	r0, #0
    2ce4:	d001      	beq.n	2cea <_vfprintf_r+0x16da>
    2ce6:	f7ff faac 	bl	2242 <_vfprintf_r+0xc32>
    2cea:	981f      	ldr	r0, [sp, #124]	; 0x7c
    2cec:	68b9      	ldr	r1, [r7, #8]
    2cee:	687b      	ldr	r3, [r7, #4]
    2cf0:	aa32      	add	r2, sp, #200	; 0xc8
    2cf2:	e5a6      	b.n	2842 <_vfprintf_r+0x1232>
    2cf4:	2200      	movs	r2, #0
    2cf6:	4641      	mov	r1, r8
    2cf8:	920b      	str	r2, [sp, #44]	; 0x2c
    2cfa:	f7fe fd0d 	bl	1718 <_vfprintf_r+0x108>
    2cfe:	9a18      	ldr	r2, [sp, #96]	; 0x60
    2d00:	9b15      	ldr	r3, [sp, #84]	; 0x54
    2d02:	4694      	mov	ip, r2
    2d04:	4463      	add	r3, ip
    2d06:	001a      	movs	r2, r3
    2d08:	9310      	str	r3, [sp, #64]	; 0x40
    2d0a:	e792      	b.n	2c32 <_vfprintf_r+0x1622>
    2d0c:	9311      	str	r3, [sp, #68]	; 0x44
    2d0e:	e49b      	b.n	2648 <_vfprintf_r+0x1038>
    2d10:	2330      	movs	r3, #48	; 0x30
    2d12:	3430      	adds	r4, #48	; 0x30
    2d14:	70ab      	strb	r3, [r5, #2]
    2d16:	70ec      	strb	r4, [r5, #3]
    2d18:	ab22      	add	r3, sp, #136	; 0x88
    2d1a:	e70d      	b.n	2b38 <_vfprintf_r+0x1528>
    2d1c:	9b23      	ldr	r3, [sp, #140]	; 0x8c
    2d1e:	e509      	b.n	2734 <_vfprintf_r+0x1124>
    2d20:	9311      	str	r3, [sp, #68]	; 0x44
    2d22:	2300      	movs	r3, #0
    2d24:	4698      	mov	r8, r3
    2d26:	f7ff fbc4 	bl	24b2 <_vfprintf_r+0xea2>
    2d2a:	9a18      	ldr	r2, [sp, #96]	; 0x60
    2d2c:	9b15      	ldr	r3, [sp, #84]	; 0x54
    2d2e:	4694      	mov	ip, r2
    2d30:	4463      	add	r3, ip
    2d32:	0018      	movs	r0, r3
    2d34:	9b0b      	ldr	r3, [sp, #44]	; 0x2c
    2d36:	469c      	mov	ip, r3
    2d38:	4484      	add	ip, r0
    2d3a:	4663      	mov	r3, ip
    2d3c:	9310      	str	r3, [sp, #64]	; 0x40
    2d3e:	43db      	mvns	r3, r3
    2d40:	4662      	mov	r2, ip
    2d42:	17db      	asrs	r3, r3, #31
    2d44:	4013      	ands	r3, r2
    2d46:	e514      	b.n	2772 <_vfprintf_r+0x1162>
    2d48:	46a8      	mov	r8, r5
    2d4a:	f7ff fa4d 	bl	21e8 <_vfprintf_r+0xbd8>
    2d4e:	9b13      	ldr	r3, [sp, #76]	; 0x4c
    2d50:	2b47      	cmp	r3, #71	; 0x47
    2d52:	dc20      	bgt.n	2d96 <_vfprintf_r+0x1786>
    2d54:	4b34      	ldr	r3, [pc, #208]	; (2e28 <_vfprintf_r+0x1818>)
    2d56:	9312      	str	r3, [sp, #72]	; 0x48
    2d58:	2380      	movs	r3, #128	; 0x80
    2d5a:	9a08      	ldr	r2, [sp, #32]
    2d5c:	439a      	bics	r2, r3
    2d5e:	ab16      	add	r3, sp, #88	; 0x58
    2d60:	7fdb      	ldrb	r3, [r3, #31]
    2d62:	9208      	str	r2, [sp, #32]
    2d64:	4698      	mov	r8, r3
    2d66:	2303      	movs	r3, #3
    2d68:	f7fe fe3e 	bl	19e8 <_vfprintf_r+0x3d8>
    2d6c:	4a2f      	ldr	r2, [pc, #188]	; (2e2c <_vfprintf_r+0x181c>)
    2d6e:	687b      	ldr	r3, [r7, #4]
    2d70:	4691      	mov	r9, r2
    2d72:	f7ff fbaa 	bl	24ca <_vfprintf_r+0xeba>
    2d76:	232d      	movs	r3, #45	; 0x2d
    2d78:	4264      	negs	r4, r4
    2d7a:	706b      	strb	r3, [r5, #1]
    2d7c:	e6a7      	b.n	2ace <_vfprintf_r+0x14be>
    2d7e:	9b10      	ldr	r3, [sp, #64]	; 0x40
    2d80:	9a15      	ldr	r2, [sp, #84]	; 0x54
    2d82:	1a98      	subs	r0, r3, r2
    2d84:	1c43      	adds	r3, r0, #1
    2d86:	e7be      	b.n	2d06 <_vfprintf_r+0x16f6>
    2d88:	9b08      	ldr	r3, [sp, #32]
    2d8a:	07db      	lsls	r3, r3, #31
    2d8c:	d500      	bpl.n	2d90 <_vfprintf_r+0x1780>
    2d8e:	e6dd      	b.n	2b4c <_vfprintf_r+0x153c>
    2d90:	9a10      	ldr	r2, [sp, #64]	; 0x40
    2d92:	0013      	movs	r3, r2
    2d94:	e6e0      	b.n	2b58 <_vfprintf_r+0x1548>
    2d96:	4b26      	ldr	r3, [pc, #152]	; (2e30 <_vfprintf_r+0x1820>)
    2d98:	9312      	str	r3, [sp, #72]	; 0x48
    2d9a:	e7dd      	b.n	2d58 <_vfprintf_r+0x1748>
    2d9c:	9b11      	ldr	r3, [sp, #68]	; 0x44
    2d9e:	1d1a      	adds	r2, r3, #4
    2da0:	681b      	ldr	r3, [r3, #0]
    2da2:	930b      	str	r3, [sp, #44]	; 0x2c
    2da4:	2b00      	cmp	r3, #0
    2da6:	db37      	blt.n	2e18 <_vfprintf_r+0x1808>
    2da8:	784b      	ldrb	r3, [r1, #1]
    2daa:	9211      	str	r2, [sp, #68]	; 0x44
    2dac:	4641      	mov	r1, r8
    2dae:	f7fe fcb2 	bl	1716 <_vfprintf_r+0x106>
    2db2:	9b0b      	ldr	r3, [sp, #44]	; 0x2c
    2db4:	2b00      	cmp	r3, #0
    2db6:	d102      	bne.n	2dbe <_vfprintf_r+0x17ae>
    2db8:	9b08      	ldr	r3, [sp, #32]
    2dba:	07db      	lsls	r3, r3, #31
    2dbc:	d502      	bpl.n	2dc4 <_vfprintf_r+0x17b4>
    2dbe:	9b18      	ldr	r3, [sp, #96]	; 0x60
    2dc0:	1c58      	adds	r0, r3, #1
    2dc2:	e7b7      	b.n	2d34 <_vfprintf_r+0x1724>
    2dc4:	2201      	movs	r2, #1
    2dc6:	2301      	movs	r3, #1
    2dc8:	9210      	str	r2, [sp, #64]	; 0x40
    2dca:	e4d2      	b.n	2772 <_vfprintf_r+0x1162>
    2dcc:	ab16      	add	r3, sp, #88	; 0x58
    2dce:	77dc      	strb	r4, [r3, #31]
    2dd0:	f7fe fdca 	bl	1968 <_vfprintf_r+0x358>
    2dd4:	ab16      	add	r3, sp, #88	; 0x58
    2dd6:	77dc      	strb	r4, [r3, #31]
    2dd8:	f7fe fe18 	bl	1a0c <_vfprintf_r+0x3fc>
    2ddc:	aa16      	add	r2, sp, #88	; 0x58
    2dde:	232e      	movs	r3, #46	; 0x2e
    2de0:	4694      	mov	ip, r2
    2de2:	4463      	add	r3, ip
    2de4:	e6a8      	b.n	2b38 <_vfprintf_r+0x1528>
    2de6:	ab16      	add	r3, sp, #88	; 0x58
    2de8:	77dc      	strb	r4, [r3, #31]
    2dea:	f7fe fec4 	bl	1b76 <_vfprintf_r+0x566>
    2dee:	ab16      	add	r3, sp, #88	; 0x58
    2df0:	77dc      	strb	r4, [r3, #31]
    2df2:	f7fe ff5d 	bl	1cb0 <_vfprintf_r+0x6a0>
    2df6:	ab16      	add	r3, sp, #88	; 0x58
    2df8:	77dc      	strb	r4, [r3, #31]
    2dfa:	f7fe fd55 	bl	18a8 <_vfprintf_r+0x298>
    2dfe:	ab16      	add	r3, sp, #88	; 0x58
    2e00:	77dc      	strb	r4, [r3, #31]
    2e02:	490c      	ldr	r1, [pc, #48]	; (2e34 <_vfprintf_r+0x1824>)
    2e04:	f7fe ffb9 	bl	1d7a <_vfprintf_r+0x76a>
    2e08:	ab16      	add	r3, sp, #88	; 0x58
    2e0a:	77dc      	strb	r4, [r3, #31]
    2e0c:	f7ff f81d 	bl	1e4a <_vfprintf_r+0x83a>
    2e10:	ab16      	add	r3, sp, #88	; 0x58
    2e12:	77dc      	strb	r4, [r3, #31]
    2e14:	f7fe ff31 	bl	1c7a <_vfprintf_r+0x66a>
    2e18:	9211      	str	r2, [sp, #68]	; 0x44
    2e1a:	2201      	movs	r2, #1
    2e1c:	4252      	negs	r2, r2
    2e1e:	784b      	ldrb	r3, [r1, #1]
    2e20:	920b      	str	r2, [sp, #44]	; 0x2c
    2e22:	4641      	mov	r1, r8
    2e24:	f7fe fc77 	bl	1716 <_vfprintf_r+0x106>
    2e28:	00009178 	.word	0x00009178
    2e2c:	00009160 	.word	0x00009160
    2e30:	0000917c 	.word	0x0000917c
    2e34:	00009194 	.word	0x00009194

00002e38 <vfprintf>:
    2e38:	b510      	push	{r4, lr}
    2e3a:	0004      	movs	r4, r0
    2e3c:	0013      	movs	r3, r2
    2e3e:	4a03      	ldr	r2, [pc, #12]	; (2e4c <vfprintf+0x14>)
    2e40:	6810      	ldr	r0, [r2, #0]
    2e42:	000a      	movs	r2, r1
    2e44:	0021      	movs	r1, r4
    2e46:	f7fe fbe3 	bl	1610 <_vfprintf_r>
    2e4a:	bd10      	pop	{r4, pc}
    2e4c:	10010d40 	.word	0x10010d40

00002e50 <__sbprintf>:
    2e50:	b570      	push	{r4, r5, r6, lr}
    2e52:	0006      	movs	r6, r0
    2e54:	2002      	movs	r0, #2
    2e56:	4c1a      	ldr	r4, [pc, #104]	; (2ec0 <__sbprintf+0x70>)
    2e58:	44a5      	add	sp, r4
    2e5a:	000c      	movs	r4, r1
    2e5c:	8989      	ldrh	r1, [r1, #12]
    2e5e:	4381      	bics	r1, r0
    2e60:	4668      	mov	r0, sp
    2e62:	8181      	strh	r1, [r0, #12]
    2e64:	6e61      	ldr	r1, [r4, #100]	; 0x64
    2e66:	9119      	str	r1, [sp, #100]	; 0x64
    2e68:	89e1      	ldrh	r1, [r4, #14]
    2e6a:	81c1      	strh	r1, [r0, #14]
    2e6c:	69e1      	ldr	r1, [r4, #28]
    2e6e:	0030      	movs	r0, r6
    2e70:	9107      	str	r1, [sp, #28]
    2e72:	6a61      	ldr	r1, [r4, #36]	; 0x24
    2e74:	9109      	str	r1, [sp, #36]	; 0x24
    2e76:	a91a      	add	r1, sp, #104	; 0x68
    2e78:	9100      	str	r1, [sp, #0]
    2e7a:	9104      	str	r1, [sp, #16]
    2e7c:	2180      	movs	r1, #128	; 0x80
    2e7e:	00c9      	lsls	r1, r1, #3
    2e80:	9102      	str	r1, [sp, #8]
    2e82:	9105      	str	r1, [sp, #20]
    2e84:	2100      	movs	r1, #0
    2e86:	9106      	str	r1, [sp, #24]
    2e88:	4669      	mov	r1, sp
    2e8a:	f7fe fbc1 	bl	1610 <_vfprintf_r>
    2e8e:	1e05      	subs	r5, r0, #0
    2e90:	db05      	blt.n	2e9e <__sbprintf+0x4e>
    2e92:	4669      	mov	r1, sp
    2e94:	0030      	movs	r0, r6
    2e96:	f001 f979 	bl	418c <_fflush_r>
    2e9a:	2800      	cmp	r0, #0
    2e9c:	d10c      	bne.n	2eb8 <__sbprintf+0x68>
    2e9e:	466b      	mov	r3, sp
    2ea0:	899b      	ldrh	r3, [r3, #12]
    2ea2:	065b      	lsls	r3, r3, #25
    2ea4:	d503      	bpl.n	2eae <__sbprintf+0x5e>
    2ea6:	2340      	movs	r3, #64	; 0x40
    2ea8:	89a2      	ldrh	r2, [r4, #12]
    2eaa:	4313      	orrs	r3, r2
    2eac:	81a3      	strh	r3, [r4, #12]
    2eae:	0028      	movs	r0, r5
    2eb0:	238d      	movs	r3, #141	; 0x8d
    2eb2:	00db      	lsls	r3, r3, #3
    2eb4:	449d      	add	sp, r3
    2eb6:	bd70      	pop	{r4, r5, r6, pc}
    2eb8:	2501      	movs	r5, #1
    2eba:	426d      	negs	r5, r5
    2ebc:	e7ef      	b.n	2e9e <__sbprintf+0x4e>
    2ebe:	46c0      	nop			; (mov r8, r8)
    2ec0:	fffffb98 	.word	0xfffffb98

00002ec4 <__swsetup_r>:
    2ec4:	4b33      	ldr	r3, [pc, #204]	; (2f94 <__swsetup_r+0xd0>)
    2ec6:	b570      	push	{r4, r5, r6, lr}
    2ec8:	0005      	movs	r5, r0
    2eca:	6818      	ldr	r0, [r3, #0]
    2ecc:	000c      	movs	r4, r1
    2ece:	2800      	cmp	r0, #0
    2ed0:	d002      	beq.n	2ed8 <__swsetup_r+0x14>
    2ed2:	6b83      	ldr	r3, [r0, #56]	; 0x38
    2ed4:	2b00      	cmp	r3, #0
    2ed6:	d03d      	beq.n	2f54 <__swsetup_r+0x90>
    2ed8:	230c      	movs	r3, #12
    2eda:	5ee0      	ldrsh	r0, [r4, r3]
    2edc:	b283      	uxth	r3, r0
    2ede:	071a      	lsls	r2, r3, #28
    2ee0:	d50d      	bpl.n	2efe <__swsetup_r+0x3a>
    2ee2:	6921      	ldr	r1, [r4, #16]
    2ee4:	2900      	cmp	r1, #0
    2ee6:	d016      	beq.n	2f16 <__swsetup_r+0x52>
    2ee8:	07da      	lsls	r2, r3, #31
    2eea:	d522      	bpl.n	2f32 <__swsetup_r+0x6e>
    2eec:	2300      	movs	r3, #0
    2eee:	60a3      	str	r3, [r4, #8]
    2ef0:	6963      	ldr	r3, [r4, #20]
    2ef2:	2000      	movs	r0, #0
    2ef4:	425b      	negs	r3, r3
    2ef6:	61a3      	str	r3, [r4, #24]
    2ef8:	2900      	cmp	r1, #0
    2efa:	d022      	beq.n	2f42 <__swsetup_r+0x7e>
    2efc:	bd70      	pop	{r4, r5, r6, pc}
    2efe:	06da      	lsls	r2, r3, #27
    2f00:	d540      	bpl.n	2f84 <__swsetup_r+0xc0>
    2f02:	075b      	lsls	r3, r3, #29
    2f04:	d429      	bmi.n	2f5a <__swsetup_r+0x96>
    2f06:	6921      	ldr	r1, [r4, #16]
    2f08:	2208      	movs	r2, #8
    2f0a:	0003      	movs	r3, r0
    2f0c:	4313      	orrs	r3, r2
    2f0e:	81a3      	strh	r3, [r4, #12]
    2f10:	b29b      	uxth	r3, r3
    2f12:	2900      	cmp	r1, #0
    2f14:	d1e8      	bne.n	2ee8 <__swsetup_r+0x24>
    2f16:	22a0      	movs	r2, #160	; 0xa0
    2f18:	2080      	movs	r0, #128	; 0x80
    2f1a:	0092      	lsls	r2, r2, #2
    2f1c:	0080      	lsls	r0, r0, #2
    2f1e:	401a      	ands	r2, r3
    2f20:	4282      	cmp	r2, r0
    2f22:	d0e1      	beq.n	2ee8 <__swsetup_r+0x24>
    2f24:	0021      	movs	r1, r4
    2f26:	0028      	movs	r0, r5
    2f28:	f001 fdc8 	bl	4abc <__smakebuf_r>
    2f2c:	89a3      	ldrh	r3, [r4, #12]
    2f2e:	6921      	ldr	r1, [r4, #16]
    2f30:	e7da      	b.n	2ee8 <__swsetup_r+0x24>
    2f32:	2200      	movs	r2, #0
    2f34:	079b      	lsls	r3, r3, #30
    2f36:	d400      	bmi.n	2f3a <__swsetup_r+0x76>
    2f38:	6962      	ldr	r2, [r4, #20]
    2f3a:	60a2      	str	r2, [r4, #8]
    2f3c:	2000      	movs	r0, #0
    2f3e:	2900      	cmp	r1, #0
    2f40:	d1dc      	bne.n	2efc <__swsetup_r+0x38>
    2f42:	220c      	movs	r2, #12
    2f44:	5ea3      	ldrsh	r3, [r4, r2]
    2f46:	061a      	lsls	r2, r3, #24
    2f48:	d5d8      	bpl.n	2efc <__swsetup_r+0x38>
    2f4a:	2240      	movs	r2, #64	; 0x40
    2f4c:	4313      	orrs	r3, r2
    2f4e:	81a3      	strh	r3, [r4, #12]
    2f50:	3801      	subs	r0, #1
    2f52:	e7d3      	b.n	2efc <__swsetup_r+0x38>
    2f54:	f001 fa34 	bl	43c0 <__sinit>
    2f58:	e7be      	b.n	2ed8 <__swsetup_r+0x14>
    2f5a:	6b21      	ldr	r1, [r4, #48]	; 0x30
    2f5c:	2900      	cmp	r1, #0
    2f5e:	d00a      	beq.n	2f76 <__swsetup_r+0xb2>
    2f60:	0023      	movs	r3, r4
    2f62:	3340      	adds	r3, #64	; 0x40
    2f64:	4299      	cmp	r1, r3
    2f66:	d004      	beq.n	2f72 <__swsetup_r+0xae>
    2f68:	0028      	movs	r0, r5
    2f6a:	f001 faa1 	bl	44b0 <_free_r>
    2f6e:	230c      	movs	r3, #12
    2f70:	5ee0      	ldrsh	r0, [r4, r3]
    2f72:	2300      	movs	r3, #0
    2f74:	6323      	str	r3, [r4, #48]	; 0x30
    2f76:	2324      	movs	r3, #36	; 0x24
    2f78:	4398      	bics	r0, r3
    2f7a:	2300      	movs	r3, #0
    2f7c:	6921      	ldr	r1, [r4, #16]
    2f7e:	6063      	str	r3, [r4, #4]
    2f80:	6021      	str	r1, [r4, #0]
    2f82:	e7c1      	b.n	2f08 <__swsetup_r+0x44>
    2f84:	2309      	movs	r3, #9
    2f86:	602b      	str	r3, [r5, #0]
    2f88:	2340      	movs	r3, #64	; 0x40
    2f8a:	4303      	orrs	r3, r0
    2f8c:	2001      	movs	r0, #1
    2f8e:	81a3      	strh	r3, [r4, #12]
    2f90:	4240      	negs	r0, r0
    2f92:	e7b3      	b.n	2efc <__swsetup_r+0x38>
    2f94:	10010d40 	.word	0x10010d40

00002f98 <quorem>:
    2f98:	b5f0      	push	{r4, r5, r6, r7, lr}
    2f9a:	4644      	mov	r4, r8
    2f9c:	4680      	mov	r8, r0
    2f9e:	465f      	mov	r7, fp
    2fa0:	4656      	mov	r6, sl
    2fa2:	464d      	mov	r5, r9
    2fa4:	4642      	mov	r2, r8
    2fa6:	b4f0      	push	{r4, r5, r6, r7}
    2fa8:	6912      	ldr	r2, [r2, #16]
    2faa:	690c      	ldr	r4, [r1, #16]
    2fac:	b085      	sub	sp, #20
    2fae:	000b      	movs	r3, r1
    2fb0:	9103      	str	r1, [sp, #12]
    2fb2:	2000      	movs	r0, #0
    2fb4:	4294      	cmp	r4, r2
    2fb6:	dd00      	ble.n	2fba <quorem+0x22>
    2fb8:	e08e      	b.n	30d8 <quorem+0x140>
    2fba:	2214      	movs	r2, #20
    2fbc:	4694      	mov	ip, r2
    2fbe:	4463      	add	r3, ip
    2fc0:	4699      	mov	r9, r3
    2fc2:	464a      	mov	r2, r9
    2fc4:	3c01      	subs	r4, #1
    2fc6:	00a3      	lsls	r3, r4, #2
    2fc8:	18d6      	adds	r6, r2, r3
    2fca:	2214      	movs	r2, #20
    2fcc:	4442      	add	r2, r8
    2fce:	4693      	mov	fp, r2
    2fd0:	449b      	add	fp, r3
    2fd2:	6833      	ldr	r3, [r6, #0]
    2fd4:	0015      	movs	r5, r2
    2fd6:	1c59      	adds	r1, r3, #1
    2fd8:	465b      	mov	r3, fp
    2fda:	6818      	ldr	r0, [r3, #0]
    2fdc:	9202      	str	r2, [sp, #8]
    2fde:	f7fd ff10 	bl	e02 <__aeabi_uidiv>
    2fe2:	1e03      	subs	r3, r0, #0
    2fe4:	9001      	str	r0, [sp, #4]
    2fe6:	d040      	beq.n	306a <quorem+0xd2>
    2fe8:	2700      	movs	r7, #0
    2fea:	0029      	movs	r1, r5
    2fec:	46b4      	mov	ip, r6
    2fee:	001e      	movs	r6, r3
    2ff0:	0023      	movs	r3, r4
    2ff2:	46ca      	mov	sl, r9
    2ff4:	003c      	movs	r4, r7
    2ff6:	2000      	movs	r0, #0
    2ff8:	464f      	mov	r7, r9
    2ffa:	000d      	movs	r5, r1
    2ffc:	4699      	mov	r9, r3
    2ffe:	cf02      	ldmia	r7!, {r1}
    3000:	040a      	lsls	r2, r1, #16
    3002:	0c12      	lsrs	r2, r2, #16
    3004:	4372      	muls	r2, r6
    3006:	0c09      	lsrs	r1, r1, #16
    3008:	4371      	muls	r1, r6
    300a:	1912      	adds	r2, r2, r4
    300c:	0c13      	lsrs	r3, r2, #16
    300e:	18c9      	adds	r1, r1, r3
    3010:	682b      	ldr	r3, [r5, #0]
    3012:	0412      	lsls	r2, r2, #16
    3014:	041b      	lsls	r3, r3, #16
    3016:	0c1b      	lsrs	r3, r3, #16
    3018:	181b      	adds	r3, r3, r0
    301a:	0c12      	lsrs	r2, r2, #16
    301c:	1a9b      	subs	r3, r3, r2
    301e:	682a      	ldr	r2, [r5, #0]
    3020:	0c0c      	lsrs	r4, r1, #16
    3022:	0409      	lsls	r1, r1, #16
    3024:	0c12      	lsrs	r2, r2, #16
    3026:	0c09      	lsrs	r1, r1, #16
    3028:	1418      	asrs	r0, r3, #16
    302a:	1a51      	subs	r1, r2, r1
    302c:	1809      	adds	r1, r1, r0
    302e:	041b      	lsls	r3, r3, #16
    3030:	1408      	asrs	r0, r1, #16
    3032:	0c1b      	lsrs	r3, r3, #16
    3034:	0409      	lsls	r1, r1, #16
    3036:	430b      	orrs	r3, r1
    3038:	c508      	stmia	r5!, {r3}
    303a:	45bc      	cmp	ip, r7
    303c:	d2df      	bcs.n	2ffe <quorem+0x66>
    303e:	465b      	mov	r3, fp
    3040:	681b      	ldr	r3, [r3, #0]
    3042:	464c      	mov	r4, r9
    3044:	4666      	mov	r6, ip
    3046:	46d1      	mov	r9, sl
    3048:	2b00      	cmp	r3, #0
    304a:	d10e      	bne.n	306a <quorem+0xd2>
    304c:	465b      	mov	r3, fp
    304e:	9a02      	ldr	r2, [sp, #8]
    3050:	3b04      	subs	r3, #4
    3052:	429a      	cmp	r2, r3
    3054:	d304      	bcc.n	3060 <quorem+0xc8>
    3056:	e006      	b.n	3066 <quorem+0xce>
    3058:	3b04      	subs	r3, #4
    305a:	3c01      	subs	r4, #1
    305c:	429a      	cmp	r2, r3
    305e:	d202      	bcs.n	3066 <quorem+0xce>
    3060:	6819      	ldr	r1, [r3, #0]
    3062:	2900      	cmp	r1, #0
    3064:	d0f8      	beq.n	3058 <quorem+0xc0>
    3066:	4643      	mov	r3, r8
    3068:	611c      	str	r4, [r3, #16]
    306a:	9903      	ldr	r1, [sp, #12]
    306c:	4640      	mov	r0, r8
    306e:	f002 f87f 	bl	5170 <__mcmp>
    3072:	2800      	cmp	r0, #0
    3074:	db2f      	blt.n	30d6 <quorem+0x13e>
    3076:	464f      	mov	r7, r9
    3078:	2000      	movs	r0, #0
    307a:	9b01      	ldr	r3, [sp, #4]
    307c:	9d02      	ldr	r5, [sp, #8]
    307e:	3301      	adds	r3, #1
    3080:	9301      	str	r3, [sp, #4]
    3082:	6829      	ldr	r1, [r5, #0]
    3084:	cf04      	ldmia	r7!, {r2}
    3086:	040b      	lsls	r3, r1, #16
    3088:	0c1b      	lsrs	r3, r3, #16
    308a:	1818      	adds	r0, r3, r0
    308c:	0413      	lsls	r3, r2, #16
    308e:	0c1b      	lsrs	r3, r3, #16
    3090:	1ac3      	subs	r3, r0, r3
    3092:	0c09      	lsrs	r1, r1, #16
    3094:	0c12      	lsrs	r2, r2, #16
    3096:	1a8a      	subs	r2, r1, r2
    3098:	1419      	asrs	r1, r3, #16
    309a:	1852      	adds	r2, r2, r1
    309c:	041b      	lsls	r3, r3, #16
    309e:	1410      	asrs	r0, r2, #16
    30a0:	0c1b      	lsrs	r3, r3, #16
    30a2:	0412      	lsls	r2, r2, #16
    30a4:	431a      	orrs	r2, r3
    30a6:	c504      	stmia	r5!, {r2}
    30a8:	42be      	cmp	r6, r7
    30aa:	d2ea      	bcs.n	3082 <quorem+0xea>
    30ac:	9902      	ldr	r1, [sp, #8]
    30ae:	00a3      	lsls	r3, r4, #2
    30b0:	468c      	mov	ip, r1
    30b2:	4463      	add	r3, ip
    30b4:	681a      	ldr	r2, [r3, #0]
    30b6:	2a00      	cmp	r2, #0
    30b8:	d10d      	bne.n	30d6 <quorem+0x13e>
    30ba:	3b04      	subs	r3, #4
    30bc:	000a      	movs	r2, r1
    30be:	4299      	cmp	r1, r3
    30c0:	d304      	bcc.n	30cc <quorem+0x134>
    30c2:	e006      	b.n	30d2 <quorem+0x13a>
    30c4:	3b04      	subs	r3, #4
    30c6:	3c01      	subs	r4, #1
    30c8:	429a      	cmp	r2, r3
    30ca:	d202      	bcs.n	30d2 <quorem+0x13a>
    30cc:	6819      	ldr	r1, [r3, #0]
    30ce:	2900      	cmp	r1, #0
    30d0:	d0f8      	beq.n	30c4 <quorem+0x12c>
    30d2:	4643      	mov	r3, r8
    30d4:	611c      	str	r4, [r3, #16]
    30d6:	9801      	ldr	r0, [sp, #4]
    30d8:	b005      	add	sp, #20
    30da:	bc3c      	pop	{r2, r3, r4, r5}
    30dc:	4690      	mov	r8, r2
    30de:	4699      	mov	r9, r3
    30e0:	46a2      	mov	sl, r4
    30e2:	46ab      	mov	fp, r5
    30e4:	bdf0      	pop	{r4, r5, r6, r7, pc}
    30e6:	46c0      	nop			; (mov r8, r8)

000030e8 <_dtoa_r>:
    30e8:	b5f0      	push	{r4, r5, r6, r7, lr}
    30ea:	465f      	mov	r7, fp
    30ec:	4656      	mov	r6, sl
    30ee:	464d      	mov	r5, r9
    30f0:	4644      	mov	r4, r8
    30f2:	b4f0      	push	{r4, r5, r6, r7}
    30f4:	0014      	movs	r4, r2
    30f6:	001d      	movs	r5, r3
    30f8:	6c01      	ldr	r1, [r0, #64]	; 0x40
    30fa:	b099      	sub	sp, #100	; 0x64
    30fc:	4683      	mov	fp, r0
    30fe:	9e25      	ldr	r6, [sp, #148]	; 0x94
    3100:	9402      	str	r4, [sp, #8]
    3102:	9503      	str	r5, [sp, #12]
    3104:	2900      	cmp	r1, #0
    3106:	d009      	beq.n	311c <_dtoa_r+0x34>
    3108:	2301      	movs	r3, #1
    310a:	6c42      	ldr	r2, [r0, #68]	; 0x44
    310c:	4093      	lsls	r3, r2
    310e:	604a      	str	r2, [r1, #4]
    3110:	608b      	str	r3, [r1, #8]
    3112:	f001 fdd3 	bl	4cbc <_Bfree>
    3116:	2300      	movs	r3, #0
    3118:	465a      	mov	r2, fp
    311a:	6413      	str	r3, [r2, #64]	; 0x40
    311c:	9f03      	ldr	r7, [sp, #12]
    311e:	2f00      	cmp	r7, #0
    3120:	db34      	blt.n	318c <_dtoa_r+0xa4>
    3122:	2300      	movs	r3, #0
    3124:	6033      	str	r3, [r6, #0]
    3126:	003a      	movs	r2, r7
    3128:	4bd3      	ldr	r3, [pc, #844]	; (3478 <_dtoa_r+0x390>)
    312a:	401a      	ands	r2, r3
    312c:	429a      	cmp	r2, r3
    312e:	d01a      	beq.n	3166 <_dtoa_r+0x7e>
    3130:	9c02      	ldr	r4, [sp, #8]
    3132:	9d03      	ldr	r5, [sp, #12]
    3134:	2200      	movs	r2, #0
    3136:	2300      	movs	r3, #0
    3138:	0020      	movs	r0, r4
    313a:	0029      	movs	r1, r5
    313c:	f003 ffb0 	bl	70a0 <__aeabi_dcmpeq>
    3140:	2800      	cmp	r0, #0
    3142:	d029      	beq.n	3198 <_dtoa_r+0xb0>
    3144:	2301      	movs	r3, #1
    3146:	9a24      	ldr	r2, [sp, #144]	; 0x90
    3148:	6013      	str	r3, [r2, #0]
    314a:	9b26      	ldr	r3, [sp, #152]	; 0x98
    314c:	2b00      	cmp	r3, #0
    314e:	d100      	bne.n	3152 <_dtoa_r+0x6a>
    3150:	e22e      	b.n	35b0 <_dtoa_r+0x4c8>
    3152:	48ca      	ldr	r0, [pc, #808]	; (347c <_dtoa_r+0x394>)
    3154:	6018      	str	r0, [r3, #0]
    3156:	3801      	subs	r0, #1
    3158:	b019      	add	sp, #100	; 0x64
    315a:	bc3c      	pop	{r2, r3, r4, r5}
    315c:	4690      	mov	r8, r2
    315e:	4699      	mov	r9, r3
    3160:	46a2      	mov	sl, r4
    3162:	46ab      	mov	fp, r5
    3164:	bdf0      	pop	{r4, r5, r6, r7, pc}
    3166:	4bc6      	ldr	r3, [pc, #792]	; (3480 <_dtoa_r+0x398>)
    3168:	9a24      	ldr	r2, [sp, #144]	; 0x90
    316a:	6013      	str	r3, [r2, #0]
    316c:	9b02      	ldr	r3, [sp, #8]
    316e:	2b00      	cmp	r3, #0
    3170:	d100      	bne.n	3174 <_dtoa_r+0x8c>
    3172:	e1fd      	b.n	3570 <_dtoa_r+0x488>
    3174:	48c3      	ldr	r0, [pc, #780]	; (3484 <_dtoa_r+0x39c>)
    3176:	9b26      	ldr	r3, [sp, #152]	; 0x98
    3178:	2b00      	cmp	r3, #0
    317a:	d0ed      	beq.n	3158 <_dtoa_r+0x70>
    317c:	78c2      	ldrb	r2, [r0, #3]
    317e:	1cc3      	adds	r3, r0, #3
    3180:	2a00      	cmp	r2, #0
    3182:	d000      	beq.n	3186 <_dtoa_r+0x9e>
    3184:	3305      	adds	r3, #5
    3186:	9a26      	ldr	r2, [sp, #152]	; 0x98
    3188:	6013      	str	r3, [r2, #0]
    318a:	e7e5      	b.n	3158 <_dtoa_r+0x70>
    318c:	2301      	movs	r3, #1
    318e:	0068      	lsls	r0, r5, #1
    3190:	0847      	lsrs	r7, r0, #1
    3192:	6033      	str	r3, [r6, #0]
    3194:	9703      	str	r7, [sp, #12]
    3196:	e7c6      	b.n	3126 <_dtoa_r+0x3e>
    3198:	ab16      	add	r3, sp, #88	; 0x58
    319a:	9301      	str	r3, [sp, #4]
    319c:	ab17      	add	r3, sp, #92	; 0x5c
    319e:	9300      	str	r3, [sp, #0]
    31a0:	0022      	movs	r2, r4
    31a2:	002b      	movs	r3, r5
    31a4:	4658      	mov	r0, fp
    31a6:	f002 f921 	bl	53ec <__d2b>
    31aa:	0d3e      	lsrs	r6, r7, #20
    31ac:	900a      	str	r0, [sp, #40]	; 0x28
    31ae:	d100      	bne.n	31b2 <_dtoa_r+0xca>
    31b0:	e1e3      	b.n	357a <_dtoa_r+0x492>
    31b2:	032b      	lsls	r3, r5, #12
    31b4:	4ab4      	ldr	r2, [pc, #720]	; (3488 <_dtoa_r+0x3a0>)
    31b6:	0b1b      	lsrs	r3, r3, #12
    31b8:	431a      	orrs	r2, r3
    31ba:	4bb4      	ldr	r3, [pc, #720]	; (348c <_dtoa_r+0x3a4>)
    31bc:	0020      	movs	r0, r4
    31be:	469c      	mov	ip, r3
    31c0:	9b16      	ldr	r3, [sp, #88]	; 0x58
    31c2:	0011      	movs	r1, r2
    31c4:	4698      	mov	r8, r3
    31c6:	2300      	movs	r3, #0
    31c8:	4466      	add	r6, ip
    31ca:	9312      	str	r3, [sp, #72]	; 0x48
    31cc:	2200      	movs	r2, #0
    31ce:	4bb0      	ldr	r3, [pc, #704]	; (3490 <_dtoa_r+0x3a8>)
    31d0:	f005 fa3e 	bl	8650 <__aeabi_dsub>
    31d4:	4aaf      	ldr	r2, [pc, #700]	; (3494 <_dtoa_r+0x3ac>)
    31d6:	4bb0      	ldr	r3, [pc, #704]	; (3498 <_dtoa_r+0x3b0>)
    31d8:	f004 ffc0 	bl	815c <__aeabi_dmul>
    31dc:	4aaf      	ldr	r2, [pc, #700]	; (349c <_dtoa_r+0x3b4>)
    31de:	4bb0      	ldr	r3, [pc, #704]	; (34a0 <_dtoa_r+0x3b8>)
    31e0:	f004 f86c 	bl	72bc <__aeabi_dadd>
    31e4:	0004      	movs	r4, r0
    31e6:	0030      	movs	r0, r6
    31e8:	000d      	movs	r5, r1
    31ea:	f005 fddb 	bl	8da4 <__aeabi_i2d>
    31ee:	4aad      	ldr	r2, [pc, #692]	; (34a4 <_dtoa_r+0x3bc>)
    31f0:	4bad      	ldr	r3, [pc, #692]	; (34a8 <_dtoa_r+0x3c0>)
    31f2:	f004 ffb3 	bl	815c <__aeabi_dmul>
    31f6:	0002      	movs	r2, r0
    31f8:	000b      	movs	r3, r1
    31fa:	0020      	movs	r0, r4
    31fc:	0029      	movs	r1, r5
    31fe:	f004 f85d 	bl	72bc <__aeabi_dadd>
    3202:	0004      	movs	r4, r0
    3204:	000d      	movs	r5, r1
    3206:	f005 fd97 	bl	8d38 <__aeabi_d2iz>
    320a:	2200      	movs	r2, #0
    320c:	9005      	str	r0, [sp, #20]
    320e:	2300      	movs	r3, #0
    3210:	0020      	movs	r0, r4
    3212:	0029      	movs	r1, r5
    3214:	f003 ff4a 	bl	70ac <__aeabi_dcmplt>
    3218:	2800      	cmp	r0, #0
    321a:	d000      	beq.n	321e <_dtoa_r+0x136>
    321c:	e2b6      	b.n	378c <_dtoa_r+0x6a4>
    321e:	2301      	movs	r3, #1
    3220:	9c05      	ldr	r4, [sp, #20]
    3222:	930d      	str	r3, [sp, #52]	; 0x34
    3224:	2c16      	cmp	r4, #22
    3226:	d810      	bhi.n	324a <_dtoa_r+0x162>
    3228:	49a0      	ldr	r1, [pc, #640]	; (34ac <_dtoa_r+0x3c4>)
    322a:	00e3      	lsls	r3, r4, #3
    322c:	18c9      	adds	r1, r1, r3
    322e:	6808      	ldr	r0, [r1, #0]
    3230:	6849      	ldr	r1, [r1, #4]
    3232:	9a02      	ldr	r2, [sp, #8]
    3234:	9b03      	ldr	r3, [sp, #12]
    3236:	f003 ff4d 	bl	70d4 <__aeabi_dcmpgt>
    323a:	2800      	cmp	r0, #0
    323c:	d100      	bne.n	3240 <_dtoa_r+0x158>
    323e:	e3aa      	b.n	3996 <_dtoa_r+0x8ae>
    3240:	0023      	movs	r3, r4
    3242:	3b01      	subs	r3, #1
    3244:	9305      	str	r3, [sp, #20]
    3246:	2300      	movs	r3, #0
    3248:	930d      	str	r3, [sp, #52]	; 0x34
    324a:	4643      	mov	r3, r8
    324c:	1b9e      	subs	r6, r3, r6
    324e:	2300      	movs	r3, #0
    3250:	9306      	str	r3, [sp, #24]
    3252:	3e01      	subs	r6, #1
    3254:	46b2      	mov	sl, r6
    3256:	d500      	bpl.n	325a <_dtoa_r+0x172>
    3258:	e2a7      	b.n	37aa <_dtoa_r+0x6c2>
    325a:	9b05      	ldr	r3, [sp, #20]
    325c:	2b00      	cmp	r3, #0
    325e:	da00      	bge.n	3262 <_dtoa_r+0x17a>
    3260:	e28b      	b.n	377a <_dtoa_r+0x692>
    3262:	469c      	mov	ip, r3
    3264:	930e      	str	r3, [sp, #56]	; 0x38
    3266:	2300      	movs	r3, #0
    3268:	44e2      	add	sl, ip
    326a:	930b      	str	r3, [sp, #44]	; 0x2c
    326c:	9b22      	ldr	r3, [sp, #136]	; 0x88
    326e:	2b09      	cmp	r3, #9
    3270:	d900      	bls.n	3274 <_dtoa_r+0x18c>
    3272:	e19f      	b.n	35b4 <_dtoa_r+0x4cc>
    3274:	2401      	movs	r4, #1
    3276:	2b05      	cmp	r3, #5
    3278:	dd02      	ble.n	3280 <_dtoa_r+0x198>
    327a:	2400      	movs	r4, #0
    327c:	3b04      	subs	r3, #4
    327e:	9322      	str	r3, [sp, #136]	; 0x88
    3280:	9b22      	ldr	r3, [sp, #136]	; 0x88
    3282:	2b03      	cmp	r3, #3
    3284:	d101      	bne.n	328a <_dtoa_r+0x1a2>
    3286:	f000 fcd8 	bl	3c3a <_dtoa_r+0xb52>
    328a:	dc01      	bgt.n	3290 <_dtoa_r+0x1a8>
    328c:	f000 fc9d 	bl	3bca <_dtoa_r+0xae2>
    3290:	9b22      	ldr	r3, [sp, #136]	; 0x88
    3292:	2b04      	cmp	r3, #4
    3294:	d100      	bne.n	3298 <_dtoa_r+0x1b0>
    3296:	e3a4      	b.n	39e2 <_dtoa_r+0x8fa>
    3298:	2301      	movs	r3, #1
    329a:	930c      	str	r3, [sp, #48]	; 0x30
    329c:	9b22      	ldr	r3, [sp, #136]	; 0x88
    329e:	2b05      	cmp	r3, #5
    32a0:	d001      	beq.n	32a6 <_dtoa_r+0x1be>
    32a2:	f000 fc98 	bl	3bd6 <_dtoa_r+0xaee>
    32a6:	9a23      	ldr	r2, [sp, #140]	; 0x8c
    32a8:	9b05      	ldr	r3, [sp, #20]
    32aa:	4694      	mov	ip, r2
    32ac:	4463      	add	r3, ip
    32ae:	930f      	str	r3, [sp, #60]	; 0x3c
    32b0:	3301      	adds	r3, #1
    32b2:	9308      	str	r3, [sp, #32]
    32b4:	1e1d      	subs	r5, r3, #0
    32b6:	dc01      	bgt.n	32bc <_dtoa_r+0x1d4>
    32b8:	f000 fc66 	bl	3b88 <_dtoa_r+0xaa0>
    32bc:	9d08      	ldr	r5, [sp, #32]
    32be:	002e      	movs	r6, r5
    32c0:	2300      	movs	r3, #0
    32c2:	465a      	mov	r2, fp
    32c4:	2100      	movs	r1, #0
    32c6:	6453      	str	r3, [r2, #68]	; 0x44
    32c8:	2e17      	cmp	r6, #23
    32ca:	d90a      	bls.n	32e2 <_dtoa_r+0x1fa>
    32cc:	2201      	movs	r2, #1
    32ce:	3304      	adds	r3, #4
    32d0:	005b      	lsls	r3, r3, #1
    32d2:	0018      	movs	r0, r3
    32d4:	3014      	adds	r0, #20
    32d6:	0011      	movs	r1, r2
    32d8:	3201      	adds	r2, #1
    32da:	4286      	cmp	r6, r0
    32dc:	d2f8      	bcs.n	32d0 <_dtoa_r+0x1e8>
    32de:	465b      	mov	r3, fp
    32e0:	6459      	str	r1, [r3, #68]	; 0x44
    32e2:	4658      	mov	r0, fp
    32e4:	f001 fcc2 	bl	4c6c <_Balloc>
    32e8:	465b      	mov	r3, fp
    32ea:	9009      	str	r0, [sp, #36]	; 0x24
    32ec:	6418      	str	r0, [r3, #64]	; 0x40
    32ee:	2d0e      	cmp	r5, #14
    32f0:	d900      	bls.n	32f4 <_dtoa_r+0x20c>
    32f2:	e172      	b.n	35da <_dtoa_r+0x4f2>
    32f4:	2c00      	cmp	r4, #0
    32f6:	d100      	bne.n	32fa <_dtoa_r+0x212>
    32f8:	e16f      	b.n	35da <_dtoa_r+0x4f2>
    32fa:	9b02      	ldr	r3, [sp, #8]
    32fc:	9c03      	ldr	r4, [sp, #12]
    32fe:	9e05      	ldr	r6, [sp, #20]
    3300:	9310      	str	r3, [sp, #64]	; 0x40
    3302:	9411      	str	r4, [sp, #68]	; 0x44
    3304:	2e00      	cmp	r6, #0
    3306:	dc01      	bgt.n	330c <_dtoa_r+0x224>
    3308:	f000 fd31 	bl	3d6e <_dtoa_r+0xc86>
    330c:	0031      	movs	r1, r6
    330e:	220f      	movs	r2, #15
    3310:	4011      	ands	r1, r2
    3312:	00cb      	lsls	r3, r1, #3
    3314:	4965      	ldr	r1, [pc, #404]	; (34ac <_dtoa_r+0x3c4>)
    3316:	1136      	asrs	r6, r6, #4
    3318:	18cb      	adds	r3, r1, r3
    331a:	681c      	ldr	r4, [r3, #0]
    331c:	685d      	ldr	r5, [r3, #4]
    331e:	06f1      	lsls	r1, r6, #27
    3320:	d401      	bmi.n	3326 <_dtoa_r+0x23e>
    3322:	f000 fcda 	bl	3cda <_dtoa_r+0xbf2>
    3326:	9810      	ldr	r0, [sp, #64]	; 0x40
    3328:	9911      	ldr	r1, [sp, #68]	; 0x44
    332a:	4b61      	ldr	r3, [pc, #388]	; (34b0 <_dtoa_r+0x3c8>)
    332c:	4016      	ands	r6, r2
    332e:	6a1a      	ldr	r2, [r3, #32]
    3330:	6a5b      	ldr	r3, [r3, #36]	; 0x24
    3332:	f004 faef 	bl	7914 <__aeabi_ddiv>
    3336:	2303      	movs	r3, #3
    3338:	4698      	mov	r8, r3
    333a:	9002      	str	r0, [sp, #8]
    333c:	9103      	str	r1, [sp, #12]
    333e:	2e00      	cmp	r6, #0
    3340:	d014      	beq.n	336c <_dtoa_r+0x284>
    3342:	2301      	movs	r3, #1
    3344:	4699      	mov	r9, r3
    3346:	4f5a      	ldr	r7, [pc, #360]	; (34b0 <_dtoa_r+0x3c8>)
    3348:	464b      	mov	r3, r9
    334a:	4233      	tst	r3, r6
    334c:	d00a      	beq.n	3364 <_dtoa_r+0x27c>
    334e:	2301      	movs	r3, #1
    3350:	469c      	mov	ip, r3
    3352:	683a      	ldr	r2, [r7, #0]
    3354:	687b      	ldr	r3, [r7, #4]
    3356:	0020      	movs	r0, r4
    3358:	0029      	movs	r1, r5
    335a:	44e0      	add	r8, ip
    335c:	f004 fefe 	bl	815c <__aeabi_dmul>
    3360:	0004      	movs	r4, r0
    3362:	000d      	movs	r5, r1
    3364:	1076      	asrs	r6, r6, #1
    3366:	3708      	adds	r7, #8
    3368:	2e00      	cmp	r6, #0
    336a:	d1ed      	bne.n	3348 <_dtoa_r+0x260>
    336c:	0022      	movs	r2, r4
    336e:	9802      	ldr	r0, [sp, #8]
    3370:	9903      	ldr	r1, [sp, #12]
    3372:	002b      	movs	r3, r5
    3374:	f004 face 	bl	7914 <__aeabi_ddiv>
    3378:	0006      	movs	r6, r0
    337a:	000f      	movs	r7, r1
    337c:	9b0d      	ldr	r3, [sp, #52]	; 0x34
    337e:	2b00      	cmp	r3, #0
    3380:	d009      	beq.n	3396 <_dtoa_r+0x2ae>
    3382:	2200      	movs	r2, #0
    3384:	4b40      	ldr	r3, [pc, #256]	; (3488 <_dtoa_r+0x3a0>)
    3386:	0030      	movs	r0, r6
    3388:	0039      	movs	r1, r7
    338a:	f003 fe8f 	bl	70ac <__aeabi_dcmplt>
    338e:	2800      	cmp	r0, #0
    3390:	d001      	beq.n	3396 <_dtoa_r+0x2ae>
    3392:	f000 fdc7 	bl	3f24 <_dtoa_r+0xe3c>
    3396:	4640      	mov	r0, r8
    3398:	f005 fd04 	bl	8da4 <__aeabi_i2d>
    339c:	0032      	movs	r2, r6
    339e:	003b      	movs	r3, r7
    33a0:	f004 fedc 	bl	815c <__aeabi_dmul>
    33a4:	2200      	movs	r2, #0
    33a6:	4b43      	ldr	r3, [pc, #268]	; (34b4 <_dtoa_r+0x3cc>)
    33a8:	f003 ff88 	bl	72bc <__aeabi_dadd>
    33ac:	4a42      	ldr	r2, [pc, #264]	; (34b8 <_dtoa_r+0x3d0>)
    33ae:	000b      	movs	r3, r1
    33b0:	4694      	mov	ip, r2
    33b2:	4463      	add	r3, ip
    33b4:	9002      	str	r0, [sp, #8]
    33b6:	9103      	str	r1, [sp, #12]
    33b8:	9303      	str	r3, [sp, #12]
    33ba:	9b08      	ldr	r3, [sp, #32]
    33bc:	2b00      	cmp	r3, #0
    33be:	d101      	bne.n	33c4 <_dtoa_r+0x2dc>
    33c0:	f000 fc5c 	bl	3c7c <_dtoa_r+0xb94>
    33c4:	9b05      	ldr	r3, [sp, #20]
    33c6:	9314      	str	r3, [sp, #80]	; 0x50
    33c8:	9b08      	ldr	r3, [sp, #32]
    33ca:	9313      	str	r3, [sp, #76]	; 0x4c
    33cc:	9b0c      	ldr	r3, [sp, #48]	; 0x30
    33ce:	2b00      	cmp	r3, #0
    33d0:	d101      	bne.n	33d6 <_dtoa_r+0x2ee>
    33d2:	f000 fd1a 	bl	3e0a <_dtoa_r+0xd22>
    33d6:	9b13      	ldr	r3, [sp, #76]	; 0x4c
    33d8:	4a34      	ldr	r2, [pc, #208]	; (34ac <_dtoa_r+0x3c4>)
    33da:	3b01      	subs	r3, #1
    33dc:	00db      	lsls	r3, r3, #3
    33de:	18d3      	adds	r3, r2, r3
    33e0:	681a      	ldr	r2, [r3, #0]
    33e2:	685b      	ldr	r3, [r3, #4]
    33e4:	2000      	movs	r0, #0
    33e6:	4935      	ldr	r1, [pc, #212]	; (34bc <_dtoa_r+0x3d4>)
    33e8:	f004 fa94 	bl	7914 <__aeabi_ddiv>
    33ec:	9a02      	ldr	r2, [sp, #8]
    33ee:	9b03      	ldr	r3, [sp, #12]
    33f0:	f005 f92e 	bl	8650 <__aeabi_dsub>
    33f4:	9002      	str	r0, [sp, #8]
    33f6:	9103      	str	r1, [sp, #12]
    33f8:	0039      	movs	r1, r7
    33fa:	0030      	movs	r0, r6
    33fc:	f005 fc9c 	bl	8d38 <__aeabi_d2iz>
    3400:	0005      	movs	r5, r0
    3402:	f005 fccf 	bl	8da4 <__aeabi_i2d>
    3406:	0002      	movs	r2, r0
    3408:	000b      	movs	r3, r1
    340a:	0030      	movs	r0, r6
    340c:	0039      	movs	r1, r7
    340e:	f005 f91f 	bl	8650 <__aeabi_dsub>
    3412:	0006      	movs	r6, r0
    3414:	000f      	movs	r7, r1
    3416:	9a09      	ldr	r2, [sp, #36]	; 0x24
    3418:	3530      	adds	r5, #48	; 0x30
    341a:	b2e9      	uxtb	r1, r5
    341c:	7011      	strb	r1, [r2, #0]
    341e:	1c54      	adds	r4, r2, #1
    3420:	4688      	mov	r8, r1
    3422:	9802      	ldr	r0, [sp, #8]
    3424:	9903      	ldr	r1, [sp, #12]
    3426:	0032      	movs	r2, r6
    3428:	003b      	movs	r3, r7
    342a:	f003 fe53 	bl	70d4 <__aeabi_dcmpgt>
    342e:	2800      	cmp	r0, #0
    3430:	d000      	beq.n	3434 <_dtoa_r+0x34c>
    3432:	e08a      	b.n	354a <_dtoa_r+0x462>
    3434:	0032      	movs	r2, r6
    3436:	003b      	movs	r3, r7
    3438:	2000      	movs	r0, #0
    343a:	4913      	ldr	r1, [pc, #76]	; (3488 <_dtoa_r+0x3a0>)
    343c:	f005 f908 	bl	8650 <__aeabi_dsub>
    3440:	0002      	movs	r2, r0
    3442:	000b      	movs	r3, r1
    3444:	9802      	ldr	r0, [sp, #8]
    3446:	9903      	ldr	r1, [sp, #12]
    3448:	f003 fe44 	bl	70d4 <__aeabi_dcmpgt>
    344c:	2800      	cmp	r0, #0
    344e:	d001      	beq.n	3454 <_dtoa_r+0x36c>
    3450:	f000 fdd8 	bl	4004 <_dtoa_r+0xf1c>
    3454:	9b13      	ldr	r3, [sp, #76]	; 0x4c
    3456:	2b01      	cmp	r3, #1
    3458:	dc01      	bgt.n	345e <_dtoa_r+0x376>
    345a:	f000 fc83 	bl	3d64 <_dtoa_r+0xc7c>
    345e:	9a09      	ldr	r2, [sp, #36]	; 0x24
    3460:	9b13      	ldr	r3, [sp, #76]	; 0x4c
    3462:	4694      	mov	ip, r2
    3464:	4463      	add	r3, ip
    3466:	4699      	mov	r9, r3
    3468:	4653      	mov	r3, sl
    346a:	9313      	str	r3, [sp, #76]	; 0x4c
    346c:	465b      	mov	r3, fp
    346e:	46a2      	mov	sl, r4
    3470:	9c02      	ldr	r4, [sp, #8]
    3472:	9d03      	ldr	r5, [sp, #12]
    3474:	9302      	str	r3, [sp, #8]
    3476:	e035      	b.n	34e4 <_dtoa_r+0x3fc>
    3478:	7ff00000 	.word	0x7ff00000
    347c:	000091b1 	.word	0x000091b1
    3480:	0000270f 	.word	0x0000270f
    3484:	000091d0 	.word	0x000091d0
    3488:	3ff00000 	.word	0x3ff00000
    348c:	fffffc01 	.word	0xfffffc01
    3490:	3ff80000 	.word	0x3ff80000
    3494:	636f4361 	.word	0x636f4361
    3498:	3fd287a7 	.word	0x3fd287a7
    349c:	8b60c8b3 	.word	0x8b60c8b3
    34a0:	3fc68a28 	.word	0x3fc68a28
    34a4:	509f79fb 	.word	0x509f79fb
    34a8:	3fd34413 	.word	0x3fd34413
    34ac:	000091d8 	.word	0x000091d8
    34b0:	000092b0 	.word	0x000092b0
    34b4:	401c0000 	.word	0x401c0000
    34b8:	fcc00000 	.word	0xfcc00000
    34bc:	3fe00000 	.word	0x3fe00000
    34c0:	0032      	movs	r2, r6
    34c2:	003b      	movs	r3, r7
    34c4:	2000      	movs	r0, #0
    34c6:	49bc      	ldr	r1, [pc, #752]	; (37b8 <_dtoa_r+0x6d0>)
    34c8:	f005 f8c2 	bl	8650 <__aeabi_dsub>
    34cc:	0022      	movs	r2, r4
    34ce:	002b      	movs	r3, r5
    34d0:	f003 fdec 	bl	70ac <__aeabi_dcmplt>
    34d4:	2800      	cmp	r0, #0
    34d6:	d001      	beq.n	34dc <_dtoa_r+0x3f4>
    34d8:	f000 fd6c 	bl	3fb4 <_dtoa_r+0xecc>
    34dc:	45ca      	cmp	sl, r9
    34de:	d101      	bne.n	34e4 <_dtoa_r+0x3fc>
    34e0:	f000 fc3c 	bl	3d5c <_dtoa_r+0xc74>
    34e4:	2200      	movs	r2, #0
    34e6:	4bb5      	ldr	r3, [pc, #724]	; (37bc <_dtoa_r+0x6d4>)
    34e8:	0020      	movs	r0, r4
    34ea:	0029      	movs	r1, r5
    34ec:	f004 fe36 	bl	815c <__aeabi_dmul>
    34f0:	2200      	movs	r2, #0
    34f2:	4bb2      	ldr	r3, [pc, #712]	; (37bc <_dtoa_r+0x6d4>)
    34f4:	0004      	movs	r4, r0
    34f6:	000d      	movs	r5, r1
    34f8:	0030      	movs	r0, r6
    34fa:	0039      	movs	r1, r7
    34fc:	f004 fe2e 	bl	815c <__aeabi_dmul>
    3500:	000f      	movs	r7, r1
    3502:	0006      	movs	r6, r0
    3504:	f005 fc18 	bl	8d38 <__aeabi_d2iz>
    3508:	4680      	mov	r8, r0
    350a:	f005 fc4b 	bl	8da4 <__aeabi_i2d>
    350e:	0002      	movs	r2, r0
    3510:	000b      	movs	r3, r1
    3512:	0030      	movs	r0, r6
    3514:	0039      	movs	r1, r7
    3516:	f005 f89b 	bl	8650 <__aeabi_dsub>
    351a:	2301      	movs	r3, #1
    351c:	469c      	mov	ip, r3
    351e:	4643      	mov	r3, r8
    3520:	3330      	adds	r3, #48	; 0x30
    3522:	b2db      	uxtb	r3, r3
    3524:	4698      	mov	r8, r3
    3526:	2301      	movs	r3, #1
    3528:	4642      	mov	r2, r8
    352a:	44e2      	add	sl, ip
    352c:	425b      	negs	r3, r3
    352e:	4453      	add	r3, sl
    3530:	701a      	strb	r2, [r3, #0]
    3532:	469b      	mov	fp, r3
    3534:	0022      	movs	r2, r4
    3536:	002b      	movs	r3, r5
    3538:	0006      	movs	r6, r0
    353a:	000f      	movs	r7, r1
    353c:	f003 fdb6 	bl	70ac <__aeabi_dcmplt>
    3540:	2800      	cmp	r0, #0
    3542:	d0bd      	beq.n	34c0 <_dtoa_r+0x3d8>
    3544:	9b02      	ldr	r3, [sp, #8]
    3546:	4654      	mov	r4, sl
    3548:	469b      	mov	fp, r3
    354a:	9b14      	ldr	r3, [sp, #80]	; 0x50
    354c:	9305      	str	r3, [sp, #20]
    354e:	990a      	ldr	r1, [sp, #40]	; 0x28
    3550:	4658      	mov	r0, fp
    3552:	f001 fbb3 	bl	4cbc <_Bfree>
    3556:	2300      	movs	r3, #0
    3558:	7023      	strb	r3, [r4, #0]
    355a:	9b05      	ldr	r3, [sp, #20]
    355c:	9a24      	ldr	r2, [sp, #144]	; 0x90
    355e:	3301      	adds	r3, #1
    3560:	6013      	str	r3, [r2, #0]
    3562:	9b26      	ldr	r3, [sp, #152]	; 0x98
    3564:	2b00      	cmp	r3, #0
    3566:	d100      	bne.n	356a <_dtoa_r+0x482>
    3568:	e3aa      	b.n	3cc0 <_dtoa_r+0xbd8>
    356a:	601c      	str	r4, [r3, #0]
    356c:	9809      	ldr	r0, [sp, #36]	; 0x24
    356e:	e5f3      	b.n	3158 <_dtoa_r+0x70>
    3570:	0338      	lsls	r0, r7, #12
    3572:	d000      	beq.n	3576 <_dtoa_r+0x48e>
    3574:	e5fe      	b.n	3174 <_dtoa_r+0x8c>
    3576:	4892      	ldr	r0, [pc, #584]	; (37c0 <_dtoa_r+0x6d8>)
    3578:	e5fd      	b.n	3176 <_dtoa_r+0x8e>
    357a:	9b16      	ldr	r3, [sp, #88]	; 0x58
    357c:	4698      	mov	r8, r3
    357e:	9b17      	ldr	r3, [sp, #92]	; 0x5c
    3580:	4443      	add	r3, r8
    3582:	001e      	movs	r6, r3
    3584:	4b8f      	ldr	r3, [pc, #572]	; (37c4 <_dtoa_r+0x6dc>)
    3586:	18f3      	adds	r3, r6, r3
    3588:	2b20      	cmp	r3, #32
    358a:	dc00      	bgt.n	358e <_dtoa_r+0x4a6>
    358c:	e1fe      	b.n	398c <_dtoa_r+0x8a4>
    358e:	4a8e      	ldr	r2, [pc, #568]	; (37c8 <_dtoa_r+0x6e0>)
    3590:	9902      	ldr	r1, [sp, #8]
    3592:	18b2      	adds	r2, r6, r2
    3594:	40d1      	lsrs	r1, r2
    3596:	2240      	movs	r2, #64	; 0x40
    3598:	0038      	movs	r0, r7
    359a:	1ad3      	subs	r3, r2, r3
    359c:	4098      	lsls	r0, r3
    359e:	4308      	orrs	r0, r1
    35a0:	f005 fc42 	bl	8e28 <__aeabi_ui2d>
    35a4:	2301      	movs	r3, #1
    35a6:	4c89      	ldr	r4, [pc, #548]	; (37cc <_dtoa_r+0x6e4>)
    35a8:	3e01      	subs	r6, #1
    35aa:	1909      	adds	r1, r1, r4
    35ac:	9312      	str	r3, [sp, #72]	; 0x48
    35ae:	e60d      	b.n	31cc <_dtoa_r+0xe4>
    35b0:	4887      	ldr	r0, [pc, #540]	; (37d0 <_dtoa_r+0x6e8>)
    35b2:	e5d1      	b.n	3158 <_dtoa_r+0x70>
    35b4:	2300      	movs	r3, #0
    35b6:	465a      	mov	r2, fp
    35b8:	2100      	movs	r1, #0
    35ba:	6453      	str	r3, [r2, #68]	; 0x44
    35bc:	4658      	mov	r0, fp
    35be:	f001 fb55 	bl	4c6c <_Balloc>
    35c2:	465b      	mov	r3, fp
    35c4:	6418      	str	r0, [r3, #64]	; 0x40
    35c6:	2301      	movs	r3, #1
    35c8:	425b      	negs	r3, r3
    35ca:	9308      	str	r3, [sp, #32]
    35cc:	930f      	str	r3, [sp, #60]	; 0x3c
    35ce:	2300      	movs	r3, #0
    35d0:	9323      	str	r3, [sp, #140]	; 0x8c
    35d2:	9322      	str	r3, [sp, #136]	; 0x88
    35d4:	3301      	adds	r3, #1
    35d6:	9009      	str	r0, [sp, #36]	; 0x24
    35d8:	930c      	str	r3, [sp, #48]	; 0x30
    35da:	9b17      	ldr	r3, [sp, #92]	; 0x5c
    35dc:	2b00      	cmp	r3, #0
    35de:	da00      	bge.n	35e2 <_dtoa_r+0x4fa>
    35e0:	e0ab      	b.n	373a <_dtoa_r+0x652>
    35e2:	9a05      	ldr	r2, [sp, #20]
    35e4:	2a0e      	cmp	r2, #14
    35e6:	dd00      	ble.n	35ea <_dtoa_r+0x502>
    35e8:	e0a7      	b.n	373a <_dtoa_r+0x652>
    35ea:	00d3      	lsls	r3, r2, #3
    35ec:	4a79      	ldr	r2, [pc, #484]	; (37d4 <_dtoa_r+0x6ec>)
    35ee:	18d3      	adds	r3, r2, r3
    35f0:	685c      	ldr	r4, [r3, #4]
    35f2:	681b      	ldr	r3, [r3, #0]
    35f4:	9306      	str	r3, [sp, #24]
    35f6:	9407      	str	r4, [sp, #28]
    35f8:	9b23      	ldr	r3, [sp, #140]	; 0x8c
    35fa:	2b00      	cmp	r3, #0
    35fc:	da00      	bge.n	3600 <_dtoa_r+0x518>
    35fe:	e1fb      	b.n	39f8 <_dtoa_r+0x910>
    3600:	9e06      	ldr	r6, [sp, #24]
    3602:	9f07      	ldr	r7, [sp, #28]
    3604:	9c02      	ldr	r4, [sp, #8]
    3606:	9d03      	ldr	r5, [sp, #12]
    3608:	0032      	movs	r2, r6
    360a:	003b      	movs	r3, r7
    360c:	0020      	movs	r0, r4
    360e:	0029      	movs	r1, r5
    3610:	f004 f980 	bl	7914 <__aeabi_ddiv>
    3614:	f005 fb90 	bl	8d38 <__aeabi_d2iz>
    3618:	4680      	mov	r8, r0
    361a:	f005 fbc3 	bl	8da4 <__aeabi_i2d>
    361e:	0032      	movs	r2, r6
    3620:	003b      	movs	r3, r7
    3622:	f004 fd9b 	bl	815c <__aeabi_dmul>
    3626:	0002      	movs	r2, r0
    3628:	000b      	movs	r3, r1
    362a:	0020      	movs	r0, r4
    362c:	0029      	movs	r1, r5
    362e:	f005 f80f 	bl	8650 <__aeabi_dsub>
    3632:	4643      	mov	r3, r8
    3634:	9a09      	ldr	r2, [sp, #36]	; 0x24
    3636:	3330      	adds	r3, #48	; 0x30
    3638:	7013      	strb	r3, [r2, #0]
    363a:	9b08      	ldr	r3, [sp, #32]
    363c:	0006      	movs	r6, r0
    363e:	000f      	movs	r7, r1
    3640:	1c54      	adds	r4, r2, #1
    3642:	2b01      	cmp	r3, #1
    3644:	d04a      	beq.n	36dc <_dtoa_r+0x5f4>
    3646:	2200      	movs	r2, #0
    3648:	4b5c      	ldr	r3, [pc, #368]	; (37bc <_dtoa_r+0x6d4>)
    364a:	f004 fd87 	bl	815c <__aeabi_dmul>
    364e:	2200      	movs	r2, #0
    3650:	2300      	movs	r3, #0
    3652:	0006      	movs	r6, r0
    3654:	000f      	movs	r7, r1
    3656:	f003 fd23 	bl	70a0 <__aeabi_dcmpeq>
    365a:	2800      	cmp	r0, #0
    365c:	d000      	beq.n	3660 <_dtoa_r+0x578>
    365e:	e776      	b.n	354e <_dtoa_r+0x466>
    3660:	9b09      	ldr	r3, [sp, #36]	; 0x24
    3662:	9a08      	ldr	r2, [sp, #32]
    3664:	469c      	mov	ip, r3
    3666:	1c9d      	adds	r5, r3, #2
    3668:	465b      	mov	r3, fp
    366a:	4462      	add	r2, ip
    366c:	46aa      	mov	sl, r5
    366e:	9c06      	ldr	r4, [sp, #24]
    3670:	9d07      	ldr	r5, [sp, #28]
    3672:	4691      	mov	r9, r2
    3674:	9302      	str	r3, [sp, #8]
    3676:	e00f      	b.n	3698 <_dtoa_r+0x5b0>
    3678:	2200      	movs	r2, #0
    367a:	4b50      	ldr	r3, [pc, #320]	; (37bc <_dtoa_r+0x6d4>)
    367c:	f004 fd6e 	bl	815c <__aeabi_dmul>
    3680:	2301      	movs	r3, #1
    3682:	469c      	mov	ip, r3
    3684:	2200      	movs	r2, #0
    3686:	2300      	movs	r3, #0
    3688:	0006      	movs	r6, r0
    368a:	000f      	movs	r7, r1
    368c:	44e2      	add	sl, ip
    368e:	f003 fd07 	bl	70a0 <__aeabi_dcmpeq>
    3692:	2800      	cmp	r0, #0
    3694:	d000      	beq.n	3698 <_dtoa_r+0x5b0>
    3696:	e2db      	b.n	3c50 <_dtoa_r+0xb68>
    3698:	0022      	movs	r2, r4
    369a:	002b      	movs	r3, r5
    369c:	0030      	movs	r0, r6
    369e:	0039      	movs	r1, r7
    36a0:	f004 f938 	bl	7914 <__aeabi_ddiv>
    36a4:	f005 fb48 	bl	8d38 <__aeabi_d2iz>
    36a8:	4680      	mov	r8, r0
    36aa:	f005 fb7b 	bl	8da4 <__aeabi_i2d>
    36ae:	0022      	movs	r2, r4
    36b0:	002b      	movs	r3, r5
    36b2:	f004 fd53 	bl	815c <__aeabi_dmul>
    36b6:	0002      	movs	r2, r0
    36b8:	000b      	movs	r3, r1
    36ba:	0030      	movs	r0, r6
    36bc:	0039      	movs	r1, r7
    36be:	f004 ffc7 	bl	8650 <__aeabi_dsub>
    36c2:	4653      	mov	r3, sl
    36c4:	4642      	mov	r2, r8
    36c6:	3b01      	subs	r3, #1
    36c8:	3230      	adds	r2, #48	; 0x30
    36ca:	0006      	movs	r6, r0
    36cc:	000f      	movs	r7, r1
    36ce:	46d3      	mov	fp, sl
    36d0:	701a      	strb	r2, [r3, #0]
    36d2:	45d1      	cmp	r9, sl
    36d4:	d1d0      	bne.n	3678 <_dtoa_r+0x590>
    36d6:	9b02      	ldr	r3, [sp, #8]
    36d8:	4654      	mov	r4, sl
    36da:	469b      	mov	fp, r3
    36dc:	0032      	movs	r2, r6
    36de:	003b      	movs	r3, r7
    36e0:	0030      	movs	r0, r6
    36e2:	0039      	movs	r1, r7
    36e4:	f003 fdea 	bl	72bc <__aeabi_dadd>
    36e8:	0006      	movs	r6, r0
    36ea:	000f      	movs	r7, r1
    36ec:	0002      	movs	r2, r0
    36ee:	000b      	movs	r3, r1
    36f0:	9806      	ldr	r0, [sp, #24]
    36f2:	9907      	ldr	r1, [sp, #28]
    36f4:	f003 fcda 	bl	70ac <__aeabi_dcmplt>
    36f8:	2800      	cmp	r0, #0
    36fa:	d10c      	bne.n	3716 <_dtoa_r+0x62e>
    36fc:	9806      	ldr	r0, [sp, #24]
    36fe:	9907      	ldr	r1, [sp, #28]
    3700:	0032      	movs	r2, r6
    3702:	003b      	movs	r3, r7
    3704:	f003 fccc 	bl	70a0 <__aeabi_dcmpeq>
    3708:	2800      	cmp	r0, #0
    370a:	d100      	bne.n	370e <_dtoa_r+0x626>
    370c:	e71f      	b.n	354e <_dtoa_r+0x466>
    370e:	4643      	mov	r3, r8
    3710:	07db      	lsls	r3, r3, #31
    3712:	d400      	bmi.n	3716 <_dtoa_r+0x62e>
    3714:	e71b      	b.n	354e <_dtoa_r+0x466>
    3716:	1e65      	subs	r5, r4, #1
    3718:	782b      	ldrb	r3, [r5, #0]
    371a:	9a09      	ldr	r2, [sp, #36]	; 0x24
    371c:	e006      	b.n	372c <_dtoa_r+0x644>
    371e:	4295      	cmp	r5, r2
    3720:	d100      	bne.n	3724 <_dtoa_r+0x63c>
    3722:	e353      	b.n	3dcc <_dtoa_r+0xce4>
    3724:	3c02      	subs	r4, #2
    3726:	7823      	ldrb	r3, [r4, #0]
    3728:	002c      	movs	r4, r5
    372a:	3d01      	subs	r5, #1
    372c:	2b39      	cmp	r3, #57	; 0x39
    372e:	d0f6      	beq.n	371e <_dtoa_r+0x636>
    3730:	4698      	mov	r8, r3
    3732:	4643      	mov	r3, r8
    3734:	3301      	adds	r3, #1
    3736:	702b      	strb	r3, [r5, #0]
    3738:	e709      	b.n	354e <_dtoa_r+0x466>
    373a:	9a0c      	ldr	r2, [sp, #48]	; 0x30
    373c:	2a00      	cmp	r2, #0
    373e:	d04b      	beq.n	37d8 <_dtoa_r+0x6f0>
    3740:	9a22      	ldr	r2, [sp, #136]	; 0x88
    3742:	2a01      	cmp	r2, #1
    3744:	dc00      	bgt.n	3748 <_dtoa_r+0x660>
    3746:	e179      	b.n	3a3c <_dtoa_r+0x954>
    3748:	9b08      	ldr	r3, [sp, #32]
    374a:	9a0b      	ldr	r2, [sp, #44]	; 0x2c
    374c:	1e5d      	subs	r5, r3, #1
    374e:	42aa      	cmp	r2, r5
    3750:	da00      	bge.n	3754 <_dtoa_r+0x66c>
    3752:	e2b8      	b.n	3cc6 <_dtoa_r+0xbde>
    3754:	1b55      	subs	r5, r2, r5
    3756:	9b08      	ldr	r3, [sp, #32]
    3758:	2b00      	cmp	r3, #0
    375a:	da00      	bge.n	375e <_dtoa_r+0x676>
    375c:	e3c5      	b.n	3eea <_dtoa_r+0xe02>
    375e:	9c06      	ldr	r4, [sp, #24]
    3760:	9b08      	ldr	r3, [sp, #32]
    3762:	9a06      	ldr	r2, [sp, #24]
    3764:	2101      	movs	r1, #1
    3766:	4694      	mov	ip, r2
    3768:	449c      	add	ip, r3
    376a:	4662      	mov	r2, ip
    376c:	4658      	mov	r0, fp
    376e:	9206      	str	r2, [sp, #24]
    3770:	449a      	add	sl, r3
    3772:	f001 fb87 	bl	4e84 <__i2b>
    3776:	0007      	movs	r7, r0
    3778:	e031      	b.n	37de <_dtoa_r+0x6f6>
    377a:	9a06      	ldr	r2, [sp, #24]
    377c:	9b05      	ldr	r3, [sp, #20]
    377e:	1ad2      	subs	r2, r2, r3
    3780:	425b      	negs	r3, r3
    3782:	930b      	str	r3, [sp, #44]	; 0x2c
    3784:	2300      	movs	r3, #0
    3786:	9206      	str	r2, [sp, #24]
    3788:	930e      	str	r3, [sp, #56]	; 0x38
    378a:	e56f      	b.n	326c <_dtoa_r+0x184>
    378c:	9f05      	ldr	r7, [sp, #20]
    378e:	0038      	movs	r0, r7
    3790:	f005 fb08 	bl	8da4 <__aeabi_i2d>
    3794:	000b      	movs	r3, r1
    3796:	0002      	movs	r2, r0
    3798:	0029      	movs	r1, r5
    379a:	0020      	movs	r0, r4
    379c:	f003 fc80 	bl	70a0 <__aeabi_dcmpeq>
    37a0:	4243      	negs	r3, r0
    37a2:	4143      	adcs	r3, r0
    37a4:	1afb      	subs	r3, r7, r3
    37a6:	9305      	str	r3, [sp, #20]
    37a8:	e539      	b.n	321e <_dtoa_r+0x136>
    37aa:	4653      	mov	r3, sl
    37ac:	425b      	negs	r3, r3
    37ae:	9306      	str	r3, [sp, #24]
    37b0:	2300      	movs	r3, #0
    37b2:	469a      	mov	sl, r3
    37b4:	e551      	b.n	325a <_dtoa_r+0x172>
    37b6:	46c0      	nop			; (mov r8, r8)
    37b8:	3ff00000 	.word	0x3ff00000
    37bc:	40240000 	.word	0x40240000
    37c0:	000091c4 	.word	0x000091c4
    37c4:	00000432 	.word	0x00000432
    37c8:	00000412 	.word	0x00000412
    37cc:	fe100000 	.word	0xfe100000
    37d0:	000091b0 	.word	0x000091b0
    37d4:	000091d8 	.word	0x000091d8
    37d8:	2700      	movs	r7, #0
    37da:	9d0b      	ldr	r5, [sp, #44]	; 0x2c
    37dc:	9c06      	ldr	r4, [sp, #24]
    37de:	2c00      	cmp	r4, #0
    37e0:	d00d      	beq.n	37fe <_dtoa_r+0x716>
    37e2:	4653      	mov	r3, sl
    37e4:	2b00      	cmp	r3, #0
    37e6:	dd0a      	ble.n	37fe <_dtoa_r+0x716>
    37e8:	0023      	movs	r3, r4
    37ea:	4554      	cmp	r4, sl
    37ec:	dd00      	ble.n	37f0 <_dtoa_r+0x708>
    37ee:	e0d5      	b.n	399c <_dtoa_r+0x8b4>
    37f0:	9a06      	ldr	r2, [sp, #24]
    37f2:	1ae4      	subs	r4, r4, r3
    37f4:	1ad2      	subs	r2, r2, r3
    37f6:	9206      	str	r2, [sp, #24]
    37f8:	4652      	mov	r2, sl
    37fa:	1ad3      	subs	r3, r2, r3
    37fc:	469a      	mov	sl, r3
    37fe:	9b0b      	ldr	r3, [sp, #44]	; 0x2c
    3800:	2b00      	cmp	r3, #0
    3802:	dc00      	bgt.n	3806 <_dtoa_r+0x71e>
    3804:	e1f9      	b.n	3bfa <_dtoa_r+0xb12>
    3806:	9a0c      	ldr	r2, [sp, #48]	; 0x30
    3808:	2a00      	cmp	r2, #0
    380a:	d100      	bne.n	380e <_dtoa_r+0x726>
    380c:	e0c9      	b.n	39a2 <_dtoa_r+0x8ba>
    380e:	2d00      	cmp	r5, #0
    3810:	d100      	bne.n	3814 <_dtoa_r+0x72c>
    3812:	e0c6      	b.n	39a2 <_dtoa_r+0x8ba>
    3814:	0039      	movs	r1, r7
    3816:	002a      	movs	r2, r5
    3818:	4658      	mov	r0, fp
    381a:	f001 fbeb 	bl	4ff4 <__pow5mult>
    381e:	9b0a      	ldr	r3, [sp, #40]	; 0x28
    3820:	0001      	movs	r1, r0
    3822:	001a      	movs	r2, r3
    3824:	0007      	movs	r7, r0
    3826:	4658      	mov	r0, fp
    3828:	4698      	mov	r8, r3
    382a:	f001 fb35 	bl	4e98 <__multiply>
    382e:	4641      	mov	r1, r8
    3830:	0006      	movs	r6, r0
    3832:	4658      	mov	r0, fp
    3834:	f001 fa42 	bl	4cbc <_Bfree>
    3838:	9b0b      	ldr	r3, [sp, #44]	; 0x2c
    383a:	1b5b      	subs	r3, r3, r5
    383c:	930b      	str	r3, [sp, #44]	; 0x2c
    383e:	d000      	beq.n	3842 <_dtoa_r+0x75a>
    3840:	e0ae      	b.n	39a0 <_dtoa_r+0x8b8>
    3842:	2101      	movs	r1, #1
    3844:	4658      	mov	r0, fp
    3846:	f001 fb1d 	bl	4e84 <__i2b>
    384a:	9b0e      	ldr	r3, [sp, #56]	; 0x38
    384c:	4681      	mov	r9, r0
    384e:	2b00      	cmp	r3, #0
    3850:	d100      	bne.n	3854 <_dtoa_r+0x76c>
    3852:	e0ff      	b.n	3a54 <_dtoa_r+0x96c>
    3854:	001a      	movs	r2, r3
    3856:	0001      	movs	r1, r0
    3858:	4658      	mov	r0, fp
    385a:	f001 fbcb 	bl	4ff4 <__pow5mult>
    385e:	9b22      	ldr	r3, [sp, #136]	; 0x88
    3860:	4681      	mov	r9, r0
    3862:	2b01      	cmp	r3, #1
    3864:	dc00      	bgt.n	3868 <_dtoa_r+0x780>
    3866:	e0a3      	b.n	39b0 <_dtoa_r+0x8c8>
    3868:	2500      	movs	r5, #0
    386a:	464b      	mov	r3, r9
    386c:	691b      	ldr	r3, [r3, #16]
    386e:	3303      	adds	r3, #3
    3870:	009b      	lsls	r3, r3, #2
    3872:	444b      	add	r3, r9
    3874:	6858      	ldr	r0, [r3, #4]
    3876:	f001 fab9 	bl	4dec <__hi0bits>
    387a:	2320      	movs	r3, #32
    387c:	1a18      	subs	r0, r3, r0
    387e:	231f      	movs	r3, #31
    3880:	4450      	add	r0, sl
    3882:	4018      	ands	r0, r3
    3884:	d100      	bne.n	3888 <_dtoa_r+0x7a0>
    3886:	e0e3      	b.n	3a50 <_dtoa_r+0x968>
    3888:	3301      	adds	r3, #1
    388a:	1a1b      	subs	r3, r3, r0
    388c:	2b04      	cmp	r3, #4
    388e:	dc00      	bgt.n	3892 <_dtoa_r+0x7aa>
    3890:	e3bf      	b.n	4012 <_dtoa_r+0xf2a>
    3892:	231c      	movs	r3, #28
    3894:	1a18      	subs	r0, r3, r0
    3896:	9b06      	ldr	r3, [sp, #24]
    3898:	1824      	adds	r4, r4, r0
    389a:	469c      	mov	ip, r3
    389c:	4484      	add	ip, r0
    389e:	4663      	mov	r3, ip
    38a0:	4482      	add	sl, r0
    38a2:	9306      	str	r3, [sp, #24]
    38a4:	9b06      	ldr	r3, [sp, #24]
    38a6:	2b00      	cmp	r3, #0
    38a8:	dd05      	ble.n	38b6 <_dtoa_r+0x7ce>
    38aa:	0031      	movs	r1, r6
    38ac:	001a      	movs	r2, r3
    38ae:	4658      	mov	r0, fp
    38b0:	f001 fbfe 	bl	50b0 <__lshift>
    38b4:	0006      	movs	r6, r0
    38b6:	4653      	mov	r3, sl
    38b8:	2b00      	cmp	r3, #0
    38ba:	dd05      	ble.n	38c8 <_dtoa_r+0x7e0>
    38bc:	4649      	mov	r1, r9
    38be:	4652      	mov	r2, sl
    38c0:	4658      	mov	r0, fp
    38c2:	f001 fbf5 	bl	50b0 <__lshift>
    38c6:	4681      	mov	r9, r0
    38c8:	9b0d      	ldr	r3, [sp, #52]	; 0x34
    38ca:	2b00      	cmp	r3, #0
    38cc:	d000      	beq.n	38d0 <_dtoa_r+0x7e8>
    38ce:	e161      	b.n	3b94 <_dtoa_r+0xaac>
    38d0:	9b08      	ldr	r3, [sp, #32]
    38d2:	2b00      	cmp	r3, #0
    38d4:	dc00      	bgt.n	38d8 <_dtoa_r+0x7f0>
    38d6:	e192      	b.n	3bfe <_dtoa_r+0xb16>
    38d8:	9b0c      	ldr	r3, [sp, #48]	; 0x30
    38da:	2b00      	cmp	r3, #0
    38dc:	d000      	beq.n	38e0 <_dtoa_r+0x7f8>
    38de:	e0d0      	b.n	3a82 <_dtoa_r+0x99a>
    38e0:	464b      	mov	r3, r9
    38e2:	9a09      	ldr	r2, [sp, #36]	; 0x24
    38e4:	46b9      	mov	r9, r7
    38e6:	2400      	movs	r4, #0
    38e8:	9d08      	ldr	r5, [sp, #32]
    38ea:	4690      	mov	r8, r2
    38ec:	001f      	movs	r7, r3
    38ee:	e006      	b.n	38fe <_dtoa_r+0x816>
    38f0:	0031      	movs	r1, r6
    38f2:	2300      	movs	r3, #0
    38f4:	220a      	movs	r2, #10
    38f6:	4658      	mov	r0, fp
    38f8:	f001 f9ea 	bl	4cd0 <__multadd>
    38fc:	0006      	movs	r6, r0
    38fe:	0039      	movs	r1, r7
    3900:	0030      	movs	r0, r6
    3902:	f7ff fb49 	bl	2f98 <quorem>
    3906:	4643      	mov	r3, r8
    3908:	3030      	adds	r0, #48	; 0x30
    390a:	5518      	strb	r0, [r3, r4]
    390c:	3401      	adds	r4, #1
    390e:	42ac      	cmp	r4, r5
    3910:	dbee      	blt.n	38f0 <_dtoa_r+0x808>
    3912:	003b      	movs	r3, r7
    3914:	464f      	mov	r7, r9
    3916:	4699      	mov	r9, r3
    3918:	9002      	str	r0, [sp, #8]
    391a:	9c08      	ldr	r4, [sp, #32]
    391c:	2c00      	cmp	r4, #0
    391e:	dc00      	bgt.n	3922 <_dtoa_r+0x83a>
    3920:	e2e8      	b.n	3ef4 <_dtoa_r+0xe0c>
    3922:	9b09      	ldr	r3, [sp, #36]	; 0x24
    3924:	469c      	mov	ip, r3
    3926:	2300      	movs	r3, #0
    3928:	4698      	mov	r8, r3
    392a:	4464      	add	r4, ip
    392c:	0031      	movs	r1, r6
    392e:	2201      	movs	r2, #1
    3930:	4658      	mov	r0, fp
    3932:	f001 fbbd 	bl	50b0 <__lshift>
    3936:	4649      	mov	r1, r9
    3938:	900a      	str	r0, [sp, #40]	; 0x28
    393a:	f001 fc19 	bl	5170 <__mcmp>
    393e:	2800      	cmp	r0, #0
    3940:	dc00      	bgt.n	3944 <_dtoa_r+0x85c>
    3942:	e1ff      	b.n	3d44 <_dtoa_r+0xc5c>
    3944:	1e65      	subs	r5, r4, #1
    3946:	782b      	ldrb	r3, [r5, #0]
    3948:	9a09      	ldr	r2, [sp, #36]	; 0x24
    394a:	e006      	b.n	395a <_dtoa_r+0x872>
    394c:	4295      	cmp	r5, r2
    394e:	d100      	bne.n	3952 <_dtoa_r+0x86a>
    3950:	e177      	b.n	3c42 <_dtoa_r+0xb5a>
    3952:	3c02      	subs	r4, #2
    3954:	7823      	ldrb	r3, [r4, #0]
    3956:	002c      	movs	r4, r5
    3958:	3d01      	subs	r5, #1
    395a:	2b39      	cmp	r3, #57	; 0x39
    395c:	d0f6      	beq.n	394c <_dtoa_r+0x864>
    395e:	3301      	adds	r3, #1
    3960:	702b      	strb	r3, [r5, #0]
    3962:	4649      	mov	r1, r9
    3964:	4658      	mov	r0, fp
    3966:	f001 f9a9 	bl	4cbc <_Bfree>
    396a:	2f00      	cmp	r7, #0
    396c:	d100      	bne.n	3970 <_dtoa_r+0x888>
    396e:	e5ee      	b.n	354e <_dtoa_r+0x466>
    3970:	4643      	mov	r3, r8
    3972:	2b00      	cmp	r3, #0
    3974:	d005      	beq.n	3982 <_dtoa_r+0x89a>
    3976:	45b8      	cmp	r8, r7
    3978:	d003      	beq.n	3982 <_dtoa_r+0x89a>
    397a:	4641      	mov	r1, r8
    397c:	4658      	mov	r0, fp
    397e:	f001 f99d 	bl	4cbc <_Bfree>
    3982:	0039      	movs	r1, r7
    3984:	4658      	mov	r0, fp
    3986:	f001 f999 	bl	4cbc <_Bfree>
    398a:	e5e0      	b.n	354e <_dtoa_r+0x466>
    398c:	2220      	movs	r2, #32
    398e:	9802      	ldr	r0, [sp, #8]
    3990:	1ad3      	subs	r3, r2, r3
    3992:	4098      	lsls	r0, r3
    3994:	e604      	b.n	35a0 <_dtoa_r+0x4b8>
    3996:	2300      	movs	r3, #0
    3998:	930d      	str	r3, [sp, #52]	; 0x34
    399a:	e456      	b.n	324a <_dtoa_r+0x162>
    399c:	4653      	mov	r3, sl
    399e:	e727      	b.n	37f0 <_dtoa_r+0x708>
    39a0:	960a      	str	r6, [sp, #40]	; 0x28
    39a2:	9a0b      	ldr	r2, [sp, #44]	; 0x2c
    39a4:	990a      	ldr	r1, [sp, #40]	; 0x28
    39a6:	4658      	mov	r0, fp
    39a8:	f001 fb24 	bl	4ff4 <__pow5mult>
    39ac:	0006      	movs	r6, r0
    39ae:	e748      	b.n	3842 <_dtoa_r+0x75a>
    39b0:	9b02      	ldr	r3, [sp, #8]
    39b2:	2b00      	cmp	r3, #0
    39b4:	d000      	beq.n	39b8 <_dtoa_r+0x8d0>
    39b6:	e757      	b.n	3868 <_dtoa_r+0x780>
    39b8:	9902      	ldr	r1, [sp, #8]
    39ba:	9a03      	ldr	r2, [sp, #12]
    39bc:	2500      	movs	r5, #0
    39be:	0313      	lsls	r3, r2, #12
    39c0:	d109      	bne.n	39d6 <_dtoa_r+0x8ee>
    39c2:	4bdb      	ldr	r3, [pc, #876]	; (3d30 <_dtoa_r+0xc48>)
    39c4:	4213      	tst	r3, r2
    39c6:	d006      	beq.n	39d6 <_dtoa_r+0x8ee>
    39c8:	9b06      	ldr	r3, [sp, #24]
    39ca:	3501      	adds	r5, #1
    39cc:	3301      	adds	r3, #1
    39ce:	9306      	str	r3, [sp, #24]
    39d0:	2301      	movs	r3, #1
    39d2:	469c      	mov	ip, r3
    39d4:	44e2      	add	sl, ip
    39d6:	9b0e      	ldr	r3, [sp, #56]	; 0x38
    39d8:	2001      	movs	r0, #1
    39da:	2b00      	cmp	r3, #0
    39dc:	d100      	bne.n	39e0 <_dtoa_r+0x8f8>
    39de:	e74e      	b.n	387e <_dtoa_r+0x796>
    39e0:	e743      	b.n	386a <_dtoa_r+0x782>
    39e2:	2301      	movs	r3, #1
    39e4:	930c      	str	r3, [sp, #48]	; 0x30
    39e6:	9b23      	ldr	r3, [sp, #140]	; 0x8c
    39e8:	2b00      	cmp	r3, #0
    39ea:	dc00      	bgt.n	39ee <_dtoa_r+0x906>
    39ec:	e0c7      	b.n	3b7e <_dtoa_r+0xa96>
    39ee:	001e      	movs	r6, r3
    39f0:	001d      	movs	r5, r3
    39f2:	930f      	str	r3, [sp, #60]	; 0x3c
    39f4:	9308      	str	r3, [sp, #32]
    39f6:	e463      	b.n	32c0 <_dtoa_r+0x1d8>
    39f8:	9b08      	ldr	r3, [sp, #32]
    39fa:	2b00      	cmp	r3, #0
    39fc:	dd00      	ble.n	3a00 <_dtoa_r+0x918>
    39fe:	e5ff      	b.n	3600 <_dtoa_r+0x518>
    3a00:	d000      	beq.n	3a04 <_dtoa_r+0x91c>
    3a02:	e159      	b.n	3cb8 <_dtoa_r+0xbd0>
    3a04:	9806      	ldr	r0, [sp, #24]
    3a06:	9907      	ldr	r1, [sp, #28]
    3a08:	2200      	movs	r2, #0
    3a0a:	4bca      	ldr	r3, [pc, #808]	; (3d34 <_dtoa_r+0xc4c>)
    3a0c:	f004 fba6 	bl	815c <__aeabi_dmul>
    3a10:	9a02      	ldr	r2, [sp, #8]
    3a12:	9b03      	ldr	r3, [sp, #12]
    3a14:	f003 fb68 	bl	70e8 <__aeabi_dcmpge>
    3a18:	2300      	movs	r3, #0
    3a1a:	2700      	movs	r7, #0
    3a1c:	4699      	mov	r9, r3
    3a1e:	2800      	cmp	r0, #0
    3a20:	d100      	bne.n	3a24 <_dtoa_r+0x93c>
    3a22:	e102      	b.n	3c2a <_dtoa_r+0xb42>
    3a24:	9b23      	ldr	r3, [sp, #140]	; 0x8c
    3a26:	9c09      	ldr	r4, [sp, #36]	; 0x24
    3a28:	43db      	mvns	r3, r3
    3a2a:	9305      	str	r3, [sp, #20]
    3a2c:	4649      	mov	r1, r9
    3a2e:	4658      	mov	r0, fp
    3a30:	f001 f944 	bl	4cbc <_Bfree>
    3a34:	2f00      	cmp	r7, #0
    3a36:	d100      	bne.n	3a3a <_dtoa_r+0x952>
    3a38:	e589      	b.n	354e <_dtoa_r+0x466>
    3a3a:	e7a2      	b.n	3982 <_dtoa_r+0x89a>
    3a3c:	9a12      	ldr	r2, [sp, #72]	; 0x48
    3a3e:	2a00      	cmp	r2, #0
    3a40:	d100      	bne.n	3a44 <_dtoa_r+0x95c>
    3a42:	e259      	b.n	3ef8 <_dtoa_r+0xe10>
    3a44:	4abc      	ldr	r2, [pc, #752]	; (3d38 <_dtoa_r+0xc50>)
    3a46:	9d0b      	ldr	r5, [sp, #44]	; 0x2c
    3a48:	4694      	mov	ip, r2
    3a4a:	9c06      	ldr	r4, [sp, #24]
    3a4c:	4463      	add	r3, ip
    3a4e:	e688      	b.n	3762 <_dtoa_r+0x67a>
    3a50:	201c      	movs	r0, #28
    3a52:	e720      	b.n	3896 <_dtoa_r+0x7ae>
    3a54:	9b22      	ldr	r3, [sp, #136]	; 0x88
    3a56:	2b01      	cmp	r3, #1
    3a58:	dc00      	bgt.n	3a5c <_dtoa_r+0x974>
    3a5a:	e2b5      	b.n	3fc8 <_dtoa_r+0xee0>
    3a5c:	2500      	movs	r5, #0
    3a5e:	2001      	movs	r0, #1
    3a60:	e70d      	b.n	387e <_dtoa_r+0x796>
    3a62:	2300      	movs	r3, #0
    3a64:	0039      	movs	r1, r7
    3a66:	220a      	movs	r2, #10
    3a68:	4658      	mov	r0, fp
    3a6a:	f001 f931 	bl	4cd0 <__multadd>
    3a6e:	9b0f      	ldr	r3, [sp, #60]	; 0x3c
    3a70:	0007      	movs	r7, r0
    3a72:	2b00      	cmp	r3, #0
    3a74:	dc04      	bgt.n	3a80 <_dtoa_r+0x998>
    3a76:	9b22      	ldr	r3, [sp, #136]	; 0x88
    3a78:	2b02      	cmp	r3, #2
    3a7a:	dd00      	ble.n	3a7e <_dtoa_r+0x996>
    3a7c:	e2cf      	b.n	401e <_dtoa_r+0xf36>
    3a7e:	9b0f      	ldr	r3, [sp, #60]	; 0x3c
    3a80:	9308      	str	r3, [sp, #32]
    3a82:	2c00      	cmp	r4, #0
    3a84:	dd05      	ble.n	3a92 <_dtoa_r+0x9aa>
    3a86:	0039      	movs	r1, r7
    3a88:	0022      	movs	r2, r4
    3a8a:	4658      	mov	r0, fp
    3a8c:	f001 fb10 	bl	50b0 <__lshift>
    3a90:	0007      	movs	r7, r0
    3a92:	46ba      	mov	sl, r7
    3a94:	2d00      	cmp	r5, #0
    3a96:	d000      	beq.n	3a9a <_dtoa_r+0x9b2>
    3a98:	e19f      	b.n	3dda <_dtoa_r+0xcf2>
    3a9a:	9c08      	ldr	r4, [sp, #32]
    3a9c:	9a09      	ldr	r2, [sp, #36]	; 0x24
    3a9e:	3c01      	subs	r4, #1
    3aa0:	4694      	mov	ip, r2
    3aa2:	0023      	movs	r3, r4
    3aa4:	4463      	add	r3, ip
    3aa6:	930a      	str	r3, [sp, #40]	; 0x28
    3aa8:	2301      	movs	r3, #1
    3aaa:	0015      	movs	r5, r2
    3aac:	9a02      	ldr	r2, [sp, #8]
    3aae:	46d8      	mov	r8, fp
    3ab0:	401a      	ands	r2, r3
    3ab2:	464b      	mov	r3, r9
    3ab4:	46a9      	mov	r9, r5
    3ab6:	9208      	str	r2, [sp, #32]
    3ab8:	9306      	str	r3, [sp, #24]
    3aba:	9d06      	ldr	r5, [sp, #24]
    3abc:	0030      	movs	r0, r6
    3abe:	0029      	movs	r1, r5
    3ac0:	f7ff fa6a 	bl	2f98 <quorem>
    3ac4:	0003      	movs	r3, r0
    3ac6:	900b      	str	r0, [sp, #44]	; 0x2c
    3ac8:	3330      	adds	r3, #48	; 0x30
    3aca:	0039      	movs	r1, r7
    3acc:	0030      	movs	r0, r6
    3ace:	9302      	str	r3, [sp, #8]
    3ad0:	f001 fb4e 	bl	5170 <__mcmp>
    3ad4:	0029      	movs	r1, r5
    3ad6:	0004      	movs	r4, r0
    3ad8:	4652      	mov	r2, sl
    3ada:	4640      	mov	r0, r8
    3adc:	f001 fb66 	bl	51ac <__mdiff>
    3ae0:	68c3      	ldr	r3, [r0, #12]
    3ae2:	0005      	movs	r5, r0
    3ae4:	2b00      	cmp	r3, #0
    3ae6:	d147      	bne.n	3b78 <_dtoa_r+0xa90>
    3ae8:	0001      	movs	r1, r0
    3aea:	0030      	movs	r0, r6
    3aec:	f001 fb40 	bl	5170 <__mcmp>
    3af0:	4683      	mov	fp, r0
    3af2:	0029      	movs	r1, r5
    3af4:	4640      	mov	r0, r8
    3af6:	f001 f8e1 	bl	4cbc <_Bfree>
    3afa:	465b      	mov	r3, fp
    3afc:	9a22      	ldr	r2, [sp, #136]	; 0x88
    3afe:	4313      	orrs	r3, r2
    3b00:	d103      	bne.n	3b0a <_dtoa_r+0xa22>
    3b02:	9b08      	ldr	r3, [sp, #32]
    3b04:	2b00      	cmp	r3, #0
    3b06:	d100      	bne.n	3b0a <_dtoa_r+0xa22>
    3b08:	e249      	b.n	3f9e <_dtoa_r+0xeb6>
    3b0a:	2c00      	cmp	r4, #0
    3b0c:	da00      	bge.n	3b10 <_dtoa_r+0xa28>
    3b0e:	e0ec      	b.n	3cea <_dtoa_r+0xc02>
    3b10:	9b22      	ldr	r3, [sp, #136]	; 0x88
    3b12:	431c      	orrs	r4, r3
    3b14:	d103      	bne.n	3b1e <_dtoa_r+0xa36>
    3b16:	9b08      	ldr	r3, [sp, #32]
    3b18:	2b00      	cmp	r3, #0
    3b1a:	d100      	bne.n	3b1e <_dtoa_r+0xa36>
    3b1c:	e0e5      	b.n	3cea <_dtoa_r+0xc02>
    3b1e:	465b      	mov	r3, fp
    3b20:	2b00      	cmp	r3, #0
    3b22:	dd00      	ble.n	3b26 <_dtoa_r+0xa3e>
    3b24:	e1cc      	b.n	3ec0 <_dtoa_r+0xdd8>
    3b26:	466a      	mov	r2, sp
    3b28:	464b      	mov	r3, r9
    3b2a:	7a12      	ldrb	r2, [r2, #8]
    3b2c:	1c5d      	adds	r5, r3, #1
    3b2e:	701a      	strb	r2, [r3, #0]
    3b30:	9b0a      	ldr	r3, [sp, #40]	; 0x28
    3b32:	002c      	movs	r4, r5
    3b34:	4599      	cmp	r9, r3
    3b36:	d100      	bne.n	3b3a <_dtoa_r+0xa52>
    3b38:	e1d1      	b.n	3ede <_dtoa_r+0xdf6>
    3b3a:	0031      	movs	r1, r6
    3b3c:	2300      	movs	r3, #0
    3b3e:	220a      	movs	r2, #10
    3b40:	4640      	mov	r0, r8
    3b42:	f001 f8c5 	bl	4cd0 <__multadd>
    3b46:	2300      	movs	r3, #0
    3b48:	0006      	movs	r6, r0
    3b4a:	220a      	movs	r2, #10
    3b4c:	0039      	movs	r1, r7
    3b4e:	4640      	mov	r0, r8
    3b50:	4557      	cmp	r7, sl
    3b52:	d00b      	beq.n	3b6c <_dtoa_r+0xa84>
    3b54:	f001 f8bc 	bl	4cd0 <__multadd>
    3b58:	4651      	mov	r1, sl
    3b5a:	0007      	movs	r7, r0
    3b5c:	2300      	movs	r3, #0
    3b5e:	220a      	movs	r2, #10
    3b60:	4640      	mov	r0, r8
    3b62:	f001 f8b5 	bl	4cd0 <__multadd>
    3b66:	46a9      	mov	r9, r5
    3b68:	4682      	mov	sl, r0
    3b6a:	e7a6      	b.n	3aba <_dtoa_r+0x9d2>
    3b6c:	f001 f8b0 	bl	4cd0 <__multadd>
    3b70:	46a9      	mov	r9, r5
    3b72:	0007      	movs	r7, r0
    3b74:	4682      	mov	sl, r0
    3b76:	e7a0      	b.n	3aba <_dtoa_r+0x9d2>
    3b78:	2301      	movs	r3, #1
    3b7a:	469b      	mov	fp, r3
    3b7c:	e7b9      	b.n	3af2 <_dtoa_r+0xa0a>
    3b7e:	2301      	movs	r3, #1
    3b80:	2501      	movs	r5, #1
    3b82:	930f      	str	r3, [sp, #60]	; 0x3c
    3b84:	9308      	str	r3, [sp, #32]
    3b86:	9323      	str	r3, [sp, #140]	; 0x8c
    3b88:	2300      	movs	r3, #0
    3b8a:	465a      	mov	r2, fp
    3b8c:	2100      	movs	r1, #0
    3b8e:	6453      	str	r3, [r2, #68]	; 0x44
    3b90:	f7ff fba7 	bl	32e2 <_dtoa_r+0x1fa>
    3b94:	4649      	mov	r1, r9
    3b96:	0030      	movs	r0, r6
    3b98:	f001 faea 	bl	5170 <__mcmp>
    3b9c:	2800      	cmp	r0, #0
    3b9e:	db00      	blt.n	3ba2 <_dtoa_r+0xaba>
    3ba0:	e696      	b.n	38d0 <_dtoa_r+0x7e8>
    3ba2:	9b05      	ldr	r3, [sp, #20]
    3ba4:	0031      	movs	r1, r6
    3ba6:	3b01      	subs	r3, #1
    3ba8:	9305      	str	r3, [sp, #20]
    3baa:	220a      	movs	r2, #10
    3bac:	2300      	movs	r3, #0
    3bae:	4658      	mov	r0, fp
    3bb0:	f001 f88e 	bl	4cd0 <__multadd>
    3bb4:	9b0c      	ldr	r3, [sp, #48]	; 0x30
    3bb6:	0006      	movs	r6, r0
    3bb8:	2b00      	cmp	r3, #0
    3bba:	d000      	beq.n	3bbe <_dtoa_r+0xad6>
    3bbc:	e751      	b.n	3a62 <_dtoa_r+0x97a>
    3bbe:	9b0f      	ldr	r3, [sp, #60]	; 0x3c
    3bc0:	2b00      	cmp	r3, #0
    3bc2:	dc00      	bgt.n	3bc6 <_dtoa_r+0xade>
    3bc4:	e20d      	b.n	3fe2 <_dtoa_r+0xefa>
    3bc6:	9308      	str	r3, [sp, #32]
    3bc8:	e68a      	b.n	38e0 <_dtoa_r+0x7f8>
    3bca:	2300      	movs	r3, #0
    3bcc:	930c      	str	r3, [sp, #48]	; 0x30
    3bce:	9b22      	ldr	r3, [sp, #136]	; 0x88
    3bd0:	2b02      	cmp	r3, #2
    3bd2:	d100      	bne.n	3bd6 <_dtoa_r+0xaee>
    3bd4:	e707      	b.n	39e6 <_dtoa_r+0x8fe>
    3bd6:	2400      	movs	r4, #0
    3bd8:	465b      	mov	r3, fp
    3bda:	0021      	movs	r1, r4
    3bdc:	645c      	str	r4, [r3, #68]	; 0x44
    3bde:	4658      	mov	r0, fp
    3be0:	f001 f844 	bl	4c6c <_Balloc>
    3be4:	465b      	mov	r3, fp
    3be6:	6418      	str	r0, [r3, #64]	; 0x40
    3be8:	2301      	movs	r3, #1
    3bea:	425b      	negs	r3, r3
    3bec:	9308      	str	r3, [sp, #32]
    3bee:	930f      	str	r3, [sp, #60]	; 0x3c
    3bf0:	3302      	adds	r3, #2
    3bf2:	9009      	str	r0, [sp, #36]	; 0x24
    3bf4:	9423      	str	r4, [sp, #140]	; 0x8c
    3bf6:	930c      	str	r3, [sp, #48]	; 0x30
    3bf8:	e4ef      	b.n	35da <_dtoa_r+0x4f2>
    3bfa:	9e0a      	ldr	r6, [sp, #40]	; 0x28
    3bfc:	e621      	b.n	3842 <_dtoa_r+0x75a>
    3bfe:	9b22      	ldr	r3, [sp, #136]	; 0x88
    3c00:	2b02      	cmp	r3, #2
    3c02:	dc00      	bgt.n	3c06 <_dtoa_r+0xb1e>
    3c04:	e668      	b.n	38d8 <_dtoa_r+0x7f0>
    3c06:	9b08      	ldr	r3, [sp, #32]
    3c08:	2b00      	cmp	r3, #0
    3c0a:	d000      	beq.n	3c0e <_dtoa_r+0xb26>
    3c0c:	e188      	b.n	3f20 <_dtoa_r+0xe38>
    3c0e:	4649      	mov	r1, r9
    3c10:	2205      	movs	r2, #5
    3c12:	4658      	mov	r0, fp
    3c14:	f001 f85c 	bl	4cd0 <__multadd>
    3c18:	0001      	movs	r1, r0
    3c1a:	4681      	mov	r9, r0
    3c1c:	0030      	movs	r0, r6
    3c1e:	f001 faa7 	bl	5170 <__mcmp>
    3c22:	960a      	str	r6, [sp, #40]	; 0x28
    3c24:	2800      	cmp	r0, #0
    3c26:	dc00      	bgt.n	3c2a <_dtoa_r+0xb42>
    3c28:	e6fc      	b.n	3a24 <_dtoa_r+0x93c>
    3c2a:	2331      	movs	r3, #49	; 0x31
    3c2c:	9a09      	ldr	r2, [sp, #36]	; 0x24
    3c2e:	7013      	strb	r3, [r2, #0]
    3c30:	9b05      	ldr	r3, [sp, #20]
    3c32:	1c54      	adds	r4, r2, #1
    3c34:	3301      	adds	r3, #1
    3c36:	9305      	str	r3, [sp, #20]
    3c38:	e6f8      	b.n	3a2c <_dtoa_r+0x944>
    3c3a:	2300      	movs	r3, #0
    3c3c:	930c      	str	r3, [sp, #48]	; 0x30
    3c3e:	f7ff fb32 	bl	32a6 <_dtoa_r+0x1be>
    3c42:	9b05      	ldr	r3, [sp, #20]
    3c44:	9a09      	ldr	r2, [sp, #36]	; 0x24
    3c46:	3301      	adds	r3, #1
    3c48:	9305      	str	r3, [sp, #20]
    3c4a:	2331      	movs	r3, #49	; 0x31
    3c4c:	7013      	strb	r3, [r2, #0]
    3c4e:	e688      	b.n	3962 <_dtoa_r+0x87a>
    3c50:	9b02      	ldr	r3, [sp, #8]
    3c52:	465c      	mov	r4, fp
    3c54:	469b      	mov	fp, r3
    3c56:	e47a      	b.n	354e <_dtoa_r+0x466>
    3c58:	4640      	mov	r0, r8
    3c5a:	f005 f8a3 	bl	8da4 <__aeabi_i2d>
    3c5e:	0032      	movs	r2, r6
    3c60:	003b      	movs	r3, r7
    3c62:	f004 fa7b 	bl	815c <__aeabi_dmul>
    3c66:	2200      	movs	r2, #0
    3c68:	4b34      	ldr	r3, [pc, #208]	; (3d3c <_dtoa_r+0xc54>)
    3c6a:	f003 fb27 	bl	72bc <__aeabi_dadd>
    3c6e:	4a34      	ldr	r2, [pc, #208]	; (3d40 <_dtoa_r+0xc58>)
    3c70:	000b      	movs	r3, r1
    3c72:	4694      	mov	ip, r2
    3c74:	4463      	add	r3, ip
    3c76:	9002      	str	r0, [sp, #8]
    3c78:	9103      	str	r1, [sp, #12]
    3c7a:	9303      	str	r3, [sp, #12]
    3c7c:	2200      	movs	r2, #0
    3c7e:	4b2d      	ldr	r3, [pc, #180]	; (3d34 <_dtoa_r+0xc4c>)
    3c80:	0030      	movs	r0, r6
    3c82:	0039      	movs	r1, r7
    3c84:	f004 fce4 	bl	8650 <__aeabi_dsub>
    3c88:	9e02      	ldr	r6, [sp, #8]
    3c8a:	9f03      	ldr	r7, [sp, #12]
    3c8c:	0032      	movs	r2, r6
    3c8e:	003b      	movs	r3, r7
    3c90:	0004      	movs	r4, r0
    3c92:	000d      	movs	r5, r1
    3c94:	f003 fa1e 	bl	70d4 <__aeabi_dcmpgt>
    3c98:	2800      	cmp	r0, #0
    3c9a:	d000      	beq.n	3c9e <_dtoa_r+0xbb6>
    3c9c:	e0b1      	b.n	3e02 <_dtoa_r+0xd1a>
    3c9e:	2080      	movs	r0, #128	; 0x80
    3ca0:	0600      	lsls	r0, r0, #24
    3ca2:	4684      	mov	ip, r0
    3ca4:	0039      	movs	r1, r7
    3ca6:	4461      	add	r1, ip
    3ca8:	000b      	movs	r3, r1
    3caa:	0032      	movs	r2, r6
    3cac:	0020      	movs	r0, r4
    3cae:	0029      	movs	r1, r5
    3cb0:	f003 f9fc 	bl	70ac <__aeabi_dcmplt>
    3cb4:	2800      	cmp	r0, #0
    3cb6:	d055      	beq.n	3d64 <_dtoa_r+0xc7c>
    3cb8:	2300      	movs	r3, #0
    3cba:	2700      	movs	r7, #0
    3cbc:	4699      	mov	r9, r3
    3cbe:	e6b1      	b.n	3a24 <_dtoa_r+0x93c>
    3cc0:	9809      	ldr	r0, [sp, #36]	; 0x24
    3cc2:	f7ff fa49 	bl	3158 <_dtoa_r+0x70>
    3cc6:	9a0e      	ldr	r2, [sp, #56]	; 0x38
    3cc8:	9b0b      	ldr	r3, [sp, #44]	; 0x2c
    3cca:	4694      	mov	ip, r2
    3ccc:	1aeb      	subs	r3, r5, r3
    3cce:	449c      	add	ip, r3
    3cd0:	4663      	mov	r3, ip
    3cd2:	950b      	str	r5, [sp, #44]	; 0x2c
    3cd4:	930e      	str	r3, [sp, #56]	; 0x38
    3cd6:	2500      	movs	r5, #0
    3cd8:	e53d      	b.n	3756 <_dtoa_r+0x66e>
    3cda:	9a10      	ldr	r2, [sp, #64]	; 0x40
    3cdc:	9b11      	ldr	r3, [sp, #68]	; 0x44
    3cde:	9202      	str	r2, [sp, #8]
    3ce0:	9303      	str	r3, [sp, #12]
    3ce2:	2302      	movs	r3, #2
    3ce4:	4698      	mov	r8, r3
    3ce6:	f7ff fb2a 	bl	333e <_dtoa_r+0x256>
    3cea:	465b      	mov	r3, fp
    3cec:	9a06      	ldr	r2, [sp, #24]
    3cee:	464d      	mov	r5, r9
    3cf0:	46c3      	mov	fp, r8
    3cf2:	4691      	mov	r9, r2
    3cf4:	2b00      	cmp	r3, #0
    3cf6:	dd12      	ble.n	3d1e <_dtoa_r+0xc36>
    3cf8:	0031      	movs	r1, r6
    3cfa:	2201      	movs	r2, #1
    3cfc:	4640      	mov	r0, r8
    3cfe:	f001 f9d7 	bl	50b0 <__lshift>
    3d02:	4649      	mov	r1, r9
    3d04:	0006      	movs	r6, r0
    3d06:	f001 fa33 	bl	5170 <__mcmp>
    3d0a:	2800      	cmp	r0, #0
    3d0c:	dc00      	bgt.n	3d10 <_dtoa_r+0xc28>
    3d0e:	e160      	b.n	3fd2 <_dtoa_r+0xeea>
    3d10:	9b02      	ldr	r3, [sp, #8]
    3d12:	2b39      	cmp	r3, #57	; 0x39
    3d14:	d100      	bne.n	3d18 <_dtoa_r+0xc30>
    3d16:	e0fb      	b.n	3f10 <_dtoa_r+0xe28>
    3d18:	9b0b      	ldr	r3, [sp, #44]	; 0x2c
    3d1a:	3331      	adds	r3, #49	; 0x31
    3d1c:	9302      	str	r3, [sp, #8]
    3d1e:	466b      	mov	r3, sp
    3d20:	7a1b      	ldrb	r3, [r3, #8]
    3d22:	46b8      	mov	r8, r7
    3d24:	1c6c      	adds	r4, r5, #1
    3d26:	702b      	strb	r3, [r5, #0]
    3d28:	4657      	mov	r7, sl
    3d2a:	960a      	str	r6, [sp, #40]	; 0x28
    3d2c:	e619      	b.n	3962 <_dtoa_r+0x87a>
    3d2e:	46c0      	nop			; (mov r8, r8)
    3d30:	7ff00000 	.word	0x7ff00000
    3d34:	40140000 	.word	0x40140000
    3d38:	00000433 	.word	0x00000433
    3d3c:	401c0000 	.word	0x401c0000
    3d40:	fcc00000 	.word	0xfcc00000
    3d44:	2800      	cmp	r0, #0
    3d46:	d104      	bne.n	3d52 <_dtoa_r+0xc6a>
    3d48:	9b02      	ldr	r3, [sp, #8]
    3d4a:	07db      	lsls	r3, r3, #31
    3d4c:	d501      	bpl.n	3d52 <_dtoa_r+0xc6a>
    3d4e:	e5f9      	b.n	3944 <_dtoa_r+0x85c>
    3d50:	001c      	movs	r4, r3
    3d52:	1e63      	subs	r3, r4, #1
    3d54:	781a      	ldrb	r2, [r3, #0]
    3d56:	2a30      	cmp	r2, #48	; 0x30
    3d58:	d0fa      	beq.n	3d50 <_dtoa_r+0xc68>
    3d5a:	e602      	b.n	3962 <_dtoa_r+0x87a>
    3d5c:	9b13      	ldr	r3, [sp, #76]	; 0x4c
    3d5e:	469a      	mov	sl, r3
    3d60:	9b02      	ldr	r3, [sp, #8]
    3d62:	469b      	mov	fp, r3
    3d64:	9b10      	ldr	r3, [sp, #64]	; 0x40
    3d66:	9c11      	ldr	r4, [sp, #68]	; 0x44
    3d68:	9302      	str	r3, [sp, #8]
    3d6a:	9403      	str	r4, [sp, #12]
    3d6c:	e435      	b.n	35da <_dtoa_r+0x4f2>
    3d6e:	9b05      	ldr	r3, [sp, #20]
    3d70:	425c      	negs	r4, r3
    3d72:	2c00      	cmp	r4, #0
    3d74:	d100      	bne.n	3d78 <_dtoa_r+0xc90>
    3d76:	e0c5      	b.n	3f04 <_dtoa_r+0xe1c>
    3d78:	9810      	ldr	r0, [sp, #64]	; 0x40
    3d7a:	9911      	ldr	r1, [sp, #68]	; 0x44
    3d7c:	230f      	movs	r3, #15
    3d7e:	4aa9      	ldr	r2, [pc, #676]	; (4024 <_dtoa_r+0xf3c>)
    3d80:	4023      	ands	r3, r4
    3d82:	00db      	lsls	r3, r3, #3
    3d84:	18d3      	adds	r3, r2, r3
    3d86:	681a      	ldr	r2, [r3, #0]
    3d88:	685b      	ldr	r3, [r3, #4]
    3d8a:	f004 f9e7 	bl	815c <__aeabi_dmul>
    3d8e:	1124      	asrs	r4, r4, #4
    3d90:	0006      	movs	r6, r0
    3d92:	000f      	movs	r7, r1
    3d94:	2c00      	cmp	r4, #0
    3d96:	d100      	bne.n	3d9a <_dtoa_r+0xcb2>
    3d98:	e130      	b.n	3ffc <_dtoa_r+0xf14>
    3d9a:	2302      	movs	r3, #2
    3d9c:	4698      	mov	r8, r3
    3d9e:	3b01      	subs	r3, #1
    3da0:	4699      	mov	r9, r3
    3da2:	4da1      	ldr	r5, [pc, #644]	; (4028 <_dtoa_r+0xf40>)
    3da4:	464b      	mov	r3, r9
    3da6:	4223      	tst	r3, r4
    3da8:	d00a      	beq.n	3dc0 <_dtoa_r+0xcd8>
    3daa:	2301      	movs	r3, #1
    3dac:	469c      	mov	ip, r3
    3dae:	682a      	ldr	r2, [r5, #0]
    3db0:	686b      	ldr	r3, [r5, #4]
    3db2:	0030      	movs	r0, r6
    3db4:	0039      	movs	r1, r7
    3db6:	44e0      	add	r8, ip
    3db8:	f004 f9d0 	bl	815c <__aeabi_dmul>
    3dbc:	0006      	movs	r6, r0
    3dbe:	000f      	movs	r7, r1
    3dc0:	1064      	asrs	r4, r4, #1
    3dc2:	3508      	adds	r5, #8
    3dc4:	2c00      	cmp	r4, #0
    3dc6:	d1ed      	bne.n	3da4 <_dtoa_r+0xcbc>
    3dc8:	f7ff fad8 	bl	337c <_dtoa_r+0x294>
    3dcc:	9b05      	ldr	r3, [sp, #20]
    3dce:	3301      	adds	r3, #1
    3dd0:	9305      	str	r3, [sp, #20]
    3dd2:	2330      	movs	r3, #48	; 0x30
    3dd4:	702b      	strb	r3, [r5, #0]
    3dd6:	4698      	mov	r8, r3
    3dd8:	e4ab      	b.n	3732 <_dtoa_r+0x64a>
    3dda:	6879      	ldr	r1, [r7, #4]
    3ddc:	4658      	mov	r0, fp
    3dde:	f000 ff45 	bl	4c6c <_Balloc>
    3de2:	0039      	movs	r1, r7
    3de4:	0004      	movs	r4, r0
    3de6:	693b      	ldr	r3, [r7, #16]
    3de8:	310c      	adds	r1, #12
    3dea:	1c9a      	adds	r2, r3, #2
    3dec:	0092      	lsls	r2, r2, #2
    3dee:	300c      	adds	r0, #12
    3df0:	f7fd fade 	bl	13b0 <memcpy>
    3df4:	2201      	movs	r2, #1
    3df6:	0021      	movs	r1, r4
    3df8:	4658      	mov	r0, fp
    3dfa:	f001 f959 	bl	50b0 <__lshift>
    3dfe:	4682      	mov	sl, r0
    3e00:	e64b      	b.n	3a9a <_dtoa_r+0x9b2>
    3e02:	2300      	movs	r3, #0
    3e04:	2700      	movs	r7, #0
    3e06:	4699      	mov	r9, r3
    3e08:	e70f      	b.n	3c2a <_dtoa_r+0xb42>
    3e0a:	9b13      	ldr	r3, [sp, #76]	; 0x4c
    3e0c:	1e59      	subs	r1, r3, #1
    3e0e:	00cb      	lsls	r3, r1, #3
    3e10:	9115      	str	r1, [sp, #84]	; 0x54
    3e12:	4984      	ldr	r1, [pc, #528]	; (4024 <_dtoa_r+0xf3c>)
    3e14:	18c9      	adds	r1, r1, r3
    3e16:	6808      	ldr	r0, [r1, #0]
    3e18:	6849      	ldr	r1, [r1, #4]
    3e1a:	9a02      	ldr	r2, [sp, #8]
    3e1c:	9b03      	ldr	r3, [sp, #12]
    3e1e:	f004 f99d 	bl	815c <__aeabi_dmul>
    3e22:	9002      	str	r0, [sp, #8]
    3e24:	9103      	str	r1, [sp, #12]
    3e26:	0039      	movs	r1, r7
    3e28:	0030      	movs	r0, r6
    3e2a:	f004 ff85 	bl	8d38 <__aeabi_d2iz>
    3e2e:	0005      	movs	r5, r0
    3e30:	f004 ffb8 	bl	8da4 <__aeabi_i2d>
    3e34:	0002      	movs	r2, r0
    3e36:	000b      	movs	r3, r1
    3e38:	0030      	movs	r0, r6
    3e3a:	0039      	movs	r1, r7
    3e3c:	f004 fc08 	bl	8650 <__aeabi_dsub>
    3e40:	9b13      	ldr	r3, [sp, #76]	; 0x4c
    3e42:	000f      	movs	r7, r1
    3e44:	9909      	ldr	r1, [sp, #36]	; 0x24
    3e46:	001a      	movs	r2, r3
    3e48:	468c      	mov	ip, r1
    3e4a:	3530      	adds	r5, #48	; 0x30
    3e4c:	4462      	add	r2, ip
    3e4e:	0006      	movs	r6, r0
    3e50:	1c4c      	adds	r4, r1, #1
    3e52:	700d      	strb	r5, [r1, #0]
    3e54:	4691      	mov	r9, r2
    3e56:	2b01      	cmp	r3, #1
    3e58:	d01e      	beq.n	3e98 <_dtoa_r+0xdb0>
    3e5a:	46a0      	mov	r8, r4
    3e5c:	2200      	movs	r2, #0
    3e5e:	4b73      	ldr	r3, [pc, #460]	; (402c <_dtoa_r+0xf44>)
    3e60:	0030      	movs	r0, r6
    3e62:	0039      	movs	r1, r7
    3e64:	f004 f97a 	bl	815c <__aeabi_dmul>
    3e68:	000f      	movs	r7, r1
    3e6a:	0006      	movs	r6, r0
    3e6c:	f004 ff64 	bl	8d38 <__aeabi_d2iz>
    3e70:	0005      	movs	r5, r0
    3e72:	f004 ff97 	bl	8da4 <__aeabi_i2d>
    3e76:	0002      	movs	r2, r0
    3e78:	000b      	movs	r3, r1
    3e7a:	0030      	movs	r0, r6
    3e7c:	0039      	movs	r1, r7
    3e7e:	f004 fbe7 	bl	8650 <__aeabi_dsub>
    3e82:	3530      	adds	r5, #48	; 0x30
    3e84:	7025      	strb	r5, [r4, #0]
    3e86:	3401      	adds	r4, #1
    3e88:	0006      	movs	r6, r0
    3e8a:	000f      	movs	r7, r1
    3e8c:	454c      	cmp	r4, r9
    3e8e:	d1e5      	bne.n	3e5c <_dtoa_r+0xd74>
    3e90:	9b15      	ldr	r3, [sp, #84]	; 0x54
    3e92:	4644      	mov	r4, r8
    3e94:	469c      	mov	ip, r3
    3e96:	4464      	add	r4, ip
    3e98:	2200      	movs	r2, #0
    3e9a:	9802      	ldr	r0, [sp, #8]
    3e9c:	9903      	ldr	r1, [sp, #12]
    3e9e:	4b64      	ldr	r3, [pc, #400]	; (4030 <_dtoa_r+0xf48>)
    3ea0:	f003 fa0c 	bl	72bc <__aeabi_dadd>
    3ea4:	0032      	movs	r2, r6
    3ea6:	003b      	movs	r3, r7
    3ea8:	f003 f900 	bl	70ac <__aeabi_dcmplt>
    3eac:	2800      	cmp	r0, #0
    3eae:	d062      	beq.n	3f76 <_dtoa_r+0xe8e>
    3eb0:	1e65      	subs	r5, r4, #1
    3eb2:	782b      	ldrb	r3, [r5, #0]
    3eb4:	9a09      	ldr	r2, [sp, #36]	; 0x24
    3eb6:	4698      	mov	r8, r3
    3eb8:	9b14      	ldr	r3, [sp, #80]	; 0x50
    3eba:	9305      	str	r3, [sp, #20]
    3ebc:	4643      	mov	r3, r8
    3ebe:	e435      	b.n	372c <_dtoa_r+0x644>
    3ec0:	9b06      	ldr	r3, [sp, #24]
    3ec2:	464d      	mov	r5, r9
    3ec4:	4699      	mov	r9, r3
    3ec6:	9b02      	ldr	r3, [sp, #8]
    3ec8:	46c3      	mov	fp, r8
    3eca:	2b39      	cmp	r3, #57	; 0x39
    3ecc:	d020      	beq.n	3f10 <_dtoa_r+0xe28>
    3ece:	9b02      	ldr	r3, [sp, #8]
    3ed0:	46b8      	mov	r8, r7
    3ed2:	3301      	adds	r3, #1
    3ed4:	1c6c      	adds	r4, r5, #1
    3ed6:	702b      	strb	r3, [r5, #0]
    3ed8:	4657      	mov	r7, sl
    3eda:	960a      	str	r6, [sp, #40]	; 0x28
    3edc:	e541      	b.n	3962 <_dtoa_r+0x87a>
    3ede:	9b06      	ldr	r3, [sp, #24]
    3ee0:	46c3      	mov	fp, r8
    3ee2:	4699      	mov	r9, r3
    3ee4:	46b8      	mov	r8, r7
    3ee6:	4657      	mov	r7, sl
    3ee8:	e520      	b.n	392c <_dtoa_r+0x844>
    3eea:	9b06      	ldr	r3, [sp, #24]
    3eec:	9a08      	ldr	r2, [sp, #32]
    3eee:	1a9c      	subs	r4, r3, r2
    3ef0:	2300      	movs	r3, #0
    3ef2:	e436      	b.n	3762 <_dtoa_r+0x67a>
    3ef4:	2401      	movs	r4, #1
    3ef6:	e514      	b.n	3922 <_dtoa_r+0x83a>
    3ef8:	2336      	movs	r3, #54	; 0x36
    3efa:	9a16      	ldr	r2, [sp, #88]	; 0x58
    3efc:	9d0b      	ldr	r5, [sp, #44]	; 0x2c
    3efe:	1a9b      	subs	r3, r3, r2
    3f00:	9c06      	ldr	r4, [sp, #24]
    3f02:	e42e      	b.n	3762 <_dtoa_r+0x67a>
    3f04:	2302      	movs	r3, #2
    3f06:	9e10      	ldr	r6, [sp, #64]	; 0x40
    3f08:	9f11      	ldr	r7, [sp, #68]	; 0x44
    3f0a:	4698      	mov	r8, r3
    3f0c:	f7ff fa36 	bl	337c <_dtoa_r+0x294>
    3f10:	2339      	movs	r3, #57	; 0x39
    3f12:	46b8      	mov	r8, r7
    3f14:	1c6c      	adds	r4, r5, #1
    3f16:	702b      	strb	r3, [r5, #0]
    3f18:	4657      	mov	r7, sl
    3f1a:	960a      	str	r6, [sp, #40]	; 0x28
    3f1c:	9a09      	ldr	r2, [sp, #36]	; 0x24
    3f1e:	e51c      	b.n	395a <_dtoa_r+0x872>
    3f20:	960a      	str	r6, [sp, #40]	; 0x28
    3f22:	e57f      	b.n	3a24 <_dtoa_r+0x93c>
    3f24:	9b08      	ldr	r3, [sp, #32]
    3f26:	2b00      	cmp	r3, #0
    3f28:	d100      	bne.n	3f2c <_dtoa_r+0xe44>
    3f2a:	e695      	b.n	3c58 <_dtoa_r+0xb70>
    3f2c:	9c0f      	ldr	r4, [sp, #60]	; 0x3c
    3f2e:	2c00      	cmp	r4, #0
    3f30:	dc00      	bgt.n	3f34 <_dtoa_r+0xe4c>
    3f32:	e717      	b.n	3d64 <_dtoa_r+0xc7c>
    3f34:	9b05      	ldr	r3, [sp, #20]
    3f36:	2200      	movs	r2, #0
    3f38:	3b01      	subs	r3, #1
    3f3a:	9314      	str	r3, [sp, #80]	; 0x50
    3f3c:	0030      	movs	r0, r6
    3f3e:	4b3b      	ldr	r3, [pc, #236]	; (402c <_dtoa_r+0xf44>)
    3f40:	0039      	movs	r1, r7
    3f42:	f004 f90b 	bl	815c <__aeabi_dmul>
    3f46:	0006      	movs	r6, r0
    3f48:	4640      	mov	r0, r8
    3f4a:	000f      	movs	r7, r1
    3f4c:	3001      	adds	r0, #1
    3f4e:	f004 ff29 	bl	8da4 <__aeabi_i2d>
    3f52:	0032      	movs	r2, r6
    3f54:	003b      	movs	r3, r7
    3f56:	f004 f901 	bl	815c <__aeabi_dmul>
    3f5a:	2200      	movs	r2, #0
    3f5c:	4b35      	ldr	r3, [pc, #212]	; (4034 <_dtoa_r+0xf4c>)
    3f5e:	f003 f9ad 	bl	72bc <__aeabi_dadd>
    3f62:	4a35      	ldr	r2, [pc, #212]	; (4038 <_dtoa_r+0xf50>)
    3f64:	000b      	movs	r3, r1
    3f66:	4694      	mov	ip, r2
    3f68:	4463      	add	r3, ip
    3f6a:	9002      	str	r0, [sp, #8]
    3f6c:	9103      	str	r1, [sp, #12]
    3f6e:	9413      	str	r4, [sp, #76]	; 0x4c
    3f70:	9303      	str	r3, [sp, #12]
    3f72:	f7ff fa2b 	bl	33cc <_dtoa_r+0x2e4>
    3f76:	9a02      	ldr	r2, [sp, #8]
    3f78:	9b03      	ldr	r3, [sp, #12]
    3f7a:	2000      	movs	r0, #0
    3f7c:	492c      	ldr	r1, [pc, #176]	; (4030 <_dtoa_r+0xf48>)
    3f7e:	f004 fb67 	bl	8650 <__aeabi_dsub>
    3f82:	0032      	movs	r2, r6
    3f84:	003b      	movs	r3, r7
    3f86:	f003 f8a5 	bl	70d4 <__aeabi_dcmpgt>
    3f8a:	2800      	cmp	r0, #0
    3f8c:	d101      	bne.n	3f92 <_dtoa_r+0xeaa>
    3f8e:	e6e9      	b.n	3d64 <_dtoa_r+0xc7c>
    3f90:	001c      	movs	r4, r3
    3f92:	1e63      	subs	r3, r4, #1
    3f94:	781a      	ldrb	r2, [r3, #0]
    3f96:	2a30      	cmp	r2, #48	; 0x30
    3f98:	d0fa      	beq.n	3f90 <_dtoa_r+0xea8>
    3f9a:	f7ff fad6 	bl	354a <_dtoa_r+0x462>
    3f9e:	9b06      	ldr	r3, [sp, #24]
    3fa0:	464d      	mov	r5, r9
    3fa2:	4699      	mov	r9, r3
    3fa4:	9b02      	ldr	r3, [sp, #8]
    3fa6:	46c3      	mov	fp, r8
    3fa8:	2b39      	cmp	r3, #57	; 0x39
    3faa:	d0b1      	beq.n	3f10 <_dtoa_r+0xe28>
    3fac:	2c00      	cmp	r4, #0
    3fae:	dd00      	ble.n	3fb2 <_dtoa_r+0xeca>
    3fb0:	e6b2      	b.n	3d18 <_dtoa_r+0xc30>
    3fb2:	e6b4      	b.n	3d1e <_dtoa_r+0xc36>
    3fb4:	9b02      	ldr	r3, [sp, #8]
    3fb6:	465d      	mov	r5, fp
    3fb8:	469b      	mov	fp, r3
    3fba:	9b14      	ldr	r3, [sp, #80]	; 0x50
    3fbc:	4654      	mov	r4, sl
    3fbe:	9305      	str	r3, [sp, #20]
    3fc0:	9a09      	ldr	r2, [sp, #36]	; 0x24
    3fc2:	4643      	mov	r3, r8
    3fc4:	f7ff fbb2 	bl	372c <_dtoa_r+0x644>
    3fc8:	9b02      	ldr	r3, [sp, #8]
    3fca:	2b00      	cmp	r3, #0
    3fcc:	d000      	beq.n	3fd0 <_dtoa_r+0xee8>
    3fce:	e545      	b.n	3a5c <_dtoa_r+0x974>
    3fd0:	e4f2      	b.n	39b8 <_dtoa_r+0x8d0>
    3fd2:	2800      	cmp	r0, #0
    3fd4:	d000      	beq.n	3fd8 <_dtoa_r+0xef0>
    3fd6:	e6a2      	b.n	3d1e <_dtoa_r+0xc36>
    3fd8:	9b02      	ldr	r3, [sp, #8]
    3fda:	07db      	lsls	r3, r3, #31
    3fdc:	d400      	bmi.n	3fe0 <_dtoa_r+0xef8>
    3fde:	e69e      	b.n	3d1e <_dtoa_r+0xc36>
    3fe0:	e696      	b.n	3d10 <_dtoa_r+0xc28>
    3fe2:	9b22      	ldr	r3, [sp, #136]	; 0x88
    3fe4:	2b02      	cmp	r3, #2
    3fe6:	dc1a      	bgt.n	401e <_dtoa_r+0xf36>
    3fe8:	4649      	mov	r1, r9
    3fea:	f7fe ffd5 	bl	2f98 <quorem>
    3fee:	9b09      	ldr	r3, [sp, #36]	; 0x24
    3ff0:	3030      	adds	r0, #48	; 0x30
    3ff2:	7018      	strb	r0, [r3, #0]
    3ff4:	9b0f      	ldr	r3, [sp, #60]	; 0x3c
    3ff6:	9002      	str	r0, [sp, #8]
    3ff8:	9308      	str	r3, [sp, #32]
    3ffa:	e48e      	b.n	391a <_dtoa_r+0x832>
    3ffc:	2302      	movs	r3, #2
    3ffe:	4698      	mov	r8, r3
    4000:	f7ff f9bc 	bl	337c <_dtoa_r+0x294>
    4004:	9b14      	ldr	r3, [sp, #80]	; 0x50
    4006:	9a09      	ldr	r2, [sp, #36]	; 0x24
    4008:	9305      	str	r3, [sp, #20]
    400a:	0015      	movs	r5, r2
    400c:	4643      	mov	r3, r8
    400e:	f7ff fb8d 	bl	372c <_dtoa_r+0x644>
    4012:	2b04      	cmp	r3, #4
    4014:	d100      	bne.n	4018 <_dtoa_r+0xf30>
    4016:	e445      	b.n	38a4 <_dtoa_r+0x7bc>
    4018:	233c      	movs	r3, #60	; 0x3c
    401a:	1a18      	subs	r0, r3, r0
    401c:	e43b      	b.n	3896 <_dtoa_r+0x7ae>
    401e:	9b0f      	ldr	r3, [sp, #60]	; 0x3c
    4020:	9308      	str	r3, [sp, #32]
    4022:	e5f0      	b.n	3c06 <_dtoa_r+0xb1e>
    4024:	000091d8 	.word	0x000091d8
    4028:	000092b0 	.word	0x000092b0
    402c:	40240000 	.word	0x40240000
    4030:	3fe00000 	.word	0x3fe00000
    4034:	401c0000 	.word	0x401c0000
    4038:	fcc00000 	.word	0xfcc00000

0000403c <__sflush_r>:
    403c:	b5f0      	push	{r4, r5, r6, r7, lr}
    403e:	4647      	mov	r7, r8
    4040:	b480      	push	{r7}
    4042:	220c      	movs	r2, #12
    4044:	5e8b      	ldrsh	r3, [r1, r2]
    4046:	4680      	mov	r8, r0
    4048:	b29a      	uxth	r2, r3
    404a:	000c      	movs	r4, r1
    404c:	0711      	lsls	r1, r2, #28
    404e:	d440      	bmi.n	40d2 <__sflush_r+0x96>
    4050:	2280      	movs	r2, #128	; 0x80
    4052:	0112      	lsls	r2, r2, #4
    4054:	4313      	orrs	r3, r2
    4056:	6862      	ldr	r2, [r4, #4]
    4058:	81a3      	strh	r3, [r4, #12]
    405a:	2a00      	cmp	r2, #0
    405c:	dc00      	bgt.n	4060 <__sflush_r+0x24>
    405e:	e070      	b.n	4142 <__sflush_r+0x106>
    4060:	6aa6      	ldr	r6, [r4, #40]	; 0x28
    4062:	2e00      	cmp	r6, #0
    4064:	d031      	beq.n	40ca <__sflush_r+0x8e>
    4066:	4642      	mov	r2, r8
    4068:	4641      	mov	r1, r8
    406a:	6815      	ldr	r5, [r2, #0]
    406c:	2200      	movs	r2, #0
    406e:	b29b      	uxth	r3, r3
    4070:	600a      	str	r2, [r1, #0]
    4072:	04da      	lsls	r2, r3, #19
    4074:	d400      	bmi.n	4078 <__sflush_r+0x3c>
    4076:	e069      	b.n	414c <__sflush_r+0x110>
    4078:	6d22      	ldr	r2, [r4, #80]	; 0x50
    407a:	075b      	lsls	r3, r3, #29
    407c:	d506      	bpl.n	408c <__sflush_r+0x50>
    407e:	6863      	ldr	r3, [r4, #4]
    4080:	1ad2      	subs	r2, r2, r3
    4082:	6b23      	ldr	r3, [r4, #48]	; 0x30
    4084:	2b00      	cmp	r3, #0
    4086:	d001      	beq.n	408c <__sflush_r+0x50>
    4088:	6be3      	ldr	r3, [r4, #60]	; 0x3c
    408a:	1ad2      	subs	r2, r2, r3
    408c:	2300      	movs	r3, #0
    408e:	69e1      	ldr	r1, [r4, #28]
    4090:	4640      	mov	r0, r8
    4092:	47b0      	blx	r6
    4094:	1c43      	adds	r3, r0, #1
    4096:	d03d      	beq.n	4114 <__sflush_r+0xd8>
    4098:	89a2      	ldrh	r2, [r4, #12]
    409a:	4b3a      	ldr	r3, [pc, #232]	; (4184 <__sflush_r+0x148>)
    409c:	4013      	ands	r3, r2
    409e:	2200      	movs	r2, #0
    40a0:	6062      	str	r2, [r4, #4]
    40a2:	6922      	ldr	r2, [r4, #16]
    40a4:	b21b      	sxth	r3, r3
    40a6:	81a3      	strh	r3, [r4, #12]
    40a8:	6022      	str	r2, [r4, #0]
    40aa:	04db      	lsls	r3, r3, #19
    40ac:	d447      	bmi.n	413e <__sflush_r+0x102>
    40ae:	4643      	mov	r3, r8
    40b0:	6b21      	ldr	r1, [r4, #48]	; 0x30
    40b2:	601d      	str	r5, [r3, #0]
    40b4:	2900      	cmp	r1, #0
    40b6:	d008      	beq.n	40ca <__sflush_r+0x8e>
    40b8:	0023      	movs	r3, r4
    40ba:	3340      	adds	r3, #64	; 0x40
    40bc:	4299      	cmp	r1, r3
    40be:	d002      	beq.n	40c6 <__sflush_r+0x8a>
    40c0:	4640      	mov	r0, r8
    40c2:	f000 f9f5 	bl	44b0 <_free_r>
    40c6:	2300      	movs	r3, #0
    40c8:	6323      	str	r3, [r4, #48]	; 0x30
    40ca:	2000      	movs	r0, #0
    40cc:	bc04      	pop	{r2}
    40ce:	4690      	mov	r8, r2
    40d0:	bdf0      	pop	{r4, r5, r6, r7, pc}
    40d2:	6926      	ldr	r6, [r4, #16]
    40d4:	2e00      	cmp	r6, #0
    40d6:	d0f8      	beq.n	40ca <__sflush_r+0x8e>
    40d8:	6823      	ldr	r3, [r4, #0]
    40da:	6026      	str	r6, [r4, #0]
    40dc:	1b9d      	subs	r5, r3, r6
    40de:	2300      	movs	r3, #0
    40e0:	0792      	lsls	r2, r2, #30
    40e2:	d100      	bne.n	40e6 <__sflush_r+0xaa>
    40e4:	6963      	ldr	r3, [r4, #20]
    40e6:	60a3      	str	r3, [r4, #8]
    40e8:	2d00      	cmp	r5, #0
    40ea:	dc04      	bgt.n	40f6 <__sflush_r+0xba>
    40ec:	e7ed      	b.n	40ca <__sflush_r+0x8e>
    40ee:	1836      	adds	r6, r6, r0
    40f0:	1a2d      	subs	r5, r5, r0
    40f2:	2d00      	cmp	r5, #0
    40f4:	dde9      	ble.n	40ca <__sflush_r+0x8e>
    40f6:	002b      	movs	r3, r5
    40f8:	0032      	movs	r2, r6
    40fa:	69e1      	ldr	r1, [r4, #28]
    40fc:	4640      	mov	r0, r8
    40fe:	6a67      	ldr	r7, [r4, #36]	; 0x24
    4100:	47b8      	blx	r7
    4102:	2800      	cmp	r0, #0
    4104:	dcf3      	bgt.n	40ee <__sflush_r+0xb2>
    4106:	2340      	movs	r3, #64	; 0x40
    4108:	2001      	movs	r0, #1
    410a:	89a2      	ldrh	r2, [r4, #12]
    410c:	4240      	negs	r0, r0
    410e:	4313      	orrs	r3, r2
    4110:	81a3      	strh	r3, [r4, #12]
    4112:	e7db      	b.n	40cc <__sflush_r+0x90>
    4114:	4643      	mov	r3, r8
    4116:	6819      	ldr	r1, [r3, #0]
    4118:	291d      	cmp	r1, #29
    411a:	d8f4      	bhi.n	4106 <__sflush_r+0xca>
    411c:	4b1a      	ldr	r3, [pc, #104]	; (4188 <__sflush_r+0x14c>)
    411e:	2201      	movs	r2, #1
    4120:	40cb      	lsrs	r3, r1
    4122:	439a      	bics	r2, r3
    4124:	d1ef      	bne.n	4106 <__sflush_r+0xca>
    4126:	89a6      	ldrh	r6, [r4, #12]
    4128:	4b16      	ldr	r3, [pc, #88]	; (4184 <__sflush_r+0x148>)
    412a:	6062      	str	r2, [r4, #4]
    412c:	4033      	ands	r3, r6
    412e:	6922      	ldr	r2, [r4, #16]
    4130:	b21b      	sxth	r3, r3
    4132:	81a3      	strh	r3, [r4, #12]
    4134:	6022      	str	r2, [r4, #0]
    4136:	04db      	lsls	r3, r3, #19
    4138:	d5b9      	bpl.n	40ae <__sflush_r+0x72>
    413a:	2900      	cmp	r1, #0
    413c:	d1b7      	bne.n	40ae <__sflush_r+0x72>
    413e:	6520      	str	r0, [r4, #80]	; 0x50
    4140:	e7b5      	b.n	40ae <__sflush_r+0x72>
    4142:	6be2      	ldr	r2, [r4, #60]	; 0x3c
    4144:	2a00      	cmp	r2, #0
    4146:	dd00      	ble.n	414a <__sflush_r+0x10e>
    4148:	e78a      	b.n	4060 <__sflush_r+0x24>
    414a:	e7be      	b.n	40ca <__sflush_r+0x8e>
    414c:	2200      	movs	r2, #0
    414e:	2301      	movs	r3, #1
    4150:	69e1      	ldr	r1, [r4, #28]
    4152:	4640      	mov	r0, r8
    4154:	47b0      	blx	r6
    4156:	0002      	movs	r2, r0
    4158:	1c43      	adds	r3, r0, #1
    415a:	d002      	beq.n	4162 <__sflush_r+0x126>
    415c:	89a3      	ldrh	r3, [r4, #12]
    415e:	6aa6      	ldr	r6, [r4, #40]	; 0x28
    4160:	e78b      	b.n	407a <__sflush_r+0x3e>
    4162:	4643      	mov	r3, r8
    4164:	681b      	ldr	r3, [r3, #0]
    4166:	2b00      	cmp	r3, #0
    4168:	d0f8      	beq.n	415c <__sflush_r+0x120>
    416a:	2b1d      	cmp	r3, #29
    416c:	d001      	beq.n	4172 <__sflush_r+0x136>
    416e:	2b16      	cmp	r3, #22
    4170:	d103      	bne.n	417a <__sflush_r+0x13e>
    4172:	4643      	mov	r3, r8
    4174:	2000      	movs	r0, #0
    4176:	601d      	str	r5, [r3, #0]
    4178:	e7a8      	b.n	40cc <__sflush_r+0x90>
    417a:	2340      	movs	r3, #64	; 0x40
    417c:	89a1      	ldrh	r1, [r4, #12]
    417e:	430b      	orrs	r3, r1
    4180:	81a3      	strh	r3, [r4, #12]
    4182:	e7a3      	b.n	40cc <__sflush_r+0x90>
    4184:	fffff7ff 	.word	0xfffff7ff
    4188:	20400001 	.word	0x20400001

0000418c <_fflush_r>:
    418c:	b570      	push	{r4, r5, r6, lr}
    418e:	0004      	movs	r4, r0
    4190:	000d      	movs	r5, r1
    4192:	2800      	cmp	r0, #0
    4194:	d002      	beq.n	419c <_fflush_r+0x10>
    4196:	6b83      	ldr	r3, [r0, #56]	; 0x38
    4198:	2b00      	cmp	r3, #0
    419a:	d009      	beq.n	41b0 <_fflush_r+0x24>
    419c:	220c      	movs	r2, #12
    419e:	5eab      	ldrsh	r3, [r5, r2]
    41a0:	2000      	movs	r0, #0
    41a2:	2b00      	cmp	r3, #0
    41a4:	d003      	beq.n	41ae <_fflush_r+0x22>
    41a6:	0029      	movs	r1, r5
    41a8:	0020      	movs	r0, r4
    41aa:	f7ff ff47 	bl	403c <__sflush_r>
    41ae:	bd70      	pop	{r4, r5, r6, pc}
    41b0:	f000 f906 	bl	43c0 <__sinit>
    41b4:	e7f2      	b.n	419c <_fflush_r+0x10>
    41b6:	46c0      	nop			; (mov r8, r8)

000041b8 <fflush>:
    41b8:	b510      	push	{r4, lr}
    41ba:	1e01      	subs	r1, r0, #0
    41bc:	d004      	beq.n	41c8 <fflush+0x10>
    41be:	4b05      	ldr	r3, [pc, #20]	; (41d4 <fflush+0x1c>)
    41c0:	6818      	ldr	r0, [r3, #0]
    41c2:	f7ff ffe3 	bl	418c <_fflush_r>
    41c6:	bd10      	pop	{r4, pc}
    41c8:	4b03      	ldr	r3, [pc, #12]	; (41d8 <fflush+0x20>)
    41ca:	4904      	ldr	r1, [pc, #16]	; (41dc <fflush+0x24>)
    41cc:	6818      	ldr	r0, [r3, #0]
    41ce:	f000 fc01 	bl	49d4 <_fwalk_reent>
    41d2:	e7f8      	b.n	41c6 <fflush+0xe>
    41d4:	10010d40 	.word	0x10010d40
    41d8:	000091d4 	.word	0x000091d4
    41dc:	0000418d 	.word	0x0000418d

000041e0 <__fp_unlock>:
    41e0:	2000      	movs	r0, #0
    41e2:	4770      	bx	lr

000041e4 <_cleanup_r>:
    41e4:	b510      	push	{r4, lr}
    41e6:	4902      	ldr	r1, [pc, #8]	; (41f0 <_cleanup_r+0xc>)
    41e8:	f000 fbf4 	bl	49d4 <_fwalk_reent>
    41ec:	bd10      	pop	{r4, pc}
    41ee:	46c0      	nop			; (mov r8, r8)
    41f0:	00006b05 	.word	0x00006b05

000041f4 <__sinit.part.1>:
    41f4:	b5f8      	push	{r3, r4, r5, r6, r7, lr}
    41f6:	465f      	mov	r7, fp
    41f8:	4656      	mov	r6, sl
    41fa:	464d      	mov	r5, r9
    41fc:	4644      	mov	r4, r8
    41fe:	4b34      	ldr	r3, [pc, #208]	; (42d0 <__sinit.part.1+0xdc>)
    4200:	b4f0      	push	{r4, r5, r6, r7}
    4202:	63c3      	str	r3, [r0, #60]	; 0x3c
    4204:	23b8      	movs	r3, #184	; 0xb8
    4206:	2400      	movs	r4, #0
    4208:	2203      	movs	r2, #3
    420a:	009b      	lsls	r3, r3, #2
    420c:	50c4      	str	r4, [r0, r3]
    420e:	3304      	adds	r3, #4
    4210:	6845      	ldr	r5, [r0, #4]
    4212:	50c2      	str	r2, [r0, r3]
    4214:	3308      	adds	r3, #8
    4216:	18c2      	adds	r2, r0, r3
    4218:	3b04      	subs	r3, #4
    421a:	50c2      	str	r2, [r0, r3]
    421c:	0006      	movs	r6, r0
    421e:	2304      	movs	r3, #4
    4220:	0028      	movs	r0, r5
    4222:	602c      	str	r4, [r5, #0]
    4224:	606c      	str	r4, [r5, #4]
    4226:	60ac      	str	r4, [r5, #8]
    4228:	81ab      	strh	r3, [r5, #12]
    422a:	666c      	str	r4, [r5, #100]	; 0x64
    422c:	81ec      	strh	r4, [r5, #14]
    422e:	612c      	str	r4, [r5, #16]
    4230:	616c      	str	r4, [r5, #20]
    4232:	61ac      	str	r4, [r5, #24]
    4234:	2208      	movs	r2, #8
    4236:	2100      	movs	r1, #0
    4238:	305c      	adds	r0, #92	; 0x5c
    423a:	f7fd f8f7 	bl	142c <memset>
    423e:	4b25      	ldr	r3, [pc, #148]	; (42d4 <__sinit.part.1+0xe0>)
    4240:	4f25      	ldr	r7, [pc, #148]	; (42d8 <__sinit.part.1+0xe4>)
    4242:	469a      	mov	sl, r3
    4244:	622b      	str	r3, [r5, #32]
    4246:	4b25      	ldr	r3, [pc, #148]	; (42dc <__sinit.part.1+0xe8>)
    4248:	62ef      	str	r7, [r5, #44]	; 0x2c
    424a:	4699      	mov	r9, r3
    424c:	626b      	str	r3, [r5, #36]	; 0x24
    424e:	4b24      	ldr	r3, [pc, #144]	; (42e0 <__sinit.part.1+0xec>)
    4250:	61ed      	str	r5, [r5, #28]
    4252:	62ab      	str	r3, [r5, #40]	; 0x28
    4254:	68b5      	ldr	r5, [r6, #8]
    4256:	4698      	mov	r8, r3
    4258:	2309      	movs	r3, #9
    425a:	0028      	movs	r0, r5
    425c:	81ab      	strh	r3, [r5, #12]
    425e:	3b08      	subs	r3, #8
    4260:	602c      	str	r4, [r5, #0]
    4262:	606c      	str	r4, [r5, #4]
    4264:	60ac      	str	r4, [r5, #8]
    4266:	666c      	str	r4, [r5, #100]	; 0x64
    4268:	81eb      	strh	r3, [r5, #14]
    426a:	612c      	str	r4, [r5, #16]
    426c:	616c      	str	r4, [r5, #20]
    426e:	61ac      	str	r4, [r5, #24]
    4270:	2208      	movs	r2, #8
    4272:	2100      	movs	r1, #0
    4274:	305c      	adds	r0, #92	; 0x5c
    4276:	469b      	mov	fp, r3
    4278:	f7fd f8d8 	bl	142c <memset>
    427c:	4653      	mov	r3, sl
    427e:	622b      	str	r3, [r5, #32]
    4280:	464b      	mov	r3, r9
    4282:	626b      	str	r3, [r5, #36]	; 0x24
    4284:	4643      	mov	r3, r8
    4286:	62ef      	str	r7, [r5, #44]	; 0x2c
    4288:	62ab      	str	r3, [r5, #40]	; 0x28
    428a:	61ed      	str	r5, [r5, #28]
    428c:	68f5      	ldr	r5, [r6, #12]
    428e:	2312      	movs	r3, #18
    4290:	0028      	movs	r0, r5
    4292:	81ab      	strh	r3, [r5, #12]
    4294:	3b10      	subs	r3, #16
    4296:	81eb      	strh	r3, [r5, #14]
    4298:	602c      	str	r4, [r5, #0]
    429a:	606c      	str	r4, [r5, #4]
    429c:	60ac      	str	r4, [r5, #8]
    429e:	666c      	str	r4, [r5, #100]	; 0x64
    42a0:	612c      	str	r4, [r5, #16]
    42a2:	616c      	str	r4, [r5, #20]
    42a4:	61ac      	str	r4, [r5, #24]
    42a6:	2208      	movs	r2, #8
    42a8:	2100      	movs	r1, #0
    42aa:	305c      	adds	r0, #92	; 0x5c
    42ac:	f7fd f8be 	bl	142c <memset>
    42b0:	4653      	mov	r3, sl
    42b2:	622b      	str	r3, [r5, #32]
    42b4:	464b      	mov	r3, r9
    42b6:	626b      	str	r3, [r5, #36]	; 0x24
    42b8:	4643      	mov	r3, r8
    42ba:	62ab      	str	r3, [r5, #40]	; 0x28
    42bc:	465b      	mov	r3, fp
    42be:	62ef      	str	r7, [r5, #44]	; 0x2c
    42c0:	61ed      	str	r5, [r5, #28]
    42c2:	63b3      	str	r3, [r6, #56]	; 0x38
    42c4:	bc3c      	pop	{r2, r3, r4, r5}
    42c6:	4690      	mov	r8, r2
    42c8:	4699      	mov	r9, r3
    42ca:	46a2      	mov	sl, r4
    42cc:	46ab      	mov	fp, r5
    42ce:	bdf8      	pop	{r3, r4, r5, r6, r7, pc}
    42d0:	000041e5 	.word	0x000041e5
    42d4:	00005a7d 	.word	0x00005a7d
    42d8:	00005b11 	.word	0x00005b11
    42dc:	00005aa9 	.word	0x00005aa9
    42e0:	00005ae5 	.word	0x00005ae5

000042e4 <__fp_lock>:
    42e4:	2000      	movs	r0, #0
    42e6:	4770      	bx	lr

000042e8 <__sfmoreglue>:
    42e8:	2368      	movs	r3, #104	; 0x68
    42ea:	b570      	push	{r4, r5, r6, lr}
    42ec:	1e4c      	subs	r4, r1, #1
    42ee:	435c      	muls	r4, r3
    42f0:	000e      	movs	r6, r1
    42f2:	0021      	movs	r1, r4
    42f4:	3174      	adds	r1, #116	; 0x74
    42f6:	f7fc fdb1 	bl	e5c <_malloc_r>
    42fa:	1e05      	subs	r5, r0, #0
    42fc:	d009      	beq.n	4312 <__sfmoreglue+0x2a>
    42fe:	2300      	movs	r3, #0
    4300:	0022      	movs	r2, r4
    4302:	6003      	str	r3, [r0, #0]
    4304:	6046      	str	r6, [r0, #4]
    4306:	300c      	adds	r0, #12
    4308:	60a8      	str	r0, [r5, #8]
    430a:	3268      	adds	r2, #104	; 0x68
    430c:	2100      	movs	r1, #0
    430e:	f7fd f88d 	bl	142c <memset>
    4312:	0028      	movs	r0, r5
    4314:	bd70      	pop	{r4, r5, r6, pc}
    4316:	46c0      	nop			; (mov r8, r8)

00004318 <__sfp>:
    4318:	4b22      	ldr	r3, [pc, #136]	; (43a4 <__sfp+0x8c>)
    431a:	b570      	push	{r4, r5, r6, lr}
    431c:	681d      	ldr	r5, [r3, #0]
    431e:	0006      	movs	r6, r0
    4320:	6bab      	ldr	r3, [r5, #56]	; 0x38
    4322:	2b00      	cmp	r3, #0
    4324:	d102      	bne.n	432c <__sfp+0x14>
    4326:	0028      	movs	r0, r5
    4328:	f7ff ff64 	bl	41f4 <__sinit.part.1>
    432c:	23b8      	movs	r3, #184	; 0xb8
    432e:	009b      	lsls	r3, r3, #2
    4330:	469c      	mov	ip, r3
    4332:	4465      	add	r5, ip
    4334:	686b      	ldr	r3, [r5, #4]
    4336:	68ac      	ldr	r4, [r5, #8]
    4338:	3b01      	subs	r3, #1
    433a:	d503      	bpl.n	4344 <__sfp+0x2c>
    433c:	e01f      	b.n	437e <__sfp+0x66>
    433e:	3468      	adds	r4, #104	; 0x68
    4340:	3b01      	subs	r3, #1
    4342:	d31c      	bcc.n	437e <__sfp+0x66>
    4344:	210c      	movs	r1, #12
    4346:	5e62      	ldrsh	r2, [r4, r1]
    4348:	2a00      	cmp	r2, #0
    434a:	d1f8      	bne.n	433e <__sfp+0x26>
    434c:	2301      	movs	r3, #1
    434e:	2500      	movs	r5, #0
    4350:	0020      	movs	r0, r4
    4352:	425b      	negs	r3, r3
    4354:	81e3      	strh	r3, [r4, #14]
    4356:	3302      	adds	r3, #2
    4358:	81a3      	strh	r3, [r4, #12]
    435a:	6665      	str	r5, [r4, #100]	; 0x64
    435c:	6025      	str	r5, [r4, #0]
    435e:	60a5      	str	r5, [r4, #8]
    4360:	6065      	str	r5, [r4, #4]
    4362:	6125      	str	r5, [r4, #16]
    4364:	6165      	str	r5, [r4, #20]
    4366:	61a5      	str	r5, [r4, #24]
    4368:	305c      	adds	r0, #92	; 0x5c
    436a:	2208      	movs	r2, #8
    436c:	2100      	movs	r1, #0
    436e:	f7fd f85d 	bl	142c <memset>
    4372:	0020      	movs	r0, r4
    4374:	6325      	str	r5, [r4, #48]	; 0x30
    4376:	6365      	str	r5, [r4, #52]	; 0x34
    4378:	6465      	str	r5, [r4, #68]	; 0x44
    437a:	64a5      	str	r5, [r4, #72]	; 0x48
    437c:	bd70      	pop	{r4, r5, r6, pc}
    437e:	682b      	ldr	r3, [r5, #0]
    4380:	2b00      	cmp	r3, #0
    4382:	d001      	beq.n	4388 <__sfp+0x70>
    4384:	001d      	movs	r5, r3
    4386:	e7d5      	b.n	4334 <__sfp+0x1c>
    4388:	2104      	movs	r1, #4
    438a:	0030      	movs	r0, r6
    438c:	f7ff ffac 	bl	42e8 <__sfmoreglue>
    4390:	6028      	str	r0, [r5, #0]
    4392:	2800      	cmp	r0, #0
    4394:	d001      	beq.n	439a <__sfp+0x82>
    4396:	0005      	movs	r5, r0
    4398:	e7cc      	b.n	4334 <__sfp+0x1c>
    439a:	230c      	movs	r3, #12
    439c:	2000      	movs	r0, #0
    439e:	6033      	str	r3, [r6, #0]
    43a0:	e7ec      	b.n	437c <__sfp+0x64>
    43a2:	46c0      	nop			; (mov r8, r8)
    43a4:	000091d4 	.word	0x000091d4

000043a8 <_cleanup>:
    43a8:	b510      	push	{r4, lr}
    43aa:	4b03      	ldr	r3, [pc, #12]	; (43b8 <_cleanup+0x10>)
    43ac:	4903      	ldr	r1, [pc, #12]	; (43bc <_cleanup+0x14>)
    43ae:	6818      	ldr	r0, [r3, #0]
    43b0:	f000 fb10 	bl	49d4 <_fwalk_reent>
    43b4:	bd10      	pop	{r4, pc}
    43b6:	46c0      	nop			; (mov r8, r8)
    43b8:	000091d4 	.word	0x000091d4
    43bc:	00006b05 	.word	0x00006b05

000043c0 <__sinit>:
    43c0:	6b83      	ldr	r3, [r0, #56]	; 0x38
    43c2:	b510      	push	{r4, lr}
    43c4:	2b00      	cmp	r3, #0
    43c6:	d101      	bne.n	43cc <__sinit+0xc>
    43c8:	f7ff ff14 	bl	41f4 <__sinit.part.1>
    43cc:	bd10      	pop	{r4, pc}
    43ce:	46c0      	nop			; (mov r8, r8)

000043d0 <__sfp_lock_acquire>:
    43d0:	4770      	bx	lr
    43d2:	46c0      	nop			; (mov r8, r8)

000043d4 <__sfp_lock_release>:
    43d4:	4770      	bx	lr
    43d6:	46c0      	nop			; (mov r8, r8)

000043d8 <__sinit_lock_acquire>:
    43d8:	4770      	bx	lr
    43da:	46c0      	nop			; (mov r8, r8)

000043dc <__sinit_lock_release>:
    43dc:	4770      	bx	lr
    43de:	46c0      	nop			; (mov r8, r8)

000043e0 <__fp_lock_all>:
    43e0:	b510      	push	{r4, lr}
    43e2:	4b03      	ldr	r3, [pc, #12]	; (43f0 <__fp_lock_all+0x10>)
    43e4:	4903      	ldr	r1, [pc, #12]	; (43f4 <__fp_lock_all+0x14>)
    43e6:	6818      	ldr	r0, [r3, #0]
    43e8:	f000 fad2 	bl	4990 <_fwalk>
    43ec:	bd10      	pop	{r4, pc}
    43ee:	46c0      	nop			; (mov r8, r8)
    43f0:	10010d40 	.word	0x10010d40
    43f4:	000042e5 	.word	0x000042e5

000043f8 <__fp_unlock_all>:
    43f8:	b510      	push	{r4, lr}
    43fa:	4b03      	ldr	r3, [pc, #12]	; (4408 <__fp_unlock_all+0x10>)
    43fc:	4903      	ldr	r1, [pc, #12]	; (440c <__fp_unlock_all+0x14>)
    43fe:	6818      	ldr	r0, [r3, #0]
    4400:	f000 fac6 	bl	4990 <_fwalk>
    4404:	bd10      	pop	{r4, pc}
    4406:	46c0      	nop			; (mov r8, r8)
    4408:	10010d40 	.word	0x10010d40
    440c:	000041e1 	.word	0x000041e1

00004410 <_malloc_trim_r>:
    4410:	b5f8      	push	{r3, r4, r5, r6, r7, lr}
    4412:	000c      	movs	r4, r1
    4414:	0006      	movs	r6, r0
    4416:	f7fd f84f 	bl	14b8 <__malloc_lock>
    441a:	4f20      	ldr	r7, [pc, #128]	; (449c <_malloc_trim_r+0x8c>)
    441c:	68bb      	ldr	r3, [r7, #8]
    441e:	685d      	ldr	r5, [r3, #4]
    4420:	2303      	movs	r3, #3
    4422:	439d      	bics	r5, r3
    4424:	4b1e      	ldr	r3, [pc, #120]	; (44a0 <_malloc_trim_r+0x90>)
    4426:	1b2c      	subs	r4, r5, r4
    4428:	469c      	mov	ip, r3
    442a:	4464      	add	r4, ip
    442c:	0b24      	lsrs	r4, r4, #12
    442e:	4b1d      	ldr	r3, [pc, #116]	; (44a4 <_malloc_trim_r+0x94>)
    4430:	3c01      	subs	r4, #1
    4432:	0324      	lsls	r4, r4, #12
    4434:	429c      	cmp	r4, r3
    4436:	dd07      	ble.n	4448 <_malloc_trim_r+0x38>
    4438:	2100      	movs	r1, #0
    443a:	0030      	movs	r0, r6
    443c:	f7fd f8a2 	bl	1584 <_sbrk_r>
    4440:	68bb      	ldr	r3, [r7, #8]
    4442:	195b      	adds	r3, r3, r5
    4444:	4298      	cmp	r0, r3
    4446:	d004      	beq.n	4452 <_malloc_trim_r+0x42>
    4448:	0030      	movs	r0, r6
    444a:	f7fd f837 	bl	14bc <__malloc_unlock>
    444e:	2000      	movs	r0, #0
    4450:	bdf8      	pop	{r3, r4, r5, r6, r7, pc}
    4452:	4261      	negs	r1, r4
    4454:	0030      	movs	r0, r6
    4456:	f7fd f895 	bl	1584 <_sbrk_r>
    445a:	1c43      	adds	r3, r0, #1
    445c:	d00d      	beq.n	447a <_malloc_trim_r+0x6a>
    445e:	2301      	movs	r3, #1
    4460:	1b2d      	subs	r5, r5, r4
    4462:	68ba      	ldr	r2, [r7, #8]
    4464:	431d      	orrs	r5, r3
    4466:	4b10      	ldr	r3, [pc, #64]	; (44a8 <_malloc_trim_r+0x98>)
    4468:	6055      	str	r5, [r2, #4]
    446a:	681a      	ldr	r2, [r3, #0]
    446c:	0030      	movs	r0, r6
    446e:	1b14      	subs	r4, r2, r4
    4470:	601c      	str	r4, [r3, #0]
    4472:	f7fd f823 	bl	14bc <__malloc_unlock>
    4476:	2001      	movs	r0, #1
    4478:	e7ea      	b.n	4450 <_malloc_trim_r+0x40>
    447a:	2100      	movs	r1, #0
    447c:	0030      	movs	r0, r6
    447e:	f7fd f881 	bl	1584 <_sbrk_r>
    4482:	68bb      	ldr	r3, [r7, #8]
    4484:	1ac2      	subs	r2, r0, r3
    4486:	2a0f      	cmp	r2, #15
    4488:	ddde      	ble.n	4448 <_malloc_trim_r+0x38>
    448a:	4908      	ldr	r1, [pc, #32]	; (44ac <_malloc_trim_r+0x9c>)
    448c:	6809      	ldr	r1, [r1, #0]
    448e:	1a40      	subs	r0, r0, r1
    4490:	4905      	ldr	r1, [pc, #20]	; (44a8 <_malloc_trim_r+0x98>)
    4492:	6008      	str	r0, [r1, #0]
    4494:	2101      	movs	r1, #1
    4496:	430a      	orrs	r2, r1
    4498:	605a      	str	r2, [r3, #4]
    449a:	e7d5      	b.n	4448 <_malloc_trim_r+0x38>
    449c:	10010504 	.word	0x10010504
    44a0:	00000fef 	.word	0x00000fef
    44a4:	00000fff 	.word	0x00000fff
    44a8:	10010f0c 	.word	0x10010f0c
    44ac:	10010910 	.word	0x10010910

000044b0 <_free_r>:
    44b0:	b5f0      	push	{r4, r5, r6, r7, lr}
    44b2:	4647      	mov	r7, r8
    44b4:	0005      	movs	r5, r0
    44b6:	b480      	push	{r7}
    44b8:	1e0c      	subs	r4, r1, #0
    44ba:	d03e      	beq.n	453a <_free_r+0x8a>
    44bc:	f7fc fffc 	bl	14b8 <__malloc_lock>
    44c0:	2301      	movs	r3, #1
    44c2:	0021      	movs	r1, r4
    44c4:	4698      	mov	r8, r3
    44c6:	3908      	subs	r1, #8
    44c8:	684e      	ldr	r6, [r1, #4]
    44ca:	4642      	mov	r2, r8
    44cc:	0033      	movs	r3, r6
    44ce:	2003      	movs	r0, #3
    44d0:	4393      	bics	r3, r2
    44d2:	18cc      	adds	r4, r1, r3
    44d4:	6862      	ldr	r2, [r4, #4]
    44d6:	4382      	bics	r2, r0
    44d8:	4860      	ldr	r0, [pc, #384]	; (465c <_free_r+0x1ac>)
    44da:	6887      	ldr	r7, [r0, #8]
    44dc:	42bc      	cmp	r4, r7
    44de:	d05a      	beq.n	4596 <_free_r+0xe6>
    44e0:	4647      	mov	r7, r8
    44e2:	6062      	str	r2, [r4, #4]
    44e4:	4237      	tst	r7, r6
    44e6:	d10b      	bne.n	4500 <_free_r+0x50>
    44e8:	2708      	movs	r7, #8
    44ea:	46bc      	mov	ip, r7
    44ec:	680e      	ldr	r6, [r1, #0]
    44ee:	4484      	add	ip, r0
    44f0:	1b89      	subs	r1, r1, r6
    44f2:	199b      	adds	r3, r3, r6
    44f4:	688e      	ldr	r6, [r1, #8]
    44f6:	4566      	cmp	r6, ip
    44f8:	d066      	beq.n	45c8 <_free_r+0x118>
    44fa:	68cf      	ldr	r7, [r1, #12]
    44fc:	60f7      	str	r7, [r6, #12]
    44fe:	60be      	str	r6, [r7, #8]
    4500:	2601      	movs	r6, #1
    4502:	18a7      	adds	r7, r4, r2
    4504:	687f      	ldr	r7, [r7, #4]
    4506:	4237      	tst	r7, r6
    4508:	d036      	beq.n	4578 <_free_r+0xc8>
    450a:	4a55      	ldr	r2, [pc, #340]	; (4660 <_free_r+0x1b0>)
    450c:	431e      	orrs	r6, r3
    450e:	604e      	str	r6, [r1, #4]
    4510:	50cb      	str	r3, [r1, r3]
    4512:	4293      	cmp	r3, r2
    4514:	d814      	bhi.n	4540 <_free_r+0x90>
    4516:	08db      	lsrs	r3, r3, #3
    4518:	3aff      	subs	r2, #255	; 0xff
    451a:	109c      	asrs	r4, r3, #2
    451c:	3aff      	subs	r2, #255	; 0xff
    451e:	40a2      	lsls	r2, r4
    4520:	6844      	ldr	r4, [r0, #4]
    4522:	00db      	lsls	r3, r3, #3
    4524:	4322      	orrs	r2, r4
    4526:	6042      	str	r2, [r0, #4]
    4528:	1818      	adds	r0, r3, r0
    452a:	6883      	ldr	r3, [r0, #8]
    452c:	60c8      	str	r0, [r1, #12]
    452e:	608b      	str	r3, [r1, #8]
    4530:	6081      	str	r1, [r0, #8]
    4532:	60d9      	str	r1, [r3, #12]
    4534:	0028      	movs	r0, r5
    4536:	f7fc ffc1 	bl	14bc <__malloc_unlock>
    453a:	bc04      	pop	{r2}
    453c:	4690      	mov	r8, r2
    453e:	bdf0      	pop	{r4, r5, r6, r7, pc}
    4540:	0a5a      	lsrs	r2, r3, #9
    4542:	2a04      	cmp	r2, #4
    4544:	d84f      	bhi.n	45e6 <_free_r+0x136>
    4546:	099c      	lsrs	r4, r3, #6
    4548:	0026      	movs	r6, r4
    454a:	3439      	adds	r4, #57	; 0x39
    454c:	3638      	adds	r6, #56	; 0x38
    454e:	0064      	lsls	r4, r4, #1
    4550:	00a4      	lsls	r4, r4, #2
    4552:	1904      	adds	r4, r0, r4
    4554:	3c08      	subs	r4, #8
    4556:	68a2      	ldr	r2, [r4, #8]
    4558:	2703      	movs	r7, #3
    455a:	4294      	cmp	r4, r2
    455c:	d04a      	beq.n	45f4 <_free_r+0x144>
    455e:	6850      	ldr	r0, [r2, #4]
    4560:	43b8      	bics	r0, r7
    4562:	4283      	cmp	r3, r0
    4564:	d202      	bcs.n	456c <_free_r+0xbc>
    4566:	6892      	ldr	r2, [r2, #8]
    4568:	4294      	cmp	r4, r2
    456a:	d1f8      	bne.n	455e <_free_r+0xae>
    456c:	68d4      	ldr	r4, [r2, #12]
    456e:	60cc      	str	r4, [r1, #12]
    4570:	608a      	str	r2, [r1, #8]
    4572:	60a1      	str	r1, [r4, #8]
    4574:	60d1      	str	r1, [r2, #12]
    4576:	e7dd      	b.n	4534 <_free_r+0x84>
    4578:	189b      	adds	r3, r3, r2
    457a:	4f3a      	ldr	r7, [pc, #232]	; (4664 <_free_r+0x1b4>)
    457c:	68a2      	ldr	r2, [r4, #8]
    457e:	42ba      	cmp	r2, r7
    4580:	d040      	beq.n	4604 <_free_r+0x154>
    4582:	68e4      	ldr	r4, [r4, #12]
    4584:	431e      	orrs	r6, r3
    4586:	60d4      	str	r4, [r2, #12]
    4588:	60a2      	str	r2, [r4, #8]
    458a:	4a35      	ldr	r2, [pc, #212]	; (4660 <_free_r+0x1b0>)
    458c:	604e      	str	r6, [r1, #4]
    458e:	50cb      	str	r3, [r1, r3]
    4590:	4293      	cmp	r3, r2
    4592:	d8d5      	bhi.n	4540 <_free_r+0x90>
    4594:	e7bf      	b.n	4516 <_free_r+0x66>
    4596:	189b      	adds	r3, r3, r2
    4598:	4642      	mov	r2, r8
    459a:	4232      	tst	r2, r6
    459c:	d106      	bne.n	45ac <_free_r+0xfc>
    459e:	680a      	ldr	r2, [r1, #0]
    45a0:	1a89      	subs	r1, r1, r2
    45a2:	688c      	ldr	r4, [r1, #8]
    45a4:	189b      	adds	r3, r3, r2
    45a6:	68ca      	ldr	r2, [r1, #12]
    45a8:	60e2      	str	r2, [r4, #12]
    45aa:	6094      	str	r4, [r2, #8]
    45ac:	2401      	movs	r4, #1
    45ae:	4a2e      	ldr	r2, [pc, #184]	; (4668 <_free_r+0x1b8>)
    45b0:	431c      	orrs	r4, r3
    45b2:	6812      	ldr	r2, [r2, #0]
    45b4:	604c      	str	r4, [r1, #4]
    45b6:	6081      	str	r1, [r0, #8]
    45b8:	4293      	cmp	r3, r2
    45ba:	d3bb      	bcc.n	4534 <_free_r+0x84>
    45bc:	4b2b      	ldr	r3, [pc, #172]	; (466c <_free_r+0x1bc>)
    45be:	0028      	movs	r0, r5
    45c0:	6819      	ldr	r1, [r3, #0]
    45c2:	f7ff ff25 	bl	4410 <_malloc_trim_r>
    45c6:	e7b5      	b.n	4534 <_free_r+0x84>
    45c8:	4646      	mov	r6, r8
    45ca:	18a0      	adds	r0, r4, r2
    45cc:	6840      	ldr	r0, [r0, #4]
    45ce:	4230      	tst	r0, r6
    45d0:	d13e      	bne.n	4650 <_free_r+0x1a0>
    45d2:	68a0      	ldr	r0, [r4, #8]
    45d4:	18d3      	adds	r3, r2, r3
    45d6:	68e2      	ldr	r2, [r4, #12]
    45d8:	60c2      	str	r2, [r0, #12]
    45da:	6090      	str	r0, [r2, #8]
    45dc:	4642      	mov	r2, r8
    45de:	431a      	orrs	r2, r3
    45e0:	604a      	str	r2, [r1, #4]
    45e2:	50cb      	str	r3, [r1, r3]
    45e4:	e7a6      	b.n	4534 <_free_r+0x84>
    45e6:	2a14      	cmp	r2, #20
    45e8:	d814      	bhi.n	4614 <_free_r+0x164>
    45ea:	0016      	movs	r6, r2
    45ec:	325c      	adds	r2, #92	; 0x5c
    45ee:	365b      	adds	r6, #91	; 0x5b
    45f0:	0054      	lsls	r4, r2, #1
    45f2:	e7ad      	b.n	4550 <_free_r+0xa0>
    45f4:	2301      	movs	r3, #1
    45f6:	10b6      	asrs	r6, r6, #2
    45f8:	40b3      	lsls	r3, r6
    45fa:	6842      	ldr	r2, [r0, #4]
    45fc:	4313      	orrs	r3, r2
    45fe:	6043      	str	r3, [r0, #4]
    4600:	0022      	movs	r2, r4
    4602:	e7b4      	b.n	456e <_free_r+0xbe>
    4604:	431e      	orrs	r6, r3
    4606:	60d1      	str	r1, [r2, #12]
    4608:	6091      	str	r1, [r2, #8]
    460a:	60ca      	str	r2, [r1, #12]
    460c:	608a      	str	r2, [r1, #8]
    460e:	604e      	str	r6, [r1, #4]
    4610:	50cb      	str	r3, [r1, r3]
    4612:	e78f      	b.n	4534 <_free_r+0x84>
    4614:	2a54      	cmp	r2, #84	; 0x54
    4616:	d805      	bhi.n	4624 <_free_r+0x174>
    4618:	0b1c      	lsrs	r4, r3, #12
    461a:	0026      	movs	r6, r4
    461c:	346f      	adds	r4, #111	; 0x6f
    461e:	366e      	adds	r6, #110	; 0x6e
    4620:	0064      	lsls	r4, r4, #1
    4622:	e795      	b.n	4550 <_free_r+0xa0>
    4624:	24aa      	movs	r4, #170	; 0xaa
    4626:	0064      	lsls	r4, r4, #1
    4628:	42a2      	cmp	r2, r4
    462a:	d805      	bhi.n	4638 <_free_r+0x188>
    462c:	0bdc      	lsrs	r4, r3, #15
    462e:	0026      	movs	r6, r4
    4630:	3478      	adds	r4, #120	; 0x78
    4632:	3677      	adds	r6, #119	; 0x77
    4634:	0064      	lsls	r4, r4, #1
    4636:	e78b      	b.n	4550 <_free_r+0xa0>
    4638:	4c0d      	ldr	r4, [pc, #52]	; (4670 <_free_r+0x1c0>)
    463a:	42a2      	cmp	r2, r4
    463c:	d805      	bhi.n	464a <_free_r+0x19a>
    463e:	0c9c      	lsrs	r4, r3, #18
    4640:	0026      	movs	r6, r4
    4642:	347d      	adds	r4, #125	; 0x7d
    4644:	367c      	adds	r6, #124	; 0x7c
    4646:	0064      	lsls	r4, r4, #1
    4648:	e782      	b.n	4550 <_free_r+0xa0>
    464a:	24fe      	movs	r4, #254	; 0xfe
    464c:	267e      	movs	r6, #126	; 0x7e
    464e:	e77f      	b.n	4550 <_free_r+0xa0>
    4650:	4642      	mov	r2, r8
    4652:	431a      	orrs	r2, r3
    4654:	604a      	str	r2, [r1, #4]
    4656:	50cb      	str	r3, [r1, r3]
    4658:	e76c      	b.n	4534 <_free_r+0x84>
    465a:	46c0      	nop			; (mov r8, r8)
    465c:	10010504 	.word	0x10010504
    4660:	000001ff 	.word	0x000001ff
    4664:	1001050c 	.word	0x1001050c
    4668:	1001090c 	.word	0x1001090c
    466c:	10010f08 	.word	0x10010f08
    4670:	00000554 	.word	0x00000554

00004674 <__sfvwrite_r>:
    4674:	b5f0      	push	{r4, r5, r6, r7, lr}
    4676:	4656      	mov	r6, sl
    4678:	4644      	mov	r4, r8
    467a:	465f      	mov	r7, fp
    467c:	464d      	mov	r5, r9
    467e:	b4f0      	push	{r4, r5, r6, r7}
    4680:	6893      	ldr	r3, [r2, #8]
    4682:	b085      	sub	sp, #20
    4684:	9001      	str	r0, [sp, #4]
    4686:	000c      	movs	r4, r1
    4688:	4692      	mov	sl, r2
    468a:	2b00      	cmp	r3, #0
    468c:	d025      	beq.n	46da <__sfvwrite_r+0x66>
    468e:	898b      	ldrh	r3, [r1, #12]
    4690:	071a      	lsls	r2, r3, #28
    4692:	d52a      	bpl.n	46ea <__sfvwrite_r+0x76>
    4694:	690a      	ldr	r2, [r1, #16]
    4696:	2a00      	cmp	r2, #0
    4698:	d027      	beq.n	46ea <__sfvwrite_r+0x76>
    469a:	4652      	mov	r2, sl
    469c:	6812      	ldr	r2, [r2, #0]
    469e:	4693      	mov	fp, r2
    46a0:	079a      	lsls	r2, r3, #30
    46a2:	d52f      	bpl.n	4704 <__sfvwrite_r+0x90>
    46a4:	4bb7      	ldr	r3, [pc, #732]	; (4984 <__sfvwrite_r+0x310>)
    46a6:	2600      	movs	r6, #0
    46a8:	2500      	movs	r5, #0
    46aa:	4698      	mov	r8, r3
    46ac:	2d00      	cmp	r5, #0
    46ae:	d100      	bne.n	46b2 <__sfvwrite_r+0x3e>
    46b0:	e06d      	b.n	478e <__sfvwrite_r+0x11a>
    46b2:	002b      	movs	r3, r5
    46b4:	4545      	cmp	r5, r8
    46b6:	d900      	bls.n	46ba <__sfvwrite_r+0x46>
    46b8:	4bb2      	ldr	r3, [pc, #712]	; (4984 <__sfvwrite_r+0x310>)
    46ba:	0032      	movs	r2, r6
    46bc:	69e1      	ldr	r1, [r4, #28]
    46be:	9801      	ldr	r0, [sp, #4]
    46c0:	6a67      	ldr	r7, [r4, #36]	; 0x24
    46c2:	47b8      	blx	r7
    46c4:	2800      	cmp	r0, #0
    46c6:	dc00      	bgt.n	46ca <__sfvwrite_r+0x56>
    46c8:	e079      	b.n	47be <__sfvwrite_r+0x14a>
    46ca:	4653      	mov	r3, sl
    46cc:	689b      	ldr	r3, [r3, #8]
    46ce:	1836      	adds	r6, r6, r0
    46d0:	1a2d      	subs	r5, r5, r0
    46d2:	1a18      	subs	r0, r3, r0
    46d4:	4653      	mov	r3, sl
    46d6:	6098      	str	r0, [r3, #8]
    46d8:	d1e8      	bne.n	46ac <__sfvwrite_r+0x38>
    46da:	2000      	movs	r0, #0
    46dc:	b005      	add	sp, #20
    46de:	bc3c      	pop	{r2, r3, r4, r5}
    46e0:	4690      	mov	r8, r2
    46e2:	4699      	mov	r9, r3
    46e4:	46a2      	mov	sl, r4
    46e6:	46ab      	mov	fp, r5
    46e8:	bdf0      	pop	{r4, r5, r6, r7, pc}
    46ea:	0021      	movs	r1, r4
    46ec:	9801      	ldr	r0, [sp, #4]
    46ee:	f7fe fbe9 	bl	2ec4 <__swsetup_r>
    46f2:	2800      	cmp	r0, #0
    46f4:	d000      	beq.n	46f8 <__sfvwrite_r+0x84>
    46f6:	e13b      	b.n	4970 <__sfvwrite_r+0x2fc>
    46f8:	4652      	mov	r2, sl
    46fa:	89a3      	ldrh	r3, [r4, #12]
    46fc:	6812      	ldr	r2, [r2, #0]
    46fe:	4693      	mov	fp, r2
    4700:	079a      	lsls	r2, r3, #30
    4702:	d4cf      	bmi.n	46a4 <__sfvwrite_r+0x30>
    4704:	07da      	lsls	r2, r3, #31
    4706:	d562      	bpl.n	47ce <__sfvwrite_r+0x15a>
    4708:	2300      	movs	r3, #0
    470a:	2700      	movs	r7, #0
    470c:	4699      	mov	r9, r3
    470e:	001d      	movs	r5, r3
    4710:	9302      	str	r3, [sp, #8]
    4712:	2f00      	cmp	r7, #0
    4714:	d030      	beq.n	4778 <__sfvwrite_r+0x104>
    4716:	9b02      	ldr	r3, [sp, #8]
    4718:	2b00      	cmp	r3, #0
    471a:	d100      	bne.n	471e <__sfvwrite_r+0xaa>
    471c:	e0c3      	b.n	48a6 <__sfvwrite_r+0x232>
    471e:	002e      	movs	r6, r5
    4720:	42bd      	cmp	r5, r7
    4722:	d900      	bls.n	4726 <__sfvwrite_r+0xb2>
    4724:	003e      	movs	r6, r7
    4726:	6820      	ldr	r0, [r4, #0]
    4728:	6922      	ldr	r2, [r4, #16]
    472a:	46b0      	mov	r8, r6
    472c:	6963      	ldr	r3, [r4, #20]
    472e:	4290      	cmp	r0, r2
    4730:	d907      	bls.n	4742 <__sfvwrite_r+0xce>
    4732:	68a2      	ldr	r2, [r4, #8]
    4734:	4694      	mov	ip, r2
    4736:	449c      	add	ip, r3
    4738:	4662      	mov	r2, ip
    473a:	9203      	str	r2, [sp, #12]
    473c:	4566      	cmp	r6, ip
    473e:	dd00      	ble.n	4742 <__sfvwrite_r+0xce>
    4740:	e0ef      	b.n	4922 <__sfvwrite_r+0x2ae>
    4742:	429e      	cmp	r6, r3
    4744:	da00      	bge.n	4748 <__sfvwrite_r+0xd4>
    4746:	e092      	b.n	486e <__sfvwrite_r+0x1fa>
    4748:	464a      	mov	r2, r9
    474a:	69e1      	ldr	r1, [r4, #28]
    474c:	9801      	ldr	r0, [sp, #4]
    474e:	6a66      	ldr	r6, [r4, #36]	; 0x24
    4750:	47b0      	blx	r6
    4752:	4680      	mov	r8, r0
    4754:	2800      	cmp	r0, #0
    4756:	dd32      	ble.n	47be <__sfvwrite_r+0x14a>
    4758:	4643      	mov	r3, r8
    475a:	1aed      	subs	r5, r5, r3
    475c:	d100      	bne.n	4760 <__sfvwrite_r+0xec>
    475e:	e095      	b.n	488c <__sfvwrite_r+0x218>
    4760:	4643      	mov	r3, r8
    4762:	1aff      	subs	r7, r7, r3
    4764:	4653      	mov	r3, sl
    4766:	4642      	mov	r2, r8
    4768:	689b      	ldr	r3, [r3, #8]
    476a:	44c1      	add	r9, r8
    476c:	1a9b      	subs	r3, r3, r2
    476e:	4652      	mov	r2, sl
    4770:	6093      	str	r3, [r2, #8]
    4772:	d0b2      	beq.n	46da <__sfvwrite_r+0x66>
    4774:	2f00      	cmp	r7, #0
    4776:	d1ce      	bne.n	4716 <__sfvwrite_r+0xa2>
    4778:	465b      	mov	r3, fp
    477a:	681b      	ldr	r3, [r3, #0]
    477c:	4699      	mov	r9, r3
    477e:	465b      	mov	r3, fp
    4780:	685f      	ldr	r7, [r3, #4]
    4782:	2308      	movs	r3, #8
    4784:	469c      	mov	ip, r3
    4786:	2300      	movs	r3, #0
    4788:	44e3      	add	fp, ip
    478a:	9302      	str	r3, [sp, #8]
    478c:	e7c1      	b.n	4712 <__sfvwrite_r+0x9e>
    478e:	465b      	mov	r3, fp
    4790:	681e      	ldr	r6, [r3, #0]
    4792:	685d      	ldr	r5, [r3, #4]
    4794:	2308      	movs	r3, #8
    4796:	469c      	mov	ip, r3
    4798:	44e3      	add	fp, ip
    479a:	e787      	b.n	46ac <__sfvwrite_r+0x38>
    479c:	4b7a      	ldr	r3, [pc, #488]	; (4988 <__sfvwrite_r+0x314>)
    479e:	0030      	movs	r0, r6
    47a0:	429e      	cmp	r6, r3
    47a2:	d900      	bls.n	47a6 <__sfvwrite_r+0x132>
    47a4:	0018      	movs	r0, r3
    47a6:	4641      	mov	r1, r8
    47a8:	f7fc fb03 	bl	db2 <__aeabi_idiv>
    47ac:	4643      	mov	r3, r8
    47ae:	003a      	movs	r2, r7
    47b0:	4343      	muls	r3, r0
    47b2:	69e1      	ldr	r1, [r4, #28]
    47b4:	9801      	ldr	r0, [sp, #4]
    47b6:	6a65      	ldr	r5, [r4, #36]	; 0x24
    47b8:	47a8      	blx	r5
    47ba:	2800      	cmp	r0, #0
    47bc:	dc23      	bgt.n	4806 <__sfvwrite_r+0x192>
    47be:	230c      	movs	r3, #12
    47c0:	5ee2      	ldrsh	r2, [r4, r3]
    47c2:	2340      	movs	r3, #64	; 0x40
    47c4:	2001      	movs	r0, #1
    47c6:	4313      	orrs	r3, r2
    47c8:	81a3      	strh	r3, [r4, #12]
    47ca:	4240      	negs	r0, r0
    47cc:	e786      	b.n	46dc <__sfvwrite_r+0x68>
    47ce:	2700      	movs	r7, #0
    47d0:	2600      	movs	r6, #0
    47d2:	2e00      	cmp	r6, #0
    47d4:	d023      	beq.n	481e <__sfvwrite_r+0x1aa>
    47d6:	2280      	movs	r2, #128	; 0x80
    47d8:	0092      	lsls	r2, r2, #2
    47da:	68a5      	ldr	r5, [r4, #8]
    47dc:	4213      	tst	r3, r2
    47de:	d025      	beq.n	482c <__sfvwrite_r+0x1b8>
    47e0:	46a8      	mov	r8, r5
    47e2:	42ae      	cmp	r6, r5
    47e4:	d35b      	bcc.n	489e <__sfvwrite_r+0x22a>
    47e6:	2290      	movs	r2, #144	; 0x90
    47e8:	00d2      	lsls	r2, r2, #3
    47ea:	4213      	tst	r3, r2
    47ec:	d168      	bne.n	48c0 <__sfvwrite_r+0x24c>
    47ee:	6820      	ldr	r0, [r4, #0]
    47f0:	4642      	mov	r2, r8
    47f2:	0039      	movs	r1, r7
    47f4:	f000 f9ee 	bl	4bd4 <memmove>
    47f8:	0030      	movs	r0, r6
    47fa:	68a3      	ldr	r3, [r4, #8]
    47fc:	1b5d      	subs	r5, r3, r5
    47fe:	6823      	ldr	r3, [r4, #0]
    4800:	60a5      	str	r5, [r4, #8]
    4802:	4443      	add	r3, r8
    4804:	6023      	str	r3, [r4, #0]
    4806:	4653      	mov	r3, sl
    4808:	689b      	ldr	r3, [r3, #8]
    480a:	183f      	adds	r7, r7, r0
    480c:	1a36      	subs	r6, r6, r0
    480e:	1a18      	subs	r0, r3, r0
    4810:	4653      	mov	r3, sl
    4812:	6098      	str	r0, [r3, #8]
    4814:	d100      	bne.n	4818 <__sfvwrite_r+0x1a4>
    4816:	e760      	b.n	46da <__sfvwrite_r+0x66>
    4818:	89a3      	ldrh	r3, [r4, #12]
    481a:	2e00      	cmp	r6, #0
    481c:	d1db      	bne.n	47d6 <__sfvwrite_r+0x162>
    481e:	465a      	mov	r2, fp
    4820:	6817      	ldr	r7, [r2, #0]
    4822:	6856      	ldr	r6, [r2, #4]
    4824:	2208      	movs	r2, #8
    4826:	4694      	mov	ip, r2
    4828:	44e3      	add	fp, ip
    482a:	e7d2      	b.n	47d2 <__sfvwrite_r+0x15e>
    482c:	6820      	ldr	r0, [r4, #0]
    482e:	6923      	ldr	r3, [r4, #16]
    4830:	4298      	cmp	r0, r3
    4832:	d803      	bhi.n	483c <__sfvwrite_r+0x1c8>
    4834:	6963      	ldr	r3, [r4, #20]
    4836:	4698      	mov	r8, r3
    4838:	429e      	cmp	r6, r3
    483a:	d2af      	bcs.n	479c <__sfvwrite_r+0x128>
    483c:	42b5      	cmp	r5, r6
    483e:	d900      	bls.n	4842 <__sfvwrite_r+0x1ce>
    4840:	0035      	movs	r5, r6
    4842:	002a      	movs	r2, r5
    4844:	0039      	movs	r1, r7
    4846:	f000 f9c5 	bl	4bd4 <memmove>
    484a:	68a3      	ldr	r3, [r4, #8]
    484c:	6822      	ldr	r2, [r4, #0]
    484e:	1b5b      	subs	r3, r3, r5
    4850:	1952      	adds	r2, r2, r5
    4852:	60a3      	str	r3, [r4, #8]
    4854:	6022      	str	r2, [r4, #0]
    4856:	2b00      	cmp	r3, #0
    4858:	d001      	beq.n	485e <__sfvwrite_r+0x1ea>
    485a:	0028      	movs	r0, r5
    485c:	e7d3      	b.n	4806 <__sfvwrite_r+0x192>
    485e:	0021      	movs	r1, r4
    4860:	9801      	ldr	r0, [sp, #4]
    4862:	f7ff fc93 	bl	418c <_fflush_r>
    4866:	2800      	cmp	r0, #0
    4868:	d1a9      	bne.n	47be <__sfvwrite_r+0x14a>
    486a:	0028      	movs	r0, r5
    486c:	e7cb      	b.n	4806 <__sfvwrite_r+0x192>
    486e:	0032      	movs	r2, r6
    4870:	4649      	mov	r1, r9
    4872:	f000 f9af 	bl	4bd4 <memmove>
    4876:	68a3      	ldr	r3, [r4, #8]
    4878:	1b9b      	subs	r3, r3, r6
    487a:	60a3      	str	r3, [r4, #8]
    487c:	6823      	ldr	r3, [r4, #0]
    487e:	469c      	mov	ip, r3
    4880:	4643      	mov	r3, r8
    4882:	4466      	add	r6, ip
    4884:	6026      	str	r6, [r4, #0]
    4886:	1aed      	subs	r5, r5, r3
    4888:	d000      	beq.n	488c <__sfvwrite_r+0x218>
    488a:	e769      	b.n	4760 <__sfvwrite_r+0xec>
    488c:	0021      	movs	r1, r4
    488e:	9801      	ldr	r0, [sp, #4]
    4890:	f7ff fc7c 	bl	418c <_fflush_r>
    4894:	2800      	cmp	r0, #0
    4896:	d192      	bne.n	47be <__sfvwrite_r+0x14a>
    4898:	2300      	movs	r3, #0
    489a:	9302      	str	r3, [sp, #8]
    489c:	e760      	b.n	4760 <__sfvwrite_r+0xec>
    489e:	0035      	movs	r5, r6
    48a0:	6820      	ldr	r0, [r4, #0]
    48a2:	46b0      	mov	r8, r6
    48a4:	e7a4      	b.n	47f0 <__sfvwrite_r+0x17c>
    48a6:	003a      	movs	r2, r7
    48a8:	210a      	movs	r1, #10
    48aa:	4648      	mov	r0, r9
    48ac:	f000 f94a 	bl	4b44 <memchr>
    48b0:	2800      	cmp	r0, #0
    48b2:	d059      	beq.n	4968 <__sfvwrite_r+0x2f4>
    48b4:	464b      	mov	r3, r9
    48b6:	3001      	adds	r0, #1
    48b8:	1ac5      	subs	r5, r0, r3
    48ba:	2301      	movs	r3, #1
    48bc:	9302      	str	r3, [sp, #8]
    48be:	e72e      	b.n	471e <__sfvwrite_r+0xaa>
    48c0:	6921      	ldr	r1, [r4, #16]
    48c2:	6822      	ldr	r2, [r4, #0]
    48c4:	1a52      	subs	r2, r2, r1
    48c6:	4691      	mov	r9, r2
    48c8:	6962      	ldr	r2, [r4, #20]
    48ca:	0050      	lsls	r0, r2, #1
    48cc:	1882      	adds	r2, r0, r2
    48ce:	0fd0      	lsrs	r0, r2, #31
    48d0:	1882      	adds	r2, r0, r2
    48d2:	1052      	asrs	r2, r2, #1
    48d4:	4690      	mov	r8, r2
    48d6:	464a      	mov	r2, r9
    48d8:	1c50      	adds	r0, r2, #1
    48da:	1980      	adds	r0, r0, r6
    48dc:	4642      	mov	r2, r8
    48de:	4540      	cmp	r0, r8
    48e0:	d901      	bls.n	48e6 <__sfvwrite_r+0x272>
    48e2:	4680      	mov	r8, r0
    48e4:	0002      	movs	r2, r0
    48e6:	055b      	lsls	r3, r3, #21
    48e8:	d52d      	bpl.n	4946 <__sfvwrite_r+0x2d2>
    48ea:	0011      	movs	r1, r2
    48ec:	9801      	ldr	r0, [sp, #4]
    48ee:	f7fc fab5 	bl	e5c <_malloc_r>
    48f2:	1e05      	subs	r5, r0, #0
    48f4:	d03f      	beq.n	4976 <__sfvwrite_r+0x302>
    48f6:	464a      	mov	r2, r9
    48f8:	6921      	ldr	r1, [r4, #16]
    48fa:	f7fc fd59 	bl	13b0 <memcpy>
    48fe:	89a2      	ldrh	r2, [r4, #12]
    4900:	4b22      	ldr	r3, [pc, #136]	; (498c <__sfvwrite_r+0x318>)
    4902:	4013      	ands	r3, r2
    4904:	2280      	movs	r2, #128	; 0x80
    4906:	4313      	orrs	r3, r2
    4908:	81a3      	strh	r3, [r4, #12]
    490a:	4643      	mov	r3, r8
    490c:	0028      	movs	r0, r5
    490e:	464a      	mov	r2, r9
    4910:	4448      	add	r0, r9
    4912:	6163      	str	r3, [r4, #20]
    4914:	1a9b      	subs	r3, r3, r2
    4916:	6125      	str	r5, [r4, #16]
    4918:	6020      	str	r0, [r4, #0]
    491a:	0035      	movs	r5, r6
    491c:	60a3      	str	r3, [r4, #8]
    491e:	46b0      	mov	r8, r6
    4920:	e766      	b.n	47f0 <__sfvwrite_r+0x17c>
    4922:	4666      	mov	r6, ip
    4924:	4649      	mov	r1, r9
    4926:	f000 f955 	bl	4bd4 <memmove>
    492a:	46b4      	mov	ip, r6
    492c:	6823      	ldr	r3, [r4, #0]
    492e:	0021      	movs	r1, r4
    4930:	4463      	add	r3, ip
    4932:	6023      	str	r3, [r4, #0]
    4934:	9801      	ldr	r0, [sp, #4]
    4936:	f7ff fc29 	bl	418c <_fflush_r>
    493a:	2800      	cmp	r0, #0
    493c:	d000      	beq.n	4940 <__sfvwrite_r+0x2cc>
    493e:	e73e      	b.n	47be <__sfvwrite_r+0x14a>
    4940:	9b03      	ldr	r3, [sp, #12]
    4942:	4698      	mov	r8, r3
    4944:	e708      	b.n	4758 <__sfvwrite_r+0xe4>
    4946:	9801      	ldr	r0, [sp, #4]
    4948:	f000 fe52 	bl	55f0 <_realloc_r>
    494c:	1e05      	subs	r5, r0, #0
    494e:	d1dc      	bne.n	490a <__sfvwrite_r+0x296>
    4950:	9d01      	ldr	r5, [sp, #4]
    4952:	6921      	ldr	r1, [r4, #16]
    4954:	0028      	movs	r0, r5
    4956:	f7ff fdab 	bl	44b0 <_free_r>
    495a:	2280      	movs	r2, #128	; 0x80
    495c:	89a3      	ldrh	r3, [r4, #12]
    495e:	4393      	bics	r3, r2
    4960:	b21a      	sxth	r2, r3
    4962:	230c      	movs	r3, #12
    4964:	602b      	str	r3, [r5, #0]
    4966:	e72c      	b.n	47c2 <__sfvwrite_r+0x14e>
    4968:	2301      	movs	r3, #1
    496a:	1c7d      	adds	r5, r7, #1
    496c:	9302      	str	r3, [sp, #8]
    496e:	e6d6      	b.n	471e <__sfvwrite_r+0xaa>
    4970:	2001      	movs	r0, #1
    4972:	4240      	negs	r0, r0
    4974:	e6b2      	b.n	46dc <__sfvwrite_r+0x68>
    4976:	230c      	movs	r3, #12
    4978:	9a01      	ldr	r2, [sp, #4]
    497a:	6013      	str	r3, [r2, #0]
    497c:	230c      	movs	r3, #12
    497e:	5ee2      	ldrsh	r2, [r4, r3]
    4980:	e71f      	b.n	47c2 <__sfvwrite_r+0x14e>
    4982:	46c0      	nop			; (mov r8, r8)
    4984:	7ffffc00 	.word	0x7ffffc00
    4988:	7fffffff 	.word	0x7fffffff
    498c:	fffffb7f 	.word	0xfffffb7f

00004990 <_fwalk>:
    4990:	23b8      	movs	r3, #184	; 0xb8
    4992:	b5f0      	push	{r4, r5, r6, r7, lr}
    4994:	4647      	mov	r7, r8
    4996:	009b      	lsls	r3, r3, #2
    4998:	b480      	push	{r7}
    499a:	18c7      	adds	r7, r0, r3
    499c:	4688      	mov	r8, r1
    499e:	2600      	movs	r6, #0
    49a0:	2f00      	cmp	r7, #0
    49a2:	d013      	beq.n	49cc <_fwalk+0x3c>
    49a4:	687b      	ldr	r3, [r7, #4]
    49a6:	68bc      	ldr	r4, [r7, #8]
    49a8:	1e5d      	subs	r5, r3, #1
    49aa:	d40c      	bmi.n	49c6 <_fwalk+0x36>
    49ac:	89a3      	ldrh	r3, [r4, #12]
    49ae:	2b01      	cmp	r3, #1
    49b0:	d906      	bls.n	49c0 <_fwalk+0x30>
    49b2:	220e      	movs	r2, #14
    49b4:	5ea3      	ldrsh	r3, [r4, r2]
    49b6:	3301      	adds	r3, #1
    49b8:	d002      	beq.n	49c0 <_fwalk+0x30>
    49ba:	0020      	movs	r0, r4
    49bc:	47c0      	blx	r8
    49be:	4306      	orrs	r6, r0
    49c0:	3468      	adds	r4, #104	; 0x68
    49c2:	3d01      	subs	r5, #1
    49c4:	d2f2      	bcs.n	49ac <_fwalk+0x1c>
    49c6:	683f      	ldr	r7, [r7, #0]
    49c8:	2f00      	cmp	r7, #0
    49ca:	d1eb      	bne.n	49a4 <_fwalk+0x14>
    49cc:	0030      	movs	r0, r6
    49ce:	bc04      	pop	{r2}
    49d0:	4690      	mov	r8, r2
    49d2:	bdf0      	pop	{r4, r5, r6, r7, pc}

000049d4 <_fwalk_reent>:
    49d4:	b5f8      	push	{r3, r4, r5, r6, r7, lr}
    49d6:	464f      	mov	r7, r9
    49d8:	4646      	mov	r6, r8
    49da:	b4c0      	push	{r6, r7}
    49dc:	27b8      	movs	r7, #184	; 0xb8
    49de:	4680      	mov	r8, r0
    49e0:	00bf      	lsls	r7, r7, #2
    49e2:	4447      	add	r7, r8
    49e4:	4689      	mov	r9, r1
    49e6:	2600      	movs	r6, #0
    49e8:	2f00      	cmp	r7, #0
    49ea:	d014      	beq.n	4a16 <_fwalk_reent+0x42>
    49ec:	687b      	ldr	r3, [r7, #4]
    49ee:	68bc      	ldr	r4, [r7, #8]
    49f0:	1e5d      	subs	r5, r3, #1
    49f2:	d40d      	bmi.n	4a10 <_fwalk_reent+0x3c>
    49f4:	89a3      	ldrh	r3, [r4, #12]
    49f6:	2b01      	cmp	r3, #1
    49f8:	d907      	bls.n	4a0a <_fwalk_reent+0x36>
    49fa:	220e      	movs	r2, #14
    49fc:	5ea3      	ldrsh	r3, [r4, r2]
    49fe:	3301      	adds	r3, #1
    4a00:	d003      	beq.n	4a0a <_fwalk_reent+0x36>
    4a02:	0021      	movs	r1, r4
    4a04:	4640      	mov	r0, r8
    4a06:	47c8      	blx	r9
    4a08:	4306      	orrs	r6, r0
    4a0a:	3468      	adds	r4, #104	; 0x68
    4a0c:	3d01      	subs	r5, #1
    4a0e:	d2f1      	bcs.n	49f4 <_fwalk_reent+0x20>
    4a10:	683f      	ldr	r7, [r7, #0]
    4a12:	2f00      	cmp	r7, #0
    4a14:	d1ea      	bne.n	49ec <_fwalk_reent+0x18>
    4a16:	0030      	movs	r0, r6
    4a18:	bc0c      	pop	{r2, r3}
    4a1a:	4690      	mov	r8, r2
    4a1c:	4699      	mov	r9, r3
    4a1e:	bdf8      	pop	{r3, r4, r5, r6, r7, pc}

00004a20 <__localeconv_l>:
    4a20:	30f0      	adds	r0, #240	; 0xf0
    4a22:	4770      	bx	lr

00004a24 <_localeconv_r>:
    4a24:	4b04      	ldr	r3, [pc, #16]	; (4a38 <_localeconv_r+0x14>)
    4a26:	681b      	ldr	r3, [r3, #0]
    4a28:	6b58      	ldr	r0, [r3, #52]	; 0x34
    4a2a:	2800      	cmp	r0, #0
    4a2c:	d001      	beq.n	4a32 <_localeconv_r+0xe>
    4a2e:	30f0      	adds	r0, #240	; 0xf0
    4a30:	4770      	bx	lr
    4a32:	4802      	ldr	r0, [pc, #8]	; (4a3c <_localeconv_r+0x18>)
    4a34:	e7fb      	b.n	4a2e <_localeconv_r+0xa>
    4a36:	46c0      	nop			; (mov r8, r8)
    4a38:	10010d40 	.word	0x10010d40
    4a3c:	10010d44 	.word	0x10010d44

00004a40 <localeconv>:
    4a40:	4b04      	ldr	r3, [pc, #16]	; (4a54 <localeconv+0x14>)
    4a42:	681b      	ldr	r3, [r3, #0]
    4a44:	6b58      	ldr	r0, [r3, #52]	; 0x34
    4a46:	2800      	cmp	r0, #0
    4a48:	d001      	beq.n	4a4e <localeconv+0xe>
    4a4a:	30f0      	adds	r0, #240	; 0xf0
    4a4c:	4770      	bx	lr
    4a4e:	4802      	ldr	r0, [pc, #8]	; (4a58 <localeconv+0x18>)
    4a50:	e7fb      	b.n	4a4a <localeconv+0xa>
    4a52:	46c0      	nop			; (mov r8, r8)
    4a54:	10010d40 	.word	0x10010d40
    4a58:	10010d44 	.word	0x10010d44

00004a5c <__swhatbuf_r>:
    4a5c:	b570      	push	{r4, r5, r6, lr}
    4a5e:	000c      	movs	r4, r1
    4a60:	001e      	movs	r6, r3
    4a62:	230e      	movs	r3, #14
    4a64:	5ec9      	ldrsh	r1, [r1, r3]
    4a66:	b090      	sub	sp, #64	; 0x40
    4a68:	0015      	movs	r5, r2
    4a6a:	2900      	cmp	r1, #0
    4a6c:	db15      	blt.n	4a9a <__swhatbuf_r+0x3e>
    4a6e:	aa01      	add	r2, sp, #4
    4a70:	f002 f916 	bl	6ca0 <_fstat_r>
    4a74:	2800      	cmp	r0, #0
    4a76:	db10      	blt.n	4a9a <__swhatbuf_r+0x3e>
    4a78:	23f0      	movs	r3, #240	; 0xf0
    4a7a:	9a02      	ldr	r2, [sp, #8]
    4a7c:	021b      	lsls	r3, r3, #8
    4a7e:	4013      	ands	r3, r2
    4a80:	4a0d      	ldr	r2, [pc, #52]	; (4ab8 <__swhatbuf_r+0x5c>)
    4a82:	2080      	movs	r0, #128	; 0x80
    4a84:	4694      	mov	ip, r2
    4a86:	4463      	add	r3, ip
    4a88:	425a      	negs	r2, r3
    4a8a:	4153      	adcs	r3, r2
    4a8c:	6033      	str	r3, [r6, #0]
    4a8e:	2380      	movs	r3, #128	; 0x80
    4a90:	00db      	lsls	r3, r3, #3
    4a92:	602b      	str	r3, [r5, #0]
    4a94:	0100      	lsls	r0, r0, #4
    4a96:	b010      	add	sp, #64	; 0x40
    4a98:	bd70      	pop	{r4, r5, r6, pc}
    4a9a:	2300      	movs	r3, #0
    4a9c:	6033      	str	r3, [r6, #0]
    4a9e:	89a3      	ldrh	r3, [r4, #12]
    4aa0:	061b      	lsls	r3, r3, #24
    4aa2:	d503      	bpl.n	4aac <__swhatbuf_r+0x50>
    4aa4:	2340      	movs	r3, #64	; 0x40
    4aa6:	2000      	movs	r0, #0
    4aa8:	602b      	str	r3, [r5, #0]
    4aaa:	e7f4      	b.n	4a96 <__swhatbuf_r+0x3a>
    4aac:	2380      	movs	r3, #128	; 0x80
    4aae:	00db      	lsls	r3, r3, #3
    4ab0:	602b      	str	r3, [r5, #0]
    4ab2:	2000      	movs	r0, #0
    4ab4:	e7ef      	b.n	4a96 <__swhatbuf_r+0x3a>
    4ab6:	46c0      	nop			; (mov r8, r8)
    4ab8:	ffffe000 	.word	0xffffe000

00004abc <__smakebuf_r>:
    4abc:	b570      	push	{r4, r5, r6, lr}
    4abe:	898b      	ldrh	r3, [r1, #12]
    4ac0:	b082      	sub	sp, #8
    4ac2:	0005      	movs	r5, r0
    4ac4:	000c      	movs	r4, r1
    4ac6:	079b      	lsls	r3, r3, #30
    4ac8:	d507      	bpl.n	4ada <__smakebuf_r+0x1e>
    4aca:	0023      	movs	r3, r4
    4acc:	3343      	adds	r3, #67	; 0x43
    4ace:	6023      	str	r3, [r4, #0]
    4ad0:	6123      	str	r3, [r4, #16]
    4ad2:	2301      	movs	r3, #1
    4ad4:	6163      	str	r3, [r4, #20]
    4ad6:	b002      	add	sp, #8
    4ad8:	bd70      	pop	{r4, r5, r6, pc}
    4ada:	ab01      	add	r3, sp, #4
    4adc:	466a      	mov	r2, sp
    4ade:	f7ff ffbd 	bl	4a5c <__swhatbuf_r>
    4ae2:	9900      	ldr	r1, [sp, #0]
    4ae4:	0006      	movs	r6, r0
    4ae6:	0028      	movs	r0, r5
    4ae8:	f7fc f9b8 	bl	e5c <_malloc_r>
    4aec:	2800      	cmp	r0, #0
    4aee:	d01c      	beq.n	4b2a <__smakebuf_r+0x6e>
    4af0:	2280      	movs	r2, #128	; 0x80
    4af2:	4b13      	ldr	r3, [pc, #76]	; (4b40 <__smakebuf_r+0x84>)
    4af4:	63eb      	str	r3, [r5, #60]	; 0x3c
    4af6:	89a3      	ldrh	r3, [r4, #12]
    4af8:	6020      	str	r0, [r4, #0]
    4afa:	4313      	orrs	r3, r2
    4afc:	9a00      	ldr	r2, [sp, #0]
    4afe:	b21b      	sxth	r3, r3
    4b00:	6162      	str	r2, [r4, #20]
    4b02:	9a01      	ldr	r2, [sp, #4]
    4b04:	81a3      	strh	r3, [r4, #12]
    4b06:	6120      	str	r0, [r4, #16]
    4b08:	2a00      	cmp	r2, #0
    4b0a:	d102      	bne.n	4b12 <__smakebuf_r+0x56>
    4b0c:	4333      	orrs	r3, r6
    4b0e:	81a3      	strh	r3, [r4, #12]
    4b10:	e7e1      	b.n	4ad6 <__smakebuf_r+0x1a>
    4b12:	230e      	movs	r3, #14
    4b14:	5ee1      	ldrsh	r1, [r4, r3]
    4b16:	0028      	movs	r0, r5
    4b18:	f002 f8d6 	bl	6cc8 <_isatty_r>
    4b1c:	2800      	cmp	r0, #0
    4b1e:	d00c      	beq.n	4b3a <__smakebuf_r+0x7e>
    4b20:	2201      	movs	r2, #1
    4b22:	89a3      	ldrh	r3, [r4, #12]
    4b24:	431a      	orrs	r2, r3
    4b26:	b213      	sxth	r3, r2
    4b28:	e7f0      	b.n	4b0c <__smakebuf_r+0x50>
    4b2a:	220c      	movs	r2, #12
    4b2c:	5ea3      	ldrsh	r3, [r4, r2]
    4b2e:	059a      	lsls	r2, r3, #22
    4b30:	d4d1      	bmi.n	4ad6 <__smakebuf_r+0x1a>
    4b32:	2202      	movs	r2, #2
    4b34:	4313      	orrs	r3, r2
    4b36:	81a3      	strh	r3, [r4, #12]
    4b38:	e7c7      	b.n	4aca <__smakebuf_r+0xe>
    4b3a:	220c      	movs	r2, #12
    4b3c:	5ea3      	ldrsh	r3, [r4, r2]
    4b3e:	e7e5      	b.n	4b0c <__smakebuf_r+0x50>
    4b40:	000041e5 	.word	0x000041e5

00004b44 <memchr>:
    4b44:	b570      	push	{r4, r5, r6, lr}
    4b46:	b2cd      	uxtb	r5, r1
    4b48:	0783      	lsls	r3, r0, #30
    4b4a:	d03c      	beq.n	4bc6 <memchr+0x82>
    4b4c:	1e53      	subs	r3, r2, #1
    4b4e:	2a00      	cmp	r2, #0
    4b50:	d01f      	beq.n	4b92 <memchr+0x4e>
    4b52:	7802      	ldrb	r2, [r0, #0]
    4b54:	42aa      	cmp	r2, r5
    4b56:	d01d      	beq.n	4b94 <memchr+0x50>
    4b58:	2403      	movs	r4, #3
    4b5a:	e005      	b.n	4b68 <memchr+0x24>
    4b5c:	2b00      	cmp	r3, #0
    4b5e:	d018      	beq.n	4b92 <memchr+0x4e>
    4b60:	7802      	ldrb	r2, [r0, #0]
    4b62:	3b01      	subs	r3, #1
    4b64:	42aa      	cmp	r2, r5
    4b66:	d015      	beq.n	4b94 <memchr+0x50>
    4b68:	3001      	adds	r0, #1
    4b6a:	4220      	tst	r0, r4
    4b6c:	d1f6      	bne.n	4b5c <memchr+0x18>
    4b6e:	2b03      	cmp	r3, #3
    4b70:	d811      	bhi.n	4b96 <memchr+0x52>
    4b72:	2b00      	cmp	r3, #0
    4b74:	d00d      	beq.n	4b92 <memchr+0x4e>
    4b76:	7802      	ldrb	r2, [r0, #0]
    4b78:	42aa      	cmp	r2, r5
    4b7a:	d00b      	beq.n	4b94 <memchr+0x50>
    4b7c:	1c42      	adds	r2, r0, #1
    4b7e:	18c0      	adds	r0, r0, r3
    4b80:	e004      	b.n	4b8c <memchr+0x48>
    4b82:	3201      	adds	r2, #1
    4b84:	1e51      	subs	r1, r2, #1
    4b86:	7809      	ldrb	r1, [r1, #0]
    4b88:	42a9      	cmp	r1, r5
    4b8a:	d01a      	beq.n	4bc2 <memchr+0x7e>
    4b8c:	0013      	movs	r3, r2
    4b8e:	4290      	cmp	r0, r2
    4b90:	d1f7      	bne.n	4b82 <memchr+0x3e>
    4b92:	2000      	movs	r0, #0
    4b94:	bd70      	pop	{r4, r5, r6, pc}
    4b96:	22ff      	movs	r2, #255	; 0xff
    4b98:	020c      	lsls	r4, r1, #8
    4b9a:	0212      	lsls	r2, r2, #8
    4b9c:	4022      	ands	r2, r4
    4b9e:	24ff      	movs	r4, #255	; 0xff
    4ba0:	4021      	ands	r1, r4
    4ba2:	4311      	orrs	r1, r2
    4ba4:	040c      	lsls	r4, r1, #16
    4ba6:	4e09      	ldr	r6, [pc, #36]	; (4bcc <memchr+0x88>)
    4ba8:	430c      	orrs	r4, r1
    4baa:	6802      	ldr	r2, [r0, #0]
    4bac:	4908      	ldr	r1, [pc, #32]	; (4bd0 <memchr+0x8c>)
    4bae:	4062      	eors	r2, r4
    4bb0:	1851      	adds	r1, r2, r1
    4bb2:	4391      	bics	r1, r2
    4bb4:	4231      	tst	r1, r6
    4bb6:	d1de      	bne.n	4b76 <memchr+0x32>
    4bb8:	3b04      	subs	r3, #4
    4bba:	3004      	adds	r0, #4
    4bbc:	2b03      	cmp	r3, #3
    4bbe:	d8f4      	bhi.n	4baa <memchr+0x66>
    4bc0:	e7d7      	b.n	4b72 <memchr+0x2e>
    4bc2:	0018      	movs	r0, r3
    4bc4:	e7e6      	b.n	4b94 <memchr+0x50>
    4bc6:	0013      	movs	r3, r2
    4bc8:	e7d1      	b.n	4b6e <memchr+0x2a>
    4bca:	46c0      	nop			; (mov r8, r8)
    4bcc:	80808080 	.word	0x80808080
    4bd0:	fefefeff 	.word	0xfefefeff

00004bd4 <memmove>:
    4bd4:	b570      	push	{r4, r5, r6, lr}
    4bd6:	4288      	cmp	r0, r1
    4bd8:	d90b      	bls.n	4bf2 <memmove+0x1e>
    4bda:	188b      	adds	r3, r1, r2
    4bdc:	4298      	cmp	r0, r3
    4bde:	d208      	bcs.n	4bf2 <memmove+0x1e>
    4be0:	1a99      	subs	r1, r3, r2
    4be2:	1e53      	subs	r3, r2, #1
    4be4:	2a00      	cmp	r2, #0
    4be6:	d003      	beq.n	4bf0 <memmove+0x1c>
    4be8:	5cca      	ldrb	r2, [r1, r3]
    4bea:	54c2      	strb	r2, [r0, r3]
    4bec:	3b01      	subs	r3, #1
    4bee:	d2fb      	bcs.n	4be8 <memmove+0x14>
    4bf0:	bd70      	pop	{r4, r5, r6, pc}
    4bf2:	2a0f      	cmp	r2, #15
    4bf4:	d809      	bhi.n	4c0a <memmove+0x36>
    4bf6:	0005      	movs	r5, r0
    4bf8:	2a00      	cmp	r2, #0
    4bfa:	d0f9      	beq.n	4bf0 <memmove+0x1c>
    4bfc:	2300      	movs	r3, #0
    4bfe:	5ccc      	ldrb	r4, [r1, r3]
    4c00:	54ec      	strb	r4, [r5, r3]
    4c02:	3301      	adds	r3, #1
    4c04:	429a      	cmp	r2, r3
    4c06:	d1fa      	bne.n	4bfe <memmove+0x2a>
    4c08:	e7f2      	b.n	4bf0 <memmove+0x1c>
    4c0a:	000c      	movs	r4, r1
    4c0c:	4304      	orrs	r4, r0
    4c0e:	000b      	movs	r3, r1
    4c10:	07a4      	lsls	r4, r4, #30
    4c12:	d126      	bne.n	4c62 <memmove+0x8e>
    4c14:	0015      	movs	r5, r2
    4c16:	0004      	movs	r4, r0
    4c18:	3d10      	subs	r5, #16
    4c1a:	092d      	lsrs	r5, r5, #4
    4c1c:	3501      	adds	r5, #1
    4c1e:	012d      	lsls	r5, r5, #4
    4c20:	1949      	adds	r1, r1, r5
    4c22:	681e      	ldr	r6, [r3, #0]
    4c24:	6026      	str	r6, [r4, #0]
    4c26:	685e      	ldr	r6, [r3, #4]
    4c28:	6066      	str	r6, [r4, #4]
    4c2a:	689e      	ldr	r6, [r3, #8]
    4c2c:	60a6      	str	r6, [r4, #8]
    4c2e:	68de      	ldr	r6, [r3, #12]
    4c30:	3310      	adds	r3, #16
    4c32:	60e6      	str	r6, [r4, #12]
    4c34:	3410      	adds	r4, #16
    4c36:	4299      	cmp	r1, r3
    4c38:	d1f3      	bne.n	4c22 <memmove+0x4e>
    4c3a:	240f      	movs	r4, #15
    4c3c:	1945      	adds	r5, r0, r5
    4c3e:	4014      	ands	r4, r2
    4c40:	2c03      	cmp	r4, #3
    4c42:	d910      	bls.n	4c66 <memmove+0x92>
    4c44:	2300      	movs	r3, #0
    4c46:	3c04      	subs	r4, #4
    4c48:	08a4      	lsrs	r4, r4, #2
    4c4a:	3401      	adds	r4, #1
    4c4c:	00a4      	lsls	r4, r4, #2
    4c4e:	58ce      	ldr	r6, [r1, r3]
    4c50:	50ee      	str	r6, [r5, r3]
    4c52:	3304      	adds	r3, #4
    4c54:	429c      	cmp	r4, r3
    4c56:	d1fa      	bne.n	4c4e <memmove+0x7a>
    4c58:	2303      	movs	r3, #3
    4c5a:	192d      	adds	r5, r5, r4
    4c5c:	1909      	adds	r1, r1, r4
    4c5e:	401a      	ands	r2, r3
    4c60:	e7ca      	b.n	4bf8 <memmove+0x24>
    4c62:	0005      	movs	r5, r0
    4c64:	e7ca      	b.n	4bfc <memmove+0x28>
    4c66:	0022      	movs	r2, r4
    4c68:	e7c6      	b.n	4bf8 <memmove+0x24>
    4c6a:	46c0      	nop			; (mov r8, r8)

00004c6c <_Balloc>:
    4c6c:	6cc3      	ldr	r3, [r0, #76]	; 0x4c
    4c6e:	b570      	push	{r4, r5, r6, lr}
    4c70:	0004      	movs	r4, r0
    4c72:	000d      	movs	r5, r1
    4c74:	2b00      	cmp	r3, #0
    4c76:	d00a      	beq.n	4c8e <_Balloc+0x22>
    4c78:	00aa      	lsls	r2, r5, #2
    4c7a:	189b      	adds	r3, r3, r2
    4c7c:	6818      	ldr	r0, [r3, #0]
    4c7e:	2800      	cmp	r0, #0
    4c80:	d00e      	beq.n	4ca0 <_Balloc+0x34>
    4c82:	6802      	ldr	r2, [r0, #0]
    4c84:	601a      	str	r2, [r3, #0]
    4c86:	2300      	movs	r3, #0
    4c88:	6103      	str	r3, [r0, #16]
    4c8a:	60c3      	str	r3, [r0, #12]
    4c8c:	bd70      	pop	{r4, r5, r6, pc}
    4c8e:	2221      	movs	r2, #33	; 0x21
    4c90:	2104      	movs	r1, #4
    4c92:	f001 fef5 	bl	6a80 <_calloc_r>
    4c96:	64e0      	str	r0, [r4, #76]	; 0x4c
    4c98:	1e03      	subs	r3, r0, #0
    4c9a:	d1ed      	bne.n	4c78 <_Balloc+0xc>
    4c9c:	2000      	movs	r0, #0
    4c9e:	e7f5      	b.n	4c8c <_Balloc+0x20>
    4ca0:	2601      	movs	r6, #1
    4ca2:	40ae      	lsls	r6, r5
    4ca4:	1d72      	adds	r2, r6, #5
    4ca6:	0092      	lsls	r2, r2, #2
    4ca8:	2101      	movs	r1, #1
    4caa:	0020      	movs	r0, r4
    4cac:	f001 fee8 	bl	6a80 <_calloc_r>
    4cb0:	2800      	cmp	r0, #0
    4cb2:	d0f3      	beq.n	4c9c <_Balloc+0x30>
    4cb4:	6045      	str	r5, [r0, #4]
    4cb6:	6086      	str	r6, [r0, #8]
    4cb8:	e7e5      	b.n	4c86 <_Balloc+0x1a>
    4cba:	46c0      	nop			; (mov r8, r8)

00004cbc <_Bfree>:
    4cbc:	2900      	cmp	r1, #0
    4cbe:	d006      	beq.n	4cce <_Bfree+0x12>
    4cc0:	684b      	ldr	r3, [r1, #4]
    4cc2:	6cc2      	ldr	r2, [r0, #76]	; 0x4c
    4cc4:	009b      	lsls	r3, r3, #2
    4cc6:	18d3      	adds	r3, r2, r3
    4cc8:	681a      	ldr	r2, [r3, #0]
    4cca:	600a      	str	r2, [r1, #0]
    4ccc:	6019      	str	r1, [r3, #0]
    4cce:	4770      	bx	lr

00004cd0 <__multadd>:
    4cd0:	b5f8      	push	{r3, r4, r5, r6, r7, lr}
    4cd2:	464f      	mov	r7, r9
    4cd4:	4646      	mov	r6, r8
    4cd6:	b4c0      	push	{r6, r7}
    4cd8:	000f      	movs	r7, r1
    4cda:	4681      	mov	r9, r0
    4cdc:	000e      	movs	r6, r1
    4cde:	001c      	movs	r4, r3
    4ce0:	2000      	movs	r0, #0
    4ce2:	690d      	ldr	r5, [r1, #16]
    4ce4:	3714      	adds	r7, #20
    4ce6:	6839      	ldr	r1, [r7, #0]
    4ce8:	3001      	adds	r0, #1
    4cea:	040b      	lsls	r3, r1, #16
    4cec:	0c1b      	lsrs	r3, r3, #16
    4cee:	4353      	muls	r3, r2
    4cf0:	0c09      	lsrs	r1, r1, #16
    4cf2:	4351      	muls	r1, r2
    4cf4:	191b      	adds	r3, r3, r4
    4cf6:	0c1c      	lsrs	r4, r3, #16
    4cf8:	1909      	adds	r1, r1, r4
    4cfa:	041b      	lsls	r3, r3, #16
    4cfc:	0c0c      	lsrs	r4, r1, #16
    4cfe:	0c1b      	lsrs	r3, r3, #16
    4d00:	0409      	lsls	r1, r1, #16
    4d02:	18cb      	adds	r3, r1, r3
    4d04:	c708      	stmia	r7!, {r3}
    4d06:	4285      	cmp	r5, r0
    4d08:	dced      	bgt.n	4ce6 <__multadd+0x16>
    4d0a:	2c00      	cmp	r4, #0
    4d0c:	d008      	beq.n	4d20 <__multadd+0x50>
    4d0e:	68b3      	ldr	r3, [r6, #8]
    4d10:	429d      	cmp	r5, r3
    4d12:	da0a      	bge.n	4d2a <__multadd+0x5a>
    4d14:	1d2b      	adds	r3, r5, #4
    4d16:	009b      	lsls	r3, r3, #2
    4d18:	18f3      	adds	r3, r6, r3
    4d1a:	3501      	adds	r5, #1
    4d1c:	605c      	str	r4, [r3, #4]
    4d1e:	6135      	str	r5, [r6, #16]
    4d20:	0030      	movs	r0, r6
    4d22:	bc0c      	pop	{r2, r3}
    4d24:	4690      	mov	r8, r2
    4d26:	4699      	mov	r9, r3
    4d28:	bdf8      	pop	{r3, r4, r5, r6, r7, pc}
    4d2a:	6873      	ldr	r3, [r6, #4]
    4d2c:	4648      	mov	r0, r9
    4d2e:	1c59      	adds	r1, r3, #1
    4d30:	f7ff ff9c 	bl	4c6c <_Balloc>
    4d34:	0031      	movs	r1, r6
    4d36:	6933      	ldr	r3, [r6, #16]
    4d38:	4680      	mov	r8, r0
    4d3a:	1c9a      	adds	r2, r3, #2
    4d3c:	0092      	lsls	r2, r2, #2
    4d3e:	310c      	adds	r1, #12
    4d40:	300c      	adds	r0, #12
    4d42:	f7fc fb35 	bl	13b0 <memcpy>
    4d46:	464a      	mov	r2, r9
    4d48:	6873      	ldr	r3, [r6, #4]
    4d4a:	6cd2      	ldr	r2, [r2, #76]	; 0x4c
    4d4c:	009b      	lsls	r3, r3, #2
    4d4e:	18d3      	adds	r3, r2, r3
    4d50:	681a      	ldr	r2, [r3, #0]
    4d52:	6032      	str	r2, [r6, #0]
    4d54:	601e      	str	r6, [r3, #0]
    4d56:	4646      	mov	r6, r8
    4d58:	e7dc      	b.n	4d14 <__multadd+0x44>
    4d5a:	46c0      	nop			; (mov r8, r8)

00004d5c <__s2b>:
    4d5c:	b5f8      	push	{r3, r4, r5, r6, r7, lr}
    4d5e:	464f      	mov	r7, r9
    4d60:	4646      	mov	r6, r8
    4d62:	0005      	movs	r5, r0
    4d64:	0018      	movs	r0, r3
    4d66:	b4c0      	push	{r6, r7}
    4d68:	000c      	movs	r4, r1
    4d6a:	3008      	adds	r0, #8
    4d6c:	2109      	movs	r1, #9
    4d6e:	0017      	movs	r7, r2
    4d70:	4698      	mov	r8, r3
    4d72:	f7fc f81e 	bl	db2 <__aeabi_idiv>
    4d76:	2801      	cmp	r0, #1
    4d78:	dd36      	ble.n	4de8 <__s2b+0x8c>
    4d7a:	2201      	movs	r2, #1
    4d7c:	2100      	movs	r1, #0
    4d7e:	0052      	lsls	r2, r2, #1
    4d80:	3101      	adds	r1, #1
    4d82:	4290      	cmp	r0, r2
    4d84:	dcfb      	bgt.n	4d7e <__s2b+0x22>
    4d86:	0028      	movs	r0, r5
    4d88:	f7ff ff70 	bl	4c6c <_Balloc>
    4d8c:	9b08      	ldr	r3, [sp, #32]
    4d8e:	6143      	str	r3, [r0, #20]
    4d90:	2301      	movs	r3, #1
    4d92:	6103      	str	r3, [r0, #16]
    4d94:	2f09      	cmp	r7, #9
    4d96:	dd24      	ble.n	4de2 <__s2b+0x86>
    4d98:	3308      	adds	r3, #8
    4d9a:	4699      	mov	r9, r3
    4d9c:	44a1      	add	r9, r4
    4d9e:	464e      	mov	r6, r9
    4da0:	19e4      	adds	r4, r4, r7
    4da2:	7833      	ldrb	r3, [r6, #0]
    4da4:	0001      	movs	r1, r0
    4da6:	3b30      	subs	r3, #48	; 0x30
    4da8:	220a      	movs	r2, #10
    4daa:	0028      	movs	r0, r5
    4dac:	3601      	adds	r6, #1
    4dae:	f7ff ff8f 	bl	4cd0 <__multadd>
    4db2:	42a6      	cmp	r6, r4
    4db4:	d1f5      	bne.n	4da2 <__s2b+0x46>
    4db6:	464b      	mov	r3, r9
    4db8:	19dc      	adds	r4, r3, r7
    4dba:	3c08      	subs	r4, #8
    4dbc:	45b8      	cmp	r8, r7
    4dbe:	dd0c      	ble.n	4dda <__s2b+0x7e>
    4dc0:	4643      	mov	r3, r8
    4dc2:	1bde      	subs	r6, r3, r7
    4dc4:	19a6      	adds	r6, r4, r6
    4dc6:	7823      	ldrb	r3, [r4, #0]
    4dc8:	0001      	movs	r1, r0
    4dca:	3b30      	subs	r3, #48	; 0x30
    4dcc:	220a      	movs	r2, #10
    4dce:	0028      	movs	r0, r5
    4dd0:	3401      	adds	r4, #1
    4dd2:	f7ff ff7d 	bl	4cd0 <__multadd>
    4dd6:	42b4      	cmp	r4, r6
    4dd8:	d1f5      	bne.n	4dc6 <__s2b+0x6a>
    4dda:	bc0c      	pop	{r2, r3}
    4ddc:	4690      	mov	r8, r2
    4dde:	4699      	mov	r9, r3
    4de0:	bdf8      	pop	{r3, r4, r5, r6, r7, pc}
    4de2:	340a      	adds	r4, #10
    4de4:	2709      	movs	r7, #9
    4de6:	e7e9      	b.n	4dbc <__s2b+0x60>
    4de8:	2100      	movs	r1, #0
    4dea:	e7cc      	b.n	4d86 <__s2b+0x2a>

00004dec <__hi0bits>:
    4dec:	0003      	movs	r3, r0
    4dee:	0c01      	lsrs	r1, r0, #16
    4df0:	2200      	movs	r2, #0
    4df2:	2900      	cmp	r1, #0
    4df4:	d101      	bne.n	4dfa <__hi0bits+0xe>
    4df6:	0403      	lsls	r3, r0, #16
    4df8:	3210      	adds	r2, #16
    4dfa:	0e19      	lsrs	r1, r3, #24
    4dfc:	d101      	bne.n	4e02 <__hi0bits+0x16>
    4dfe:	3208      	adds	r2, #8
    4e00:	021b      	lsls	r3, r3, #8
    4e02:	0f19      	lsrs	r1, r3, #28
    4e04:	d101      	bne.n	4e0a <__hi0bits+0x1e>
    4e06:	3204      	adds	r2, #4
    4e08:	011b      	lsls	r3, r3, #4
    4e0a:	0f99      	lsrs	r1, r3, #30
    4e0c:	d101      	bne.n	4e12 <__hi0bits+0x26>
    4e0e:	3202      	adds	r2, #2
    4e10:	009b      	lsls	r3, r3, #2
    4e12:	2b00      	cmp	r3, #0
    4e14:	db05      	blt.n	4e22 <__hi0bits+0x36>
    4e16:	2020      	movs	r0, #32
    4e18:	005b      	lsls	r3, r3, #1
    4e1a:	d400      	bmi.n	4e1e <__hi0bits+0x32>
    4e1c:	4770      	bx	lr
    4e1e:	1c50      	adds	r0, r2, #1
    4e20:	e7fc      	b.n	4e1c <__hi0bits+0x30>
    4e22:	0010      	movs	r0, r2
    4e24:	e7fa      	b.n	4e1c <__hi0bits+0x30>
    4e26:	46c0      	nop			; (mov r8, r8)

00004e28 <__lo0bits>:
    4e28:	6803      	ldr	r3, [r0, #0]
    4e2a:	0001      	movs	r1, r0
    4e2c:	075a      	lsls	r2, r3, #29
    4e2e:	d008      	beq.n	4e42 <__lo0bits+0x1a>
    4e30:	2000      	movs	r0, #0
    4e32:	07da      	lsls	r2, r3, #31
    4e34:	d404      	bmi.n	4e40 <__lo0bits+0x18>
    4e36:	079a      	lsls	r2, r3, #30
    4e38:	d420      	bmi.n	4e7c <__lo0bits+0x54>
    4e3a:	2002      	movs	r0, #2
    4e3c:	089b      	lsrs	r3, r3, #2
    4e3e:	600b      	str	r3, [r1, #0]
    4e40:	4770      	bx	lr
    4e42:	0418      	lsls	r0, r3, #16
    4e44:	2200      	movs	r2, #0
    4e46:	2800      	cmp	r0, #0
    4e48:	d101      	bne.n	4e4e <__lo0bits+0x26>
    4e4a:	0c1b      	lsrs	r3, r3, #16
    4e4c:	3210      	adds	r2, #16
    4e4e:	20ff      	movs	r0, #255	; 0xff
    4e50:	4218      	tst	r0, r3
    4e52:	d101      	bne.n	4e58 <__lo0bits+0x30>
    4e54:	3208      	adds	r2, #8
    4e56:	0a1b      	lsrs	r3, r3, #8
    4e58:	0718      	lsls	r0, r3, #28
    4e5a:	d101      	bne.n	4e60 <__lo0bits+0x38>
    4e5c:	3204      	adds	r2, #4
    4e5e:	091b      	lsrs	r3, r3, #4
    4e60:	0798      	lsls	r0, r3, #30
    4e62:	d101      	bne.n	4e68 <__lo0bits+0x40>
    4e64:	3202      	adds	r2, #2
    4e66:	089b      	lsrs	r3, r3, #2
    4e68:	07d8      	lsls	r0, r3, #31
    4e6a:	d404      	bmi.n	4e76 <__lo0bits+0x4e>
    4e6c:	085b      	lsrs	r3, r3, #1
    4e6e:	2020      	movs	r0, #32
    4e70:	2b00      	cmp	r3, #0
    4e72:	d0e5      	beq.n	4e40 <__lo0bits+0x18>
    4e74:	3201      	adds	r2, #1
    4e76:	600b      	str	r3, [r1, #0]
    4e78:	0010      	movs	r0, r2
    4e7a:	e7e1      	b.n	4e40 <__lo0bits+0x18>
    4e7c:	085b      	lsrs	r3, r3, #1
    4e7e:	600b      	str	r3, [r1, #0]
    4e80:	3001      	adds	r0, #1
    4e82:	e7dd      	b.n	4e40 <__lo0bits+0x18>

00004e84 <__i2b>:
    4e84:	b510      	push	{r4, lr}
    4e86:	000c      	movs	r4, r1
    4e88:	2101      	movs	r1, #1
    4e8a:	f7ff feef 	bl	4c6c <_Balloc>
    4e8e:	2301      	movs	r3, #1
    4e90:	6144      	str	r4, [r0, #20]
    4e92:	6103      	str	r3, [r0, #16]
    4e94:	bd10      	pop	{r4, pc}
    4e96:	46c0      	nop			; (mov r8, r8)

00004e98 <__multiply>:
    4e98:	b5f0      	push	{r4, r5, r6, r7, lr}
    4e9a:	465f      	mov	r7, fp
    4e9c:	4656      	mov	r6, sl
    4e9e:	464d      	mov	r5, r9
    4ea0:	4644      	mov	r4, r8
    4ea2:	b4f0      	push	{r4, r5, r6, r7}
    4ea4:	690e      	ldr	r6, [r1, #16]
    4ea6:	6914      	ldr	r4, [r2, #16]
    4ea8:	b085      	sub	sp, #20
    4eaa:	000f      	movs	r7, r1
    4eac:	0015      	movs	r5, r2
    4eae:	42a6      	cmp	r6, r4
    4eb0:	da04      	bge.n	4ebc <__multiply+0x24>
    4eb2:	0033      	movs	r3, r6
    4eb4:	0017      	movs	r7, r2
    4eb6:	0026      	movs	r6, r4
    4eb8:	000d      	movs	r5, r1
    4eba:	001c      	movs	r4, r3
    4ebc:	1933      	adds	r3, r6, r4
    4ebe:	4698      	mov	r8, r3
    4ec0:	68bb      	ldr	r3, [r7, #8]
    4ec2:	6879      	ldr	r1, [r7, #4]
    4ec4:	4598      	cmp	r8, r3
    4ec6:	dd00      	ble.n	4eca <__multiply+0x32>
    4ec8:	3101      	adds	r1, #1
    4eca:	f7ff fecf 	bl	4c6c <_Balloc>
    4ece:	2214      	movs	r2, #20
    4ed0:	0003      	movs	r3, r0
    4ed2:	4694      	mov	ip, r2
    4ed4:	4463      	add	r3, ip
    4ed6:	469b      	mov	fp, r3
    4ed8:	4643      	mov	r3, r8
    4eda:	009b      	lsls	r3, r3, #2
    4edc:	445b      	add	r3, fp
    4ede:	0019      	movs	r1, r3
    4ee0:	9302      	str	r3, [sp, #8]
    4ee2:	9003      	str	r0, [sp, #12]
    4ee4:	465b      	mov	r3, fp
    4ee6:	2200      	movs	r2, #0
    4ee8:	458b      	cmp	fp, r1
    4eea:	d203      	bcs.n	4ef4 <__multiply+0x5c>
    4eec:	9902      	ldr	r1, [sp, #8]
    4eee:	c304      	stmia	r3!, {r2}
    4ef0:	4299      	cmp	r1, r3
    4ef2:	d8fc      	bhi.n	4eee <__multiply+0x56>
    4ef4:	2314      	movs	r3, #20
    4ef6:	00a4      	lsls	r4, r4, #2
    4ef8:	469a      	mov	sl, r3
    4efa:	3714      	adds	r7, #20
    4efc:	0023      	movs	r3, r4
    4efe:	46bc      	mov	ip, r7
    4f00:	44aa      	add	sl, r5
    4f02:	00b6      	lsls	r6, r6, #2
    4f04:	4453      	add	r3, sl
    4f06:	9700      	str	r7, [sp, #0]
    4f08:	44b4      	add	ip, r6
    4f0a:	9301      	str	r3, [sp, #4]
    4f0c:	459a      	cmp	sl, r3
    4f0e:	d253      	bcs.n	4fb8 <__multiply+0x120>
    4f10:	4653      	mov	r3, sl
    4f12:	681b      	ldr	r3, [r3, #0]
    4f14:	041e      	lsls	r6, r3, #16
    4f16:	0c36      	lsrs	r6, r6, #16
    4f18:	d021      	beq.n	4f5e <__multiply+0xc6>
    4f1a:	465c      	mov	r4, fp
    4f1c:	2700      	movs	r7, #0
    4f1e:	4661      	mov	r1, ip
    4f20:	9d00      	ldr	r5, [sp, #0]
    4f22:	cd04      	ldmia	r5!, {r2}
    4f24:	0020      	movs	r0, r4
    4f26:	0413      	lsls	r3, r2, #16
    4f28:	0c1b      	lsrs	r3, r3, #16
    4f2a:	4373      	muls	r3, r6
    4f2c:	4699      	mov	r9, r3
    4f2e:	6823      	ldr	r3, [r4, #0]
    4f30:	041b      	lsls	r3, r3, #16
    4f32:	0c1b      	lsrs	r3, r3, #16
    4f34:	444b      	add	r3, r9
    4f36:	19db      	adds	r3, r3, r7
    4f38:	0c17      	lsrs	r7, r2, #16
    4f3a:	4377      	muls	r7, r6
    4f3c:	6822      	ldr	r2, [r4, #0]
    4f3e:	0c12      	lsrs	r2, r2, #16
    4f40:	18ba      	adds	r2, r7, r2
    4f42:	0c1f      	lsrs	r7, r3, #16
    4f44:	19d2      	adds	r2, r2, r7
    4f46:	041b      	lsls	r3, r3, #16
    4f48:	0c17      	lsrs	r7, r2, #16
    4f4a:	0c1b      	lsrs	r3, r3, #16
    4f4c:	0412      	lsls	r2, r2, #16
    4f4e:	4313      	orrs	r3, r2
    4f50:	c408      	stmia	r4!, {r3}
    4f52:	42a9      	cmp	r1, r5
    4f54:	d8e5      	bhi.n	4f22 <__multiply+0x8a>
    4f56:	4653      	mov	r3, sl
    4f58:	468c      	mov	ip, r1
    4f5a:	6047      	str	r7, [r0, #4]
    4f5c:	681b      	ldr	r3, [r3, #0]
    4f5e:	0c1e      	lsrs	r6, r3, #16
    4f60:	d023      	beq.n	4faa <__multiply+0x112>
    4f62:	465b      	mov	r3, fp
    4f64:	2200      	movs	r2, #0
    4f66:	681b      	ldr	r3, [r3, #0]
    4f68:	4658      	mov	r0, fp
    4f6a:	001d      	movs	r5, r3
    4f6c:	0011      	movs	r1, r2
    4f6e:	4667      	mov	r7, ip
    4f70:	9c00      	ldr	r4, [sp, #0]
    4f72:	8822      	ldrh	r2, [r4, #0]
    4f74:	0c2d      	lsrs	r5, r5, #16
    4f76:	4372      	muls	r2, r6
    4f78:	1955      	adds	r5, r2, r5
    4f7a:	186a      	adds	r2, r5, r1
    4f7c:	041b      	lsls	r3, r3, #16
    4f7e:	0411      	lsls	r1, r2, #16
    4f80:	0c1b      	lsrs	r3, r3, #16
    4f82:	430b      	orrs	r3, r1
    4f84:	6003      	str	r3, [r0, #0]
    4f86:	cc08      	ldmia	r4!, {r3}
    4f88:	6845      	ldr	r5, [r0, #4]
    4f8a:	0c1b      	lsrs	r3, r3, #16
    4f8c:	4373      	muls	r3, r6
    4f8e:	0429      	lsls	r1, r5, #16
    4f90:	0c09      	lsrs	r1, r1, #16
    4f92:	1859      	adds	r1, r3, r1
    4f94:	0c13      	lsrs	r3, r2, #16
    4f96:	18cb      	adds	r3, r1, r3
    4f98:	4684      	mov	ip, r0
    4f9a:	0c19      	lsrs	r1, r3, #16
    4f9c:	3004      	adds	r0, #4
    4f9e:	42a7      	cmp	r7, r4
    4fa0:	d8e7      	bhi.n	4f72 <__multiply+0xda>
    4fa2:	003a      	movs	r2, r7
    4fa4:	4667      	mov	r7, ip
    4fa6:	4694      	mov	ip, r2
    4fa8:	607b      	str	r3, [r7, #4]
    4faa:	2304      	movs	r3, #4
    4fac:	4699      	mov	r9, r3
    4fae:	9b01      	ldr	r3, [sp, #4]
    4fb0:	44ca      	add	sl, r9
    4fb2:	44cb      	add	fp, r9
    4fb4:	4553      	cmp	r3, sl
    4fb6:	d8ab      	bhi.n	4f10 <__multiply+0x78>
    4fb8:	4643      	mov	r3, r8
    4fba:	2b00      	cmp	r3, #0
    4fbc:	dd0e      	ble.n	4fdc <__multiply+0x144>
    4fbe:	9b02      	ldr	r3, [sp, #8]
    4fc0:	3b04      	subs	r3, #4
    4fc2:	681a      	ldr	r2, [r3, #0]
    4fc4:	2a00      	cmp	r2, #0
    4fc6:	d109      	bne.n	4fdc <__multiply+0x144>
    4fc8:	4642      	mov	r2, r8
    4fca:	e003      	b.n	4fd4 <__multiply+0x13c>
    4fcc:	3b04      	subs	r3, #4
    4fce:	6819      	ldr	r1, [r3, #0]
    4fd0:	2900      	cmp	r1, #0
    4fd2:	d102      	bne.n	4fda <__multiply+0x142>
    4fd4:	3a01      	subs	r2, #1
    4fd6:	2a00      	cmp	r2, #0
    4fd8:	d1f8      	bne.n	4fcc <__multiply+0x134>
    4fda:	4690      	mov	r8, r2
    4fdc:	9b03      	ldr	r3, [sp, #12]
    4fde:	4642      	mov	r2, r8
    4fe0:	0018      	movs	r0, r3
    4fe2:	611a      	str	r2, [r3, #16]
    4fe4:	b005      	add	sp, #20
    4fe6:	bc3c      	pop	{r2, r3, r4, r5}
    4fe8:	4690      	mov	r8, r2
    4fea:	4699      	mov	r9, r3
    4fec:	46a2      	mov	sl, r4
    4fee:	46ab      	mov	fp, r5
    4ff0:	bdf0      	pop	{r4, r5, r6, r7, pc}
    4ff2:	46c0      	nop			; (mov r8, r8)

00004ff4 <__pow5mult>:
    4ff4:	b5f8      	push	{r3, r4, r5, r6, r7, lr}
    4ff6:	4646      	mov	r6, r8
    4ff8:	464f      	mov	r7, r9
    4ffa:	2303      	movs	r3, #3
    4ffc:	b4c0      	push	{r6, r7}
    4ffe:	4680      	mov	r8, r0
    5000:	000e      	movs	r6, r1
    5002:	0014      	movs	r4, r2
    5004:	4013      	ands	r3, r2
    5006:	d137      	bne.n	5078 <__pow5mult+0x84>
    5008:	10a4      	asrs	r4, r4, #2
    500a:	d024      	beq.n	5056 <__pow5mult+0x62>
    500c:	4643      	mov	r3, r8
    500e:	6c9d      	ldr	r5, [r3, #72]	; 0x48
    5010:	2d00      	cmp	r5, #0
    5012:	d03a      	beq.n	508a <__pow5mult+0x96>
    5014:	2300      	movs	r3, #0
    5016:	2701      	movs	r7, #1
    5018:	4699      	mov	r9, r3
    501a:	4227      	tst	r7, r4
    501c:	d107      	bne.n	502e <__pow5mult+0x3a>
    501e:	1064      	asrs	r4, r4, #1
    5020:	d019      	beq.n	5056 <__pow5mult+0x62>
    5022:	6828      	ldr	r0, [r5, #0]
    5024:	2800      	cmp	r0, #0
    5026:	d01b      	beq.n	5060 <__pow5mult+0x6c>
    5028:	0005      	movs	r5, r0
    502a:	4227      	tst	r7, r4
    502c:	d0f7      	beq.n	501e <__pow5mult+0x2a>
    502e:	002a      	movs	r2, r5
    5030:	0031      	movs	r1, r6
    5032:	4640      	mov	r0, r8
    5034:	f7ff ff30 	bl	4e98 <__multiply>
    5038:	2e00      	cmp	r6, #0
    503a:	d01b      	beq.n	5074 <__pow5mult+0x80>
    503c:	4642      	mov	r2, r8
    503e:	6cd2      	ldr	r2, [r2, #76]	; 0x4c
    5040:	6873      	ldr	r3, [r6, #4]
    5042:	4694      	mov	ip, r2
    5044:	009b      	lsls	r3, r3, #2
    5046:	4463      	add	r3, ip
    5048:	681a      	ldr	r2, [r3, #0]
    504a:	1064      	asrs	r4, r4, #1
    504c:	6032      	str	r2, [r6, #0]
    504e:	601e      	str	r6, [r3, #0]
    5050:	0006      	movs	r6, r0
    5052:	2c00      	cmp	r4, #0
    5054:	d1e5      	bne.n	5022 <__pow5mult+0x2e>
    5056:	0030      	movs	r0, r6
    5058:	bc0c      	pop	{r2, r3}
    505a:	4690      	mov	r8, r2
    505c:	4699      	mov	r9, r3
    505e:	bdf8      	pop	{r3, r4, r5, r6, r7, pc}
    5060:	002a      	movs	r2, r5
    5062:	0029      	movs	r1, r5
    5064:	4640      	mov	r0, r8
    5066:	f7ff ff17 	bl	4e98 <__multiply>
    506a:	464b      	mov	r3, r9
    506c:	6028      	str	r0, [r5, #0]
    506e:	6003      	str	r3, [r0, #0]
    5070:	0005      	movs	r5, r0
    5072:	e7da      	b.n	502a <__pow5mult+0x36>
    5074:	0006      	movs	r6, r0
    5076:	e7d2      	b.n	501e <__pow5mult+0x2a>
    5078:	4a0b      	ldr	r2, [pc, #44]	; (50a8 <__pow5mult+0xb4>)
    507a:	3b01      	subs	r3, #1
    507c:	009b      	lsls	r3, r3, #2
    507e:	589a      	ldr	r2, [r3, r2]
    5080:	2300      	movs	r3, #0
    5082:	f7ff fe25 	bl	4cd0 <__multadd>
    5086:	0006      	movs	r6, r0
    5088:	e7be      	b.n	5008 <__pow5mult+0x14>
    508a:	2101      	movs	r1, #1
    508c:	4640      	mov	r0, r8
    508e:	f7ff fded 	bl	4c6c <_Balloc>
    5092:	4b06      	ldr	r3, [pc, #24]	; (50ac <__pow5mult+0xb8>)
    5094:	0005      	movs	r5, r0
    5096:	6143      	str	r3, [r0, #20]
    5098:	2301      	movs	r3, #1
    509a:	6103      	str	r3, [r0, #16]
    509c:	4643      	mov	r3, r8
    509e:	6498      	str	r0, [r3, #72]	; 0x48
    50a0:	2300      	movs	r3, #0
    50a2:	6003      	str	r3, [r0, #0]
    50a4:	e7b6      	b.n	5014 <__pow5mult+0x20>
    50a6:	46c0      	nop			; (mov r8, r8)
    50a8:	000092a0 	.word	0x000092a0
    50ac:	00000271 	.word	0x00000271

000050b0 <__lshift>:
    50b0:	b5f0      	push	{r4, r5, r6, r7, lr}
    50b2:	464d      	mov	r5, r9
    50b4:	4644      	mov	r4, r8
    50b6:	465f      	mov	r7, fp
    50b8:	4656      	mov	r6, sl
    50ba:	b4f0      	push	{r4, r5, r6, r7}
    50bc:	000e      	movs	r6, r1
    50be:	6933      	ldr	r3, [r6, #16]
    50c0:	1157      	asrs	r7, r2, #5
    50c2:	4699      	mov	r9, r3
    50c4:	44b9      	add	r9, r7
    50c6:	464b      	mov	r3, r9
    50c8:	1c5d      	adds	r5, r3, #1
    50ca:	68b3      	ldr	r3, [r6, #8]
    50cc:	b083      	sub	sp, #12
    50ce:	4680      	mov	r8, r0
    50d0:	0014      	movs	r4, r2
    50d2:	6849      	ldr	r1, [r1, #4]
    50d4:	429d      	cmp	r5, r3
    50d6:	dd03      	ble.n	50e0 <__lshift+0x30>
    50d8:	3101      	adds	r1, #1
    50da:	005b      	lsls	r3, r3, #1
    50dc:	429d      	cmp	r5, r3
    50de:	dcfb      	bgt.n	50d8 <__lshift+0x28>
    50e0:	4640      	mov	r0, r8
    50e2:	f7ff fdc3 	bl	4c6c <_Balloc>
    50e6:	0003      	movs	r3, r0
    50e8:	4682      	mov	sl, r0
    50ea:	3314      	adds	r3, #20
    50ec:	2f00      	cmp	r7, #0
    50ee:	dd06      	ble.n	50fe <__lshift+0x4e>
    50f0:	00b9      	lsls	r1, r7, #2
    50f2:	001a      	movs	r2, r3
    50f4:	185b      	adds	r3, r3, r1
    50f6:	2100      	movs	r1, #0
    50f8:	c202      	stmia	r2!, {r1}
    50fa:	4293      	cmp	r3, r2
    50fc:	d1fc      	bne.n	50f8 <__lshift+0x48>
    50fe:	0031      	movs	r1, r6
    5100:	201f      	movs	r0, #31
    5102:	6932      	ldr	r2, [r6, #16]
    5104:	3114      	adds	r1, #20
    5106:	0092      	lsls	r2, r2, #2
    5108:	188a      	adds	r2, r1, r2
    510a:	4020      	ands	r0, r4
    510c:	d026      	beq.n	515c <__lshift+0xac>
    510e:	2420      	movs	r4, #32
    5110:	1a24      	subs	r4, r4, r0
    5112:	46a4      	mov	ip, r4
    5114:	2400      	movs	r4, #0
    5116:	680f      	ldr	r7, [r1, #0]
    5118:	9301      	str	r3, [sp, #4]
    511a:	4087      	lsls	r7, r0
    511c:	433c      	orrs	r4, r7
    511e:	4667      	mov	r7, ip
    5120:	c310      	stmia	r3!, {r4}
    5122:	c910      	ldmia	r1!, {r4}
    5124:	40fc      	lsrs	r4, r7
    5126:	428a      	cmp	r2, r1
    5128:	d8f5      	bhi.n	5116 <__lshift+0x66>
    512a:	9b01      	ldr	r3, [sp, #4]
    512c:	605c      	str	r4, [r3, #4]
    512e:	2c00      	cmp	r4, #0
    5130:	d001      	beq.n	5136 <__lshift+0x86>
    5132:	464d      	mov	r5, r9
    5134:	3502      	adds	r5, #2
    5136:	4653      	mov	r3, sl
    5138:	4642      	mov	r2, r8
    513a:	4650      	mov	r0, sl
    513c:	3d01      	subs	r5, #1
    513e:	611d      	str	r5, [r3, #16]
    5140:	6873      	ldr	r3, [r6, #4]
    5142:	6cd2      	ldr	r2, [r2, #76]	; 0x4c
    5144:	009b      	lsls	r3, r3, #2
    5146:	18d3      	adds	r3, r2, r3
    5148:	681a      	ldr	r2, [r3, #0]
    514a:	6032      	str	r2, [r6, #0]
    514c:	601e      	str	r6, [r3, #0]
    514e:	b003      	add	sp, #12
    5150:	bc3c      	pop	{r2, r3, r4, r5}
    5152:	4690      	mov	r8, r2
    5154:	4699      	mov	r9, r3
    5156:	46a2      	mov	sl, r4
    5158:	46ab      	mov	fp, r5
    515a:	bdf0      	pop	{r4, r5, r6, r7, pc}
    515c:	c901      	ldmia	r1!, {r0}
    515e:	c301      	stmia	r3!, {r0}
    5160:	428a      	cmp	r2, r1
    5162:	d9e8      	bls.n	5136 <__lshift+0x86>
    5164:	c901      	ldmia	r1!, {r0}
    5166:	c301      	stmia	r3!, {r0}
    5168:	428a      	cmp	r2, r1
    516a:	d8f7      	bhi.n	515c <__lshift+0xac>
    516c:	e7e3      	b.n	5136 <__lshift+0x86>
    516e:	46c0      	nop			; (mov r8, r8)

00005170 <__mcmp>:
    5170:	6902      	ldr	r2, [r0, #16]
    5172:	690b      	ldr	r3, [r1, #16]
    5174:	b510      	push	{r4, lr}
    5176:	1ad2      	subs	r2, r2, r3
    5178:	0004      	movs	r4, r0
    517a:	1e10      	subs	r0, r2, #0
    517c:	d112      	bne.n	51a4 <__mcmp+0x34>
    517e:	0020      	movs	r0, r4
    5180:	009a      	lsls	r2, r3, #2
    5182:	3014      	adds	r0, #20
    5184:	3114      	adds	r1, #20
    5186:	1883      	adds	r3, r0, r2
    5188:	1889      	adds	r1, r1, r2
    518a:	e001      	b.n	5190 <__mcmp+0x20>
    518c:	4298      	cmp	r0, r3
    518e:	d20a      	bcs.n	51a6 <__mcmp+0x36>
    5190:	3b04      	subs	r3, #4
    5192:	3904      	subs	r1, #4
    5194:	681a      	ldr	r2, [r3, #0]
    5196:	680c      	ldr	r4, [r1, #0]
    5198:	42a2      	cmp	r2, r4
    519a:	d0f7      	beq.n	518c <__mcmp+0x1c>
    519c:	42a2      	cmp	r2, r4
    519e:	4192      	sbcs	r2, r2
    51a0:	2001      	movs	r0, #1
    51a2:	4310      	orrs	r0, r2
    51a4:	bd10      	pop	{r4, pc}
    51a6:	2000      	movs	r0, #0
    51a8:	e7fc      	b.n	51a4 <__mcmp+0x34>
    51aa:	46c0      	nop			; (mov r8, r8)

000051ac <__mdiff>:
    51ac:	b5f8      	push	{r3, r4, r5, r6, r7, lr}
    51ae:	464f      	mov	r7, r9
    51b0:	4646      	mov	r6, r8
    51b2:	0014      	movs	r4, r2
    51b4:	690b      	ldr	r3, [r1, #16]
    51b6:	6912      	ldr	r2, [r2, #16]
    51b8:	b4c0      	push	{r6, r7}
    51ba:	1a9b      	subs	r3, r3, r2
    51bc:	000f      	movs	r7, r1
    51be:	2b00      	cmp	r3, #0
    51c0:	d119      	bne.n	51f6 <__mdiff+0x4a>
    51c2:	000d      	movs	r5, r1
    51c4:	2114      	movs	r1, #20
    51c6:	468c      	mov	ip, r1
    51c8:	0092      	lsls	r2, r2, #2
    51ca:	3514      	adds	r5, #20
    51cc:	44a4      	add	ip, r4
    51ce:	18ab      	adds	r3, r5, r2
    51d0:	4462      	add	r2, ip
    51d2:	e001      	b.n	51d8 <__mdiff+0x2c>
    51d4:	429d      	cmp	r5, r3
    51d6:	d266      	bcs.n	52a6 <__mdiff+0xfa>
    51d8:	3b04      	subs	r3, #4
    51da:	3a04      	subs	r2, #4
    51dc:	681e      	ldr	r6, [r3, #0]
    51de:	6811      	ldr	r1, [r2, #0]
    51e0:	428e      	cmp	r6, r1
    51e2:	d0f7      	beq.n	51d4 <__mdiff+0x28>
    51e4:	d267      	bcs.n	52b6 <__mdiff+0x10a>
    51e6:	002e      	movs	r6, r5
    51e8:	4665      	mov	r5, ip
    51ea:	003b      	movs	r3, r7
    51ec:	0027      	movs	r7, r4
    51ee:	001c      	movs	r4, r3
    51f0:	2301      	movs	r3, #1
    51f2:	4699      	mov	r9, r3
    51f4:	e007      	b.n	5206 <__mdiff+0x5a>
    51f6:	2b00      	cmp	r3, #0
    51f8:	db61      	blt.n	52be <__mdiff+0x112>
    51fa:	2300      	movs	r3, #0
    51fc:	0026      	movs	r6, r4
    51fe:	000d      	movs	r5, r1
    5200:	4699      	mov	r9, r3
    5202:	3614      	adds	r6, #20
    5204:	3514      	adds	r5, #20
    5206:	6879      	ldr	r1, [r7, #4]
    5208:	f7ff fd30 	bl	4c6c <_Balloc>
    520c:	464a      	mov	r2, r9
    520e:	4680      	mov	r8, r0
    5210:	6921      	ldr	r1, [r4, #16]
    5212:	60c2      	str	r2, [r0, #12]
    5214:	6938      	ldr	r0, [r7, #16]
    5216:	0089      	lsls	r1, r1, #2
    5218:	0083      	lsls	r3, r0, #2
    521a:	469c      	mov	ip, r3
    521c:	4689      	mov	r9, r1
    521e:	4647      	mov	r7, r8
    5220:	2400      	movs	r4, #0
    5222:	44ac      	add	ip, r5
    5224:	44b1      	add	r9, r6
    5226:	3714      	adds	r7, #20
    5228:	cd08      	ldmia	r5!, {r3}
    522a:	ce02      	ldmia	r6!, {r1}
    522c:	041a      	lsls	r2, r3, #16
    522e:	0c12      	lsrs	r2, r2, #16
    5230:	1914      	adds	r4, r2, r4
    5232:	040a      	lsls	r2, r1, #16
    5234:	0c12      	lsrs	r2, r2, #16
    5236:	1aa2      	subs	r2, r4, r2
    5238:	0c1c      	lsrs	r4, r3, #16
    523a:	0c0b      	lsrs	r3, r1, #16
    523c:	1ae3      	subs	r3, r4, r3
    523e:	1414      	asrs	r4, r2, #16
    5240:	191b      	adds	r3, r3, r4
    5242:	0412      	lsls	r2, r2, #16
    5244:	0c12      	lsrs	r2, r2, #16
    5246:	141c      	asrs	r4, r3, #16
    5248:	3704      	adds	r7, #4
    524a:	041b      	lsls	r3, r3, #16
    524c:	4313      	orrs	r3, r2
    524e:	1f3a      	subs	r2, r7, #4
    5250:	6013      	str	r3, [r2, #0]
    5252:	45b1      	cmp	r9, r6
    5254:	d8e8      	bhi.n	5228 <__mdiff+0x7c>
    5256:	45ac      	cmp	ip, r5
    5258:	d91c      	bls.n	5294 <__mdiff+0xe8>
    525a:	003e      	movs	r6, r7
    525c:	002a      	movs	r2, r5
    525e:	ca08      	ldmia	r2!, {r3}
    5260:	0419      	lsls	r1, r3, #16
    5262:	0c09      	lsrs	r1, r1, #16
    5264:	1909      	adds	r1, r1, r4
    5266:	140c      	asrs	r4, r1, #16
    5268:	0c1b      	lsrs	r3, r3, #16
    526a:	191b      	adds	r3, r3, r4
    526c:	0409      	lsls	r1, r1, #16
    526e:	141c      	asrs	r4, r3, #16
    5270:	0c09      	lsrs	r1, r1, #16
    5272:	041b      	lsls	r3, r3, #16
    5274:	430b      	orrs	r3, r1
    5276:	c608      	stmia	r6!, {r3}
    5278:	4594      	cmp	ip, r2
    527a:	d8f0      	bhi.n	525e <__mdiff+0xb2>
    527c:	43ed      	mvns	r5, r5
    527e:	4465      	add	r5, ip
    5280:	08ad      	lsrs	r5, r5, #2
    5282:	3501      	adds	r5, #1
    5284:	00ad      	lsls	r5, r5, #2
    5286:	197f      	adds	r7, r7, r5
    5288:	1f3a      	subs	r2, r7, #4
    528a:	2b00      	cmp	r3, #0
    528c:	d104      	bne.n	5298 <__mdiff+0xec>
    528e:	3a04      	subs	r2, #4
    5290:	6813      	ldr	r3, [r2, #0]
    5292:	3801      	subs	r0, #1
    5294:	2b00      	cmp	r3, #0
    5296:	d0fa      	beq.n	528e <__mdiff+0xe2>
    5298:	4643      	mov	r3, r8
    529a:	6118      	str	r0, [r3, #16]
    529c:	4640      	mov	r0, r8
    529e:	bc0c      	pop	{r2, r3}
    52a0:	4690      	mov	r8, r2
    52a2:	4699      	mov	r9, r3
    52a4:	bdf8      	pop	{r3, r4, r5, r6, r7, pc}
    52a6:	2100      	movs	r1, #0
    52a8:	f7ff fce0 	bl	4c6c <_Balloc>
    52ac:	2301      	movs	r3, #1
    52ae:	6103      	str	r3, [r0, #16]
    52b0:	2300      	movs	r3, #0
    52b2:	6143      	str	r3, [r0, #20]
    52b4:	e7f3      	b.n	529e <__mdiff+0xf2>
    52b6:	2300      	movs	r3, #0
    52b8:	4666      	mov	r6, ip
    52ba:	4699      	mov	r9, r3
    52bc:	e7a3      	b.n	5206 <__mdiff+0x5a>
    52be:	003e      	movs	r6, r7
    52c0:	0025      	movs	r5, r4
    52c2:	3614      	adds	r6, #20
    52c4:	3514      	adds	r5, #20
    52c6:	e790      	b.n	51ea <__mdiff+0x3e>

000052c8 <__ulp>:
    52c8:	4b10      	ldr	r3, [pc, #64]	; (530c <__ulp+0x44>)
    52ca:	b510      	push	{r4, lr}
    52cc:	4019      	ands	r1, r3
    52ce:	4b10      	ldr	r3, [pc, #64]	; (5310 <__ulp+0x48>)
    52d0:	469c      	mov	ip, r3
    52d2:	4461      	add	r1, ip
    52d4:	2900      	cmp	r1, #0
    52d6:	dd04      	ble.n	52e2 <__ulp+0x1a>
    52d8:	2200      	movs	r2, #0
    52da:	000b      	movs	r3, r1
    52dc:	0010      	movs	r0, r2
    52de:	0019      	movs	r1, r3
    52e0:	bd10      	pop	{r4, pc}
    52e2:	4249      	negs	r1, r1
    52e4:	1509      	asrs	r1, r1, #20
    52e6:	2200      	movs	r2, #0
    52e8:	2300      	movs	r3, #0
    52ea:	2913      	cmp	r1, #19
    52ec:	dd08      	ble.n	5300 <__ulp+0x38>
    52ee:	3914      	subs	r1, #20
    52f0:	2001      	movs	r0, #1
    52f2:	291e      	cmp	r1, #30
    52f4:	dc02      	bgt.n	52fc <__ulp+0x34>
    52f6:	241f      	movs	r4, #31
    52f8:	1a61      	subs	r1, r4, r1
    52fa:	4088      	lsls	r0, r1
    52fc:	0002      	movs	r2, r0
    52fe:	e7ed      	b.n	52dc <__ulp+0x14>
    5300:	2080      	movs	r0, #128	; 0x80
    5302:	0300      	lsls	r0, r0, #12
    5304:	4108      	asrs	r0, r1
    5306:	0003      	movs	r3, r0
    5308:	e7e8      	b.n	52dc <__ulp+0x14>
    530a:	46c0      	nop			; (mov r8, r8)
    530c:	7ff00000 	.word	0x7ff00000
    5310:	fcc00000 	.word	0xfcc00000

00005314 <__b2d>:
    5314:	b5f0      	push	{r4, r5, r6, r7, lr}
    5316:	464e      	mov	r6, r9
    5318:	4645      	mov	r5, r8
    531a:	4657      	mov	r7, sl
    531c:	6904      	ldr	r4, [r0, #16]
    531e:	b4e0      	push	{r5, r6, r7}
    5320:	00a4      	lsls	r4, r4, #2
    5322:	0006      	movs	r6, r0
    5324:	46a1      	mov	r9, r4
    5326:	3614      	adds	r6, #20
    5328:	44b1      	add	r9, r6
    532a:	464b      	mov	r3, r9
    532c:	4688      	mov	r8, r1
    532e:	1f1f      	subs	r7, r3, #4
    5330:	683d      	ldr	r5, [r7, #0]
    5332:	0028      	movs	r0, r5
    5334:	f7ff fd5a 	bl	4dec <__hi0bits>
    5338:	2320      	movs	r3, #32
    533a:	4641      	mov	r1, r8
    533c:	1a1a      	subs	r2, r3, r0
    533e:	600a      	str	r2, [r1, #0]
    5340:	280a      	cmp	r0, #10
    5342:	dc20      	bgt.n	5386 <__b2d+0x72>
    5344:	210b      	movs	r1, #11
    5346:	1a0b      	subs	r3, r1, r0
    5348:	469a      	mov	sl, r3
    534a:	002b      	movs	r3, r5
    534c:	4652      	mov	r2, sl
    534e:	4926      	ldr	r1, [pc, #152]	; (53e8 <__b2d+0xd4>)
    5350:	40d3      	lsrs	r3, r2
    5352:	4688      	mov	r8, r1
    5354:	0019      	movs	r1, r3
    5356:	4644      	mov	r4, r8
    5358:	4321      	orrs	r1, r4
    535a:	000b      	movs	r3, r1
    535c:	2100      	movs	r1, #0
    535e:	468c      	mov	ip, r1
    5360:	42be      	cmp	r6, r7
    5362:	d204      	bcs.n	536e <__b2d+0x5a>
    5364:	464c      	mov	r4, r9
    5366:	3c08      	subs	r4, #8
    5368:	6824      	ldr	r4, [r4, #0]
    536a:	40d4      	lsrs	r4, r2
    536c:	46a4      	mov	ip, r4
    536e:	3015      	adds	r0, #21
    5370:	4085      	lsls	r5, r0
    5372:	4661      	mov	r1, ip
    5374:	4329      	orrs	r1, r5
    5376:	000a      	movs	r2, r1
    5378:	0010      	movs	r0, r2
    537a:	0019      	movs	r1, r3
    537c:	bc1c      	pop	{r2, r3, r4}
    537e:	4690      	mov	r8, r2
    5380:	4699      	mov	r9, r3
    5382:	46a2      	mov	sl, r4
    5384:	bdf0      	pop	{r4, r5, r6, r7, pc}
    5386:	42be      	cmp	r6, r7
    5388:	d21b      	bcs.n	53c2 <__b2d+0xae>
    538a:	2208      	movs	r2, #8
    538c:	4252      	negs	r2, r2
    538e:	4694      	mov	ip, r2
    5390:	44cc      	add	ip, r9
    5392:	4662      	mov	r2, ip
    5394:	380b      	subs	r0, #11
    5396:	6817      	ldr	r7, [r2, #0]
    5398:	2800      	cmp	r0, #0
    539a:	d016      	beq.n	53ca <__b2d+0xb6>
    539c:	4085      	lsls	r5, r0
    539e:	1a19      	subs	r1, r3, r0
    53a0:	4b11      	ldr	r3, [pc, #68]	; (53e8 <__b2d+0xd4>)
    53a2:	431d      	orrs	r5, r3
    53a4:	003b      	movs	r3, r7
    53a6:	40cb      	lsrs	r3, r1
    53a8:	001c      	movs	r4, r3
    53aa:	432c      	orrs	r4, r5
    53ac:	0023      	movs	r3, r4
    53ae:	4566      	cmp	r6, ip
    53b0:	d217      	bcs.n	53e2 <__b2d+0xce>
    53b2:	464c      	mov	r4, r9
    53b4:	3c0c      	subs	r4, #12
    53b6:	6824      	ldr	r4, [r4, #0]
    53b8:	4087      	lsls	r7, r0
    53ba:	40cc      	lsrs	r4, r1
    53bc:	4327      	orrs	r7, r4
    53be:	003a      	movs	r2, r7
    53c0:	e7da      	b.n	5378 <__b2d+0x64>
    53c2:	380b      	subs	r0, #11
    53c4:	2700      	movs	r7, #0
    53c6:	2800      	cmp	r0, #0
    53c8:	d104      	bne.n	53d4 <__b2d+0xc0>
    53ca:	4907      	ldr	r1, [pc, #28]	; (53e8 <__b2d+0xd4>)
    53cc:	003a      	movs	r2, r7
    53ce:	4329      	orrs	r1, r5
    53d0:	000b      	movs	r3, r1
    53d2:	e7d1      	b.n	5378 <__b2d+0x64>
    53d4:	4085      	lsls	r5, r0
    53d6:	2700      	movs	r7, #0
    53d8:	4903      	ldr	r1, [pc, #12]	; (53e8 <__b2d+0xd4>)
    53da:	003a      	movs	r2, r7
    53dc:	4329      	orrs	r1, r5
    53de:	000b      	movs	r3, r1
    53e0:	e7ca      	b.n	5378 <__b2d+0x64>
    53e2:	4087      	lsls	r7, r0
    53e4:	003a      	movs	r2, r7
    53e6:	e7c7      	b.n	5378 <__b2d+0x64>
    53e8:	3ff00000 	.word	0x3ff00000

000053ec <__d2b>:
    53ec:	b5f0      	push	{r4, r5, r6, r7, lr}
    53ee:	2101      	movs	r1, #1
    53f0:	001c      	movs	r4, r3
    53f2:	b083      	sub	sp, #12
    53f4:	9f08      	ldr	r7, [sp, #32]
    53f6:	0015      	movs	r5, r2
    53f8:	f7ff fc38 	bl	4c6c <_Balloc>
    53fc:	0321      	lsls	r1, r4, #12
    53fe:	0064      	lsls	r4, r4, #1
    5400:	0006      	movs	r6, r0
    5402:	0b09      	lsrs	r1, r1, #12
    5404:	0d64      	lsrs	r4, r4, #21
    5406:	d002      	beq.n	540e <__d2b+0x22>
    5408:	2380      	movs	r3, #128	; 0x80
    540a:	035b      	lsls	r3, r3, #13
    540c:	4319      	orrs	r1, r3
    540e:	9101      	str	r1, [sp, #4]
    5410:	2d00      	cmp	r5, #0
    5412:	d01a      	beq.n	544a <__d2b+0x5e>
    5414:	4668      	mov	r0, sp
    5416:	9500      	str	r5, [sp, #0]
    5418:	f7ff fd06 	bl	4e28 <__lo0bits>
    541c:	2800      	cmp	r0, #0
    541e:	d131      	bne.n	5484 <__d2b+0x98>
    5420:	9b00      	ldr	r3, [sp, #0]
    5422:	9d01      	ldr	r5, [sp, #4]
    5424:	6173      	str	r3, [r6, #20]
    5426:	61b5      	str	r5, [r6, #24]
    5428:	426b      	negs	r3, r5
    542a:	416b      	adcs	r3, r5
    542c:	2502      	movs	r5, #2
    542e:	1aed      	subs	r5, r5, r3
    5430:	6135      	str	r5, [r6, #16]
    5432:	2c00      	cmp	r4, #0
    5434:	d014      	beq.n	5460 <__d2b+0x74>
    5436:	4b19      	ldr	r3, [pc, #100]	; (549c <__d2b+0xb0>)
    5438:	469c      	mov	ip, r3
    543a:	2335      	movs	r3, #53	; 0x35
    543c:	4464      	add	r4, ip
    543e:	1824      	adds	r4, r4, r0
    5440:	1a18      	subs	r0, r3, r0
    5442:	9b09      	ldr	r3, [sp, #36]	; 0x24
    5444:	603c      	str	r4, [r7, #0]
    5446:	6018      	str	r0, [r3, #0]
    5448:	e019      	b.n	547e <__d2b+0x92>
    544a:	a801      	add	r0, sp, #4
    544c:	f7ff fcec 	bl	4e28 <__lo0bits>
    5450:	9b01      	ldr	r3, [sp, #4]
    5452:	3020      	adds	r0, #32
    5454:	6173      	str	r3, [r6, #20]
    5456:	2301      	movs	r3, #1
    5458:	2501      	movs	r5, #1
    545a:	6133      	str	r3, [r6, #16]
    545c:	2c00      	cmp	r4, #0
    545e:	d1ea      	bne.n	5436 <__d2b+0x4a>
    5460:	4b0f      	ldr	r3, [pc, #60]	; (54a0 <__d2b+0xb4>)
    5462:	469c      	mov	ip, r3
    5464:	4b0f      	ldr	r3, [pc, #60]	; (54a4 <__d2b+0xb8>)
    5466:	4460      	add	r0, ip
    5468:	18eb      	adds	r3, r5, r3
    546a:	009b      	lsls	r3, r3, #2
    546c:	18f3      	adds	r3, r6, r3
    546e:	6038      	str	r0, [r7, #0]
    5470:	6958      	ldr	r0, [r3, #20]
    5472:	f7ff fcbb 	bl	4dec <__hi0bits>
    5476:	016d      	lsls	r5, r5, #5
    5478:	9b09      	ldr	r3, [sp, #36]	; 0x24
    547a:	1a28      	subs	r0, r5, r0
    547c:	6018      	str	r0, [r3, #0]
    547e:	0030      	movs	r0, r6
    5480:	b003      	add	sp, #12
    5482:	bdf0      	pop	{r4, r5, r6, r7, pc}
    5484:	9d01      	ldr	r5, [sp, #4]
    5486:	2320      	movs	r3, #32
    5488:	002a      	movs	r2, r5
    548a:	1a1b      	subs	r3, r3, r0
    548c:	409a      	lsls	r2, r3
    548e:	0013      	movs	r3, r2
    5490:	40c5      	lsrs	r5, r0
    5492:	9a00      	ldr	r2, [sp, #0]
    5494:	9501      	str	r5, [sp, #4]
    5496:	4313      	orrs	r3, r2
    5498:	6173      	str	r3, [r6, #20]
    549a:	e7c4      	b.n	5426 <__d2b+0x3a>
    549c:	fffffbcd 	.word	0xfffffbcd
    54a0:	fffffbce 	.word	0xfffffbce
    54a4:	3fffffff 	.word	0x3fffffff

000054a8 <__ratio>:
    54a8:	b5f0      	push	{r4, r5, r6, r7, lr}
    54aa:	464f      	mov	r7, r9
    54ac:	4646      	mov	r6, r8
    54ae:	b4c0      	push	{r6, r7}
    54b0:	b085      	sub	sp, #20
    54b2:	4688      	mov	r8, r1
    54b4:	a902      	add	r1, sp, #8
    54b6:	4681      	mov	r9, r0
    54b8:	f7ff ff2c 	bl	5314 <__b2d>
    54bc:	0006      	movs	r6, r0
    54be:	000f      	movs	r7, r1
    54c0:	4640      	mov	r0, r8
    54c2:	a903      	add	r1, sp, #12
    54c4:	f7ff ff26 	bl	5314 <__b2d>
    54c8:	464b      	mov	r3, r9
    54ca:	691b      	ldr	r3, [r3, #16]
    54cc:	9000      	str	r0, [sp, #0]
    54ce:	9101      	str	r1, [sp, #4]
    54d0:	469c      	mov	ip, r3
    54d2:	4643      	mov	r3, r8
    54d4:	691b      	ldr	r3, [r3, #16]
    54d6:	4698      	mov	r8, r3
    54d8:	4663      	mov	r3, ip
    54da:	4642      	mov	r2, r8
    54dc:	1a9b      	subs	r3, r3, r2
    54de:	015b      	lsls	r3, r3, #5
    54e0:	469c      	mov	ip, r3
    54e2:	9a03      	ldr	r2, [sp, #12]
    54e4:	9b02      	ldr	r3, [sp, #8]
    54e6:	1a9b      	subs	r3, r3, r2
    54e8:	4698      	mov	r8, r3
    54ea:	44c4      	add	ip, r8
    54ec:	4663      	mov	r3, ip
    54ee:	2b00      	cmp	r3, #0
    54f0:	dd0d      	ble.n	550e <__ratio+0x66>
    54f2:	051b      	lsls	r3, r3, #20
    54f4:	19dd      	adds	r5, r3, r7
    54f6:	002f      	movs	r7, r5
    54f8:	0002      	movs	r2, r0
    54fa:	000b      	movs	r3, r1
    54fc:	0030      	movs	r0, r6
    54fe:	0039      	movs	r1, r7
    5500:	f002 fa08 	bl	7914 <__aeabi_ddiv>
    5504:	b005      	add	sp, #20
    5506:	bc0c      	pop	{r2, r3}
    5508:	4690      	mov	r8, r2
    550a:	4699      	mov	r9, r3
    550c:	bdf0      	pop	{r4, r5, r6, r7, pc}
    550e:	4663      	mov	r3, ip
    5510:	0518      	lsls	r0, r3, #20
    5512:	1a0b      	subs	r3, r1, r0
    5514:	9301      	str	r3, [sp, #4]
    5516:	9800      	ldr	r0, [sp, #0]
    5518:	9901      	ldr	r1, [sp, #4]
    551a:	e7ed      	b.n	54f8 <__ratio+0x50>

0000551c <_mprec_log10>:
    551c:	b510      	push	{r4, lr}
    551e:	0004      	movs	r4, r0
    5520:	2817      	cmp	r0, #23
    5522:	dd09      	ble.n	5538 <_mprec_log10+0x1c>
    5524:	2000      	movs	r0, #0
    5526:	4907      	ldr	r1, [pc, #28]	; (5544 <_mprec_log10+0x28>)
    5528:	2200      	movs	r2, #0
    552a:	4b07      	ldr	r3, [pc, #28]	; (5548 <_mprec_log10+0x2c>)
    552c:	3c01      	subs	r4, #1
    552e:	f002 fe15 	bl	815c <__aeabi_dmul>
    5532:	2c00      	cmp	r4, #0
    5534:	d1f8      	bne.n	5528 <_mprec_log10+0xc>
    5536:	bd10      	pop	{r4, pc}
    5538:	4b04      	ldr	r3, [pc, #16]	; (554c <_mprec_log10+0x30>)
    553a:	00c4      	lsls	r4, r0, #3
    553c:	191c      	adds	r4, r3, r4
    553e:	6820      	ldr	r0, [r4, #0]
    5540:	6861      	ldr	r1, [r4, #4]
    5542:	e7f8      	b.n	5536 <_mprec_log10+0x1a>
    5544:	3ff00000 	.word	0x3ff00000
    5548:	40240000 	.word	0x40240000
    554c:	000091d8 	.word	0x000091d8

00005550 <__copybits>:
    5550:	0013      	movs	r3, r2
    5552:	b570      	push	{r4, r5, r6, lr}
    5554:	1e4c      	subs	r4, r1, #1
    5556:	6911      	ldr	r1, [r2, #16]
    5558:	1164      	asrs	r4, r4, #5
    555a:	3401      	adds	r4, #1
    555c:	3314      	adds	r3, #20
    555e:	0089      	lsls	r1, r1, #2
    5560:	00a4      	lsls	r4, r4, #2
    5562:	1859      	adds	r1, r3, r1
    5564:	1904      	adds	r4, r0, r4
    5566:	428b      	cmp	r3, r1
    5568:	d20a      	bcs.n	5580 <__copybits+0x30>
    556a:	0005      	movs	r5, r0
    556c:	cb40      	ldmia	r3!, {r6}
    556e:	c540      	stmia	r5!, {r6}
    5570:	4299      	cmp	r1, r3
    5572:	d8fb      	bhi.n	556c <__copybits+0x1c>
    5574:	1a89      	subs	r1, r1, r2
    5576:	3915      	subs	r1, #21
    5578:	0889      	lsrs	r1, r1, #2
    557a:	3101      	adds	r1, #1
    557c:	0089      	lsls	r1, r1, #2
    557e:	1840      	adds	r0, r0, r1
    5580:	2300      	movs	r3, #0
    5582:	4284      	cmp	r4, r0
    5584:	d902      	bls.n	558c <__copybits+0x3c>
    5586:	c008      	stmia	r0!, {r3}
    5588:	4284      	cmp	r4, r0
    558a:	d8fc      	bhi.n	5586 <__copybits+0x36>
    558c:	bd70      	pop	{r4, r5, r6, pc}
    558e:	46c0      	nop			; (mov r8, r8)

00005590 <__any_on>:
    5590:	0002      	movs	r2, r0
    5592:	6903      	ldr	r3, [r0, #16]
    5594:	b510      	push	{r4, lr}
    5596:	3214      	adds	r2, #20
    5598:	1148      	asrs	r0, r1, #5
    559a:	4283      	cmp	r3, r0
    559c:	da0f      	bge.n	55be <__any_on+0x2e>
    559e:	009b      	lsls	r3, r3, #2
    55a0:	18d3      	adds	r3, r2, r3
    55a2:	429a      	cmp	r2, r3
    55a4:	d221      	bcs.n	55ea <__any_on+0x5a>
    55a6:	3b04      	subs	r3, #4
    55a8:	6818      	ldr	r0, [r3, #0]
    55aa:	2800      	cmp	r0, #0
    55ac:	d004      	beq.n	55b8 <__any_on+0x28>
    55ae:	e01a      	b.n	55e6 <__any_on+0x56>
    55b0:	3b04      	subs	r3, #4
    55b2:	6819      	ldr	r1, [r3, #0]
    55b4:	2900      	cmp	r1, #0
    55b6:	d116      	bne.n	55e6 <__any_on+0x56>
    55b8:	429a      	cmp	r2, r3
    55ba:	d3f9      	bcc.n	55b0 <__any_on+0x20>
    55bc:	bd10      	pop	{r4, pc}
    55be:	4283      	cmp	r3, r0
    55c0:	dd0e      	ble.n	55e0 <__any_on+0x50>
    55c2:	231f      	movs	r3, #31
    55c4:	4019      	ands	r1, r3
    55c6:	0083      	lsls	r3, r0, #2
    55c8:	18d3      	adds	r3, r2, r3
    55ca:	2900      	cmp	r1, #0
    55cc:	d0e9      	beq.n	55a2 <__any_on+0x12>
    55ce:	681c      	ldr	r4, [r3, #0]
    55d0:	0020      	movs	r0, r4
    55d2:	40c8      	lsrs	r0, r1
    55d4:	4088      	lsls	r0, r1
    55d6:	0001      	movs	r1, r0
    55d8:	2001      	movs	r0, #1
    55da:	428c      	cmp	r4, r1
    55dc:	d1ee      	bne.n	55bc <__any_on+0x2c>
    55de:	e7e0      	b.n	55a2 <__any_on+0x12>
    55e0:	0083      	lsls	r3, r0, #2
    55e2:	18d3      	adds	r3, r2, r3
    55e4:	e7dd      	b.n	55a2 <__any_on+0x12>
    55e6:	2001      	movs	r0, #1
    55e8:	e7e8      	b.n	55bc <__any_on+0x2c>
    55ea:	2000      	movs	r0, #0
    55ec:	e7e6      	b.n	55bc <__any_on+0x2c>
    55ee:	46c0      	nop			; (mov r8, r8)

000055f0 <_realloc_r>:
    55f0:	b5f0      	push	{r4, r5, r6, r7, lr}
    55f2:	4656      	mov	r6, sl
    55f4:	464d      	mov	r5, r9
    55f6:	4644      	mov	r4, r8
    55f8:	465f      	mov	r7, fp
    55fa:	b4f0      	push	{r4, r5, r6, r7}
    55fc:	4680      	mov	r8, r0
    55fe:	b085      	sub	sp, #20
    5600:	1e0e      	subs	r6, r1, #0
    5602:	4691      	mov	r9, r2
    5604:	d100      	bne.n	5608 <_realloc_r+0x18>
    5606:	e0cb      	b.n	57a0 <_realloc_r+0x1b0>
    5608:	0037      	movs	r7, r6
    560a:	3f08      	subs	r7, #8
    560c:	f7fb ff54 	bl	14b8 <__malloc_lock>
    5610:	687a      	ldr	r2, [r7, #4]
    5612:	464d      	mov	r5, r9
    5614:	2303      	movs	r3, #3
    5616:	0014      	movs	r4, r2
    5618:	350b      	adds	r5, #11
    561a:	46ba      	mov	sl, r7
    561c:	439c      	bics	r4, r3
    561e:	2d16      	cmp	r5, #22
    5620:	d84a      	bhi.n	56b8 <_realloc_r+0xc8>
    5622:	2310      	movs	r3, #16
    5624:	2510      	movs	r5, #16
    5626:	45a9      	cmp	r9, r5
    5628:	d84a      	bhi.n	56c0 <_realloc_r+0xd0>
    562a:	429c      	cmp	r4, r3
    562c:	da7b      	bge.n	5726 <_realloc_r+0x136>
    562e:	49d3      	ldr	r1, [pc, #844]	; (597c <_realloc_r+0x38c>)
    5630:	1938      	adds	r0, r7, r4
    5632:	6889      	ldr	r1, [r1, #8]
    5634:	9001      	str	r0, [sp, #4]
    5636:	4288      	cmp	r0, r1
    5638:	d100      	bne.n	563c <_realloc_r+0x4c>
    563a:	e0ec      	b.n	5816 <_realloc_r+0x226>
    563c:	6840      	ldr	r0, [r0, #4]
    563e:	0001      	movs	r1, r0
    5640:	9002      	str	r0, [sp, #8]
    5642:	2001      	movs	r0, #1
    5644:	9003      	str	r0, [sp, #12]
    5646:	0008      	movs	r0, r1
    5648:	2101      	movs	r1, #1
    564a:	4388      	bics	r0, r1
    564c:	9901      	ldr	r1, [sp, #4]
    564e:	4684      	mov	ip, r0
    5650:	468b      	mov	fp, r1
    5652:	44dc      	add	ip, fp
    5654:	4661      	mov	r1, ip
    5656:	2001      	movs	r0, #1
    5658:	6849      	ldr	r1, [r1, #4]
    565a:	4201      	tst	r1, r0
    565c:	d100      	bne.n	5660 <_realloc_r+0x70>
    565e:	e07c      	b.n	575a <_realloc_r+0x16a>
    5660:	2101      	movs	r1, #1
    5662:	4211      	tst	r1, r2
    5664:	d031      	beq.n	56ca <_realloc_r+0xda>
    5666:	4649      	mov	r1, r9
    5668:	4640      	mov	r0, r8
    566a:	f7fb fbf7 	bl	e5c <_malloc_r>
    566e:	4681      	mov	r9, r0
    5670:	2800      	cmp	r0, #0
    5672:	d100      	bne.n	5676 <_realloc_r+0x86>
    5674:	e19c      	b.n	59b0 <_realloc_r+0x3c0>
    5676:	2301      	movs	r3, #1
    5678:	0002      	movs	r2, r0
    567a:	6879      	ldr	r1, [r7, #4]
    567c:	3a08      	subs	r2, #8
    567e:	4399      	bics	r1, r3
    5680:	187f      	adds	r7, r7, r1
    5682:	42ba      	cmp	r2, r7
    5684:	d100      	bne.n	5688 <_realloc_r+0x98>
    5686:	e13c      	b.n	5902 <_realloc_r+0x312>
    5688:	1f22      	subs	r2, r4, #4
    568a:	2a24      	cmp	r2, #36	; 0x24
    568c:	d900      	bls.n	5690 <_realloc_r+0xa0>
    568e:	e129      	b.n	58e4 <_realloc_r+0x2f4>
    5690:	0003      	movs	r3, r0
    5692:	2a13      	cmp	r2, #19
    5694:	d900      	bls.n	5698 <_realloc_r+0xa8>
    5696:	e10b      	b.n	58b0 <_realloc_r+0x2c0>
    5698:	0032      	movs	r2, r6
    569a:	6811      	ldr	r1, [r2, #0]
    569c:	6019      	str	r1, [r3, #0]
    569e:	6851      	ldr	r1, [r2, #4]
    56a0:	6059      	str	r1, [r3, #4]
    56a2:	6892      	ldr	r2, [r2, #8]
    56a4:	609a      	str	r2, [r3, #8]
    56a6:	0031      	movs	r1, r6
    56a8:	4640      	mov	r0, r8
    56aa:	f7fe ff01 	bl	44b0 <_free_r>
    56ae:	4640      	mov	r0, r8
    56b0:	f7fb ff04 	bl	14bc <__malloc_unlock>
    56b4:	4648      	mov	r0, r9
    56b6:	e049      	b.n	574c <_realloc_r+0x15c>
    56b8:	3304      	adds	r3, #4
    56ba:	439d      	bics	r5, r3
    56bc:	1e2b      	subs	r3, r5, #0
    56be:	dab2      	bge.n	5626 <_realloc_r+0x36>
    56c0:	230c      	movs	r3, #12
    56c2:	4642      	mov	r2, r8
    56c4:	2000      	movs	r0, #0
    56c6:	6013      	str	r3, [r2, #0]
    56c8:	e040      	b.n	574c <_realloc_r+0x15c>
    56ca:	683a      	ldr	r2, [r7, #0]
    56cc:	1aba      	subs	r2, r7, r2
    56ce:	4693      	mov	fp, r2
    56d0:	4659      	mov	r1, fp
    56d2:	2203      	movs	r2, #3
    56d4:	6849      	ldr	r1, [r1, #4]
    56d6:	4391      	bics	r1, r2
    56d8:	000a      	movs	r2, r1
    56da:	18a2      	adds	r2, r4, r2
    56dc:	9201      	str	r2, [sp, #4]
    56de:	429a      	cmp	r2, r3
    56e0:	dbc1      	blt.n	5666 <_realloc_r+0x76>
    56e2:	465b      	mov	r3, fp
    56e4:	465a      	mov	r2, fp
    56e6:	465f      	mov	r7, fp
    56e8:	6892      	ldr	r2, [r2, #8]
    56ea:	68db      	ldr	r3, [r3, #12]
    56ec:	3708      	adds	r7, #8
    56ee:	60d3      	str	r3, [r2, #12]
    56f0:	609a      	str	r2, [r3, #8]
    56f2:	1f22      	subs	r2, r4, #4
    56f4:	2a24      	cmp	r2, #36	; 0x24
    56f6:	d900      	bls.n	56fa <_realloc_r+0x10a>
    56f8:	e110      	b.n	591c <_realloc_r+0x32c>
    56fa:	003b      	movs	r3, r7
    56fc:	2a13      	cmp	r2, #19
    56fe:	d909      	bls.n	5714 <_realloc_r+0x124>
    5700:	465b      	mov	r3, fp
    5702:	6831      	ldr	r1, [r6, #0]
    5704:	6099      	str	r1, [r3, #8]
    5706:	6871      	ldr	r1, [r6, #4]
    5708:	60d9      	str	r1, [r3, #12]
    570a:	2a1b      	cmp	r2, #27
    570c:	d900      	bls.n	5710 <_realloc_r+0x120>
    570e:	e121      	b.n	5954 <_realloc_r+0x364>
    5710:	3310      	adds	r3, #16
    5712:	3608      	adds	r6, #8
    5714:	6832      	ldr	r2, [r6, #0]
    5716:	46da      	mov	sl, fp
    5718:	601a      	str	r2, [r3, #0]
    571a:	6872      	ldr	r2, [r6, #4]
    571c:	9c01      	ldr	r4, [sp, #4]
    571e:	605a      	str	r2, [r3, #4]
    5720:	68b2      	ldr	r2, [r6, #8]
    5722:	003e      	movs	r6, r7
    5724:	609a      	str	r2, [r3, #8]
    5726:	1b63      	subs	r3, r4, r5
    5728:	2b0f      	cmp	r3, #15
    572a:	d824      	bhi.n	5776 <_realloc_r+0x186>
    572c:	4653      	mov	r3, sl
    572e:	2101      	movs	r1, #1
    5730:	4652      	mov	r2, sl
    5732:	685b      	ldr	r3, [r3, #4]
    5734:	400b      	ands	r3, r1
    5736:	4323      	orrs	r3, r4
    5738:	6053      	str	r3, [r2, #4]
    573a:	0022      	movs	r2, r4
    573c:	4452      	add	r2, sl
    573e:	6853      	ldr	r3, [r2, #4]
    5740:	4319      	orrs	r1, r3
    5742:	6051      	str	r1, [r2, #4]
    5744:	4640      	mov	r0, r8
    5746:	f7fb feb9 	bl	14bc <__malloc_unlock>
    574a:	0030      	movs	r0, r6
    574c:	b005      	add	sp, #20
    574e:	bc3c      	pop	{r2, r3, r4, r5}
    5750:	4690      	mov	r8, r2
    5752:	4699      	mov	r9, r3
    5754:	46a2      	mov	sl, r4
    5756:	46ab      	mov	fp, r5
    5758:	bdf0      	pop	{r4, r5, r6, r7, pc}
    575a:	2103      	movs	r1, #3
    575c:	9802      	ldr	r0, [sp, #8]
    575e:	468c      	mov	ip, r1
    5760:	4388      	bics	r0, r1
    5762:	1901      	adds	r1, r0, r4
    5764:	4299      	cmp	r1, r3
    5766:	db1f      	blt.n	57a8 <_realloc_r+0x1b8>
    5768:	9a01      	ldr	r2, [sp, #4]
    576a:	000c      	movs	r4, r1
    576c:	68d3      	ldr	r3, [r2, #12]
    576e:	6892      	ldr	r2, [r2, #8]
    5770:	60d3      	str	r3, [r2, #12]
    5772:	609a      	str	r2, [r3, #8]
    5774:	e7d7      	b.n	5726 <_realloc_r+0x136>
    5776:	4652      	mov	r2, sl
    5778:	4650      	mov	r0, sl
    577a:	1951      	adds	r1, r2, r5
    577c:	2201      	movs	r2, #1
    577e:	6840      	ldr	r0, [r0, #4]
    5780:	4010      	ands	r0, r2
    5782:	4305      	orrs	r5, r0
    5784:	4650      	mov	r0, sl
    5786:	6045      	str	r5, [r0, #4]
    5788:	0018      	movs	r0, r3
    578a:	4310      	orrs	r0, r2
    578c:	18cb      	adds	r3, r1, r3
    578e:	6048      	str	r0, [r1, #4]
    5790:	6858      	ldr	r0, [r3, #4]
    5792:	3108      	adds	r1, #8
    5794:	4302      	orrs	r2, r0
    5796:	605a      	str	r2, [r3, #4]
    5798:	4640      	mov	r0, r8
    579a:	f7fe fe89 	bl	44b0 <_free_r>
    579e:	e7d1      	b.n	5744 <_realloc_r+0x154>
    57a0:	0011      	movs	r1, r2
    57a2:	f7fb fb5b 	bl	e5c <_malloc_r>
    57a6:	e7d1      	b.n	574c <_realloc_r+0x15c>
    57a8:	2001      	movs	r0, #1
    57aa:	4210      	tst	r0, r2
    57ac:	d000      	beq.n	57b0 <_realloc_r+0x1c0>
    57ae:	e75a      	b.n	5666 <_realloc_r+0x76>
    57b0:	4660      	mov	r0, ip
    57b2:	683a      	ldr	r2, [r7, #0]
    57b4:	1aba      	subs	r2, r7, r2
    57b6:	4693      	mov	fp, r2
    57b8:	6852      	ldr	r2, [r2, #4]
    57ba:	4382      	bics	r2, r0
    57bc:	1889      	adds	r1, r1, r2
    57be:	9102      	str	r1, [sp, #8]
    57c0:	4299      	cmp	r1, r3
    57c2:	da00      	bge.n	57c6 <_realloc_r+0x1d6>
    57c4:	e789      	b.n	56da <_realloc_r+0xea>
    57c6:	9a01      	ldr	r2, [sp, #4]
    57c8:	465f      	mov	r7, fp
    57ca:	68d3      	ldr	r3, [r2, #12]
    57cc:	6892      	ldr	r2, [r2, #8]
    57ce:	3708      	adds	r7, #8
    57d0:	60d3      	str	r3, [r2, #12]
    57d2:	609a      	str	r2, [r3, #8]
    57d4:	465b      	mov	r3, fp
    57d6:	465a      	mov	r2, fp
    57d8:	68db      	ldr	r3, [r3, #12]
    57da:	6892      	ldr	r2, [r2, #8]
    57dc:	60d3      	str	r3, [r2, #12]
    57de:	609a      	str	r2, [r3, #8]
    57e0:	1f22      	subs	r2, r4, #4
    57e2:	2a24      	cmp	r2, #36	; 0x24
    57e4:	d900      	bls.n	57e8 <_realloc_r+0x1f8>
    57e6:	e091      	b.n	590c <_realloc_r+0x31c>
    57e8:	003b      	movs	r3, r7
    57ea:	2a13      	cmp	r2, #19
    57ec:	d909      	bls.n	5802 <_realloc_r+0x212>
    57ee:	465b      	mov	r3, fp
    57f0:	6831      	ldr	r1, [r6, #0]
    57f2:	6099      	str	r1, [r3, #8]
    57f4:	6871      	ldr	r1, [r6, #4]
    57f6:	60d9      	str	r1, [r3, #12]
    57f8:	2a1b      	cmp	r2, #27
    57fa:	d900      	bls.n	57fe <_realloc_r+0x20e>
    57fc:	e096      	b.n	592c <_realloc_r+0x33c>
    57fe:	3310      	adds	r3, #16
    5800:	3608      	adds	r6, #8
    5802:	6832      	ldr	r2, [r6, #0]
    5804:	9c02      	ldr	r4, [sp, #8]
    5806:	601a      	str	r2, [r3, #0]
    5808:	6872      	ldr	r2, [r6, #4]
    580a:	46da      	mov	sl, fp
    580c:	605a      	str	r2, [r3, #4]
    580e:	68b2      	ldr	r2, [r6, #8]
    5810:	003e      	movs	r6, r7
    5812:	609a      	str	r2, [r3, #8]
    5814:	e787      	b.n	5726 <_realloc_r+0x136>
    5816:	2003      	movs	r0, #3
    5818:	9901      	ldr	r1, [sp, #4]
    581a:	4684      	mov	ip, r0
    581c:	6849      	ldr	r1, [r1, #4]
    581e:	4381      	bics	r1, r0
    5820:	0028      	movs	r0, r5
    5822:	1909      	adds	r1, r1, r4
    5824:	3010      	adds	r0, #16
    5826:	9001      	str	r0, [sp, #4]
    5828:	4281      	cmp	r1, r0
    582a:	da4b      	bge.n	58c4 <_realloc_r+0x2d4>
    582c:	07d2      	lsls	r2, r2, #31
    582e:	d500      	bpl.n	5832 <_realloc_r+0x242>
    5830:	e719      	b.n	5666 <_realloc_r+0x76>
    5832:	4660      	mov	r0, ip
    5834:	683a      	ldr	r2, [r7, #0]
    5836:	1aba      	subs	r2, r7, r2
    5838:	4693      	mov	fp, r2
    583a:	6852      	ldr	r2, [r2, #4]
    583c:	4382      	bics	r2, r0
    583e:	9801      	ldr	r0, [sp, #4]
    5840:	1851      	adds	r1, r2, r1
    5842:	9102      	str	r1, [sp, #8]
    5844:	4288      	cmp	r0, r1
    5846:	dd00      	ble.n	584a <_realloc_r+0x25a>
    5848:	e747      	b.n	56da <_realloc_r+0xea>
    584a:	465b      	mov	r3, fp
    584c:	465a      	mov	r2, fp
    584e:	465f      	mov	r7, fp
    5850:	6892      	ldr	r2, [r2, #8]
    5852:	68db      	ldr	r3, [r3, #12]
    5854:	3708      	adds	r7, #8
    5856:	60d3      	str	r3, [r2, #12]
    5858:	609a      	str	r2, [r3, #8]
    585a:	1f22      	subs	r2, r4, #4
    585c:	2a24      	cmp	r2, #36	; 0x24
    585e:	d900      	bls.n	5862 <_realloc_r+0x272>
    5860:	e097      	b.n	5992 <_realloc_r+0x3a2>
    5862:	003b      	movs	r3, r7
    5864:	2a13      	cmp	r2, #19
    5866:	d909      	bls.n	587c <_realloc_r+0x28c>
    5868:	465b      	mov	r3, fp
    586a:	6831      	ldr	r1, [r6, #0]
    586c:	6099      	str	r1, [r3, #8]
    586e:	6871      	ldr	r1, [r6, #4]
    5870:	60d9      	str	r1, [r3, #12]
    5872:	2a1b      	cmp	r2, #27
    5874:	d900      	bls.n	5878 <_realloc_r+0x288>
    5876:	e091      	b.n	599c <_realloc_r+0x3ac>
    5878:	3310      	adds	r3, #16
    587a:	3608      	adds	r6, #8
    587c:	6832      	ldr	r2, [r6, #0]
    587e:	601a      	str	r2, [r3, #0]
    5880:	6872      	ldr	r2, [r6, #4]
    5882:	605a      	str	r2, [r3, #4]
    5884:	68b2      	ldr	r2, [r6, #8]
    5886:	609a      	str	r2, [r3, #8]
    5888:	465b      	mov	r3, fp
    588a:	1959      	adds	r1, r3, r5
    588c:	4b3b      	ldr	r3, [pc, #236]	; (597c <_realloc_r+0x38c>)
    588e:	4640      	mov	r0, r8
    5890:	6099      	str	r1, [r3, #8]
    5892:	9b02      	ldr	r3, [sp, #8]
    5894:	1b5a      	subs	r2, r3, r5
    5896:	2301      	movs	r3, #1
    5898:	431a      	orrs	r2, r3
    589a:	604a      	str	r2, [r1, #4]
    589c:	465a      	mov	r2, fp
    589e:	6852      	ldr	r2, [r2, #4]
    58a0:	4013      	ands	r3, r2
    58a2:	431d      	orrs	r5, r3
    58a4:	465b      	mov	r3, fp
    58a6:	605d      	str	r5, [r3, #4]
    58a8:	f7fb fe08 	bl	14bc <__malloc_unlock>
    58ac:	0038      	movs	r0, r7
    58ae:	e74d      	b.n	574c <_realloc_r+0x15c>
    58b0:	6831      	ldr	r1, [r6, #0]
    58b2:	6001      	str	r1, [r0, #0]
    58b4:	6871      	ldr	r1, [r6, #4]
    58b6:	6041      	str	r1, [r0, #4]
    58b8:	2a1b      	cmp	r2, #27
    58ba:	d817      	bhi.n	58ec <_realloc_r+0x2fc>
    58bc:	0032      	movs	r2, r6
    58be:	3308      	adds	r3, #8
    58c0:	3208      	adds	r2, #8
    58c2:	e6ea      	b.n	569a <_realloc_r+0xaa>
    58c4:	4b2d      	ldr	r3, [pc, #180]	; (597c <_realloc_r+0x38c>)
    58c6:	197a      	adds	r2, r7, r5
    58c8:	609a      	str	r2, [r3, #8]
    58ca:	2301      	movs	r3, #1
    58cc:	1b49      	subs	r1, r1, r5
    58ce:	4319      	orrs	r1, r3
    58d0:	6051      	str	r1, [r2, #4]
    58d2:	687a      	ldr	r2, [r7, #4]
    58d4:	4640      	mov	r0, r8
    58d6:	4013      	ands	r3, r2
    58d8:	431d      	orrs	r5, r3
    58da:	607d      	str	r5, [r7, #4]
    58dc:	f7fb fdee 	bl	14bc <__malloc_unlock>
    58e0:	0030      	movs	r0, r6
    58e2:	e733      	b.n	574c <_realloc_r+0x15c>
    58e4:	0031      	movs	r1, r6
    58e6:	f7ff f975 	bl	4bd4 <memmove>
    58ea:	e6dc      	b.n	56a6 <_realloc_r+0xb6>
    58ec:	68b1      	ldr	r1, [r6, #8]
    58ee:	0003      	movs	r3, r0
    58f0:	6081      	str	r1, [r0, #8]
    58f2:	68f1      	ldr	r1, [r6, #12]
    58f4:	60c1      	str	r1, [r0, #12]
    58f6:	2a24      	cmp	r2, #36	; 0x24
    58f8:	d022      	beq.n	5940 <_realloc_r+0x350>
    58fa:	0032      	movs	r2, r6
    58fc:	3310      	adds	r3, #16
    58fe:	3210      	adds	r2, #16
    5900:	e6cb      	b.n	569a <_realloc_r+0xaa>
    5902:	6853      	ldr	r3, [r2, #4]
    5904:	2203      	movs	r2, #3
    5906:	4393      	bics	r3, r2
    5908:	18e4      	adds	r4, r4, r3
    590a:	e70c      	b.n	5726 <_realloc_r+0x136>
    590c:	0031      	movs	r1, r6
    590e:	0038      	movs	r0, r7
    5910:	f7ff f960 	bl	4bd4 <memmove>
    5914:	003e      	movs	r6, r7
    5916:	9c02      	ldr	r4, [sp, #8]
    5918:	46da      	mov	sl, fp
    591a:	e704      	b.n	5726 <_realloc_r+0x136>
    591c:	0031      	movs	r1, r6
    591e:	0038      	movs	r0, r7
    5920:	f7ff f958 	bl	4bd4 <memmove>
    5924:	003e      	movs	r6, r7
    5926:	9c01      	ldr	r4, [sp, #4]
    5928:	46da      	mov	sl, fp
    592a:	e6fc      	b.n	5726 <_realloc_r+0x136>
    592c:	465b      	mov	r3, fp
    592e:	68b1      	ldr	r1, [r6, #8]
    5930:	6119      	str	r1, [r3, #16]
    5932:	68f1      	ldr	r1, [r6, #12]
    5934:	6159      	str	r1, [r3, #20]
    5936:	2a24      	cmp	r2, #36	; 0x24
    5938:	d016      	beq.n	5968 <_realloc_r+0x378>
    593a:	3318      	adds	r3, #24
    593c:	3610      	adds	r6, #16
    593e:	e760      	b.n	5802 <_realloc_r+0x212>
    5940:	6932      	ldr	r2, [r6, #16]
    5942:	0003      	movs	r3, r0
    5944:	6102      	str	r2, [r0, #16]
    5946:	0001      	movs	r1, r0
    5948:	0032      	movs	r2, r6
    594a:	6970      	ldr	r0, [r6, #20]
    594c:	3318      	adds	r3, #24
    594e:	3218      	adds	r2, #24
    5950:	6148      	str	r0, [r1, #20]
    5952:	e6a2      	b.n	569a <_realloc_r+0xaa>
    5954:	465b      	mov	r3, fp
    5956:	68b1      	ldr	r1, [r6, #8]
    5958:	6119      	str	r1, [r3, #16]
    595a:	68f1      	ldr	r1, [r6, #12]
    595c:	6159      	str	r1, [r3, #20]
    595e:	2a24      	cmp	r2, #36	; 0x24
    5960:	d00e      	beq.n	5980 <_realloc_r+0x390>
    5962:	3318      	adds	r3, #24
    5964:	3610      	adds	r6, #16
    5966:	e6d5      	b.n	5714 <_realloc_r+0x124>
    5968:	465b      	mov	r3, fp
    596a:	6932      	ldr	r2, [r6, #16]
    596c:	619a      	str	r2, [r3, #24]
    596e:	465a      	mov	r2, fp
    5970:	6971      	ldr	r1, [r6, #20]
    5972:	3320      	adds	r3, #32
    5974:	61d1      	str	r1, [r2, #28]
    5976:	3618      	adds	r6, #24
    5978:	e743      	b.n	5802 <_realloc_r+0x212>
    597a:	46c0      	nop			; (mov r8, r8)
    597c:	10010504 	.word	0x10010504
    5980:	465b      	mov	r3, fp
    5982:	6932      	ldr	r2, [r6, #16]
    5984:	619a      	str	r2, [r3, #24]
    5986:	465a      	mov	r2, fp
    5988:	6971      	ldr	r1, [r6, #20]
    598a:	3320      	adds	r3, #32
    598c:	61d1      	str	r1, [r2, #28]
    598e:	3618      	adds	r6, #24
    5990:	e6c0      	b.n	5714 <_realloc_r+0x124>
    5992:	0031      	movs	r1, r6
    5994:	0038      	movs	r0, r7
    5996:	f7ff f91d 	bl	4bd4 <memmove>
    599a:	e775      	b.n	5888 <_realloc_r+0x298>
    599c:	465b      	mov	r3, fp
    599e:	68b1      	ldr	r1, [r6, #8]
    59a0:	6119      	str	r1, [r3, #16]
    59a2:	68f1      	ldr	r1, [r6, #12]
    59a4:	6159      	str	r1, [r3, #20]
    59a6:	2a24      	cmp	r2, #36	; 0x24
    59a8:	d007      	beq.n	59ba <_realloc_r+0x3ca>
    59aa:	3318      	adds	r3, #24
    59ac:	3610      	adds	r6, #16
    59ae:	e765      	b.n	587c <_realloc_r+0x28c>
    59b0:	4640      	mov	r0, r8
    59b2:	f7fb fd83 	bl	14bc <__malloc_unlock>
    59b6:	2000      	movs	r0, #0
    59b8:	e6c8      	b.n	574c <_realloc_r+0x15c>
    59ba:	465b      	mov	r3, fp
    59bc:	6932      	ldr	r2, [r6, #16]
    59be:	619a      	str	r2, [r3, #24]
    59c0:	465a      	mov	r2, fp
    59c2:	6971      	ldr	r1, [r6, #20]
    59c4:	3320      	adds	r3, #32
    59c6:	61d1      	str	r1, [r2, #28]
    59c8:	3618      	adds	r6, #24
    59ca:	e757      	b.n	587c <_realloc_r+0x28c>

000059cc <cleanup_glue>:
    59cc:	b570      	push	{r4, r5, r6, lr}
    59ce:	000c      	movs	r4, r1
    59d0:	6809      	ldr	r1, [r1, #0]
    59d2:	0005      	movs	r5, r0
    59d4:	2900      	cmp	r1, #0
    59d6:	d001      	beq.n	59dc <cleanup_glue+0x10>
    59d8:	f7ff fff8 	bl	59cc <cleanup_glue>
    59dc:	0028      	movs	r0, r5
    59de:	0021      	movs	r1, r4
    59e0:	f7fe fd66 	bl	44b0 <_free_r>
    59e4:	bd70      	pop	{r4, r5, r6, pc}
    59e6:	46c0      	nop			; (mov r8, r8)

000059e8 <_reclaim_reent>:
    59e8:	4b23      	ldr	r3, [pc, #140]	; (5a78 <_reclaim_reent+0x90>)
    59ea:	b570      	push	{r4, r5, r6, lr}
    59ec:	681b      	ldr	r3, [r3, #0]
    59ee:	0005      	movs	r5, r0
    59f0:	4283      	cmp	r3, r0
    59f2:	d034      	beq.n	5a5e <_reclaim_reent+0x76>
    59f4:	6cc3      	ldr	r3, [r0, #76]	; 0x4c
    59f6:	2b00      	cmp	r3, #0
    59f8:	d011      	beq.n	5a1e <_reclaim_reent+0x36>
    59fa:	2600      	movs	r6, #0
    59fc:	5999      	ldr	r1, [r3, r6]
    59fe:	2900      	cmp	r1, #0
    5a00:	d006      	beq.n	5a10 <_reclaim_reent+0x28>
    5a02:	680c      	ldr	r4, [r1, #0]
    5a04:	0028      	movs	r0, r5
    5a06:	f7fe fd53 	bl	44b0 <_free_r>
    5a0a:	1e21      	subs	r1, r4, #0
    5a0c:	d1f9      	bne.n	5a02 <_reclaim_reent+0x1a>
    5a0e:	6ceb      	ldr	r3, [r5, #76]	; 0x4c
    5a10:	3604      	adds	r6, #4
    5a12:	2e80      	cmp	r6, #128	; 0x80
    5a14:	d1f2      	bne.n	59fc <_reclaim_reent+0x14>
    5a16:	0019      	movs	r1, r3
    5a18:	0028      	movs	r0, r5
    5a1a:	f7fe fd49 	bl	44b0 <_free_r>
    5a1e:	6c29      	ldr	r1, [r5, #64]	; 0x40
    5a20:	2900      	cmp	r1, #0
    5a22:	d002      	beq.n	5a2a <_reclaim_reent+0x42>
    5a24:	0028      	movs	r0, r5
    5a26:	f7fe fd43 	bl	44b0 <_free_r>
    5a2a:	23a4      	movs	r3, #164	; 0xa4
    5a2c:	005b      	lsls	r3, r3, #1
    5a2e:	58e9      	ldr	r1, [r5, r3]
    5a30:	2900      	cmp	r1, #0
    5a32:	d00b      	beq.n	5a4c <_reclaim_reent+0x64>
    5a34:	002e      	movs	r6, r5
    5a36:	364d      	adds	r6, #77	; 0x4d
    5a38:	36ff      	adds	r6, #255	; 0xff
    5a3a:	42b1      	cmp	r1, r6
    5a3c:	d006      	beq.n	5a4c <_reclaim_reent+0x64>
    5a3e:	680c      	ldr	r4, [r1, #0]
    5a40:	0028      	movs	r0, r5
    5a42:	f7fe fd35 	bl	44b0 <_free_r>
    5a46:	0021      	movs	r1, r4
    5a48:	42a6      	cmp	r6, r4
    5a4a:	d1f8      	bne.n	5a3e <_reclaim_reent+0x56>
    5a4c:	6d69      	ldr	r1, [r5, #84]	; 0x54
    5a4e:	2900      	cmp	r1, #0
    5a50:	d002      	beq.n	5a58 <_reclaim_reent+0x70>
    5a52:	0028      	movs	r0, r5
    5a54:	f7fe fd2c 	bl	44b0 <_free_r>
    5a58:	6bab      	ldr	r3, [r5, #56]	; 0x38
    5a5a:	2b00      	cmp	r3, #0
    5a5c:	d100      	bne.n	5a60 <_reclaim_reent+0x78>
    5a5e:	bd70      	pop	{r4, r5, r6, pc}
    5a60:	6beb      	ldr	r3, [r5, #60]	; 0x3c
    5a62:	0028      	movs	r0, r5
    5a64:	4798      	blx	r3
    5a66:	23b8      	movs	r3, #184	; 0xb8
    5a68:	009b      	lsls	r3, r3, #2
    5a6a:	58e9      	ldr	r1, [r5, r3]
    5a6c:	2900      	cmp	r1, #0
    5a6e:	d0f6      	beq.n	5a5e <_reclaim_reent+0x76>
    5a70:	0028      	movs	r0, r5
    5a72:	f7ff ffab 	bl	59cc <cleanup_glue>
    5a76:	e7f2      	b.n	5a5e <_reclaim_reent+0x76>
    5a78:	10010d40 	.word	0x10010d40

00005a7c <__sread>:
    5a7c:	b570      	push	{r4, r5, r6, lr}
    5a7e:	000c      	movs	r4, r1
    5a80:	250e      	movs	r5, #14
    5a82:	5f49      	ldrsh	r1, [r1, r5]
    5a84:	f001 f9c8 	bl	6e18 <_read_r>
    5a88:	2800      	cmp	r0, #0
    5a8a:	db03      	blt.n	5a94 <__sread+0x18>
    5a8c:	6d23      	ldr	r3, [r4, #80]	; 0x50
    5a8e:	181b      	adds	r3, r3, r0
    5a90:	6523      	str	r3, [r4, #80]	; 0x50
    5a92:	bd70      	pop	{r4, r5, r6, pc}
    5a94:	89a2      	ldrh	r2, [r4, #12]
    5a96:	4b02      	ldr	r3, [pc, #8]	; (5aa0 <__sread+0x24>)
    5a98:	4013      	ands	r3, r2
    5a9a:	81a3      	strh	r3, [r4, #12]
    5a9c:	e7f9      	b.n	5a92 <__sread+0x16>
    5a9e:	46c0      	nop			; (mov r8, r8)
    5aa0:	ffffefff 	.word	0xffffefff

00005aa4 <__seofread>:
    5aa4:	2000      	movs	r0, #0
    5aa6:	4770      	bx	lr

00005aa8 <__swrite>:
    5aa8:	b5f8      	push	{r3, r4, r5, r6, r7, lr}
    5aaa:	0016      	movs	r6, r2
    5aac:	001f      	movs	r7, r3
    5aae:	230c      	movs	r3, #12
    5ab0:	5eca      	ldrsh	r2, [r1, r3]
    5ab2:	0005      	movs	r5, r0
    5ab4:	000c      	movs	r4, r1
    5ab6:	05d3      	lsls	r3, r2, #23
    5ab8:	d507      	bpl.n	5aca <__swrite+0x22>
    5aba:	230e      	movs	r3, #14
    5abc:	5ec9      	ldrsh	r1, [r1, r3]
    5abe:	2200      	movs	r2, #0
    5ac0:	2302      	movs	r3, #2
    5ac2:	f001 f96b 	bl	6d9c <_lseek_r>
    5ac6:	230c      	movs	r3, #12
    5ac8:	5ee2      	ldrsh	r2, [r4, r3]
    5aca:	4b05      	ldr	r3, [pc, #20]	; (5ae0 <__swrite+0x38>)
    5acc:	0028      	movs	r0, r5
    5ace:	4013      	ands	r3, r2
    5ad0:	81a3      	strh	r3, [r4, #12]
    5ad2:	0032      	movs	r2, r6
    5ad4:	230e      	movs	r3, #14
    5ad6:	5ee1      	ldrsh	r1, [r4, r3]
    5ad8:	003b      	movs	r3, r7
    5ada:	f000 ffbd 	bl	6a58 <_write_r>
    5ade:	bdf8      	pop	{r3, r4, r5, r6, r7, pc}
    5ae0:	ffffefff 	.word	0xffffefff

00005ae4 <__sseek>:
    5ae4:	b570      	push	{r4, r5, r6, lr}
    5ae6:	000c      	movs	r4, r1
    5ae8:	250e      	movs	r5, #14
    5aea:	5f49      	ldrsh	r1, [r1, r5]
    5aec:	f001 f956 	bl	6d9c <_lseek_r>
    5af0:	1c43      	adds	r3, r0, #1
    5af2:	d006      	beq.n	5b02 <__sseek+0x1e>
    5af4:	2280      	movs	r2, #128	; 0x80
    5af6:	89a3      	ldrh	r3, [r4, #12]
    5af8:	0152      	lsls	r2, r2, #5
    5afa:	4313      	orrs	r3, r2
    5afc:	81a3      	strh	r3, [r4, #12]
    5afe:	6520      	str	r0, [r4, #80]	; 0x50
    5b00:	bd70      	pop	{r4, r5, r6, pc}
    5b02:	89a2      	ldrh	r2, [r4, #12]
    5b04:	4b01      	ldr	r3, [pc, #4]	; (5b0c <__sseek+0x28>)
    5b06:	4013      	ands	r3, r2
    5b08:	81a3      	strh	r3, [r4, #12]
    5b0a:	e7f9      	b.n	5b00 <__sseek+0x1c>
    5b0c:	ffffefff 	.word	0xffffefff

00005b10 <__sclose>:
    5b10:	b510      	push	{r4, lr}
    5b12:	230e      	movs	r3, #14
    5b14:	5ec9      	ldrsh	r1, [r1, r3]
    5b16:	f000 ffe3 	bl	6ae0 <_close_r>
    5b1a:	bd10      	pop	{r4, pc}

00005b1c <__sprint_r.part.0>:
    5b1c:	b5f0      	push	{r4, r5, r6, r7, lr}
    5b1e:	4657      	mov	r7, sl
    5b20:	464e      	mov	r6, r9
    5b22:	4645      	mov	r5, r8
    5b24:	6e4b      	ldr	r3, [r1, #100]	; 0x64
    5b26:	b4e0      	push	{r5, r6, r7}
    5b28:	4680      	mov	r8, r0
    5b2a:	000f      	movs	r7, r1
    5b2c:	4691      	mov	r9, r2
    5b2e:	049b      	lsls	r3, r3, #18
    5b30:	d52d      	bpl.n	5b8e <__sprint_r.part.0+0x72>
    5b32:	6813      	ldr	r3, [r2, #0]
    5b34:	469a      	mov	sl, r3
    5b36:	6893      	ldr	r3, [r2, #8]
    5b38:	2b00      	cmp	r3, #0
    5b3a:	d026      	beq.n	5b8a <__sprint_r.part.0+0x6e>
    5b3c:	4652      	mov	r2, sl
    5b3e:	6852      	ldr	r2, [r2, #4]
    5b40:	2500      	movs	r5, #0
    5b42:	0896      	lsrs	r6, r2, #2
    5b44:	4652      	mov	r2, sl
    5b46:	6814      	ldr	r4, [r2, #0]
    5b48:	d104      	bne.n	5b54 <__sprint_r.part.0+0x38>
    5b4a:	e015      	b.n	5b78 <__sprint_r.part.0+0x5c>
    5b4c:	3501      	adds	r5, #1
    5b4e:	3404      	adds	r4, #4
    5b50:	42ae      	cmp	r6, r5
    5b52:	d00f      	beq.n	5b74 <__sprint_r.part.0+0x58>
    5b54:	003a      	movs	r2, r7
    5b56:	6821      	ldr	r1, [r4, #0]
    5b58:	4640      	mov	r0, r8
    5b5a:	f001 f86f 	bl	6c3c <_fputwc_r>
    5b5e:	1c43      	adds	r3, r0, #1
    5b60:	d1f4      	bne.n	5b4c <__sprint_r.part.0+0x30>
    5b62:	464a      	mov	r2, r9
    5b64:	2300      	movs	r3, #0
    5b66:	6093      	str	r3, [r2, #8]
    5b68:	6053      	str	r3, [r2, #4]
    5b6a:	bc1c      	pop	{r2, r3, r4}
    5b6c:	4690      	mov	r8, r2
    5b6e:	4699      	mov	r9, r3
    5b70:	46a2      	mov	sl, r4
    5b72:	bdf0      	pop	{r4, r5, r6, r7, pc}
    5b74:	464b      	mov	r3, r9
    5b76:	689b      	ldr	r3, [r3, #8]
    5b78:	464a      	mov	r2, r9
    5b7a:	00b6      	lsls	r6, r6, #2
    5b7c:	1b9b      	subs	r3, r3, r6
    5b7e:	6093      	str	r3, [r2, #8]
    5b80:	2208      	movs	r2, #8
    5b82:	4694      	mov	ip, r2
    5b84:	44e2      	add	sl, ip
    5b86:	2b00      	cmp	r3, #0
    5b88:	d1d8      	bne.n	5b3c <__sprint_r.part.0+0x20>
    5b8a:	2000      	movs	r0, #0
    5b8c:	e7e9      	b.n	5b62 <__sprint_r.part.0+0x46>
    5b8e:	f7fe fd71 	bl	4674 <__sfvwrite_r>
    5b92:	e7e6      	b.n	5b62 <__sprint_r.part.0+0x46>

00005b94 <__sprint_r>:
    5b94:	6893      	ldr	r3, [r2, #8]
    5b96:	b510      	push	{r4, lr}
    5b98:	2b00      	cmp	r3, #0
    5b9a:	d002      	beq.n	5ba2 <__sprint_r+0xe>
    5b9c:	f7ff ffbe 	bl	5b1c <__sprint_r.part.0>
    5ba0:	bd10      	pop	{r4, pc}
    5ba2:	6053      	str	r3, [r2, #4]
    5ba4:	2000      	movs	r0, #0
    5ba6:	e7fb      	b.n	5ba0 <__sprint_r+0xc>

00005ba8 <_vfiprintf_r>:
    5ba8:	b5f0      	push	{r4, r5, r6, r7, lr}
    5baa:	465f      	mov	r7, fp
    5bac:	4656      	mov	r6, sl
    5bae:	4644      	mov	r4, r8
    5bb0:	464d      	mov	r5, r9
    5bb2:	b4f0      	push	{r4, r5, r6, r7}
    5bb4:	b0af      	sub	sp, #188	; 0xbc
    5bb6:	9004      	str	r0, [sp, #16]
    5bb8:	468a      	mov	sl, r1
    5bba:	4693      	mov	fp, r2
    5bbc:	001c      	movs	r4, r3
    5bbe:	930a      	str	r3, [sp, #40]	; 0x28
    5bc0:	2800      	cmp	r0, #0
    5bc2:	d004      	beq.n	5bce <_vfiprintf_r+0x26>
    5bc4:	6b83      	ldr	r3, [r0, #56]	; 0x38
    5bc6:	9301      	str	r3, [sp, #4]
    5bc8:	2b00      	cmp	r3, #0
    5bca:	d100      	bne.n	5bce <_vfiprintf_r+0x26>
    5bcc:	e08f      	b.n	5cee <_vfiprintf_r+0x146>
    5bce:	4653      	mov	r3, sl
    5bd0:	2180      	movs	r1, #128	; 0x80
    5bd2:	220c      	movs	r2, #12
    5bd4:	5e9a      	ldrsh	r2, [r3, r2]
    5bd6:	0189      	lsls	r1, r1, #6
    5bd8:	b293      	uxth	r3, r2
    5bda:	420b      	tst	r3, r1
    5bdc:	d109      	bne.n	5bf2 <_vfiprintf_r+0x4a>
    5bde:	430a      	orrs	r2, r1
    5be0:	4653      	mov	r3, sl
    5be2:	4651      	mov	r1, sl
    5be4:	819a      	strh	r2, [r3, #12]
    5be6:	6e49      	ldr	r1, [r1, #100]	; 0x64
    5be8:	4bca      	ldr	r3, [pc, #808]	; (5f14 <_vfiprintf_r+0x36c>)
    5bea:	400b      	ands	r3, r1
    5bec:	4651      	mov	r1, sl
    5bee:	664b      	str	r3, [r1, #100]	; 0x64
    5bf0:	b293      	uxth	r3, r2
    5bf2:	071a      	lsls	r2, r3, #28
    5bf4:	d55b      	bpl.n	5cae <_vfiprintf_r+0x106>
    5bf6:	4652      	mov	r2, sl
    5bf8:	6912      	ldr	r2, [r2, #16]
    5bfa:	2a00      	cmp	r2, #0
    5bfc:	d057      	beq.n	5cae <_vfiprintf_r+0x106>
    5bfe:	221a      	movs	r2, #26
    5c00:	4013      	ands	r3, r2
    5c02:	2b0a      	cmp	r3, #10
    5c04:	d061      	beq.n	5cca <_vfiprintf_r+0x122>
    5c06:	ab1e      	add	r3, sp, #120	; 0x78
    5c08:	4698      	mov	r8, r3
    5c0a:	9311      	str	r3, [sp, #68]	; 0x44
    5c0c:	2300      	movs	r3, #0
    5c0e:	465d      	mov	r5, fp
    5c10:	4647      	mov	r7, r8
    5c12:	46d3      	mov	fp, sl
    5c14:	9313      	str	r3, [sp, #76]	; 0x4c
    5c16:	9312      	str	r3, [sp, #72]	; 0x48
    5c18:	9305      	str	r3, [sp, #20]
    5c1a:	782b      	ldrb	r3, [r5, #0]
    5c1c:	002c      	movs	r4, r5
    5c1e:	2b00      	cmp	r3, #0
    5c20:	d01b      	beq.n	5c5a <_vfiprintf_r+0xb2>
    5c22:	2b25      	cmp	r3, #37	; 0x25
    5c24:	d102      	bne.n	5c2c <_vfiprintf_r+0x84>
    5c26:	e018      	b.n	5c5a <_vfiprintf_r+0xb2>
    5c28:	2b25      	cmp	r3, #37	; 0x25
    5c2a:	d003      	beq.n	5c34 <_vfiprintf_r+0x8c>
    5c2c:	3401      	adds	r4, #1
    5c2e:	7823      	ldrb	r3, [r4, #0]
    5c30:	2b00      	cmp	r3, #0
    5c32:	d1f9      	bne.n	5c28 <_vfiprintf_r+0x80>
    5c34:	1b66      	subs	r6, r4, r5
    5c36:	d010      	beq.n	5c5a <_vfiprintf_r+0xb2>
    5c38:	9b13      	ldr	r3, [sp, #76]	; 0x4c
    5c3a:	603d      	str	r5, [r7, #0]
    5c3c:	18f2      	adds	r2, r6, r3
    5c3e:	9b12      	ldr	r3, [sp, #72]	; 0x48
    5c40:	607e      	str	r6, [r7, #4]
    5c42:	9301      	str	r3, [sp, #4]
    5c44:	3301      	adds	r3, #1
    5c46:	9213      	str	r2, [sp, #76]	; 0x4c
    5c48:	9312      	str	r3, [sp, #72]	; 0x48
    5c4a:	3708      	adds	r7, #8
    5c4c:	2b07      	cmp	r3, #7
    5c4e:	dc27      	bgt.n	5ca0 <_vfiprintf_r+0xf8>
    5c50:	9b05      	ldr	r3, [sp, #20]
    5c52:	469c      	mov	ip, r3
    5c54:	44b4      	add	ip, r6
    5c56:	4663      	mov	r3, ip
    5c58:	9305      	str	r3, [sp, #20]
    5c5a:	7823      	ldrb	r3, [r4, #0]
    5c5c:	2b00      	cmp	r3, #0
    5c5e:	d101      	bne.n	5c64 <_vfiprintf_r+0xbc>
    5c60:	f000 fe11 	bl	6886 <_vfiprintf_r+0xcde>
    5c64:	2300      	movs	r3, #0
    5c66:	aa0e      	add	r2, sp, #56	; 0x38
    5c68:	71d3      	strb	r3, [r2, #7]
    5c6a:	2201      	movs	r2, #1
    5c6c:	4252      	negs	r2, r2
    5c6e:	9203      	str	r2, [sp, #12]
    5c70:	2200      	movs	r2, #0
    5c72:	9209      	str	r2, [sp, #36]	; 0x24
    5c74:	9201      	str	r2, [sp, #4]
    5c76:	3240      	adds	r2, #64	; 0x40
    5c78:	4692      	mov	sl, r2
    5c7a:	3240      	adds	r2, #64	; 0x40
    5c7c:	4691      	mov	r9, r2
    5c7e:	3a7f      	subs	r2, #127	; 0x7f
    5c80:	1c65      	adds	r5, r4, #1
    5c82:	7863      	ldrb	r3, [r4, #1]
    5c84:	2000      	movs	r0, #0
    5c86:	2600      	movs	r6, #0
    5c88:	2420      	movs	r4, #32
    5c8a:	4694      	mov	ip, r2
    5c8c:	3501      	adds	r5, #1
    5c8e:	001a      	movs	r2, r3
    5c90:	3a20      	subs	r2, #32
    5c92:	2a58      	cmp	r2, #88	; 0x58
    5c94:	d900      	bls.n	5c98 <_vfiprintf_r+0xf0>
    5c96:	e39b      	b.n	63d0 <_vfiprintf_r+0x828>
    5c98:	499f      	ldr	r1, [pc, #636]	; (5f18 <_vfiprintf_r+0x370>)
    5c9a:	0092      	lsls	r2, r2, #2
    5c9c:	588a      	ldr	r2, [r1, r2]
    5c9e:	4697      	mov	pc, r2
    5ca0:	2a00      	cmp	r2, #0
    5ca2:	d001      	beq.n	5ca8 <_vfiprintf_r+0x100>
    5ca4:	f000 fcf8 	bl	6698 <_vfiprintf_r+0xaf0>
    5ca8:	9212      	str	r2, [sp, #72]	; 0x48
    5caa:	4647      	mov	r7, r8
    5cac:	e7d0      	b.n	5c50 <_vfiprintf_r+0xa8>
    5cae:	4651      	mov	r1, sl
    5cb0:	9804      	ldr	r0, [sp, #16]
    5cb2:	f7fd f907 	bl	2ec4 <__swsetup_r>
    5cb6:	2800      	cmp	r0, #0
    5cb8:	d001      	beq.n	5cbe <_vfiprintf_r+0x116>
    5cba:	f000 fda5 	bl	6808 <_vfiprintf_r+0xc60>
    5cbe:	4653      	mov	r3, sl
    5cc0:	221a      	movs	r2, #26
    5cc2:	899b      	ldrh	r3, [r3, #12]
    5cc4:	4013      	ands	r3, r2
    5cc6:	2b0a      	cmp	r3, #10
    5cc8:	d19d      	bne.n	5c06 <_vfiprintf_r+0x5e>
    5cca:	4653      	mov	r3, sl
    5ccc:	220e      	movs	r2, #14
    5cce:	5e9b      	ldrsh	r3, [r3, r2]
    5cd0:	2b00      	cmp	r3, #0
    5cd2:	db98      	blt.n	5c06 <_vfiprintf_r+0x5e>
    5cd4:	0023      	movs	r3, r4
    5cd6:	465a      	mov	r2, fp
    5cd8:	4651      	mov	r1, sl
    5cda:	9804      	ldr	r0, [sp, #16]
    5cdc:	f000 fe82 	bl	69e4 <__sbprintf>
    5ce0:	b02f      	add	sp, #188	; 0xbc
    5ce2:	bc3c      	pop	{r2, r3, r4, r5}
    5ce4:	4690      	mov	r8, r2
    5ce6:	4699      	mov	r9, r3
    5ce8:	46a2      	mov	sl, r4
    5cea:	46ab      	mov	fp, r5
    5cec:	bdf0      	pop	{r4, r5, r6, r7, pc}
    5cee:	f7fe fb67 	bl	43c0 <__sinit>
    5cf2:	e76c      	b.n	5bce <_vfiprintf_r+0x26>
    5cf4:	9b09      	ldr	r3, [sp, #36]	; 0x24
    5cf6:	920a      	str	r2, [sp, #40]	; 0x28
    5cf8:	425b      	negs	r3, r3
    5cfa:	9309      	str	r3, [sp, #36]	; 0x24
    5cfc:	2304      	movs	r3, #4
    5cfe:	9a01      	ldr	r2, [sp, #4]
    5d00:	431a      	orrs	r2, r3
    5d02:	9201      	str	r2, [sp, #4]
    5d04:	782b      	ldrb	r3, [r5, #0]
    5d06:	e7c1      	b.n	5c8c <_vfiprintf_r+0xe4>
    5d08:	2430      	movs	r4, #48	; 0x30
    5d0a:	9b0a      	ldr	r3, [sp, #40]	; 0x28
    5d0c:	aa10      	add	r2, sp, #64	; 0x40
    5d0e:	7014      	strb	r4, [r2, #0]
    5d10:	1d18      	adds	r0, r3, #4
    5d12:	3448      	adds	r4, #72	; 0x48
    5d14:	681b      	ldr	r3, [r3, #0]
    5d16:	7054      	strb	r4, [r2, #1]
    5d18:	9e01      	ldr	r6, [sp, #4]
    5d1a:	2200      	movs	r2, #0
    5d1c:	9306      	str	r3, [sp, #24]
    5d1e:	2300      	movs	r3, #0
    5d20:	0031      	movs	r1, r6
    5d22:	ac0e      	add	r4, sp, #56	; 0x38
    5d24:	71e2      	strb	r2, [r4, #7]
    5d26:	9a03      	ldr	r2, [sp, #12]
    5d28:	9307      	str	r3, [sp, #28]
    5d2a:	3302      	adds	r3, #2
    5d2c:	4319      	orrs	r1, r3
    5d2e:	2a00      	cmp	r2, #0
    5d30:	da01      	bge.n	5d36 <_vfiprintf_r+0x18e>
    5d32:	f000 fc61 	bl	65f8 <_vfiprintf_r+0xa50>
    5d36:	2280      	movs	r2, #128	; 0x80
    5d38:	0031      	movs	r1, r6
    5d3a:	4391      	bics	r1, r2
    5d3c:	000a      	movs	r2, r1
    5d3e:	431a      	orrs	r2, r3
    5d40:	9b06      	ldr	r3, [sp, #24]
    5d42:	9201      	str	r2, [sp, #4]
    5d44:	900a      	str	r0, [sp, #40]	; 0x28
    5d46:	2b00      	cmp	r3, #0
    5d48:	d001      	beq.n	5d4e <_vfiprintf_r+0x1a6>
    5d4a:	f000 fcf8 	bl	673e <_vfiprintf_r+0xb96>
    5d4e:	4b73      	ldr	r3, [pc, #460]	; (5f1c <_vfiprintf_r+0x374>)
    5d50:	9302      	str	r3, [sp, #8]
    5d52:	9b03      	ldr	r3, [sp, #12]
    5d54:	2400      	movs	r4, #0
    5d56:	2b00      	cmp	r3, #0
    5d58:	d001      	beq.n	5d5e <_vfiprintf_r+0x1b6>
    5d5a:	f000 fc57 	bl	660c <_vfiprintf_r+0xa64>
    5d5e:	2300      	movs	r3, #0
    5d60:	4646      	mov	r6, r8
    5d62:	9303      	str	r3, [sp, #12]
    5d64:	9308      	str	r3, [sp, #32]
    5d66:	9b03      	ldr	r3, [sp, #12]
    5d68:	9908      	ldr	r1, [sp, #32]
    5d6a:	9302      	str	r3, [sp, #8]
    5d6c:	428b      	cmp	r3, r1
    5d6e:	da00      	bge.n	5d72 <_vfiprintf_r+0x1ca>
    5d70:	9102      	str	r1, [sp, #8]
    5d72:	1e63      	subs	r3, r4, #1
    5d74:	419c      	sbcs	r4, r3
    5d76:	9b02      	ldr	r3, [sp, #8]
    5d78:	469c      	mov	ip, r3
    5d7a:	44a4      	add	ip, r4
    5d7c:	4663      	mov	r3, ip
    5d7e:	9302      	str	r3, [sp, #8]
    5d80:	2302      	movs	r3, #2
    5d82:	9a01      	ldr	r2, [sp, #4]
    5d84:	401a      	ands	r2, r3
    5d86:	920b      	str	r2, [sp, #44]	; 0x2c
    5d88:	d002      	beq.n	5d90 <_vfiprintf_r+0x1e8>
    5d8a:	9b02      	ldr	r3, [sp, #8]
    5d8c:	3302      	adds	r3, #2
    5d8e:	9302      	str	r3, [sp, #8]
    5d90:	2384      	movs	r3, #132	; 0x84
    5d92:	9a01      	ldr	r2, [sp, #4]
    5d94:	401a      	ands	r2, r3
    5d96:	920c      	str	r2, [sp, #48]	; 0x30
    5d98:	d000      	beq.n	5d9c <_vfiprintf_r+0x1f4>
    5d9a:	e351      	b.n	6440 <_vfiprintf_r+0x898>
    5d9c:	9b09      	ldr	r3, [sp, #36]	; 0x24
    5d9e:	9a02      	ldr	r2, [sp, #8]
    5da0:	1a9c      	subs	r4, r3, r2
    5da2:	2c00      	cmp	r4, #0
    5da4:	dc00      	bgt.n	5da8 <_vfiprintf_r+0x200>
    5da6:	e34b      	b.n	6440 <_vfiprintf_r+0x898>
    5da8:	9813      	ldr	r0, [sp, #76]	; 0x4c
    5daa:	2c10      	cmp	r4, #16
    5dac:	dc01      	bgt.n	5db2 <_vfiprintf_r+0x20a>
    5dae:	f000 fd95 	bl	68dc <_vfiprintf_r+0xd34>
    5db2:	4b5b      	ldr	r3, [pc, #364]	; (5f20 <_vfiprintf_r+0x378>)
    5db4:	9912      	ldr	r1, [sp, #72]	; 0x48
    5db6:	4699      	mov	r9, r3
    5db8:	2310      	movs	r3, #16
    5dba:	469a      	mov	sl, r3
    5dbc:	464b      	mov	r3, r9
    5dbe:	46a9      	mov	r9, r5
    5dc0:	001d      	movs	r5, r3
    5dc2:	e005      	b.n	5dd0 <_vfiprintf_r+0x228>
    5dc4:	1c8a      	adds	r2, r1, #2
    5dc6:	0019      	movs	r1, r3
    5dc8:	3708      	adds	r7, #8
    5dca:	3c10      	subs	r4, #16
    5dcc:	2c10      	cmp	r4, #16
    5dce:	dd11      	ble.n	5df4 <_vfiprintf_r+0x24c>
    5dd0:	4653      	mov	r3, sl
    5dd2:	3010      	adds	r0, #16
    5dd4:	607b      	str	r3, [r7, #4]
    5dd6:	1c4b      	adds	r3, r1, #1
    5dd8:	603d      	str	r5, [r7, #0]
    5dda:	9013      	str	r0, [sp, #76]	; 0x4c
    5ddc:	9312      	str	r3, [sp, #72]	; 0x48
    5dde:	2b07      	cmp	r3, #7
    5de0:	ddf0      	ble.n	5dc4 <_vfiprintf_r+0x21c>
    5de2:	2800      	cmp	r0, #0
    5de4:	d000      	beq.n	5de8 <_vfiprintf_r+0x240>
    5de6:	e31f      	b.n	6428 <_vfiprintf_r+0x880>
    5de8:	3c10      	subs	r4, #16
    5dea:	2100      	movs	r1, #0
    5dec:	2201      	movs	r2, #1
    5dee:	4647      	mov	r7, r8
    5df0:	2c10      	cmp	r4, #16
    5df2:	dced      	bgt.n	5dd0 <_vfiprintf_r+0x228>
    5df4:	002b      	movs	r3, r5
    5df6:	464d      	mov	r5, r9
    5df8:	4699      	mov	r9, r3
    5dfa:	464b      	mov	r3, r9
    5dfc:	1820      	adds	r0, r4, r0
    5dfe:	603b      	str	r3, [r7, #0]
    5e00:	607c      	str	r4, [r7, #4]
    5e02:	9013      	str	r0, [sp, #76]	; 0x4c
    5e04:	9212      	str	r2, [sp, #72]	; 0x48
    5e06:	2a07      	cmp	r2, #7
    5e08:	dd00      	ble.n	5e0c <_vfiprintf_r+0x264>
    5e0a:	e3ca      	b.n	65a2 <_vfiprintf_r+0x9fa>
    5e0c:	ab0e      	add	r3, sp, #56	; 0x38
    5e0e:	79db      	ldrb	r3, [r3, #7]
    5e10:	3708      	adds	r7, #8
    5e12:	1c51      	adds	r1, r2, #1
    5e14:	2b00      	cmp	r3, #0
    5e16:	d000      	beq.n	5e1a <_vfiprintf_r+0x272>
    5e18:	e31a      	b.n	6450 <_vfiprintf_r+0x8a8>
    5e1a:	9b0b      	ldr	r3, [sp, #44]	; 0x2c
    5e1c:	2b00      	cmp	r3, #0
    5e1e:	d100      	bne.n	5e22 <_vfiprintf_r+0x27a>
    5e20:	e32b      	b.n	647a <_vfiprintf_r+0x8d2>
    5e22:	ab10      	add	r3, sp, #64	; 0x40
    5e24:	603b      	str	r3, [r7, #0]
    5e26:	2302      	movs	r3, #2
    5e28:	3002      	adds	r0, #2
    5e2a:	607b      	str	r3, [r7, #4]
    5e2c:	9013      	str	r0, [sp, #76]	; 0x4c
    5e2e:	9112      	str	r1, [sp, #72]	; 0x48
    5e30:	2907      	cmp	r1, #7
    5e32:	dc01      	bgt.n	5e38 <_vfiprintf_r+0x290>
    5e34:	f000 fbdc 	bl	65f0 <_vfiprintf_r+0xa48>
    5e38:	2800      	cmp	r0, #0
    5e3a:	d001      	beq.n	5e40 <_vfiprintf_r+0x298>
    5e3c:	f000 fc45 	bl	66ca <_vfiprintf_r+0xb22>
    5e40:	9b0c      	ldr	r3, [sp, #48]	; 0x30
    5e42:	2101      	movs	r1, #1
    5e44:	2200      	movs	r2, #0
    5e46:	4647      	mov	r7, r8
    5e48:	2b80      	cmp	r3, #128	; 0x80
    5e4a:	d000      	beq.n	5e4e <_vfiprintf_r+0x2a6>
    5e4c:	e319      	b.n	6482 <_vfiprintf_r+0x8da>
    5e4e:	9b09      	ldr	r3, [sp, #36]	; 0x24
    5e50:	9c02      	ldr	r4, [sp, #8]
    5e52:	1b1c      	subs	r4, r3, r4
    5e54:	2c00      	cmp	r4, #0
    5e56:	dc00      	bgt.n	5e5a <_vfiprintf_r+0x2b2>
    5e58:	e313      	b.n	6482 <_vfiprintf_r+0x8da>
    5e5a:	2c10      	cmp	r4, #16
    5e5c:	dc01      	bgt.n	5e62 <_vfiprintf_r+0x2ba>
    5e5e:	f000 fd5e 	bl	691e <_vfiprintf_r+0xd76>
    5e62:	4b30      	ldr	r3, [pc, #192]	; (5f24 <_vfiprintf_r+0x37c>)
    5e64:	4699      	mov	r9, r3
    5e66:	2310      	movs	r3, #16
    5e68:	469a      	mov	sl, r3
    5e6a:	464b      	mov	r3, r9
    5e6c:	46a9      	mov	r9, r5
    5e6e:	001d      	movs	r5, r3
    5e70:	e005      	b.n	5e7e <_vfiprintf_r+0x2d6>
    5e72:	1c91      	adds	r1, r2, #2
    5e74:	001a      	movs	r2, r3
    5e76:	3708      	adds	r7, #8
    5e78:	3c10      	subs	r4, #16
    5e7a:	2c10      	cmp	r4, #16
    5e7c:	dd11      	ble.n	5ea2 <_vfiprintf_r+0x2fa>
    5e7e:	4653      	mov	r3, sl
    5e80:	3010      	adds	r0, #16
    5e82:	607b      	str	r3, [r7, #4]
    5e84:	1c53      	adds	r3, r2, #1
    5e86:	603d      	str	r5, [r7, #0]
    5e88:	9013      	str	r0, [sp, #76]	; 0x4c
    5e8a:	9312      	str	r3, [sp, #72]	; 0x48
    5e8c:	2b07      	cmp	r3, #7
    5e8e:	ddf0      	ble.n	5e72 <_vfiprintf_r+0x2ca>
    5e90:	2800      	cmp	r0, #0
    5e92:	d000      	beq.n	5e96 <_vfiprintf_r+0x2ee>
    5e94:	e379      	b.n	658a <_vfiprintf_r+0x9e2>
    5e96:	3c10      	subs	r4, #16
    5e98:	2101      	movs	r1, #1
    5e9a:	2200      	movs	r2, #0
    5e9c:	4647      	mov	r7, r8
    5e9e:	2c10      	cmp	r4, #16
    5ea0:	dced      	bgt.n	5e7e <_vfiprintf_r+0x2d6>
    5ea2:	002b      	movs	r3, r5
    5ea4:	468c      	mov	ip, r1
    5ea6:	464d      	mov	r5, r9
    5ea8:	4699      	mov	r9, r3
    5eaa:	464b      	mov	r3, r9
    5eac:	603b      	str	r3, [r7, #0]
    5eae:	4663      	mov	r3, ip
    5eb0:	1900      	adds	r0, r0, r4
    5eb2:	607c      	str	r4, [r7, #4]
    5eb4:	9013      	str	r0, [sp, #76]	; 0x4c
    5eb6:	9312      	str	r3, [sp, #72]	; 0x48
    5eb8:	2b07      	cmp	r3, #7
    5eba:	dd01      	ble.n	5ec0 <_vfiprintf_r+0x318>
    5ebc:	f000 fc12 	bl	66e4 <_vfiprintf_r+0xb3c>
    5ec0:	1c59      	adds	r1, r3, #1
    5ec2:	9c08      	ldr	r4, [sp, #32]
    5ec4:	9b03      	ldr	r3, [sp, #12]
    5ec6:	3708      	adds	r7, #8
    5ec8:	4662      	mov	r2, ip
    5eca:	1b1c      	subs	r4, r3, r4
    5ecc:	2c00      	cmp	r4, #0
    5ece:	dd00      	ble.n	5ed2 <_vfiprintf_r+0x32a>
    5ed0:	e2dd      	b.n	648e <_vfiprintf_r+0x8e6>
    5ed2:	9b08      	ldr	r3, [sp, #32]
    5ed4:	603e      	str	r6, [r7, #0]
    5ed6:	469c      	mov	ip, r3
    5ed8:	4460      	add	r0, ip
    5eda:	607b      	str	r3, [r7, #4]
    5edc:	9013      	str	r0, [sp, #76]	; 0x4c
    5ede:	9112      	str	r1, [sp, #72]	; 0x48
    5ee0:	2907      	cmp	r1, #7
    5ee2:	dc00      	bgt.n	5ee6 <_vfiprintf_r+0x33e>
    5ee4:	e335      	b.n	6552 <_vfiprintf_r+0x9aa>
    5ee6:	2800      	cmp	r0, #0
    5ee8:	d000      	beq.n	5eec <_vfiprintf_r+0x344>
    5eea:	e3b4      	b.n	6656 <_vfiprintf_r+0xaae>
    5eec:	9b01      	ldr	r3, [sp, #4]
    5eee:	9012      	str	r0, [sp, #72]	; 0x48
    5ef0:	075b      	lsls	r3, r3, #29
    5ef2:	d53d      	bpl.n	5f70 <_vfiprintf_r+0x3c8>
    5ef4:	9b09      	ldr	r3, [sp, #36]	; 0x24
    5ef6:	9a02      	ldr	r2, [sp, #8]
    5ef8:	1a9e      	subs	r6, r3, r2
    5efa:	4643      	mov	r3, r8
    5efc:	2e00      	cmp	r6, #0
    5efe:	dd37      	ble.n	5f70 <_vfiprintf_r+0x3c8>
    5f00:	2e10      	cmp	r6, #16
    5f02:	dc01      	bgt.n	5f08 <_vfiprintf_r+0x360>
    5f04:	f000 fd04 	bl	6910 <_vfiprintf_r+0xd68>
    5f08:	4a05      	ldr	r2, [pc, #20]	; (5f20 <_vfiprintf_r+0x378>)
    5f0a:	9912      	ldr	r1, [sp, #72]	; 0x48
    5f0c:	4691      	mov	r9, r2
    5f0e:	2710      	movs	r7, #16
    5f10:	e010      	b.n	5f34 <_vfiprintf_r+0x38c>
    5f12:	46c0      	nop			; (mov r8, r8)
    5f14:	ffffdfff 	.word	0xffffdfff
    5f18:	00009300 	.word	0x00009300
    5f1c:	00009194 	.word	0x00009194
    5f20:	00009474 	.word	0x00009474
    5f24:	00009464 	.word	0x00009464
    5f28:	1c8c      	adds	r4, r1, #2
    5f2a:	0011      	movs	r1, r2
    5f2c:	3308      	adds	r3, #8
    5f2e:	3e10      	subs	r6, #16
    5f30:	2e10      	cmp	r6, #16
    5f32:	dd11      	ble.n	5f58 <_vfiprintf_r+0x3b0>
    5f34:	4ad7      	ldr	r2, [pc, #860]	; (6294 <_vfiprintf_r+0x6ec>)
    5f36:	3010      	adds	r0, #16
    5f38:	601a      	str	r2, [r3, #0]
    5f3a:	1c4a      	adds	r2, r1, #1
    5f3c:	605f      	str	r7, [r3, #4]
    5f3e:	9013      	str	r0, [sp, #76]	; 0x4c
    5f40:	9212      	str	r2, [sp, #72]	; 0x48
    5f42:	2a07      	cmp	r2, #7
    5f44:	ddf0      	ble.n	5f28 <_vfiprintf_r+0x380>
    5f46:	2800      	cmp	r0, #0
    5f48:	d000      	beq.n	5f4c <_vfiprintf_r+0x3a4>
    5f4a:	e2eb      	b.n	6524 <_vfiprintf_r+0x97c>
    5f4c:	3e10      	subs	r6, #16
    5f4e:	2401      	movs	r4, #1
    5f50:	2100      	movs	r1, #0
    5f52:	4643      	mov	r3, r8
    5f54:	2e10      	cmp	r6, #16
    5f56:	dced      	bgt.n	5f34 <_vfiprintf_r+0x38c>
    5f58:	464a      	mov	r2, r9
    5f5a:	1980      	adds	r0, r0, r6
    5f5c:	c344      	stmia	r3!, {r2, r6}
    5f5e:	9013      	str	r0, [sp, #76]	; 0x4c
    5f60:	9412      	str	r4, [sp, #72]	; 0x48
    5f62:	2c07      	cmp	r4, #7
    5f64:	dc00      	bgt.n	5f68 <_vfiprintf_r+0x3c0>
    5f66:	e2ff      	b.n	6568 <_vfiprintf_r+0x9c0>
    5f68:	2800      	cmp	r0, #0
    5f6a:	d001      	beq.n	5f70 <_vfiprintf_r+0x3c8>
    5f6c:	f000 fc52 	bl	6814 <_vfiprintf_r+0xc6c>
    5f70:	9b09      	ldr	r3, [sp, #36]	; 0x24
    5f72:	9902      	ldr	r1, [sp, #8]
    5f74:	428b      	cmp	r3, r1
    5f76:	da00      	bge.n	5f7a <_vfiprintf_r+0x3d2>
    5f78:	000b      	movs	r3, r1
    5f7a:	9a05      	ldr	r2, [sp, #20]
    5f7c:	4694      	mov	ip, r2
    5f7e:	449c      	add	ip, r3
    5f80:	4663      	mov	r3, ip
    5f82:	9305      	str	r3, [sp, #20]
    5f84:	e2fc      	b.n	6580 <_vfiprintf_r+0x9d8>
    5f86:	464a      	mov	r2, r9
    5f88:	9b01      	ldr	r3, [sp, #4]
    5f8a:	4313      	orrs	r3, r2
    5f8c:	9301      	str	r3, [sp, #4]
    5f8e:	782b      	ldrb	r3, [r5, #0]
    5f90:	e67c      	b.n	5c8c <_vfiprintf_r+0xe4>
    5f92:	2800      	cmp	r0, #0
    5f94:	d001      	beq.n	5f9a <_vfiprintf_r+0x3f2>
    5f96:	f000 fd0c 	bl	69b2 <_vfiprintf_r+0xe0a>
    5f9a:	2310      	movs	r3, #16
    5f9c:	9a01      	ldr	r2, [sp, #4]
    5f9e:	431a      	orrs	r2, r3
    5fa0:	9201      	str	r2, [sp, #4]
    5fa2:	9b01      	ldr	r3, [sp, #4]
    5fa4:	069b      	lsls	r3, r3, #26
    5fa6:	d400      	bmi.n	5faa <_vfiprintf_r+0x402>
    5fa8:	e360      	b.n	666c <_vfiprintf_r+0xac4>
    5faa:	2307      	movs	r3, #7
    5fac:	9a0a      	ldr	r2, [sp, #40]	; 0x28
    5fae:	3207      	adds	r2, #7
    5fb0:	439a      	bics	r2, r3
    5fb2:	3301      	adds	r3, #1
    5fb4:	469c      	mov	ip, r3
    5fb6:	4494      	add	ip, r2
    5fb8:	4663      	mov	r3, ip
    5fba:	930a      	str	r3, [sp, #40]	; 0x28
    5fbc:	6853      	ldr	r3, [r2, #4]
    5fbe:	6812      	ldr	r2, [r2, #0]
    5fc0:	9307      	str	r3, [sp, #28]
    5fc2:	9206      	str	r2, [sp, #24]
    5fc4:	2b00      	cmp	r3, #0
    5fc6:	da00      	bge.n	5fca <_vfiprintf_r+0x422>
    5fc8:	e3bf      	b.n	674a <_vfiprintf_r+0xba2>
    5fca:	ab0e      	add	r3, sp, #56	; 0x38
    5fcc:	79dc      	ldrb	r4, [r3, #7]
    5fce:	9b03      	ldr	r3, [sp, #12]
    5fd0:	2b00      	cmp	r3, #0
    5fd2:	da00      	bge.n	5fd6 <_vfiprintf_r+0x42e>
    5fd4:	e359      	b.n	668a <_vfiprintf_r+0xae2>
    5fd6:	2380      	movs	r3, #128	; 0x80
    5fd8:	9a01      	ldr	r2, [sp, #4]
    5fda:	439a      	bics	r2, r3
    5fdc:	9201      	str	r2, [sp, #4]
    5fde:	9a06      	ldr	r2, [sp, #24]
    5fe0:	9b07      	ldr	r3, [sp, #28]
    5fe2:	0011      	movs	r1, r2
    5fe4:	4319      	orrs	r1, r3
    5fe6:	d100      	bne.n	5fea <_vfiprintf_r+0x442>
    5fe8:	e10e      	b.n	6208 <_vfiprintf_r+0x660>
    5fea:	9b07      	ldr	r3, [sp, #28]
    5fec:	2b00      	cmp	r3, #0
    5fee:	d101      	bne.n	5ff4 <_vfiprintf_r+0x44c>
    5ff0:	f000 fc6e 	bl	68d0 <_vfiprintf_r+0xd28>
    5ff4:	4646      	mov	r6, r8
    5ff6:	46a1      	mov	r9, r4
    5ff8:	46aa      	mov	sl, r5
    5ffa:	9c06      	ldr	r4, [sp, #24]
    5ffc:	9d07      	ldr	r5, [sp, #28]
    5ffe:	0020      	movs	r0, r4
    6000:	0029      	movs	r1, r5
    6002:	220a      	movs	r2, #10
    6004:	2300      	movs	r3, #0
    6006:	f001 f879 	bl	70fc <__aeabi_uldivmod>
    600a:	3e01      	subs	r6, #1
    600c:	3230      	adds	r2, #48	; 0x30
    600e:	7032      	strb	r2, [r6, #0]
    6010:	2300      	movs	r3, #0
    6012:	0020      	movs	r0, r4
    6014:	0029      	movs	r1, r5
    6016:	220a      	movs	r2, #10
    6018:	f001 f870 	bl	70fc <__aeabi_uldivmod>
    601c:	0003      	movs	r3, r0
    601e:	0004      	movs	r4, r0
    6020:	000d      	movs	r5, r1
    6022:	430b      	orrs	r3, r1
    6024:	d1eb      	bne.n	5ffe <_vfiprintf_r+0x456>
    6026:	4643      	mov	r3, r8
    6028:	1b9b      	subs	r3, r3, r6
    602a:	9406      	str	r4, [sp, #24]
    602c:	9507      	str	r5, [sp, #28]
    602e:	9308      	str	r3, [sp, #32]
    6030:	464c      	mov	r4, r9
    6032:	4655      	mov	r5, sl
    6034:	e697      	b.n	5d66 <_vfiprintf_r+0x1be>
    6036:	2800      	cmp	r0, #0
    6038:	d001      	beq.n	603e <_vfiprintf_r+0x496>
    603a:	f000 fcb6 	bl	69aa <_vfiprintf_r+0xe02>
    603e:	2310      	movs	r3, #16
    6040:	9a01      	ldr	r2, [sp, #4]
    6042:	431a      	orrs	r2, r3
    6044:	9201      	str	r2, [sp, #4]
    6046:	2320      	movs	r3, #32
    6048:	9a01      	ldr	r2, [sp, #4]
    604a:	4013      	ands	r3, r2
    604c:	d100      	bne.n	6050 <_vfiprintf_r+0x4a8>
    604e:	e1ce      	b.n	63ee <_vfiprintf_r+0x846>
    6050:	2207      	movs	r2, #7
    6052:	9b0a      	ldr	r3, [sp, #40]	; 0x28
    6054:	3307      	adds	r3, #7
    6056:	4393      	bics	r3, r2
    6058:	3201      	adds	r2, #1
    605a:	4694      	mov	ip, r2
    605c:	449c      	add	ip, r3
    605e:	4662      	mov	r2, ip
    6060:	685c      	ldr	r4, [r3, #4]
    6062:	681b      	ldr	r3, [r3, #0]
    6064:	9306      	str	r3, [sp, #24]
    6066:	9407      	str	r4, [sp, #28]
    6068:	2300      	movs	r3, #0
    606a:	920a      	str	r2, [sp, #40]	; 0x28
    606c:	aa0e      	add	r2, sp, #56	; 0x38
    606e:	71d3      	strb	r3, [r2, #7]
    6070:	9b03      	ldr	r3, [sp, #12]
    6072:	2b00      	cmp	r3, #0
    6074:	da01      	bge.n	607a <_vfiprintf_r+0x4d2>
    6076:	f000 fbfc 	bl	6872 <_vfiprintf_r+0xcca>
    607a:	2380      	movs	r3, #128	; 0x80
    607c:	9a01      	ldr	r2, [sp, #4]
    607e:	439a      	bics	r2, r3
    6080:	9201      	str	r2, [sp, #4]
    6082:	9a06      	ldr	r2, [sp, #24]
    6084:	9b07      	ldr	r3, [sp, #28]
    6086:	0011      	movs	r1, r2
    6088:	4319      	orrs	r1, r3
    608a:	d000      	beq.n	608e <_vfiprintf_r+0x4e6>
    608c:	e1ca      	b.n	6424 <_vfiprintf_r+0x87c>
    608e:	9b03      	ldr	r3, [sp, #12]
    6090:	2400      	movs	r4, #0
    6092:	2b00      	cmp	r3, #0
    6094:	d101      	bne.n	609a <_vfiprintf_r+0x4f2>
    6096:	f000 fc69 	bl	696c <_vfiprintf_r+0xdc4>
    609a:	2200      	movs	r2, #0
    609c:	2300      	movs	r3, #0
    609e:	9206      	str	r2, [sp, #24]
    60a0:	9307      	str	r3, [sp, #28]
    60a2:	9a06      	ldr	r2, [sp, #24]
    60a4:	9b07      	ldr	r3, [sp, #28]
    60a6:	4646      	mov	r6, r8
    60a8:	2007      	movs	r0, #7
    60aa:	46ba      	mov	sl, r7
    60ac:	46a4      	mov	ip, r4
    60ae:	46a9      	mov	r9, r5
    60b0:	075f      	lsls	r7, r3, #29
    60b2:	08d5      	lsrs	r5, r2, #3
    60b4:	0001      	movs	r1, r0
    60b6:	08dc      	lsrs	r4, r3, #3
    60b8:	432f      	orrs	r7, r5
    60ba:	0023      	movs	r3, r4
    60bc:	003c      	movs	r4, r7
    60be:	4011      	ands	r1, r2
    60c0:	3e01      	subs	r6, #1
    60c2:	3130      	adds	r1, #48	; 0x30
    60c4:	7031      	strb	r1, [r6, #0]
    60c6:	003a      	movs	r2, r7
    60c8:	431c      	orrs	r4, r3
    60ca:	d1f1      	bne.n	60b0 <_vfiprintf_r+0x508>
    60cc:	9206      	str	r2, [sp, #24]
    60ce:	9307      	str	r3, [sp, #28]
    60d0:	9a01      	ldr	r2, [sp, #4]
    60d2:	4657      	mov	r7, sl
    60d4:	4664      	mov	r4, ip
    60d6:	464d      	mov	r5, r9
    60d8:	07d2      	lsls	r2, r2, #31
    60da:	d400      	bmi.n	60de <_vfiprintf_r+0x536>
    60dc:	e0a5      	b.n	622a <_vfiprintf_r+0x682>
    60de:	2930      	cmp	r1, #48	; 0x30
    60e0:	d100      	bne.n	60e4 <_vfiprintf_r+0x53c>
    60e2:	e0a2      	b.n	622a <_vfiprintf_r+0x682>
    60e4:	2330      	movs	r3, #48	; 0x30
    60e6:	3e01      	subs	r6, #1
    60e8:	7033      	strb	r3, [r6, #0]
    60ea:	4643      	mov	r3, r8
    60ec:	1b9b      	subs	r3, r3, r6
    60ee:	9308      	str	r3, [sp, #32]
    60f0:	e639      	b.n	5d66 <_vfiprintf_r+0x1be>
    60f2:	2200      	movs	r2, #0
    60f4:	0019      	movs	r1, r3
    60f6:	0013      	movs	r3, r2
    60f8:	3930      	subs	r1, #48	; 0x30
    60fa:	009a      	lsls	r2, r3, #2
    60fc:	3501      	adds	r5, #1
    60fe:	18d3      	adds	r3, r2, r3
    6100:	1e6a      	subs	r2, r5, #1
    6102:	7812      	ldrb	r2, [r2, #0]
    6104:	005b      	lsls	r3, r3, #1
    6106:	18cb      	adds	r3, r1, r3
    6108:	0011      	movs	r1, r2
    610a:	3930      	subs	r1, #48	; 0x30
    610c:	2909      	cmp	r1, #9
    610e:	d9f4      	bls.n	60fa <_vfiprintf_r+0x552>
    6110:	9309      	str	r3, [sp, #36]	; 0x24
    6112:	0013      	movs	r3, r2
    6114:	e5bb      	b.n	5c8e <_vfiprintf_r+0xe6>
    6116:	782b      	ldrb	r3, [r5, #0]
    6118:	2001      	movs	r0, #1
    611a:	262b      	movs	r6, #43	; 0x2b
    611c:	e5b6      	b.n	5c8c <_vfiprintf_r+0xe4>
    611e:	1c6b      	adds	r3, r5, #1
    6120:	9302      	str	r3, [sp, #8]
    6122:	782b      	ldrb	r3, [r5, #0]
    6124:	2b2a      	cmp	r3, #42	; 0x2a
    6126:	d101      	bne.n	612c <_vfiprintf_r+0x584>
    6128:	f000 fc0d 	bl	6946 <_vfiprintf_r+0xd9e>
    612c:	0019      	movs	r1, r3
    612e:	3930      	subs	r1, #48	; 0x30
    6130:	2200      	movs	r2, #0
    6132:	9d02      	ldr	r5, [sp, #8]
    6134:	2909      	cmp	r1, #9
    6136:	d80d      	bhi.n	6154 <_vfiprintf_r+0x5ac>
    6138:	0093      	lsls	r3, r2, #2
    613a:	3501      	adds	r5, #1
    613c:	189a      	adds	r2, r3, r2
    613e:	1e6b      	subs	r3, r5, #1
    6140:	781b      	ldrb	r3, [r3, #0]
    6142:	0052      	lsls	r2, r2, #1
    6144:	1852      	adds	r2, r2, r1
    6146:	0019      	movs	r1, r3
    6148:	3930      	subs	r1, #48	; 0x30
    614a:	2909      	cmp	r1, #9
    614c:	d9f4      	bls.n	6138 <_vfiprintf_r+0x590>
    614e:	2a00      	cmp	r2, #0
    6150:	da00      	bge.n	6154 <_vfiprintf_r+0x5ac>
    6152:	e388      	b.n	6866 <_vfiprintf_r+0xcbe>
    6154:	9203      	str	r2, [sp, #12]
    6156:	e59a      	b.n	5c8e <_vfiprintf_r+0xe6>
    6158:	9b0a      	ldr	r3, [sp, #40]	; 0x28
    615a:	1d1a      	adds	r2, r3, #4
    615c:	681b      	ldr	r3, [r3, #0]
    615e:	9309      	str	r3, [sp, #36]	; 0x24
    6160:	2b00      	cmp	r3, #0
    6162:	da00      	bge.n	6166 <_vfiprintf_r+0x5be>
    6164:	e5c6      	b.n	5cf4 <_vfiprintf_r+0x14c>
    6166:	782b      	ldrb	r3, [r5, #0]
    6168:	920a      	str	r2, [sp, #40]	; 0x28
    616a:	e58f      	b.n	5c8c <_vfiprintf_r+0xe4>
    616c:	2800      	cmp	r0, #0
    616e:	d100      	bne.n	6172 <_vfiprintf_r+0x5ca>
    6170:	e769      	b.n	6046 <_vfiprintf_r+0x49e>
    6172:	ab0e      	add	r3, sp, #56	; 0x38
    6174:	71de      	strb	r6, [r3, #7]
    6176:	e766      	b.n	6046 <_vfiprintf_r+0x49e>
    6178:	9b0a      	ldr	r3, [sp, #40]	; 0x28
    617a:	1d1a      	adds	r2, r3, #4
    617c:	681e      	ldr	r6, [r3, #0]
    617e:	2300      	movs	r3, #0
    6180:	4691      	mov	r9, r2
    6182:	aa0e      	add	r2, sp, #56	; 0x38
    6184:	71d3      	strb	r3, [r2, #7]
    6186:	2e00      	cmp	r6, #0
    6188:	d100      	bne.n	618c <_vfiprintf_r+0x5e4>
    618a:	e3b1      	b.n	68f0 <_vfiprintf_r+0xd48>
    618c:	9b03      	ldr	r3, [sp, #12]
    618e:	2b00      	cmp	r3, #0
    6190:	da00      	bge.n	6194 <_vfiprintf_r+0x5ec>
    6192:	e38b      	b.n	68ac <_vfiprintf_r+0xd04>
    6194:	001a      	movs	r2, r3
    6196:	2100      	movs	r1, #0
    6198:	0030      	movs	r0, r6
    619a:	f7fe fcd3 	bl	4b44 <memchr>
    619e:	2800      	cmp	r0, #0
    61a0:	d100      	bne.n	61a4 <_vfiprintf_r+0x5fc>
    61a2:	e3c1      	b.n	6928 <_vfiprintf_r+0xd80>
    61a4:	1b83      	subs	r3, r0, r6
    61a6:	9308      	str	r3, [sp, #32]
    61a8:	ab0e      	add	r3, sp, #56	; 0x38
    61aa:	79dc      	ldrb	r4, [r3, #7]
    61ac:	464b      	mov	r3, r9
    61ae:	930a      	str	r3, [sp, #40]	; 0x28
    61b0:	2300      	movs	r3, #0
    61b2:	9303      	str	r3, [sp, #12]
    61b4:	e5d7      	b.n	5d66 <_vfiprintf_r+0x1be>
    61b6:	2800      	cmp	r0, #0
    61b8:	d001      	beq.n	61be <_vfiprintf_r+0x616>
    61ba:	f000 fbf2 	bl	69a2 <_vfiprintf_r+0xdfa>
    61be:	2320      	movs	r3, #32
    61c0:	9a01      	ldr	r2, [sp, #4]
    61c2:	4013      	ands	r3, r2
    61c4:	d145      	bne.n	6252 <_vfiprintf_r+0x6aa>
    61c6:	2210      	movs	r2, #16
    61c8:	9901      	ldr	r1, [sp, #4]
    61ca:	400a      	ands	r2, r1
    61cc:	d000      	beq.n	61d0 <_vfiprintf_r+0x628>
    61ce:	e2ba      	b.n	6746 <_vfiprintf_r+0xb9e>
    61d0:	2340      	movs	r3, #64	; 0x40
    61d2:	9901      	ldr	r1, [sp, #4]
    61d4:	400b      	ands	r3, r1
    61d6:	990a      	ldr	r1, [sp, #40]	; 0x28
    61d8:	d000      	beq.n	61dc <_vfiprintf_r+0x634>
    61da:	e325      	b.n	6828 <_vfiprintf_r+0xc80>
    61dc:	000a      	movs	r2, r1
    61de:	6809      	ldr	r1, [r1, #0]
    61e0:	3204      	adds	r2, #4
    61e2:	9106      	str	r1, [sp, #24]
    61e4:	2100      	movs	r1, #0
    61e6:	9107      	str	r1, [sp, #28]
    61e8:	a90e      	add	r1, sp, #56	; 0x38
    61ea:	71cb      	strb	r3, [r1, #7]
    61ec:	9b03      	ldr	r3, [sp, #12]
    61ee:	2b00      	cmp	r3, #0
    61f0:	da00      	bge.n	61f4 <_vfiprintf_r+0x64c>
    61f2:	e248      	b.n	6686 <_vfiprintf_r+0xade>
    61f4:	2380      	movs	r3, #128	; 0x80
    61f6:	9901      	ldr	r1, [sp, #4]
    61f8:	920a      	str	r2, [sp, #40]	; 0x28
    61fa:	4399      	bics	r1, r3
    61fc:	9b06      	ldr	r3, [sp, #24]
    61fe:	9101      	str	r1, [sp, #4]
    6200:	2400      	movs	r4, #0
    6202:	2b00      	cmp	r3, #0
    6204:	d000      	beq.n	6208 <_vfiprintf_r+0x660>
    6206:	e6f0      	b.n	5fea <_vfiprintf_r+0x442>
    6208:	9b03      	ldr	r3, [sp, #12]
    620a:	2b00      	cmp	r3, #0
    620c:	d100      	bne.n	6210 <_vfiprintf_r+0x668>
    620e:	e5a6      	b.n	5d5e <_vfiprintf_r+0x1b6>
    6210:	2200      	movs	r2, #0
    6212:	2300      	movs	r3, #0
    6214:	9206      	str	r2, [sp, #24]
    6216:	9307      	str	r3, [sp, #28]
    6218:	2227      	movs	r2, #39	; 0x27
    621a:	9b06      	ldr	r3, [sp, #24]
    621c:	a914      	add	r1, sp, #80	; 0x50
    621e:	3330      	adds	r3, #48	; 0x30
    6220:	548b      	strb	r3, [r1, r2]
    6222:	ab0e      	add	r3, sp, #56	; 0x38
    6224:	263f      	movs	r6, #63	; 0x3f
    6226:	469c      	mov	ip, r3
    6228:	4466      	add	r6, ip
    622a:	4643      	mov	r3, r8
    622c:	1b9b      	subs	r3, r3, r6
    622e:	9308      	str	r3, [sp, #32]
    6230:	e599      	b.n	5d66 <_vfiprintf_r+0x1be>
    6232:	9b01      	ldr	r3, [sp, #4]
    6234:	4323      	orrs	r3, r4
    6236:	9301      	str	r3, [sp, #4]
    6238:	782b      	ldrb	r3, [r5, #0]
    623a:	e527      	b.n	5c8c <_vfiprintf_r+0xe4>
    623c:	2800      	cmp	r0, #0
    623e:	d000      	beq.n	6242 <_vfiprintf_r+0x69a>
    6240:	e3ac      	b.n	699c <_vfiprintf_r+0xdf4>
    6242:	2310      	movs	r3, #16
    6244:	9a01      	ldr	r2, [sp, #4]
    6246:	431a      	orrs	r2, r3
    6248:	2320      	movs	r3, #32
    624a:	9201      	str	r2, [sp, #4]
    624c:	9a01      	ldr	r2, [sp, #4]
    624e:	4013      	ands	r3, r2
    6250:	d0b9      	beq.n	61c6 <_vfiprintf_r+0x61e>
    6252:	2207      	movs	r2, #7
    6254:	9b0a      	ldr	r3, [sp, #40]	; 0x28
    6256:	3307      	adds	r3, #7
    6258:	4393      	bics	r3, r2
    625a:	3201      	adds	r2, #1
    625c:	4694      	mov	ip, r2
    625e:	449c      	add	ip, r3
    6260:	4662      	mov	r2, ip
    6262:	685c      	ldr	r4, [r3, #4]
    6264:	681b      	ldr	r3, [r3, #0]
    6266:	9306      	str	r3, [sp, #24]
    6268:	9407      	str	r4, [sp, #28]
    626a:	2300      	movs	r3, #0
    626c:	920a      	str	r2, [sp, #40]	; 0x28
    626e:	aa0e      	add	r2, sp, #56	; 0x38
    6270:	71d3      	strb	r3, [r2, #7]
    6272:	9b03      	ldr	r3, [sp, #12]
    6274:	2b00      	cmp	r3, #0
    6276:	da00      	bge.n	627a <_vfiprintf_r+0x6d2>
    6278:	e206      	b.n	6688 <_vfiprintf_r+0xae0>
    627a:	2380      	movs	r3, #128	; 0x80
    627c:	9a01      	ldr	r2, [sp, #4]
    627e:	2400      	movs	r4, #0
    6280:	439a      	bics	r2, r3
    6282:	9201      	str	r2, [sp, #4]
    6284:	9a06      	ldr	r2, [sp, #24]
    6286:	9b07      	ldr	r3, [sp, #28]
    6288:	0011      	movs	r1, r2
    628a:	4319      	orrs	r1, r3
    628c:	d000      	beq.n	6290 <_vfiprintf_r+0x6e8>
    628e:	e6ac      	b.n	5fea <_vfiprintf_r+0x442>
    6290:	e7ba      	b.n	6208 <_vfiprintf_r+0x660>
    6292:	46c0      	nop			; (mov r8, r8)
    6294:	00009474 	.word	0x00009474
    6298:	2800      	cmp	r0, #0
    629a:	d000      	beq.n	629e <_vfiprintf_r+0x6f6>
    629c:	e393      	b.n	69c6 <_vfiprintf_r+0xe1e>
    629e:	4acb      	ldr	r2, [pc, #812]	; (65cc <_vfiprintf_r+0xa24>)
    62a0:	9202      	str	r2, [sp, #8]
    62a2:	9a01      	ldr	r2, [sp, #4]
    62a4:	0692      	lsls	r2, r2, #26
    62a6:	d549      	bpl.n	633c <_vfiprintf_r+0x794>
    62a8:	2108      	movs	r1, #8
    62aa:	2007      	movs	r0, #7
    62ac:	468c      	mov	ip, r1
    62ae:	9a0a      	ldr	r2, [sp, #40]	; 0x28
    62b0:	3207      	adds	r2, #7
    62b2:	4382      	bics	r2, r0
    62b4:	4494      	add	ip, r2
    62b6:	4661      	mov	r1, ip
    62b8:	910a      	str	r1, [sp, #40]	; 0x28
    62ba:	6811      	ldr	r1, [r2, #0]
    62bc:	6852      	ldr	r2, [r2, #4]
    62be:	9106      	str	r1, [sp, #24]
    62c0:	9207      	str	r2, [sp, #28]
    62c2:	2201      	movs	r2, #1
    62c4:	9901      	ldr	r1, [sp, #4]
    62c6:	400a      	ands	r2, r1
    62c8:	d04a      	beq.n	6360 <_vfiprintf_r+0x7b8>
    62ca:	9906      	ldr	r1, [sp, #24]
    62cc:	9a07      	ldr	r2, [sp, #28]
    62ce:	0008      	movs	r0, r1
    62d0:	4310      	orrs	r0, r2
    62d2:	d000      	beq.n	62d6 <_vfiprintf_r+0x72e>
    62d4:	e21c      	b.n	6710 <_vfiprintf_r+0xb68>
    62d6:	ab0e      	add	r3, sp, #56	; 0x38
    62d8:	71d8      	strb	r0, [r3, #7]
    62da:	9b03      	ldr	r3, [sp, #12]
    62dc:	2b00      	cmp	r3, #0
    62de:	da00      	bge.n	62e2 <_vfiprintf_r+0x73a>
    62e0:	e194      	b.n	660c <_vfiprintf_r+0xa64>
    62e2:	2380      	movs	r3, #128	; 0x80
    62e4:	9a01      	ldr	r2, [sp, #4]
    62e6:	439a      	bics	r2, r3
    62e8:	9201      	str	r2, [sp, #4]
    62ea:	e532      	b.n	5d52 <_vfiprintf_r+0x1aa>
    62ec:	9a0a      	ldr	r2, [sp, #40]	; 0x28
    62ee:	ae14      	add	r6, sp, #80	; 0x50
    62f0:	6813      	ldr	r3, [r2, #0]
    62f2:	a90e      	add	r1, sp, #56	; 0x38
    62f4:	9302      	str	r3, [sp, #8]
    62f6:	466b      	mov	r3, sp
    62f8:	7a1b      	ldrb	r3, [r3, #8]
    62fa:	7033      	strb	r3, [r6, #0]
    62fc:	2300      	movs	r3, #0
    62fe:	71cb      	strb	r3, [r1, #7]
    6300:	0013      	movs	r3, r2
    6302:	3304      	adds	r3, #4
    6304:	930a      	str	r3, [sp, #40]	; 0x28
    6306:	2301      	movs	r3, #1
    6308:	9302      	str	r3, [sp, #8]
    630a:	9308      	str	r3, [sp, #32]
    630c:	2300      	movs	r3, #0
    630e:	9303      	str	r3, [sp, #12]
    6310:	e536      	b.n	5d80 <_vfiprintf_r+0x1d8>
    6312:	782b      	ldrb	r3, [r5, #0]
    6314:	2e00      	cmp	r6, #0
    6316:	d000      	beq.n	631a <_vfiprintf_r+0x772>
    6318:	e4b8      	b.n	5c8c <_vfiprintf_r+0xe4>
    631a:	2001      	movs	r0, #1
    631c:	3620      	adds	r6, #32
    631e:	e4b5      	b.n	5c8c <_vfiprintf_r+0xe4>
    6320:	4662      	mov	r2, ip
    6322:	9b01      	ldr	r3, [sp, #4]
    6324:	4313      	orrs	r3, r2
    6326:	9301      	str	r3, [sp, #4]
    6328:	782b      	ldrb	r3, [r5, #0]
    632a:	e4af      	b.n	5c8c <_vfiprintf_r+0xe4>
    632c:	2800      	cmp	r0, #0
    632e:	d000      	beq.n	6332 <_vfiprintf_r+0x78a>
    6330:	e346      	b.n	69c0 <_vfiprintf_r+0xe18>
    6332:	4aa7      	ldr	r2, [pc, #668]	; (65d0 <_vfiprintf_r+0xa28>)
    6334:	9202      	str	r2, [sp, #8]
    6336:	9a01      	ldr	r2, [sp, #4]
    6338:	0692      	lsls	r2, r2, #26
    633a:	d4b5      	bmi.n	62a8 <_vfiprintf_r+0x700>
    633c:	9a01      	ldr	r2, [sp, #4]
    633e:	06d2      	lsls	r2, r2, #27
    6340:	d403      	bmi.n	634a <_vfiprintf_r+0x7a2>
    6342:	9a01      	ldr	r2, [sp, #4]
    6344:	0652      	lsls	r2, r2, #25
    6346:	d500      	bpl.n	634a <_vfiprintf_r+0x7a2>
    6348:	e28a      	b.n	6860 <_vfiprintf_r+0xcb8>
    634a:	9a0a      	ldr	r2, [sp, #40]	; 0x28
    634c:	6811      	ldr	r1, [r2, #0]
    634e:	9106      	str	r1, [sp, #24]
    6350:	2100      	movs	r1, #0
    6352:	3204      	adds	r2, #4
    6354:	920a      	str	r2, [sp, #40]	; 0x28
    6356:	2201      	movs	r2, #1
    6358:	9107      	str	r1, [sp, #28]
    635a:	9901      	ldr	r1, [sp, #4]
    635c:	400a      	ands	r2, r1
    635e:	d1b4      	bne.n	62ca <_vfiprintf_r+0x722>
    6360:	ab0e      	add	r3, sp, #56	; 0x38
    6362:	71da      	strb	r2, [r3, #7]
    6364:	9b03      	ldr	r3, [sp, #12]
    6366:	2b00      	cmp	r3, #0
    6368:	da00      	bge.n	636c <_vfiprintf_r+0x7c4>
    636a:	e251      	b.n	6810 <_vfiprintf_r+0xc68>
    636c:	2380      	movs	r3, #128	; 0x80
    636e:	4399      	bics	r1, r3
    6370:	9101      	str	r1, [sp, #4]
    6372:	9a06      	ldr	r2, [sp, #24]
    6374:	9b07      	ldr	r3, [sp, #28]
    6376:	0011      	movs	r1, r2
    6378:	4319      	orrs	r1, r3
    637a:	d100      	bne.n	637e <_vfiprintf_r+0x7d6>
    637c:	e4e9      	b.n	5d52 <_vfiprintf_r+0x1aa>
    637e:	2400      	movs	r4, #0
    6380:	e149      	b.n	6616 <_vfiprintf_r+0xa6e>
    6382:	4652      	mov	r2, sl
    6384:	9b01      	ldr	r3, [sp, #4]
    6386:	4313      	orrs	r3, r2
    6388:	9301      	str	r3, [sp, #4]
    638a:	782b      	ldrb	r3, [r5, #0]
    638c:	e47e      	b.n	5c8c <_vfiprintf_r+0xe4>
    638e:	782b      	ldrb	r3, [r5, #0]
    6390:	2b6c      	cmp	r3, #108	; 0x6c
    6392:	d100      	bne.n	6396 <_vfiprintf_r+0x7ee>
    6394:	e283      	b.n	689e <_vfiprintf_r+0xcf6>
    6396:	2110      	movs	r1, #16
    6398:	9a01      	ldr	r2, [sp, #4]
    639a:	430a      	orrs	r2, r1
    639c:	9201      	str	r2, [sp, #4]
    639e:	e475      	b.n	5c8c <_vfiprintf_r+0xe4>
    63a0:	2800      	cmp	r0, #0
    63a2:	d000      	beq.n	63a6 <_vfiprintf_r+0x7fe>
    63a4:	e2f7      	b.n	6996 <_vfiprintf_r+0xdee>
    63a6:	9b01      	ldr	r3, [sp, #4]
    63a8:	069b      	lsls	r3, r3, #26
    63aa:	d400      	bmi.n	63ae <_vfiprintf_r+0x806>
    63ac:	e206      	b.n	67bc <_vfiprintf_r+0xc14>
    63ae:	990a      	ldr	r1, [sp, #40]	; 0x28
    63b0:	9a05      	ldr	r2, [sp, #20]
    63b2:	680b      	ldr	r3, [r1, #0]
    63b4:	601a      	str	r2, [r3, #0]
    63b6:	17d2      	asrs	r2, r2, #31
    63b8:	605a      	str	r2, [r3, #4]
    63ba:	000b      	movs	r3, r1
    63bc:	3304      	adds	r3, #4
    63be:	930a      	str	r3, [sp, #40]	; 0x28
    63c0:	f7ff fc2b 	bl	5c1a <_vfiprintf_r+0x72>
    63c4:	2800      	cmp	r0, #0
    63c6:	d100      	bne.n	63ca <_vfiprintf_r+0x822>
    63c8:	e5eb      	b.n	5fa2 <_vfiprintf_r+0x3fa>
    63ca:	ab0e      	add	r3, sp, #56	; 0x38
    63cc:	71de      	strb	r6, [r3, #7]
    63ce:	e5e8      	b.n	5fa2 <_vfiprintf_r+0x3fa>
    63d0:	2800      	cmp	r0, #0
    63d2:	d000      	beq.n	63d6 <_vfiprintf_r+0x82e>
    63d4:	e2f1      	b.n	69ba <_vfiprintf_r+0xe12>
    63d6:	2b00      	cmp	r3, #0
    63d8:	d100      	bne.n	63dc <_vfiprintf_r+0x834>
    63da:	e254      	b.n	6886 <_vfiprintf_r+0xcde>
    63dc:	ae14      	add	r6, sp, #80	; 0x50
    63de:	7033      	strb	r3, [r6, #0]
    63e0:	2300      	movs	r3, #0
    63e2:	aa0e      	add	r2, sp, #56	; 0x38
    63e4:	71d3      	strb	r3, [r2, #7]
    63e6:	3301      	adds	r3, #1
    63e8:	9302      	str	r3, [sp, #8]
    63ea:	9308      	str	r3, [sp, #32]
    63ec:	e78e      	b.n	630c <_vfiprintf_r+0x764>
    63ee:	2210      	movs	r2, #16
    63f0:	9901      	ldr	r1, [sp, #4]
    63f2:	400a      	ands	r2, r1
    63f4:	d100      	bne.n	63f8 <_vfiprintf_r+0x850>
    63f6:	e1bc      	b.n	6772 <_vfiprintf_r+0xbca>
    63f8:	990a      	ldr	r1, [sp, #40]	; 0x28
    63fa:	000a      	movs	r2, r1
    63fc:	6809      	ldr	r1, [r1, #0]
    63fe:	3204      	adds	r2, #4
    6400:	9106      	str	r1, [sp, #24]
    6402:	2100      	movs	r1, #0
    6404:	9107      	str	r1, [sp, #28]
    6406:	a90e      	add	r1, sp, #56	; 0x38
    6408:	71cb      	strb	r3, [r1, #7]
    640a:	9b03      	ldr	r3, [sp, #12]
    640c:	2b00      	cmp	r3, #0
    640e:	da00      	bge.n	6412 <_vfiprintf_r+0x86a>
    6410:	e22e      	b.n	6870 <_vfiprintf_r+0xcc8>
    6412:	2380      	movs	r3, #128	; 0x80
    6414:	9901      	ldr	r1, [sp, #4]
    6416:	920a      	str	r2, [sp, #40]	; 0x28
    6418:	4399      	bics	r1, r3
    641a:	9b06      	ldr	r3, [sp, #24]
    641c:	9101      	str	r1, [sp, #4]
    641e:	2b00      	cmp	r3, #0
    6420:	d100      	bne.n	6424 <_vfiprintf_r+0x87c>
    6422:	e634      	b.n	608e <_vfiprintf_r+0x4e6>
    6424:	2400      	movs	r4, #0
    6426:	e63c      	b.n	60a2 <_vfiprintf_r+0x4fa>
    6428:	aa11      	add	r2, sp, #68	; 0x44
    642a:	4659      	mov	r1, fp
    642c:	9804      	ldr	r0, [sp, #16]
    642e:	f7ff fb75 	bl	5b1c <__sprint_r.part.0>
    6432:	2800      	cmp	r0, #0
    6434:	d16d      	bne.n	6512 <_vfiprintf_r+0x96a>
    6436:	9912      	ldr	r1, [sp, #72]	; 0x48
    6438:	9813      	ldr	r0, [sp, #76]	; 0x4c
    643a:	1c4a      	adds	r2, r1, #1
    643c:	4647      	mov	r7, r8
    643e:	e4c4      	b.n	5dca <_vfiprintf_r+0x222>
    6440:	9a12      	ldr	r2, [sp, #72]	; 0x48
    6442:	9813      	ldr	r0, [sp, #76]	; 0x4c
    6444:	1c51      	adds	r1, r2, #1
    6446:	ab0e      	add	r3, sp, #56	; 0x38
    6448:	79db      	ldrb	r3, [r3, #7]
    644a:	2b00      	cmp	r3, #0
    644c:	d100      	bne.n	6450 <_vfiprintf_r+0x8a8>
    644e:	e4e4      	b.n	5e1a <_vfiprintf_r+0x272>
    6450:	ab0e      	add	r3, sp, #56	; 0x38
    6452:	3307      	adds	r3, #7
    6454:	603b      	str	r3, [r7, #0]
    6456:	2301      	movs	r3, #1
    6458:	3001      	adds	r0, #1
    645a:	607b      	str	r3, [r7, #4]
    645c:	9013      	str	r0, [sp, #76]	; 0x4c
    645e:	9112      	str	r1, [sp, #72]	; 0x48
    6460:	2907      	cmp	r1, #7
    6462:	dc00      	bgt.n	6466 <_vfiprintf_r+0x8be>
    6464:	e0ae      	b.n	65c4 <_vfiprintf_r+0xa1c>
    6466:	2800      	cmp	r0, #0
    6468:	d000      	beq.n	646c <_vfiprintf_r+0x8c4>
    646a:	e120      	b.n	66ae <_vfiprintf_r+0xb06>
    646c:	9b0b      	ldr	r3, [sp, #44]	; 0x2c
    646e:	2b00      	cmp	r3, #0
    6470:	d000      	beq.n	6474 <_vfiprintf_r+0x8cc>
    6472:	e0b5      	b.n	65e0 <_vfiprintf_r+0xa38>
    6474:	2200      	movs	r2, #0
    6476:	2101      	movs	r1, #1
    6478:	4647      	mov	r7, r8
    647a:	9b0c      	ldr	r3, [sp, #48]	; 0x30
    647c:	2b80      	cmp	r3, #128	; 0x80
    647e:	d100      	bne.n	6482 <_vfiprintf_r+0x8da>
    6480:	e4e5      	b.n	5e4e <_vfiprintf_r+0x2a6>
    6482:	9b03      	ldr	r3, [sp, #12]
    6484:	9c08      	ldr	r4, [sp, #32]
    6486:	1b1c      	subs	r4, r3, r4
    6488:	2c00      	cmp	r4, #0
    648a:	dc00      	bgt.n	648e <_vfiprintf_r+0x8e6>
    648c:	e521      	b.n	5ed2 <_vfiprintf_r+0x32a>
    648e:	4b51      	ldr	r3, [pc, #324]	; (65d4 <_vfiprintf_r+0xa2c>)
    6490:	4699      	mov	r9, r3
    6492:	2c10      	cmp	r4, #16
    6494:	dd1f      	ble.n	64d6 <_vfiprintf_r+0x92e>
    6496:	2310      	movs	r3, #16
    6498:	469a      	mov	sl, r3
    649a:	464b      	mov	r3, r9
    649c:	46a9      	mov	r9, r5
    649e:	001d      	movs	r5, r3
    64a0:	e005      	b.n	64ae <_vfiprintf_r+0x906>
    64a2:	1c91      	adds	r1, r2, #2
    64a4:	001a      	movs	r2, r3
    64a6:	3708      	adds	r7, #8
    64a8:	3c10      	subs	r4, #16
    64aa:	2c10      	cmp	r4, #16
    64ac:	dd10      	ble.n	64d0 <_vfiprintf_r+0x928>
    64ae:	4653      	mov	r3, sl
    64b0:	3010      	adds	r0, #16
    64b2:	607b      	str	r3, [r7, #4]
    64b4:	1c53      	adds	r3, r2, #1
    64b6:	603d      	str	r5, [r7, #0]
    64b8:	9013      	str	r0, [sp, #76]	; 0x4c
    64ba:	9312      	str	r3, [sp, #72]	; 0x48
    64bc:	2b07      	cmp	r3, #7
    64be:	ddf0      	ble.n	64a2 <_vfiprintf_r+0x8fa>
    64c0:	2800      	cmp	r0, #0
    64c2:	d113      	bne.n	64ec <_vfiprintf_r+0x944>
    64c4:	3c10      	subs	r4, #16
    64c6:	2101      	movs	r1, #1
    64c8:	2200      	movs	r2, #0
    64ca:	4647      	mov	r7, r8
    64cc:	2c10      	cmp	r4, #16
    64ce:	dcee      	bgt.n	64ae <_vfiprintf_r+0x906>
    64d0:	002b      	movs	r3, r5
    64d2:	464d      	mov	r5, r9
    64d4:	4699      	mov	r9, r3
    64d6:	464b      	mov	r3, r9
    64d8:	1900      	adds	r0, r0, r4
    64da:	603b      	str	r3, [r7, #0]
    64dc:	607c      	str	r4, [r7, #4]
    64de:	9013      	str	r0, [sp, #76]	; 0x4c
    64e0:	9112      	str	r1, [sp, #72]	; 0x48
    64e2:	2907      	cmp	r1, #7
    64e4:	dc2a      	bgt.n	653c <_vfiprintf_r+0x994>
    64e6:	3708      	adds	r7, #8
    64e8:	3101      	adds	r1, #1
    64ea:	e4f2      	b.n	5ed2 <_vfiprintf_r+0x32a>
    64ec:	aa11      	add	r2, sp, #68	; 0x44
    64ee:	4659      	mov	r1, fp
    64f0:	9804      	ldr	r0, [sp, #16]
    64f2:	f7ff fb13 	bl	5b1c <__sprint_r.part.0>
    64f6:	2800      	cmp	r0, #0
    64f8:	d10b      	bne.n	6512 <_vfiprintf_r+0x96a>
    64fa:	9a12      	ldr	r2, [sp, #72]	; 0x48
    64fc:	9813      	ldr	r0, [sp, #76]	; 0x4c
    64fe:	1c51      	adds	r1, r2, #1
    6500:	4647      	mov	r7, r8
    6502:	e7d1      	b.n	64a8 <_vfiprintf_r+0x900>
    6504:	aa11      	add	r2, sp, #68	; 0x44
    6506:	4659      	mov	r1, fp
    6508:	9804      	ldr	r0, [sp, #16]
    650a:	f7ff fb07 	bl	5b1c <__sprint_r.part.0>
    650e:	2800      	cmp	r0, #0
    6510:	d036      	beq.n	6580 <_vfiprintf_r+0x9d8>
    6512:	46da      	mov	sl, fp
    6514:	4653      	mov	r3, sl
    6516:	899b      	ldrh	r3, [r3, #12]
    6518:	065b      	lsls	r3, r3, #25
    651a:	d500      	bpl.n	651e <_vfiprintf_r+0x976>
    651c:	e174      	b.n	6808 <_vfiprintf_r+0xc60>
    651e:	9805      	ldr	r0, [sp, #20]
    6520:	f7ff fbde 	bl	5ce0 <_vfiprintf_r+0x138>
    6524:	aa11      	add	r2, sp, #68	; 0x44
    6526:	4659      	mov	r1, fp
    6528:	9804      	ldr	r0, [sp, #16]
    652a:	f7ff faf7 	bl	5b1c <__sprint_r.part.0>
    652e:	2800      	cmp	r0, #0
    6530:	d1ef      	bne.n	6512 <_vfiprintf_r+0x96a>
    6532:	9912      	ldr	r1, [sp, #72]	; 0x48
    6534:	9813      	ldr	r0, [sp, #76]	; 0x4c
    6536:	1c4c      	adds	r4, r1, #1
    6538:	4643      	mov	r3, r8
    653a:	e4f8      	b.n	5f2e <_vfiprintf_r+0x386>
    653c:	2800      	cmp	r0, #0
    653e:	d000      	beq.n	6542 <_vfiprintf_r+0x99a>
    6540:	e0d7      	b.n	66f2 <_vfiprintf_r+0xb4a>
    6542:	4643      	mov	r3, r8
    6544:	9808      	ldr	r0, [sp, #32]
    6546:	601e      	str	r6, [r3, #0]
    6548:	6058      	str	r0, [r3, #4]
    654a:	2301      	movs	r3, #1
    654c:	4647      	mov	r7, r8
    654e:	9013      	str	r0, [sp, #76]	; 0x4c
    6550:	9312      	str	r3, [sp, #72]	; 0x48
    6552:	003b      	movs	r3, r7
    6554:	3308      	adds	r3, #8
    6556:	9a01      	ldr	r2, [sp, #4]
    6558:	0752      	lsls	r2, r2, #29
    655a:	d505      	bpl.n	6568 <_vfiprintf_r+0x9c0>
    655c:	9a09      	ldr	r2, [sp, #36]	; 0x24
    655e:	9902      	ldr	r1, [sp, #8]
    6560:	1a56      	subs	r6, r2, r1
    6562:	2e00      	cmp	r6, #0
    6564:	dd00      	ble.n	6568 <_vfiprintf_r+0x9c0>
    6566:	e4cb      	b.n	5f00 <_vfiprintf_r+0x358>
    6568:	9b09      	ldr	r3, [sp, #36]	; 0x24
    656a:	9902      	ldr	r1, [sp, #8]
    656c:	428b      	cmp	r3, r1
    656e:	da00      	bge.n	6572 <_vfiprintf_r+0x9ca>
    6570:	000b      	movs	r3, r1
    6572:	9a05      	ldr	r2, [sp, #20]
    6574:	4694      	mov	ip, r2
    6576:	449c      	add	ip, r3
    6578:	4663      	mov	r3, ip
    657a:	9305      	str	r3, [sp, #20]
    657c:	2800      	cmp	r0, #0
    657e:	d1c1      	bne.n	6504 <_vfiprintf_r+0x95c>
    6580:	2300      	movs	r3, #0
    6582:	4647      	mov	r7, r8
    6584:	9312      	str	r3, [sp, #72]	; 0x48
    6586:	f7ff fb48 	bl	5c1a <_vfiprintf_r+0x72>
    658a:	aa11      	add	r2, sp, #68	; 0x44
    658c:	4659      	mov	r1, fp
    658e:	9804      	ldr	r0, [sp, #16]
    6590:	f7ff fac4 	bl	5b1c <__sprint_r.part.0>
    6594:	2800      	cmp	r0, #0
    6596:	d1bc      	bne.n	6512 <_vfiprintf_r+0x96a>
    6598:	9a12      	ldr	r2, [sp, #72]	; 0x48
    659a:	9813      	ldr	r0, [sp, #76]	; 0x4c
    659c:	1c51      	adds	r1, r2, #1
    659e:	4647      	mov	r7, r8
    65a0:	e46a      	b.n	5e78 <_vfiprintf_r+0x2d0>
    65a2:	2800      	cmp	r0, #0
    65a4:	d000      	beq.n	65a8 <_vfiprintf_r+0xa00>
    65a6:	e122      	b.n	67ee <_vfiprintf_r+0xc46>
    65a8:	ab0e      	add	r3, sp, #56	; 0x38
    65aa:	79db      	ldrb	r3, [r3, #7]
    65ac:	2b00      	cmp	r3, #0
    65ae:	d013      	beq.n	65d8 <_vfiprintf_r+0xa30>
    65b0:	4643      	mov	r3, r8
    65b2:	aa0e      	add	r2, sp, #56	; 0x38
    65b4:	3207      	adds	r2, #7
    65b6:	601a      	str	r2, [r3, #0]
    65b8:	2301      	movs	r3, #1
    65ba:	4642      	mov	r2, r8
    65bc:	2001      	movs	r0, #1
    65be:	2101      	movs	r1, #1
    65c0:	4647      	mov	r7, r8
    65c2:	6053      	str	r3, [r2, #4]
    65c4:	000a      	movs	r2, r1
    65c6:	3708      	adds	r7, #8
    65c8:	3101      	adds	r1, #1
    65ca:	e426      	b.n	5e1a <_vfiprintf_r+0x272>
    65cc:	00009180 	.word	0x00009180
    65d0:	00009194 	.word	0x00009194
    65d4:	00009464 	.word	0x00009464
    65d8:	9b0b      	ldr	r3, [sp, #44]	; 0x2c
    65da:	2b00      	cmp	r3, #0
    65dc:	d100      	bne.n	65e0 <_vfiprintf_r+0xa38>
    65de:	e13b      	b.n	6858 <_vfiprintf_r+0xcb0>
    65e0:	4642      	mov	r2, r8
    65e2:	ab10      	add	r3, sp, #64	; 0x40
    65e4:	6013      	str	r3, [r2, #0]
    65e6:	2302      	movs	r3, #2
    65e8:	2101      	movs	r1, #1
    65ea:	2002      	movs	r0, #2
    65ec:	4647      	mov	r7, r8
    65ee:	6053      	str	r3, [r2, #4]
    65f0:	000a      	movs	r2, r1
    65f2:	3708      	adds	r7, #8
    65f4:	3101      	adds	r1, #1
    65f6:	e740      	b.n	647a <_vfiprintf_r+0x8d2>
    65f8:	4bd8      	ldr	r3, [pc, #864]	; (695c <_vfiprintf_r+0xdb4>)
    65fa:	9101      	str	r1, [sp, #4]
    65fc:	9302      	str	r3, [sp, #8]
    65fe:	9a06      	ldr	r2, [sp, #24]
    6600:	9b07      	ldr	r3, [sp, #28]
    6602:	0011      	movs	r1, r2
    6604:	900a      	str	r0, [sp, #40]	; 0x28
    6606:	4319      	orrs	r1, r3
    6608:	d000      	beq.n	660c <_vfiprintf_r+0xa64>
    660a:	e6b8      	b.n	637e <_vfiprintf_r+0x7d6>
    660c:	2200      	movs	r2, #0
    660e:	2300      	movs	r3, #0
    6610:	2400      	movs	r4, #0
    6612:	9206      	str	r2, [sp, #24]
    6614:	9307      	str	r3, [sp, #28]
    6616:	9a06      	ldr	r2, [sp, #24]
    6618:	9b07      	ldr	r3, [sp, #28]
    661a:	4646      	mov	r6, r8
    661c:	200f      	movs	r0, #15
    661e:	46ba      	mov	sl, r7
    6620:	46a4      	mov	ip, r4
    6622:	46a9      	mov	r9, r5
    6624:	9d02      	ldr	r5, [sp, #8]
    6626:	0001      	movs	r1, r0
    6628:	4011      	ands	r1, r2
    662a:	5c69      	ldrb	r1, [r5, r1]
    662c:	071f      	lsls	r7, r3, #28
    662e:	0914      	lsrs	r4, r2, #4
    6630:	3e01      	subs	r6, #1
    6632:	4327      	orrs	r7, r4
    6634:	7031      	strb	r1, [r6, #0]
    6636:	0919      	lsrs	r1, r3, #4
    6638:	000b      	movs	r3, r1
    663a:	0039      	movs	r1, r7
    663c:	003a      	movs	r2, r7
    663e:	4319      	orrs	r1, r3
    6640:	d1f1      	bne.n	6626 <_vfiprintf_r+0xa7e>
    6642:	9206      	str	r2, [sp, #24]
    6644:	9307      	str	r3, [sp, #28]
    6646:	4643      	mov	r3, r8
    6648:	1b9b      	subs	r3, r3, r6
    664a:	4657      	mov	r7, sl
    664c:	4664      	mov	r4, ip
    664e:	464d      	mov	r5, r9
    6650:	9308      	str	r3, [sp, #32]
    6652:	f7ff fb88 	bl	5d66 <_vfiprintf_r+0x1be>
    6656:	aa11      	add	r2, sp, #68	; 0x44
    6658:	4659      	mov	r1, fp
    665a:	9804      	ldr	r0, [sp, #16]
    665c:	f7ff fa5e 	bl	5b1c <__sprint_r.part.0>
    6660:	2800      	cmp	r0, #0
    6662:	d000      	beq.n	6666 <_vfiprintf_r+0xabe>
    6664:	e755      	b.n	6512 <_vfiprintf_r+0x96a>
    6666:	9813      	ldr	r0, [sp, #76]	; 0x4c
    6668:	4643      	mov	r3, r8
    666a:	e774      	b.n	6556 <_vfiprintf_r+0x9ae>
    666c:	9b01      	ldr	r3, [sp, #4]
    666e:	06db      	lsls	r3, r3, #27
    6670:	d400      	bmi.n	6674 <_vfiprintf_r+0xacc>
    6672:	e09b      	b.n	67ac <_vfiprintf_r+0xc04>
    6674:	9a0a      	ldr	r2, [sp, #40]	; 0x28
    6676:	6813      	ldr	r3, [r2, #0]
    6678:	9302      	str	r3, [sp, #8]
    667a:	9306      	str	r3, [sp, #24]
    667c:	3204      	adds	r2, #4
    667e:	17db      	asrs	r3, r3, #31
    6680:	9307      	str	r3, [sp, #28]
    6682:	920a      	str	r2, [sp, #40]	; 0x28
    6684:	e49e      	b.n	5fc4 <_vfiprintf_r+0x41c>
    6686:	920a      	str	r2, [sp, #40]	; 0x28
    6688:	2400      	movs	r4, #0
    668a:	9a06      	ldr	r2, [sp, #24]
    668c:	9b07      	ldr	r3, [sp, #28]
    668e:	0011      	movs	r1, r2
    6690:	4319      	orrs	r1, r3
    6692:	d000      	beq.n	6696 <_vfiprintf_r+0xaee>
    6694:	e4a9      	b.n	5fea <_vfiprintf_r+0x442>
    6696:	e5bb      	b.n	6210 <_vfiprintf_r+0x668>
    6698:	aa11      	add	r2, sp, #68	; 0x44
    669a:	4659      	mov	r1, fp
    669c:	9804      	ldr	r0, [sp, #16]
    669e:	f7ff fa3d 	bl	5b1c <__sprint_r.part.0>
    66a2:	2800      	cmp	r0, #0
    66a4:	d000      	beq.n	66a8 <_vfiprintf_r+0xb00>
    66a6:	e734      	b.n	6512 <_vfiprintf_r+0x96a>
    66a8:	4647      	mov	r7, r8
    66aa:	f7ff fad1 	bl	5c50 <_vfiprintf_r+0xa8>
    66ae:	aa11      	add	r2, sp, #68	; 0x44
    66b0:	4659      	mov	r1, fp
    66b2:	9804      	ldr	r0, [sp, #16]
    66b4:	f7ff fa32 	bl	5b1c <__sprint_r.part.0>
    66b8:	2800      	cmp	r0, #0
    66ba:	d000      	beq.n	66be <_vfiprintf_r+0xb16>
    66bc:	e729      	b.n	6512 <_vfiprintf_r+0x96a>
    66be:	9a12      	ldr	r2, [sp, #72]	; 0x48
    66c0:	9813      	ldr	r0, [sp, #76]	; 0x4c
    66c2:	1c51      	adds	r1, r2, #1
    66c4:	4647      	mov	r7, r8
    66c6:	f7ff fba8 	bl	5e1a <_vfiprintf_r+0x272>
    66ca:	aa11      	add	r2, sp, #68	; 0x44
    66cc:	4659      	mov	r1, fp
    66ce:	9804      	ldr	r0, [sp, #16]
    66d0:	f7ff fa24 	bl	5b1c <__sprint_r.part.0>
    66d4:	2800      	cmp	r0, #0
    66d6:	d000      	beq.n	66da <_vfiprintf_r+0xb32>
    66d8:	e71b      	b.n	6512 <_vfiprintf_r+0x96a>
    66da:	9a12      	ldr	r2, [sp, #72]	; 0x48
    66dc:	9813      	ldr	r0, [sp, #76]	; 0x4c
    66de:	1c51      	adds	r1, r2, #1
    66e0:	4647      	mov	r7, r8
    66e2:	e6ca      	b.n	647a <_vfiprintf_r+0x8d2>
    66e4:	2800      	cmp	r0, #0
    66e6:	d000      	beq.n	66ea <_vfiprintf_r+0xb42>
    66e8:	e0e5      	b.n	68b6 <_vfiprintf_r+0xd0e>
    66ea:	2101      	movs	r1, #1
    66ec:	2200      	movs	r2, #0
    66ee:	4647      	mov	r7, r8
    66f0:	e6c7      	b.n	6482 <_vfiprintf_r+0x8da>
    66f2:	aa11      	add	r2, sp, #68	; 0x44
    66f4:	4659      	mov	r1, fp
    66f6:	9804      	ldr	r0, [sp, #16]
    66f8:	f7ff fa10 	bl	5b1c <__sprint_r.part.0>
    66fc:	2800      	cmp	r0, #0
    66fe:	d000      	beq.n	6702 <_vfiprintf_r+0xb5a>
    6700:	e707      	b.n	6512 <_vfiprintf_r+0x96a>
    6702:	9b12      	ldr	r3, [sp, #72]	; 0x48
    6704:	9813      	ldr	r0, [sp, #76]	; 0x4c
    6706:	9303      	str	r3, [sp, #12]
    6708:	1c59      	adds	r1, r3, #1
    670a:	4647      	mov	r7, r8
    670c:	f7ff fbe1 	bl	5ed2 <_vfiprintf_r+0x32a>
    6710:	2030      	movs	r0, #48	; 0x30
    6712:	aa10      	add	r2, sp, #64	; 0x40
    6714:	7010      	strb	r0, [r2, #0]
    6716:	7053      	strb	r3, [r2, #1]
    6718:	9901      	ldr	r1, [sp, #4]
    671a:	2200      	movs	r2, #0
    671c:	2302      	movs	r3, #2
    671e:	0008      	movs	r0, r1
    6720:	ac0e      	add	r4, sp, #56	; 0x38
    6722:	71e2      	strb	r2, [r4, #7]
    6724:	9a03      	ldr	r2, [sp, #12]
    6726:	4318      	orrs	r0, r3
    6728:	2a00      	cmp	r2, #0
    672a:	da00      	bge.n	672e <_vfiprintf_r+0xb86>
    672c:	e0dd      	b.n	68ea <_vfiprintf_r+0xd42>
    672e:	2280      	movs	r2, #128	; 0x80
    6730:	0008      	movs	r0, r1
    6732:	4390      	bics	r0, r2
    6734:	0002      	movs	r2, r0
    6736:	431a      	orrs	r2, r3
    6738:	9201      	str	r2, [sp, #4]
    673a:	2400      	movs	r4, #0
    673c:	e76b      	b.n	6616 <_vfiprintf_r+0xa6e>
    673e:	4b87      	ldr	r3, [pc, #540]	; (695c <_vfiprintf_r+0xdb4>)
    6740:	2400      	movs	r4, #0
    6742:	9302      	str	r3, [sp, #8]
    6744:	e767      	b.n	6616 <_vfiprintf_r+0xa6e>
    6746:	990a      	ldr	r1, [sp, #40]	; 0x28
    6748:	e548      	b.n	61dc <_vfiprintf_r+0x634>
    674a:	9906      	ldr	r1, [sp, #24]
    674c:	9a07      	ldr	r2, [sp, #28]
    674e:	2400      	movs	r4, #0
    6750:	424b      	negs	r3, r1
    6752:	4194      	sbcs	r4, r2
    6754:	9306      	str	r3, [sp, #24]
    6756:	9407      	str	r4, [sp, #28]
    6758:	232d      	movs	r3, #45	; 0x2d
    675a:	aa0e      	add	r2, sp, #56	; 0x38
    675c:	71d3      	strb	r3, [r2, #7]
    675e:	9b03      	ldr	r3, [sp, #12]
    6760:	2b00      	cmp	r3, #0
    6762:	da00      	bge.n	6766 <_vfiprintf_r+0xbbe>
    6764:	e0d1      	b.n	690a <_vfiprintf_r+0xd62>
    6766:	2380      	movs	r3, #128	; 0x80
    6768:	9a01      	ldr	r2, [sp, #4]
    676a:	242d      	movs	r4, #45	; 0x2d
    676c:	439a      	bics	r2, r3
    676e:	9201      	str	r2, [sp, #4]
    6770:	e43b      	b.n	5fea <_vfiprintf_r+0x442>
    6772:	2340      	movs	r3, #64	; 0x40
    6774:	9901      	ldr	r1, [sp, #4]
    6776:	400b      	ands	r3, r1
    6778:	990a      	ldr	r1, [sp, #40]	; 0x28
    677a:	d100      	bne.n	677e <_vfiprintf_r+0xbd6>
    677c:	e63d      	b.n	63fa <_vfiprintf_r+0x852>
    677e:	000b      	movs	r3, r1
    6780:	8809      	ldrh	r1, [r1, #0]
    6782:	3304      	adds	r3, #4
    6784:	9106      	str	r1, [sp, #24]
    6786:	2100      	movs	r1, #0
    6788:	9107      	str	r1, [sp, #28]
    678a:	a90e      	add	r1, sp, #56	; 0x38
    678c:	71ca      	strb	r2, [r1, #7]
    678e:	9a03      	ldr	r2, [sp, #12]
    6790:	2a00      	cmp	r2, #0
    6792:	da00      	bge.n	6796 <_vfiprintf_r+0xbee>
    6794:	e0d5      	b.n	6942 <_vfiprintf_r+0xd9a>
    6796:	2280      	movs	r2, #128	; 0x80
    6798:	9901      	ldr	r1, [sp, #4]
    679a:	930a      	str	r3, [sp, #40]	; 0x28
    679c:	4391      	bics	r1, r2
    679e:	9a06      	ldr	r2, [sp, #24]
    67a0:	9101      	str	r1, [sp, #4]
    67a2:	2a00      	cmp	r2, #0
    67a4:	d100      	bne.n	67a8 <_vfiprintf_r+0xc00>
    67a6:	e472      	b.n	608e <_vfiprintf_r+0x4e6>
    67a8:	2400      	movs	r4, #0
    67aa:	e47a      	b.n	60a2 <_vfiprintf_r+0x4fa>
    67ac:	9b01      	ldr	r3, [sp, #4]
    67ae:	9a0a      	ldr	r2, [sp, #40]	; 0x28
    67b0:	065b      	lsls	r3, r3, #25
    67b2:	d400      	bmi.n	67b6 <_vfiprintf_r+0xc0e>
    67b4:	e75f      	b.n	6676 <_vfiprintf_r+0xace>
    67b6:	2100      	movs	r1, #0
    67b8:	5e53      	ldrsh	r3, [r2, r1]
    67ba:	e75e      	b.n	667a <_vfiprintf_r+0xad2>
    67bc:	9b01      	ldr	r3, [sp, #4]
    67be:	06db      	lsls	r3, r3, #27
    67c0:	d40c      	bmi.n	67dc <_vfiprintf_r+0xc34>
    67c2:	9b01      	ldr	r3, [sp, #4]
    67c4:	065b      	lsls	r3, r3, #25
    67c6:	d509      	bpl.n	67dc <_vfiprintf_r+0xc34>
    67c8:	4669      	mov	r1, sp
    67ca:	9b0a      	ldr	r3, [sp, #40]	; 0x28
    67cc:	8a89      	ldrh	r1, [r1, #20]
    67ce:	681a      	ldr	r2, [r3, #0]
    67d0:	3304      	adds	r3, #4
    67d2:	9201      	str	r2, [sp, #4]
    67d4:	8011      	strh	r1, [r2, #0]
    67d6:	930a      	str	r3, [sp, #40]	; 0x28
    67d8:	f7ff fa1f 	bl	5c1a <_vfiprintf_r+0x72>
    67dc:	9a0a      	ldr	r2, [sp, #40]	; 0x28
    67de:	9905      	ldr	r1, [sp, #20]
    67e0:	6813      	ldr	r3, [r2, #0]
    67e2:	6019      	str	r1, [r3, #0]
    67e4:	0013      	movs	r3, r2
    67e6:	3304      	adds	r3, #4
    67e8:	930a      	str	r3, [sp, #40]	; 0x28
    67ea:	f7ff fa16 	bl	5c1a <_vfiprintf_r+0x72>
    67ee:	aa11      	add	r2, sp, #68	; 0x44
    67f0:	4659      	mov	r1, fp
    67f2:	9804      	ldr	r0, [sp, #16]
    67f4:	f7ff f992 	bl	5b1c <__sprint_r.part.0>
    67f8:	2800      	cmp	r0, #0
    67fa:	d000      	beq.n	67fe <_vfiprintf_r+0xc56>
    67fc:	e689      	b.n	6512 <_vfiprintf_r+0x96a>
    67fe:	9a12      	ldr	r2, [sp, #72]	; 0x48
    6800:	9813      	ldr	r0, [sp, #76]	; 0x4c
    6802:	1c51      	adds	r1, r2, #1
    6804:	4647      	mov	r7, r8
    6806:	e61e      	b.n	6446 <_vfiprintf_r+0x89e>
    6808:	2001      	movs	r0, #1
    680a:	4240      	negs	r0, r0
    680c:	f7ff fa68 	bl	5ce0 <_vfiprintf_r+0x138>
    6810:	980a      	ldr	r0, [sp, #40]	; 0x28
    6812:	e6f4      	b.n	65fe <_vfiprintf_r+0xa56>
    6814:	aa11      	add	r2, sp, #68	; 0x44
    6816:	4659      	mov	r1, fp
    6818:	9804      	ldr	r0, [sp, #16]
    681a:	f7ff f97f 	bl	5b1c <__sprint_r.part.0>
    681e:	2800      	cmp	r0, #0
    6820:	d000      	beq.n	6824 <_vfiprintf_r+0xc7c>
    6822:	e676      	b.n	6512 <_vfiprintf_r+0x96a>
    6824:	9813      	ldr	r0, [sp, #76]	; 0x4c
    6826:	e69f      	b.n	6568 <_vfiprintf_r+0x9c0>
    6828:	000b      	movs	r3, r1
    682a:	8809      	ldrh	r1, [r1, #0]
    682c:	3304      	adds	r3, #4
    682e:	9106      	str	r1, [sp, #24]
    6830:	2100      	movs	r1, #0
    6832:	9107      	str	r1, [sp, #28]
    6834:	a90e      	add	r1, sp, #56	; 0x38
    6836:	71ca      	strb	r2, [r1, #7]
    6838:	9a03      	ldr	r2, [sp, #12]
    683a:	2a00      	cmp	r2, #0
    683c:	da00      	bge.n	6840 <_vfiprintf_r+0xc98>
    683e:	e07d      	b.n	693c <_vfiprintf_r+0xd94>
    6840:	2280      	movs	r2, #128	; 0x80
    6842:	9901      	ldr	r1, [sp, #4]
    6844:	930a      	str	r3, [sp, #40]	; 0x28
    6846:	4391      	bics	r1, r2
    6848:	9a06      	ldr	r2, [sp, #24]
    684a:	9101      	str	r1, [sp, #4]
    684c:	2400      	movs	r4, #0
    684e:	2a00      	cmp	r2, #0
    6850:	d001      	beq.n	6856 <_vfiprintf_r+0xcae>
    6852:	f7ff fbca 	bl	5fea <_vfiprintf_r+0x442>
    6856:	e4d7      	b.n	6208 <_vfiprintf_r+0x660>
    6858:	2200      	movs	r2, #0
    685a:	2101      	movs	r1, #1
    685c:	4647      	mov	r7, r8
    685e:	e610      	b.n	6482 <_vfiprintf_r+0x8da>
    6860:	9a0a      	ldr	r2, [sp, #40]	; 0x28
    6862:	8811      	ldrh	r1, [r2, #0]
    6864:	e573      	b.n	634e <_vfiprintf_r+0x7a6>
    6866:	2201      	movs	r2, #1
    6868:	4252      	negs	r2, r2
    686a:	9203      	str	r2, [sp, #12]
    686c:	f7ff fa0f 	bl	5c8e <_vfiprintf_r+0xe6>
    6870:	920a      	str	r2, [sp, #40]	; 0x28
    6872:	9a06      	ldr	r2, [sp, #24]
    6874:	9b07      	ldr	r3, [sp, #28]
    6876:	0011      	movs	r1, r2
    6878:	2400      	movs	r4, #0
    687a:	4319      	orrs	r1, r3
    687c:	d001      	beq.n	6882 <_vfiprintf_r+0xcda>
    687e:	f7ff fc10 	bl	60a2 <_vfiprintf_r+0x4fa>
    6882:	f7ff fc0a 	bl	609a <_vfiprintf_r+0x4f2>
    6886:	9b13      	ldr	r3, [sp, #76]	; 0x4c
    6888:	46da      	mov	sl, fp
    688a:	9301      	str	r3, [sp, #4]
    688c:	2b00      	cmp	r3, #0
    688e:	d100      	bne.n	6892 <_vfiprintf_r+0xcea>
    6890:	e640      	b.n	6514 <_vfiprintf_r+0x96c>
    6892:	aa11      	add	r2, sp, #68	; 0x44
    6894:	4651      	mov	r1, sl
    6896:	9804      	ldr	r0, [sp, #16]
    6898:	f7ff f940 	bl	5b1c <__sprint_r.part.0>
    689c:	e63a      	b.n	6514 <_vfiprintf_r+0x96c>
    689e:	9b01      	ldr	r3, [sp, #4]
    68a0:	3501      	adds	r5, #1
    68a2:	4323      	orrs	r3, r4
    68a4:	9301      	str	r3, [sp, #4]
    68a6:	782b      	ldrb	r3, [r5, #0]
    68a8:	f7ff f9f0 	bl	5c8c <_vfiprintf_r+0xe4>
    68ac:	0030      	movs	r0, r6
    68ae:	f7fa fe7b 	bl	15a8 <strlen>
    68b2:	9008      	str	r0, [sp, #32]
    68b4:	e478      	b.n	61a8 <_vfiprintf_r+0x600>
    68b6:	aa11      	add	r2, sp, #68	; 0x44
    68b8:	4659      	mov	r1, fp
    68ba:	9804      	ldr	r0, [sp, #16]
    68bc:	f7ff f92e 	bl	5b1c <__sprint_r.part.0>
    68c0:	2800      	cmp	r0, #0
    68c2:	d000      	beq.n	68c6 <_vfiprintf_r+0xd1e>
    68c4:	e625      	b.n	6512 <_vfiprintf_r+0x96a>
    68c6:	9a12      	ldr	r2, [sp, #72]	; 0x48
    68c8:	9813      	ldr	r0, [sp, #76]	; 0x4c
    68ca:	1c51      	adds	r1, r2, #1
    68cc:	4647      	mov	r7, r8
    68ce:	e5d8      	b.n	6482 <_vfiprintf_r+0x8da>
    68d0:	9b06      	ldr	r3, [sp, #24]
    68d2:	2b09      	cmp	r3, #9
    68d4:	d901      	bls.n	68da <_vfiprintf_r+0xd32>
    68d6:	f7ff fb8d 	bl	5ff4 <_vfiprintf_r+0x44c>
    68da:	e49d      	b.n	6218 <_vfiprintf_r+0x670>
    68dc:	9b12      	ldr	r3, [sp, #72]	; 0x48
    68de:	930d      	str	r3, [sp, #52]	; 0x34
    68e0:	1c5a      	adds	r2, r3, #1
    68e2:	4b1f      	ldr	r3, [pc, #124]	; (6960 <_vfiprintf_r+0xdb8>)
    68e4:	4699      	mov	r9, r3
    68e6:	f7ff fa88 	bl	5dfa <_vfiprintf_r+0x252>
    68ea:	2400      	movs	r4, #0
    68ec:	9001      	str	r0, [sp, #4]
    68ee:	e692      	b.n	6616 <_vfiprintf_r+0xa6e>
    68f0:	9a03      	ldr	r2, [sp, #12]
    68f2:	2a06      	cmp	r2, #6
    68f4:	d900      	bls.n	68f8 <_vfiprintf_r+0xd50>
    68f6:	2206      	movs	r2, #6
    68f8:	43d3      	mvns	r3, r2
    68fa:	17db      	asrs	r3, r3, #31
    68fc:	9208      	str	r2, [sp, #32]
    68fe:	401a      	ands	r2, r3
    6900:	464b      	mov	r3, r9
    6902:	9202      	str	r2, [sp, #8]
    6904:	930a      	str	r3, [sp, #40]	; 0x28
    6906:	4e17      	ldr	r6, [pc, #92]	; (6964 <_vfiprintf_r+0xdbc>)
    6908:	e500      	b.n	630c <_vfiprintf_r+0x764>
    690a:	242d      	movs	r4, #45	; 0x2d
    690c:	f7ff fb6d 	bl	5fea <_vfiprintf_r+0x442>
    6910:	9a12      	ldr	r2, [sp, #72]	; 0x48
    6912:	9201      	str	r2, [sp, #4]
    6914:	1c54      	adds	r4, r2, #1
    6916:	4a12      	ldr	r2, [pc, #72]	; (6960 <_vfiprintf_r+0xdb8>)
    6918:	4691      	mov	r9, r2
    691a:	f7ff fb1d 	bl	5f58 <_vfiprintf_r+0x3b0>
    691e:	4b12      	ldr	r3, [pc, #72]	; (6968 <_vfiprintf_r+0xdc0>)
    6920:	468c      	mov	ip, r1
    6922:	4699      	mov	r9, r3
    6924:	f7ff fac1 	bl	5eaa <_vfiprintf_r+0x302>
    6928:	ab0e      	add	r3, sp, #56	; 0x38
    692a:	79dc      	ldrb	r4, [r3, #7]
    692c:	464b      	mov	r3, r9
    692e:	930a      	str	r3, [sp, #40]	; 0x28
    6930:	9b03      	ldr	r3, [sp, #12]
    6932:	9308      	str	r3, [sp, #32]
    6934:	2300      	movs	r3, #0
    6936:	9303      	str	r3, [sp, #12]
    6938:	f7ff fa15 	bl	5d66 <_vfiprintf_r+0x1be>
    693c:	930a      	str	r3, [sp, #40]	; 0x28
    693e:	2400      	movs	r4, #0
    6940:	e6a3      	b.n	668a <_vfiprintf_r+0xae2>
    6942:	930a      	str	r3, [sp, #40]	; 0x28
    6944:	e795      	b.n	6872 <_vfiprintf_r+0xcca>
    6946:	9b0a      	ldr	r3, [sp, #40]	; 0x28
    6948:	1d1a      	adds	r2, r3, #4
    694a:	681b      	ldr	r3, [r3, #0]
    694c:	9303      	str	r3, [sp, #12]
    694e:	2b00      	cmp	r3, #0
    6950:	db19      	blt.n	6986 <_vfiprintf_r+0xdde>
    6952:	786b      	ldrb	r3, [r5, #1]
    6954:	920a      	str	r2, [sp, #40]	; 0x28
    6956:	9d02      	ldr	r5, [sp, #8]
    6958:	f7ff f998 	bl	5c8c <_vfiprintf_r+0xe4>
    695c:	00009194 	.word	0x00009194
    6960:	00009474 	.word	0x00009474
    6964:	000091a8 	.word	0x000091a8
    6968:	00009464 	.word	0x00009464
    696c:	9b01      	ldr	r3, [sp, #4]
    696e:	07db      	lsls	r3, r3, #31
    6970:	d504      	bpl.n	697c <_vfiprintf_r+0xdd4>
    6972:	2130      	movs	r1, #48	; 0x30
    6974:	2327      	movs	r3, #39	; 0x27
    6976:	aa14      	add	r2, sp, #80	; 0x50
    6978:	54d1      	strb	r1, [r2, r3]
    697a:	e452      	b.n	6222 <_vfiprintf_r+0x67a>
    697c:	2300      	movs	r3, #0
    697e:	4646      	mov	r6, r8
    6980:	9308      	str	r3, [sp, #32]
    6982:	f7ff f9f0 	bl	5d66 <_vfiprintf_r+0x1be>
    6986:	920a      	str	r2, [sp, #40]	; 0x28
    6988:	2201      	movs	r2, #1
    698a:	4252      	negs	r2, r2
    698c:	786b      	ldrb	r3, [r5, #1]
    698e:	9203      	str	r2, [sp, #12]
    6990:	9d02      	ldr	r5, [sp, #8]
    6992:	f7ff f97b 	bl	5c8c <_vfiprintf_r+0xe4>
    6996:	ab0e      	add	r3, sp, #56	; 0x38
    6998:	71de      	strb	r6, [r3, #7]
    699a:	e504      	b.n	63a6 <_vfiprintf_r+0x7fe>
    699c:	ab0e      	add	r3, sp, #56	; 0x38
    699e:	71de      	strb	r6, [r3, #7]
    69a0:	e44f      	b.n	6242 <_vfiprintf_r+0x69a>
    69a2:	ab0e      	add	r3, sp, #56	; 0x38
    69a4:	71de      	strb	r6, [r3, #7]
    69a6:	f7ff fc0a 	bl	61be <_vfiprintf_r+0x616>
    69aa:	ab0e      	add	r3, sp, #56	; 0x38
    69ac:	71de      	strb	r6, [r3, #7]
    69ae:	f7ff fb46 	bl	603e <_vfiprintf_r+0x496>
    69b2:	ab0e      	add	r3, sp, #56	; 0x38
    69b4:	71de      	strb	r6, [r3, #7]
    69b6:	f7ff faf0 	bl	5f9a <_vfiprintf_r+0x3f2>
    69ba:	aa0e      	add	r2, sp, #56	; 0x38
    69bc:	71d6      	strb	r6, [r2, #7]
    69be:	e50a      	b.n	63d6 <_vfiprintf_r+0x82e>
    69c0:	aa0e      	add	r2, sp, #56	; 0x38
    69c2:	71d6      	strb	r6, [r2, #7]
    69c4:	e4b5      	b.n	6332 <_vfiprintf_r+0x78a>
    69c6:	aa0e      	add	r2, sp, #56	; 0x38
    69c8:	71d6      	strb	r6, [r2, #7]
    69ca:	e468      	b.n	629e <_vfiprintf_r+0x6f6>

000069cc <vfiprintf>:
    69cc:	b510      	push	{r4, lr}
    69ce:	0004      	movs	r4, r0
    69d0:	0013      	movs	r3, r2
    69d2:	4a03      	ldr	r2, [pc, #12]	; (69e0 <vfiprintf+0x14>)
    69d4:	6810      	ldr	r0, [r2, #0]
    69d6:	000a      	movs	r2, r1
    69d8:	0021      	movs	r1, r4
    69da:	f7ff f8e5 	bl	5ba8 <_vfiprintf_r>
    69de:	bd10      	pop	{r4, pc}
    69e0:	10010d40 	.word	0x10010d40

000069e4 <__sbprintf>:
    69e4:	b570      	push	{r4, r5, r6, lr}
    69e6:	0006      	movs	r6, r0
    69e8:	2002      	movs	r0, #2
    69ea:	4c1a      	ldr	r4, [pc, #104]	; (6a54 <__sbprintf+0x70>)
    69ec:	44a5      	add	sp, r4
    69ee:	000c      	movs	r4, r1
    69f0:	8989      	ldrh	r1, [r1, #12]
    69f2:	4381      	bics	r1, r0
    69f4:	4668      	mov	r0, sp
    69f6:	8181      	strh	r1, [r0, #12]
    69f8:	6e61      	ldr	r1, [r4, #100]	; 0x64
    69fa:	9119      	str	r1, [sp, #100]	; 0x64
    69fc:	89e1      	ldrh	r1, [r4, #14]
    69fe:	81c1      	strh	r1, [r0, #14]
    6a00:	69e1      	ldr	r1, [r4, #28]
    6a02:	0030      	movs	r0, r6
    6a04:	9107      	str	r1, [sp, #28]
    6a06:	6a61      	ldr	r1, [r4, #36]	; 0x24
    6a08:	9109      	str	r1, [sp, #36]	; 0x24
    6a0a:	a91a      	add	r1, sp, #104	; 0x68
    6a0c:	9100      	str	r1, [sp, #0]
    6a0e:	9104      	str	r1, [sp, #16]
    6a10:	2180      	movs	r1, #128	; 0x80
    6a12:	00c9      	lsls	r1, r1, #3
    6a14:	9102      	str	r1, [sp, #8]
    6a16:	9105      	str	r1, [sp, #20]
    6a18:	2100      	movs	r1, #0
    6a1a:	9106      	str	r1, [sp, #24]
    6a1c:	4669      	mov	r1, sp
    6a1e:	f7ff f8c3 	bl	5ba8 <_vfiprintf_r>
    6a22:	1e05      	subs	r5, r0, #0
    6a24:	db05      	blt.n	6a32 <__sbprintf+0x4e>
    6a26:	4669      	mov	r1, sp
    6a28:	0030      	movs	r0, r6
    6a2a:	f7fd fbaf 	bl	418c <_fflush_r>
    6a2e:	2800      	cmp	r0, #0
    6a30:	d10c      	bne.n	6a4c <__sbprintf+0x68>
    6a32:	466b      	mov	r3, sp
    6a34:	899b      	ldrh	r3, [r3, #12]
    6a36:	065b      	lsls	r3, r3, #25
    6a38:	d503      	bpl.n	6a42 <__sbprintf+0x5e>
    6a3a:	2340      	movs	r3, #64	; 0x40
    6a3c:	89a2      	ldrh	r2, [r4, #12]
    6a3e:	4313      	orrs	r3, r2
    6a40:	81a3      	strh	r3, [r4, #12]
    6a42:	0028      	movs	r0, r5
    6a44:	238d      	movs	r3, #141	; 0x8d
    6a46:	00db      	lsls	r3, r3, #3
    6a48:	449d      	add	sp, r3
    6a4a:	bd70      	pop	{r4, r5, r6, pc}
    6a4c:	2501      	movs	r5, #1
    6a4e:	426d      	negs	r5, r5
    6a50:	e7ef      	b.n	6a32 <__sbprintf+0x4e>
    6a52:	46c0      	nop			; (mov r8, r8)
    6a54:	fffffb98 	.word	0xfffffb98

00006a58 <_write_r>:
    6a58:	b570      	push	{r4, r5, r6, lr}
    6a5a:	0005      	movs	r5, r0
    6a5c:	0008      	movs	r0, r1
    6a5e:	0011      	movs	r1, r2
    6a60:	2200      	movs	r2, #0
    6a62:	4c06      	ldr	r4, [pc, #24]	; (6a7c <_write_r+0x24>)
    6a64:	6022      	str	r2, [r4, #0]
    6a66:	001a      	movs	r2, r3
    6a68:	f7fa f946 	bl	cf8 <_write>
    6a6c:	1c43      	adds	r3, r0, #1
    6a6e:	d000      	beq.n	6a72 <_write_r+0x1a>
    6a70:	bd70      	pop	{r4, r5, r6, pc}
    6a72:	6823      	ldr	r3, [r4, #0]
    6a74:	2b00      	cmp	r3, #0
    6a76:	d0fb      	beq.n	6a70 <_write_r+0x18>
    6a78:	602b      	str	r3, [r5, #0]
    6a7a:	e7f9      	b.n	6a70 <_write_r+0x18>
    6a7c:	10011044 	.word	0x10011044

00006a80 <_calloc_r>:
    6a80:	b510      	push	{r4, lr}
    6a82:	4351      	muls	r1, r2
    6a84:	f7fa f9ea 	bl	e5c <_malloc_r>
    6a88:	1e04      	subs	r4, r0, #0
    6a8a:	d026      	beq.n	6ada <_calloc_r+0x5a>
    6a8c:	0003      	movs	r3, r0
    6a8e:	3b08      	subs	r3, #8
    6a90:	685a      	ldr	r2, [r3, #4]
    6a92:	2303      	movs	r3, #3
    6a94:	439a      	bics	r2, r3
    6a96:	3a04      	subs	r2, #4
    6a98:	2a24      	cmp	r2, #36	; 0x24
    6a9a:	d816      	bhi.n	6aca <_calloc_r+0x4a>
    6a9c:	0003      	movs	r3, r0
    6a9e:	2a13      	cmp	r2, #19
    6aa0:	d90d      	bls.n	6abe <_calloc_r+0x3e>
    6aa2:	2100      	movs	r1, #0
    6aa4:	3308      	adds	r3, #8
    6aa6:	6001      	str	r1, [r0, #0]
    6aa8:	6041      	str	r1, [r0, #4]
    6aaa:	2a1b      	cmp	r2, #27
    6aac:	d907      	bls.n	6abe <_calloc_r+0x3e>
    6aae:	6081      	str	r1, [r0, #8]
    6ab0:	60c1      	str	r1, [r0, #12]
    6ab2:	2a24      	cmp	r2, #36	; 0x24
    6ab4:	d10e      	bne.n	6ad4 <_calloc_r+0x54>
    6ab6:	0003      	movs	r3, r0
    6ab8:	6101      	str	r1, [r0, #16]
    6aba:	3318      	adds	r3, #24
    6abc:	6141      	str	r1, [r0, #20]
    6abe:	2200      	movs	r2, #0
    6ac0:	0020      	movs	r0, r4
    6ac2:	601a      	str	r2, [r3, #0]
    6ac4:	605a      	str	r2, [r3, #4]
    6ac6:	609a      	str	r2, [r3, #8]
    6ac8:	bd10      	pop	{r4, pc}
    6aca:	2100      	movs	r1, #0
    6acc:	f7fa fcae 	bl	142c <memset>
    6ad0:	0020      	movs	r0, r4
    6ad2:	e7f9      	b.n	6ac8 <_calloc_r+0x48>
    6ad4:	0003      	movs	r3, r0
    6ad6:	3310      	adds	r3, #16
    6ad8:	e7f1      	b.n	6abe <_calloc_r+0x3e>
    6ada:	2000      	movs	r0, #0
    6adc:	e7f4      	b.n	6ac8 <_calloc_r+0x48>
    6ade:	46c0      	nop			; (mov r8, r8)

00006ae0 <_close_r>:
    6ae0:	2300      	movs	r3, #0
    6ae2:	b570      	push	{r4, r5, r6, lr}
    6ae4:	4c06      	ldr	r4, [pc, #24]	; (6b00 <_close_r+0x20>)
    6ae6:	0005      	movs	r5, r0
    6ae8:	0008      	movs	r0, r1
    6aea:	6023      	str	r3, [r4, #0]
    6aec:	f7fa f901 	bl	cf2 <_close>
    6af0:	1c43      	adds	r3, r0, #1
    6af2:	d000      	beq.n	6af6 <_close_r+0x16>
    6af4:	bd70      	pop	{r4, r5, r6, pc}
    6af6:	6823      	ldr	r3, [r4, #0]
    6af8:	2b00      	cmp	r3, #0
    6afa:	d0fb      	beq.n	6af4 <_close_r+0x14>
    6afc:	602b      	str	r3, [r5, #0]
    6afe:	e7f9      	b.n	6af4 <_close_r+0x14>
    6b00:	10011044 	.word	0x10011044

00006b04 <_fclose_r>:
    6b04:	b570      	push	{r4, r5, r6, lr}
    6b06:	0005      	movs	r5, r0
    6b08:	1e0c      	subs	r4, r1, #0
    6b0a:	d008      	beq.n	6b1e <_fclose_r+0x1a>
    6b0c:	2800      	cmp	r0, #0
    6b0e:	d002      	beq.n	6b16 <_fclose_r+0x12>
    6b10:	6b83      	ldr	r3, [r0, #56]	; 0x38
    6b12:	2b00      	cmp	r3, #0
    6b14:	d031      	beq.n	6b7a <_fclose_r+0x76>
    6b16:	220c      	movs	r2, #12
    6b18:	5ea3      	ldrsh	r3, [r4, r2]
    6b1a:	2b00      	cmp	r3, #0
    6b1c:	d101      	bne.n	6b22 <_fclose_r+0x1e>
    6b1e:	2000      	movs	r0, #0
    6b20:	bd70      	pop	{r4, r5, r6, pc}
    6b22:	0021      	movs	r1, r4
    6b24:	0028      	movs	r0, r5
    6b26:	f7fd fa89 	bl	403c <__sflush_r>
    6b2a:	6ae3      	ldr	r3, [r4, #44]	; 0x2c
    6b2c:	0006      	movs	r6, r0
    6b2e:	2b00      	cmp	r3, #0
    6b30:	d004      	beq.n	6b3c <_fclose_r+0x38>
    6b32:	69e1      	ldr	r1, [r4, #28]
    6b34:	0028      	movs	r0, r5
    6b36:	4798      	blx	r3
    6b38:	2800      	cmp	r0, #0
    6b3a:	db21      	blt.n	6b80 <_fclose_r+0x7c>
    6b3c:	89a3      	ldrh	r3, [r4, #12]
    6b3e:	061b      	lsls	r3, r3, #24
    6b40:	d421      	bmi.n	6b86 <_fclose_r+0x82>
    6b42:	6b21      	ldr	r1, [r4, #48]	; 0x30
    6b44:	2900      	cmp	r1, #0
    6b46:	d008      	beq.n	6b5a <_fclose_r+0x56>
    6b48:	0023      	movs	r3, r4
    6b4a:	3340      	adds	r3, #64	; 0x40
    6b4c:	4299      	cmp	r1, r3
    6b4e:	d002      	beq.n	6b56 <_fclose_r+0x52>
    6b50:	0028      	movs	r0, r5
    6b52:	f7fd fcad 	bl	44b0 <_free_r>
    6b56:	2300      	movs	r3, #0
    6b58:	6323      	str	r3, [r4, #48]	; 0x30
    6b5a:	6c61      	ldr	r1, [r4, #68]	; 0x44
    6b5c:	2900      	cmp	r1, #0
    6b5e:	d004      	beq.n	6b6a <_fclose_r+0x66>
    6b60:	0028      	movs	r0, r5
    6b62:	f7fd fca5 	bl	44b0 <_free_r>
    6b66:	2300      	movs	r3, #0
    6b68:	6463      	str	r3, [r4, #68]	; 0x44
    6b6a:	f7fd fc31 	bl	43d0 <__sfp_lock_acquire>
    6b6e:	2300      	movs	r3, #0
    6b70:	81a3      	strh	r3, [r4, #12]
    6b72:	f7fd fc2f 	bl	43d4 <__sfp_lock_release>
    6b76:	0030      	movs	r0, r6
    6b78:	e7d2      	b.n	6b20 <_fclose_r+0x1c>
    6b7a:	f7fd fc21 	bl	43c0 <__sinit>
    6b7e:	e7ca      	b.n	6b16 <_fclose_r+0x12>
    6b80:	2601      	movs	r6, #1
    6b82:	4276      	negs	r6, r6
    6b84:	e7da      	b.n	6b3c <_fclose_r+0x38>
    6b86:	6921      	ldr	r1, [r4, #16]
    6b88:	0028      	movs	r0, r5
    6b8a:	f7fd fc91 	bl	44b0 <_free_r>
    6b8e:	e7d8      	b.n	6b42 <_fclose_r+0x3e>

00006b90 <fclose>:
    6b90:	b510      	push	{r4, lr}
    6b92:	4b03      	ldr	r3, [pc, #12]	; (6ba0 <fclose+0x10>)
    6b94:	0001      	movs	r1, r0
    6b96:	6818      	ldr	r0, [r3, #0]
    6b98:	f7ff ffb4 	bl	6b04 <_fclose_r>
    6b9c:	bd10      	pop	{r4, pc}
    6b9e:	46c0      	nop			; (mov r8, r8)
    6ba0:	10010d40 	.word	0x10010d40

00006ba4 <__fputwc>:
    6ba4:	b5f0      	push	{r4, r5, r6, r7, lr}
    6ba6:	464f      	mov	r7, r9
    6ba8:	4646      	mov	r6, r8
    6baa:	b4c0      	push	{r6, r7}
    6bac:	b085      	sub	sp, #20
    6bae:	4680      	mov	r8, r0
    6bb0:	4689      	mov	r9, r1
    6bb2:	0014      	movs	r4, r2
    6bb4:	f000 f8c8 	bl	6d48 <__locale_mb_cur_max>
    6bb8:	2801      	cmp	r0, #1
    6bba:	d031      	beq.n	6c20 <__fputwc+0x7c>
    6bbc:	0023      	movs	r3, r4
    6bbe:	af03      	add	r7, sp, #12
    6bc0:	335c      	adds	r3, #92	; 0x5c
    6bc2:	464a      	mov	r2, r9
    6bc4:	0039      	movs	r1, r7
    6bc6:	4640      	mov	r0, r8
    6bc8:	f000 f9e6 	bl	6f98 <_wcrtomb_r>
    6bcc:	0006      	movs	r6, r0
    6bce:	1c43      	adds	r3, r0, #1
    6bd0:	d021      	beq.n	6c16 <__fputwc+0x72>
    6bd2:	2800      	cmp	r0, #0
    6bd4:	d030      	beq.n	6c38 <__fputwc+0x94>
    6bd6:	7839      	ldrb	r1, [r7, #0]
    6bd8:	2500      	movs	r5, #0
    6bda:	e007      	b.n	6bec <__fputwc+0x48>
    6bdc:	6823      	ldr	r3, [r4, #0]
    6bde:	1c5a      	adds	r2, r3, #1
    6be0:	6022      	str	r2, [r4, #0]
    6be2:	7019      	strb	r1, [r3, #0]
    6be4:	3501      	adds	r5, #1
    6be6:	42b5      	cmp	r5, r6
    6be8:	d226      	bcs.n	6c38 <__fputwc+0x94>
    6bea:	5d79      	ldrb	r1, [r7, r5]
    6bec:	68a3      	ldr	r3, [r4, #8]
    6bee:	3b01      	subs	r3, #1
    6bf0:	60a3      	str	r3, [r4, #8]
    6bf2:	2b00      	cmp	r3, #0
    6bf4:	daf2      	bge.n	6bdc <__fputwc+0x38>
    6bf6:	69a2      	ldr	r2, [r4, #24]
    6bf8:	4293      	cmp	r3, r2
    6bfa:	db01      	blt.n	6c00 <__fputwc+0x5c>
    6bfc:	290a      	cmp	r1, #10
    6bfe:	d1ed      	bne.n	6bdc <__fputwc+0x38>
    6c00:	0022      	movs	r2, r4
    6c02:	4640      	mov	r0, r8
    6c04:	f000 f960 	bl	6ec8 <__swbuf_r>
    6c08:	1c43      	adds	r3, r0, #1
    6c0a:	d1eb      	bne.n	6be4 <__fputwc+0x40>
    6c0c:	b005      	add	sp, #20
    6c0e:	bc0c      	pop	{r2, r3}
    6c10:	4690      	mov	r8, r2
    6c12:	4699      	mov	r9, r3
    6c14:	bdf0      	pop	{r4, r5, r6, r7, pc}
    6c16:	2340      	movs	r3, #64	; 0x40
    6c18:	89a2      	ldrh	r2, [r4, #12]
    6c1a:	4313      	orrs	r3, r2
    6c1c:	81a3      	strh	r3, [r4, #12]
    6c1e:	e7f5      	b.n	6c0c <__fputwc+0x68>
    6c20:	464b      	mov	r3, r9
    6c22:	3b01      	subs	r3, #1
    6c24:	2bfe      	cmp	r3, #254	; 0xfe
    6c26:	d8c9      	bhi.n	6bbc <__fputwc+0x18>
    6c28:	466a      	mov	r2, sp
    6c2a:	464b      	mov	r3, r9
    6c2c:	71d3      	strb	r3, [r2, #7]
    6c2e:	79d1      	ldrb	r1, [r2, #7]
    6c30:	af03      	add	r7, sp, #12
    6c32:	7039      	strb	r1, [r7, #0]
    6c34:	2601      	movs	r6, #1
    6c36:	e7cf      	b.n	6bd8 <__fputwc+0x34>
    6c38:	4648      	mov	r0, r9
    6c3a:	e7e7      	b.n	6c0c <__fputwc+0x68>

00006c3c <_fputwc_r>:
    6c3c:	b510      	push	{r4, lr}
    6c3e:	240c      	movs	r4, #12
    6c40:	5f13      	ldrsh	r3, [r2, r4]
    6c42:	2480      	movs	r4, #128	; 0x80
    6c44:	01a4      	lsls	r4, r4, #6
    6c46:	4223      	tst	r3, r4
    6c48:	d104      	bne.n	6c54 <_fputwc_r+0x18>
    6c4a:	4323      	orrs	r3, r4
    6c4c:	8193      	strh	r3, [r2, #12]
    6c4e:	6e53      	ldr	r3, [r2, #100]	; 0x64
    6c50:	431c      	orrs	r4, r3
    6c52:	6654      	str	r4, [r2, #100]	; 0x64
    6c54:	f7ff ffa6 	bl	6ba4 <__fputwc>
    6c58:	bd10      	pop	{r4, pc}
    6c5a:	46c0      	nop			; (mov r8, r8)

00006c5c <fputwc>:
    6c5c:	4b0f      	ldr	r3, [pc, #60]	; (6c9c <fputwc+0x40>)
    6c5e:	b570      	push	{r4, r5, r6, lr}
    6c60:	681d      	ldr	r5, [r3, #0]
    6c62:	0006      	movs	r6, r0
    6c64:	000c      	movs	r4, r1
    6c66:	2d00      	cmp	r5, #0
    6c68:	d002      	beq.n	6c70 <fputwc+0x14>
    6c6a:	6bab      	ldr	r3, [r5, #56]	; 0x38
    6c6c:	2b00      	cmp	r3, #0
    6c6e:	d010      	beq.n	6c92 <fputwc+0x36>
    6c70:	220c      	movs	r2, #12
    6c72:	5ea3      	ldrsh	r3, [r4, r2]
    6c74:	2280      	movs	r2, #128	; 0x80
    6c76:	0192      	lsls	r2, r2, #6
    6c78:	4213      	tst	r3, r2
    6c7a:	d104      	bne.n	6c86 <fputwc+0x2a>
    6c7c:	4313      	orrs	r3, r2
    6c7e:	81a3      	strh	r3, [r4, #12]
    6c80:	6e63      	ldr	r3, [r4, #100]	; 0x64
    6c82:	431a      	orrs	r2, r3
    6c84:	6662      	str	r2, [r4, #100]	; 0x64
    6c86:	0031      	movs	r1, r6
    6c88:	0028      	movs	r0, r5
    6c8a:	0022      	movs	r2, r4
    6c8c:	f7ff ff8a 	bl	6ba4 <__fputwc>
    6c90:	bd70      	pop	{r4, r5, r6, pc}
    6c92:	0028      	movs	r0, r5
    6c94:	f7fd fb94 	bl	43c0 <__sinit>
    6c98:	e7ea      	b.n	6c70 <fputwc+0x14>
    6c9a:	46c0      	nop			; (mov r8, r8)
    6c9c:	10010d40 	.word	0x10010d40

00006ca0 <_fstat_r>:
    6ca0:	2300      	movs	r3, #0
    6ca2:	b570      	push	{r4, r5, r6, lr}
    6ca4:	4c07      	ldr	r4, [pc, #28]	; (6cc4 <_fstat_r+0x24>)
    6ca6:	0005      	movs	r5, r0
    6ca8:	0008      	movs	r0, r1
    6caa:	0011      	movs	r1, r2
    6cac:	6023      	str	r3, [r4, #0]
    6cae:	f7fa f81b 	bl	ce8 <_fstat>
    6cb2:	1c43      	adds	r3, r0, #1
    6cb4:	d000      	beq.n	6cb8 <_fstat_r+0x18>
    6cb6:	bd70      	pop	{r4, r5, r6, pc}
    6cb8:	6823      	ldr	r3, [r4, #0]
    6cba:	2b00      	cmp	r3, #0
    6cbc:	d0fb      	beq.n	6cb6 <_fstat_r+0x16>
    6cbe:	602b      	str	r3, [r5, #0]
    6cc0:	e7f9      	b.n	6cb6 <_fstat_r+0x16>
    6cc2:	46c0      	nop			; (mov r8, r8)
    6cc4:	10011044 	.word	0x10011044

00006cc8 <_isatty_r>:
    6cc8:	2300      	movs	r3, #0
    6cca:	b570      	push	{r4, r5, r6, lr}
    6ccc:	4c06      	ldr	r4, [pc, #24]	; (6ce8 <_isatty_r+0x20>)
    6cce:	0005      	movs	r5, r0
    6cd0:	0008      	movs	r0, r1
    6cd2:	6023      	str	r3, [r4, #0]
    6cd4:	f7fa f825 	bl	d22 <_isatty>
    6cd8:	1c43      	adds	r3, r0, #1
    6cda:	d000      	beq.n	6cde <_isatty_r+0x16>
    6cdc:	bd70      	pop	{r4, r5, r6, pc}
    6cde:	6823      	ldr	r3, [r4, #0]
    6ce0:	2b00      	cmp	r3, #0
    6ce2:	d0fb      	beq.n	6cdc <_isatty_r+0x14>
    6ce4:	602b      	str	r3, [r5, #0]
    6ce6:	e7f9      	b.n	6cdc <_isatty_r+0x14>
    6ce8:	10011044 	.word	0x10011044

00006cec <__get_current_locale>:
    6cec:	4b03      	ldr	r3, [pc, #12]	; (6cfc <__get_current_locale+0x10>)
    6cee:	681b      	ldr	r3, [r3, #0]
    6cf0:	6b58      	ldr	r0, [r3, #52]	; 0x34
    6cf2:	2800      	cmp	r0, #0
    6cf4:	d000      	beq.n	6cf8 <__get_current_locale+0xc>
    6cf6:	4770      	bx	lr
    6cf8:	4801      	ldr	r0, [pc, #4]	; (6d00 <__get_current_locale+0x14>)
    6cfa:	e7fc      	b.n	6cf6 <__get_current_locale+0xa>
    6cfc:	10010d40 	.word	0x10010d40
    6d00:	10010d44 	.word	0x10010d44

00006d04 <_setlocale_r>:
    6d04:	b570      	push	{r4, r5, r6, lr}
    6d06:	1e15      	subs	r5, r2, #0
    6d08:	d016      	beq.n	6d38 <_setlocale_r+0x34>
    6d0a:	490c      	ldr	r1, [pc, #48]	; (6d3c <_setlocale_r+0x38>)
    6d0c:	0010      	movs	r0, r2
    6d0e:	f000 f897 	bl	6e40 <strcmp>
    6d12:	4c0b      	ldr	r4, [pc, #44]	; (6d40 <_setlocale_r+0x3c>)
    6d14:	2800      	cmp	r0, #0
    6d16:	d101      	bne.n	6d1c <_setlocale_r+0x18>
    6d18:	0020      	movs	r0, r4
    6d1a:	bd70      	pop	{r4, r5, r6, pc}
    6d1c:	0021      	movs	r1, r4
    6d1e:	0028      	movs	r0, r5
    6d20:	f000 f88e 	bl	6e40 <strcmp>
    6d24:	2800      	cmp	r0, #0
    6d26:	d0f7      	beq.n	6d18 <_setlocale_r+0x14>
    6d28:	4906      	ldr	r1, [pc, #24]	; (6d44 <_setlocale_r+0x40>)
    6d2a:	0028      	movs	r0, r5
    6d2c:	f000 f888 	bl	6e40 <strcmp>
    6d30:	2800      	cmp	r0, #0
    6d32:	d0f1      	beq.n	6d18 <_setlocale_r+0x14>
    6d34:	2000      	movs	r0, #0
    6d36:	e7f0      	b.n	6d1a <_setlocale_r+0x16>
    6d38:	4c01      	ldr	r4, [pc, #4]	; (6d40 <_setlocale_r+0x3c>)
    6d3a:	e7ed      	b.n	6d18 <_setlocale_r+0x14>
    6d3c:	00009488 	.word	0x00009488
    6d40:	00009484 	.word	0x00009484
    6d44:	00009190 	.word	0x00009190

00006d48 <__locale_mb_cur_max>:
    6d48:	4b05      	ldr	r3, [pc, #20]	; (6d60 <__locale_mb_cur_max+0x18>)
    6d4a:	681b      	ldr	r3, [r3, #0]
    6d4c:	6b5b      	ldr	r3, [r3, #52]	; 0x34
    6d4e:	2b00      	cmp	r3, #0
    6d50:	d003      	beq.n	6d5a <__locale_mb_cur_max+0x12>
    6d52:	2294      	movs	r2, #148	; 0x94
    6d54:	0052      	lsls	r2, r2, #1
    6d56:	5c98      	ldrb	r0, [r3, r2]
    6d58:	4770      	bx	lr
    6d5a:	4b02      	ldr	r3, [pc, #8]	; (6d64 <__locale_mb_cur_max+0x1c>)
    6d5c:	e7f9      	b.n	6d52 <__locale_mb_cur_max+0xa>
    6d5e:	46c0      	nop			; (mov r8, r8)
    6d60:	10010d40 	.word	0x10010d40
    6d64:	10010d44 	.word	0x10010d44

00006d68 <__locale_ctype_ptr_l>:
    6d68:	23ec      	movs	r3, #236	; 0xec
    6d6a:	58c0      	ldr	r0, [r0, r3]
    6d6c:	4770      	bx	lr
    6d6e:	46c0      	nop			; (mov r8, r8)

00006d70 <__locale_ctype_ptr>:
    6d70:	4b03      	ldr	r3, [pc, #12]	; (6d80 <__locale_ctype_ptr+0x10>)
    6d72:	b510      	push	{r4, lr}
    6d74:	6818      	ldr	r0, [r3, #0]
    6d76:	f7ff ffb9 	bl	6cec <__get_current_locale>
    6d7a:	23ec      	movs	r3, #236	; 0xec
    6d7c:	58c0      	ldr	r0, [r0, r3]
    6d7e:	bd10      	pop	{r4, pc}
    6d80:	10010d40 	.word	0x10010d40

00006d84 <setlocale>:
    6d84:	b510      	push	{r4, lr}
    6d86:	4b04      	ldr	r3, [pc, #16]	; (6d98 <setlocale+0x14>)
    6d88:	000a      	movs	r2, r1
    6d8a:	681b      	ldr	r3, [r3, #0]
    6d8c:	0001      	movs	r1, r0
    6d8e:	0018      	movs	r0, r3
    6d90:	f7ff ffb8 	bl	6d04 <_setlocale_r>
    6d94:	bd10      	pop	{r4, pc}
    6d96:	46c0      	nop			; (mov r8, r8)
    6d98:	10010d40 	.word	0x10010d40

00006d9c <_lseek_r>:
    6d9c:	b570      	push	{r4, r5, r6, lr}
    6d9e:	0005      	movs	r5, r0
    6da0:	0008      	movs	r0, r1
    6da2:	0011      	movs	r1, r2
    6da4:	2200      	movs	r2, #0
    6da6:	4c06      	ldr	r4, [pc, #24]	; (6dc0 <_lseek_r+0x24>)
    6da8:	6022      	str	r2, [r4, #0]
    6daa:	001a      	movs	r2, r3
    6dac:	f7f9 ffbb 	bl	d26 <_lseek>
    6db0:	1c43      	adds	r3, r0, #1
    6db2:	d000      	beq.n	6db6 <_lseek_r+0x1a>
    6db4:	bd70      	pop	{r4, r5, r6, pc}
    6db6:	6823      	ldr	r3, [r4, #0]
    6db8:	2b00      	cmp	r3, #0
    6dba:	d0fb      	beq.n	6db4 <_lseek_r+0x18>
    6dbc:	602b      	str	r3, [r5, #0]
    6dbe:	e7f9      	b.n	6db4 <_lseek_r+0x18>
    6dc0:	10011044 	.word	0x10011044

00006dc4 <_mbtowc_r>:
    6dc4:	b530      	push	{r4, r5, lr}
    6dc6:	4c07      	ldr	r4, [pc, #28]	; (6de4 <_mbtowc_r+0x20>)
    6dc8:	b083      	sub	sp, #12
    6dca:	6824      	ldr	r4, [r4, #0]
    6dcc:	6b64      	ldr	r4, [r4, #52]	; 0x34
    6dce:	2c00      	cmp	r4, #0
    6dd0:	d006      	beq.n	6de0 <_mbtowc_r+0x1c>
    6dd2:	9d06      	ldr	r5, [sp, #24]
    6dd4:	9500      	str	r5, [sp, #0]
    6dd6:	25e4      	movs	r5, #228	; 0xe4
    6dd8:	5964      	ldr	r4, [r4, r5]
    6dda:	47a0      	blx	r4
    6ddc:	b003      	add	sp, #12
    6dde:	bd30      	pop	{r4, r5, pc}
    6de0:	4c01      	ldr	r4, [pc, #4]	; (6de8 <_mbtowc_r+0x24>)
    6de2:	e7f6      	b.n	6dd2 <_mbtowc_r+0xe>
    6de4:	10010d40 	.word	0x10010d40
    6de8:	10010d44 	.word	0x10010d44

00006dec <__ascii_mbtowc>:
    6dec:	b082      	sub	sp, #8
    6dee:	2900      	cmp	r1, #0
    6df0:	d00a      	beq.n	6e08 <__ascii_mbtowc+0x1c>
    6df2:	2a00      	cmp	r2, #0
    6df4:	d00b      	beq.n	6e0e <__ascii_mbtowc+0x22>
    6df6:	2b00      	cmp	r3, #0
    6df8:	d00b      	beq.n	6e12 <__ascii_mbtowc+0x26>
    6dfa:	7813      	ldrb	r3, [r2, #0]
    6dfc:	600b      	str	r3, [r1, #0]
    6dfe:	7810      	ldrb	r0, [r2, #0]
    6e00:	1e43      	subs	r3, r0, #1
    6e02:	4198      	sbcs	r0, r3
    6e04:	b002      	add	sp, #8
    6e06:	4770      	bx	lr
    6e08:	a901      	add	r1, sp, #4
    6e0a:	2a00      	cmp	r2, #0
    6e0c:	d1f3      	bne.n	6df6 <__ascii_mbtowc+0xa>
    6e0e:	2000      	movs	r0, #0
    6e10:	e7f8      	b.n	6e04 <__ascii_mbtowc+0x18>
    6e12:	2002      	movs	r0, #2
    6e14:	4240      	negs	r0, r0
    6e16:	e7f5      	b.n	6e04 <__ascii_mbtowc+0x18>

00006e18 <_read_r>:
    6e18:	b570      	push	{r4, r5, r6, lr}
    6e1a:	0005      	movs	r5, r0
    6e1c:	0008      	movs	r0, r1
    6e1e:	0011      	movs	r1, r2
    6e20:	2200      	movs	r2, #0
    6e22:	4c06      	ldr	r4, [pc, #24]	; (6e3c <_read_r+0x24>)
    6e24:	6022      	str	r2, [r4, #0]
    6e26:	001a      	movs	r2, r3
    6e28:	f7f9 ff7f 	bl	d2a <_read>
    6e2c:	1c43      	adds	r3, r0, #1
    6e2e:	d000      	beq.n	6e32 <_read_r+0x1a>
    6e30:	bd70      	pop	{r4, r5, r6, pc}
    6e32:	6823      	ldr	r3, [r4, #0]
    6e34:	2b00      	cmp	r3, #0
    6e36:	d0fb      	beq.n	6e30 <_read_r+0x18>
    6e38:	602b      	str	r3, [r5, #0]
    6e3a:	e7f9      	b.n	6e30 <_read_r+0x18>
    6e3c:	10011044 	.word	0x10011044

00006e40 <strcmp>:
    6e40:	4602      	mov	r2, r0
    6e42:	b570      	push	{r4, r5, r6, lr}
    6e44:	430a      	orrs	r2, r1
    6e46:	0792      	lsls	r2, r2, #30
    6e48:	d12a      	bne.n	6ea0 <strcmp+0x60>
    6e4a:	4d1e      	ldr	r5, [pc, #120]	; (6ec4 <strcmp+0x84>)
    6e4c:	01ee      	lsls	r6, r5, #7
    6e4e:	c804      	ldmia	r0!, {r2}
    6e50:	c908      	ldmia	r1!, {r3}
    6e52:	1b54      	subs	r4, r2, r5
    6e54:	4394      	bics	r4, r2
    6e56:	4034      	ands	r4, r6
    6e58:	d017      	beq.n	6e8a <strcmp+0x4a>
    6e5a:	b2d0      	uxtb	r0, r2
    6e5c:	b2d9      	uxtb	r1, r3
    6e5e:	1a40      	subs	r0, r0, r1
    6e60:	0621      	lsls	r1, r4, #24
    6e62:	4301      	orrs	r1, r0
    6e64:	d110      	bne.n	6e88 <strcmp+0x48>
    6e66:	b290      	uxth	r0, r2
    6e68:	b299      	uxth	r1, r3
    6e6a:	1a40      	subs	r0, r0, r1
    6e6c:	0421      	lsls	r1, r4, #16
    6e6e:	4301      	orrs	r1, r0
    6e70:	d10a      	bne.n	6e88 <strcmp+0x48>
    6e72:	0210      	lsls	r0, r2, #8
    6e74:	0219      	lsls	r1, r3, #8
    6e76:	0a00      	lsrs	r0, r0, #8
    6e78:	0a09      	lsrs	r1, r1, #8
    6e7a:	1a40      	subs	r0, r0, r1
    6e7c:	0221      	lsls	r1, r4, #8
    6e7e:	4301      	orrs	r1, r0
    6e80:	d102      	bne.n	6e88 <strcmp+0x48>
    6e82:	0e10      	lsrs	r0, r2, #24
    6e84:	0e19      	lsrs	r1, r3, #24
    6e86:	1a40      	subs	r0, r0, r1
    6e88:	bd70      	pop	{r4, r5, r6, pc}
    6e8a:	429a      	cmp	r2, r3
    6e8c:	d0df      	beq.n	6e4e <strcmp+0xe>
    6e8e:	ba10      	rev	r0, r2
    6e90:	ba19      	rev	r1, r3
    6e92:	4288      	cmp	r0, r1
    6e94:	d901      	bls.n	6e9a <strcmp+0x5a>
    6e96:	2001      	movs	r0, #1
    6e98:	bd70      	pop	{r4, r5, r6, pc}
    6e9a:	2000      	movs	r0, #0
    6e9c:	43c0      	mvns	r0, r0
    6e9e:	bd70      	pop	{r4, r5, r6, pc}
    6ea0:	7802      	ldrb	r2, [r0, #0]
    6ea2:	780b      	ldrb	r3, [r1, #0]
    6ea4:	3001      	adds	r0, #1
    6ea6:	3101      	adds	r1, #1
    6ea8:	2a00      	cmp	r2, #0
    6eaa:	d009      	beq.n	6ec0 <strcmp+0x80>
    6eac:	429a      	cmp	r2, r3
    6eae:	d107      	bne.n	6ec0 <strcmp+0x80>
    6eb0:	7802      	ldrb	r2, [r0, #0]
    6eb2:	780b      	ldrb	r3, [r1, #0]
    6eb4:	3001      	adds	r0, #1
    6eb6:	3101      	adds	r1, #1
    6eb8:	2a00      	cmp	r2, #0
    6eba:	d001      	beq.n	6ec0 <strcmp+0x80>
    6ebc:	429a      	cmp	r2, r3
    6ebe:	d0ef      	beq.n	6ea0 <strcmp+0x60>
    6ec0:	1ad0      	subs	r0, r2, r3
    6ec2:	bd70      	pop	{r4, r5, r6, pc}
    6ec4:	01010101 	.word	0x01010101

00006ec8 <__swbuf_r>:
    6ec8:	b5f8      	push	{r3, r4, r5, r6, r7, lr}
    6eca:	0006      	movs	r6, r0
    6ecc:	000f      	movs	r7, r1
    6ece:	0014      	movs	r4, r2
    6ed0:	2800      	cmp	r0, #0
    6ed2:	d002      	beq.n	6eda <__swbuf_r+0x12>
    6ed4:	6b83      	ldr	r3, [r0, #56]	; 0x38
    6ed6:	2b00      	cmp	r3, #0
    6ed8:	d04d      	beq.n	6f76 <__swbuf_r+0xae>
    6eda:	69a3      	ldr	r3, [r4, #24]
    6edc:	60a3      	str	r3, [r4, #8]
    6ede:	230c      	movs	r3, #12
    6ee0:	5ee2      	ldrsh	r2, [r4, r3]
    6ee2:	b291      	uxth	r1, r2
    6ee4:	070b      	lsls	r3, r1, #28
    6ee6:	d53b      	bpl.n	6f60 <__swbuf_r+0x98>
    6ee8:	6923      	ldr	r3, [r4, #16]
    6eea:	2b00      	cmp	r3, #0
    6eec:	d038      	beq.n	6f60 <__swbuf_r+0x98>
    6eee:	2080      	movs	r0, #128	; 0x80
    6ef0:	25ff      	movs	r5, #255	; 0xff
    6ef2:	0180      	lsls	r0, r0, #6
    6ef4:	403d      	ands	r5, r7
    6ef6:	4201      	tst	r1, r0
    6ef8:	d015      	beq.n	6f26 <__swbuf_r+0x5e>
    6efa:	6822      	ldr	r2, [r4, #0]
    6efc:	6961      	ldr	r1, [r4, #20]
    6efe:	1ad3      	subs	r3, r2, r3
    6f00:	428b      	cmp	r3, r1
    6f02:	da1b      	bge.n	6f3c <__swbuf_r+0x74>
    6f04:	3301      	adds	r3, #1
    6f06:	68a1      	ldr	r1, [r4, #8]
    6f08:	3901      	subs	r1, #1
    6f0a:	60a1      	str	r1, [r4, #8]
    6f0c:	1c51      	adds	r1, r2, #1
    6f0e:	6021      	str	r1, [r4, #0]
    6f10:	7017      	strb	r7, [r2, #0]
    6f12:	6962      	ldr	r2, [r4, #20]
    6f14:	429a      	cmp	r2, r3
    6f16:	d01a      	beq.n	6f4e <__swbuf_r+0x86>
    6f18:	89a3      	ldrh	r3, [r4, #12]
    6f1a:	07db      	lsls	r3, r3, #31
    6f1c:	d501      	bpl.n	6f22 <__swbuf_r+0x5a>
    6f1e:	2d0a      	cmp	r5, #10
    6f20:	d015      	beq.n	6f4e <__swbuf_r+0x86>
    6f22:	0028      	movs	r0, r5
    6f24:	bdf8      	pop	{r3, r4, r5, r6, r7, pc}
    6f26:	4302      	orrs	r2, r0
    6f28:	6e61      	ldr	r1, [r4, #100]	; 0x64
    6f2a:	81a2      	strh	r2, [r4, #12]
    6f2c:	4a13      	ldr	r2, [pc, #76]	; (6f7c <__swbuf_r+0xb4>)
    6f2e:	400a      	ands	r2, r1
    6f30:	6662      	str	r2, [r4, #100]	; 0x64
    6f32:	6961      	ldr	r1, [r4, #20]
    6f34:	6822      	ldr	r2, [r4, #0]
    6f36:	1ad3      	subs	r3, r2, r3
    6f38:	428b      	cmp	r3, r1
    6f3a:	dbe3      	blt.n	6f04 <__swbuf_r+0x3c>
    6f3c:	0021      	movs	r1, r4
    6f3e:	0030      	movs	r0, r6
    6f40:	f7fd f924 	bl	418c <_fflush_r>
    6f44:	2800      	cmp	r0, #0
    6f46:	d108      	bne.n	6f5a <__swbuf_r+0x92>
    6f48:	6822      	ldr	r2, [r4, #0]
    6f4a:	2301      	movs	r3, #1
    6f4c:	e7db      	b.n	6f06 <__swbuf_r+0x3e>
    6f4e:	0021      	movs	r1, r4
    6f50:	0030      	movs	r0, r6
    6f52:	f7fd f91b 	bl	418c <_fflush_r>
    6f56:	2800      	cmp	r0, #0
    6f58:	d0e3      	beq.n	6f22 <__swbuf_r+0x5a>
    6f5a:	2501      	movs	r5, #1
    6f5c:	426d      	negs	r5, r5
    6f5e:	e7e0      	b.n	6f22 <__swbuf_r+0x5a>
    6f60:	0021      	movs	r1, r4
    6f62:	0030      	movs	r0, r6
    6f64:	f7fb ffae 	bl	2ec4 <__swsetup_r>
    6f68:	2800      	cmp	r0, #0
    6f6a:	d1f6      	bne.n	6f5a <__swbuf_r+0x92>
    6f6c:	230c      	movs	r3, #12
    6f6e:	5ee2      	ldrsh	r2, [r4, r3]
    6f70:	6923      	ldr	r3, [r4, #16]
    6f72:	b291      	uxth	r1, r2
    6f74:	e7bb      	b.n	6eee <__swbuf_r+0x26>
    6f76:	f7fd fa23 	bl	43c0 <__sinit>
    6f7a:	e7ae      	b.n	6eda <__swbuf_r+0x12>
    6f7c:	ffffdfff 	.word	0xffffdfff

00006f80 <__swbuf>:
    6f80:	b510      	push	{r4, lr}
    6f82:	4b04      	ldr	r3, [pc, #16]	; (6f94 <__swbuf+0x14>)
    6f84:	000a      	movs	r2, r1
    6f86:	681b      	ldr	r3, [r3, #0]
    6f88:	0001      	movs	r1, r0
    6f8a:	0018      	movs	r0, r3
    6f8c:	f7ff ff9c 	bl	6ec8 <__swbuf_r>
    6f90:	bd10      	pop	{r4, pc}
    6f92:	46c0      	nop			; (mov r8, r8)
    6f94:	10010d40 	.word	0x10010d40

00006f98 <_wcrtomb_r>:
    6f98:	b570      	push	{r4, r5, r6, lr}
    6f9a:	001d      	movs	r5, r3
    6f9c:	4b11      	ldr	r3, [pc, #68]	; (6fe4 <_wcrtomb_r+0x4c>)
    6f9e:	b084      	sub	sp, #16
    6fa0:	681b      	ldr	r3, [r3, #0]
    6fa2:	0004      	movs	r4, r0
    6fa4:	6b5b      	ldr	r3, [r3, #52]	; 0x34
    6fa6:	2900      	cmp	r1, #0
    6fa8:	d00e      	beq.n	6fc8 <_wcrtomb_r+0x30>
    6faa:	2b00      	cmp	r3, #0
    6fac:	d016      	beq.n	6fdc <_wcrtomb_r+0x44>
    6fae:	20e0      	movs	r0, #224	; 0xe0
    6fb0:	581e      	ldr	r6, [r3, r0]
    6fb2:	002b      	movs	r3, r5
    6fb4:	0020      	movs	r0, r4
    6fb6:	47b0      	blx	r6
    6fb8:	1c43      	adds	r3, r0, #1
    6fba:	d103      	bne.n	6fc4 <_wcrtomb_r+0x2c>
    6fbc:	2300      	movs	r3, #0
    6fbe:	602b      	str	r3, [r5, #0]
    6fc0:	338a      	adds	r3, #138	; 0x8a
    6fc2:	6023      	str	r3, [r4, #0]
    6fc4:	b004      	add	sp, #16
    6fc6:	bd70      	pop	{r4, r5, r6, pc}
    6fc8:	2b00      	cmp	r3, #0
    6fca:	d009      	beq.n	6fe0 <_wcrtomb_r+0x48>
    6fcc:	22e0      	movs	r2, #224	; 0xe0
    6fce:	a901      	add	r1, sp, #4
    6fd0:	589e      	ldr	r6, [r3, r2]
    6fd2:	0020      	movs	r0, r4
    6fd4:	002b      	movs	r3, r5
    6fd6:	2200      	movs	r2, #0
    6fd8:	47b0      	blx	r6
    6fda:	e7ed      	b.n	6fb8 <_wcrtomb_r+0x20>
    6fdc:	4b02      	ldr	r3, [pc, #8]	; (6fe8 <_wcrtomb_r+0x50>)
    6fde:	e7e6      	b.n	6fae <_wcrtomb_r+0x16>
    6fe0:	4b01      	ldr	r3, [pc, #4]	; (6fe8 <_wcrtomb_r+0x50>)
    6fe2:	e7f3      	b.n	6fcc <_wcrtomb_r+0x34>
    6fe4:	10010d40 	.word	0x10010d40
    6fe8:	10010d44 	.word	0x10010d44

00006fec <wcrtomb>:
    6fec:	b570      	push	{r4, r5, r6, lr}
    6fee:	4b13      	ldr	r3, [pc, #76]	; (703c <wcrtomb+0x50>)
    6ff0:	b084      	sub	sp, #16
    6ff2:	681c      	ldr	r4, [r3, #0]
    6ff4:	0015      	movs	r5, r2
    6ff6:	6b63      	ldr	r3, [r4, #52]	; 0x34
    6ff8:	2800      	cmp	r0, #0
    6ffa:	d010      	beq.n	701e <wcrtomb+0x32>
    6ffc:	2b00      	cmp	r3, #0
    6ffe:	d018      	beq.n	7032 <wcrtomb+0x46>
    7000:	22e0      	movs	r2, #224	; 0xe0
    7002:	589e      	ldr	r6, [r3, r2]
    7004:	000a      	movs	r2, r1
    7006:	002b      	movs	r3, r5
    7008:	0001      	movs	r1, r0
    700a:	0020      	movs	r0, r4
    700c:	47b0      	blx	r6
    700e:	1c43      	adds	r3, r0, #1
    7010:	d103      	bne.n	701a <wcrtomb+0x2e>
    7012:	2300      	movs	r3, #0
    7014:	602b      	str	r3, [r5, #0]
    7016:	338a      	adds	r3, #138	; 0x8a
    7018:	6023      	str	r3, [r4, #0]
    701a:	b004      	add	sp, #16
    701c:	bd70      	pop	{r4, r5, r6, pc}
    701e:	2b00      	cmp	r3, #0
    7020:	d009      	beq.n	7036 <wcrtomb+0x4a>
    7022:	22e0      	movs	r2, #224	; 0xe0
    7024:	a901      	add	r1, sp, #4
    7026:	589e      	ldr	r6, [r3, r2]
    7028:	0020      	movs	r0, r4
    702a:	002b      	movs	r3, r5
    702c:	2200      	movs	r2, #0
    702e:	47b0      	blx	r6
    7030:	e7ed      	b.n	700e <wcrtomb+0x22>
    7032:	4b03      	ldr	r3, [pc, #12]	; (7040 <wcrtomb+0x54>)
    7034:	e7e4      	b.n	7000 <wcrtomb+0x14>
    7036:	4b02      	ldr	r3, [pc, #8]	; (7040 <wcrtomb+0x54>)
    7038:	e7f3      	b.n	7022 <wcrtomb+0x36>
    703a:	46c0      	nop			; (mov r8, r8)
    703c:	10010d40 	.word	0x10010d40
    7040:	10010d44 	.word	0x10010d44

00007044 <_wctomb_r>:
    7044:	b570      	push	{r4, r5, r6, lr}
    7046:	4c05      	ldr	r4, [pc, #20]	; (705c <_wctomb_r+0x18>)
    7048:	6824      	ldr	r4, [r4, #0]
    704a:	6b64      	ldr	r4, [r4, #52]	; 0x34
    704c:	2c00      	cmp	r4, #0
    704e:	d003      	beq.n	7058 <_wctomb_r+0x14>
    7050:	25e0      	movs	r5, #224	; 0xe0
    7052:	5964      	ldr	r4, [r4, r5]
    7054:	47a0      	blx	r4
    7056:	bd70      	pop	{r4, r5, r6, pc}
    7058:	4c01      	ldr	r4, [pc, #4]	; (7060 <_wctomb_r+0x1c>)
    705a:	e7f9      	b.n	7050 <_wctomb_r+0xc>
    705c:	10010d40 	.word	0x10010d40
    7060:	10010d44 	.word	0x10010d44

00007064 <__ascii_wctomb>:
    7064:	2900      	cmp	r1, #0
    7066:	d004      	beq.n	7072 <__ascii_wctomb+0xe>
    7068:	2aff      	cmp	r2, #255	; 0xff
    706a:	d804      	bhi.n	7076 <__ascii_wctomb+0x12>
    706c:	2001      	movs	r0, #1
    706e:	700a      	strb	r2, [r1, #0]
    7070:	4770      	bx	lr
    7072:	2000      	movs	r0, #0
    7074:	e7fc      	b.n	7070 <__ascii_wctomb+0xc>
    7076:	238a      	movs	r3, #138	; 0x8a
    7078:	6003      	str	r3, [r0, #0]
    707a:	2001      	movs	r0, #1
    707c:	4240      	negs	r0, r0
    707e:	e7f7      	b.n	7070 <__ascii_wctomb+0xc>

00007080 <__aeabi_cdrcmple>:
    7080:	4684      	mov	ip, r0
    7082:	1c10      	adds	r0, r2, #0
    7084:	4662      	mov	r2, ip
    7086:	468c      	mov	ip, r1
    7088:	1c19      	adds	r1, r3, #0
    708a:	4663      	mov	r3, ip
    708c:	e000      	b.n	7090 <__aeabi_cdcmpeq>
    708e:	46c0      	nop			; (mov r8, r8)

00007090 <__aeabi_cdcmpeq>:
    7090:	b51f      	push	{r0, r1, r2, r3, r4, lr}
    7092:	f000 fff9 	bl	8088 <__ledf2>
    7096:	2800      	cmp	r0, #0
    7098:	d401      	bmi.n	709e <__aeabi_cdcmpeq+0xe>
    709a:	2100      	movs	r1, #0
    709c:	42c8      	cmn	r0, r1
    709e:	bd1f      	pop	{r0, r1, r2, r3, r4, pc}

000070a0 <__aeabi_dcmpeq>:
    70a0:	b510      	push	{r4, lr}
    70a2:	f000 ff4d 	bl	7f40 <__eqdf2>
    70a6:	4240      	negs	r0, r0
    70a8:	3001      	adds	r0, #1
    70aa:	bd10      	pop	{r4, pc}

000070ac <__aeabi_dcmplt>:
    70ac:	b510      	push	{r4, lr}
    70ae:	f000 ffeb 	bl	8088 <__ledf2>
    70b2:	2800      	cmp	r0, #0
    70b4:	db01      	blt.n	70ba <__aeabi_dcmplt+0xe>
    70b6:	2000      	movs	r0, #0
    70b8:	bd10      	pop	{r4, pc}
    70ba:	2001      	movs	r0, #1
    70bc:	bd10      	pop	{r4, pc}
    70be:	46c0      	nop			; (mov r8, r8)

000070c0 <__aeabi_dcmple>:
    70c0:	b510      	push	{r4, lr}
    70c2:	f000 ffe1 	bl	8088 <__ledf2>
    70c6:	2800      	cmp	r0, #0
    70c8:	dd01      	ble.n	70ce <__aeabi_dcmple+0xe>
    70ca:	2000      	movs	r0, #0
    70cc:	bd10      	pop	{r4, pc}
    70ce:	2001      	movs	r0, #1
    70d0:	bd10      	pop	{r4, pc}
    70d2:	46c0      	nop			; (mov r8, r8)

000070d4 <__aeabi_dcmpgt>:
    70d4:	b510      	push	{r4, lr}
    70d6:	f000 ff73 	bl	7fc0 <__gedf2>
    70da:	2800      	cmp	r0, #0
    70dc:	dc01      	bgt.n	70e2 <__aeabi_dcmpgt+0xe>
    70de:	2000      	movs	r0, #0
    70e0:	bd10      	pop	{r4, pc}
    70e2:	2001      	movs	r0, #1
    70e4:	bd10      	pop	{r4, pc}
    70e6:	46c0      	nop			; (mov r8, r8)

000070e8 <__aeabi_dcmpge>:
    70e8:	b510      	push	{r4, lr}
    70ea:	f000 ff69 	bl	7fc0 <__gedf2>
    70ee:	2800      	cmp	r0, #0
    70f0:	da01      	bge.n	70f6 <__aeabi_dcmpge+0xe>
    70f2:	2000      	movs	r0, #0
    70f4:	bd10      	pop	{r4, pc}
    70f6:	2001      	movs	r0, #1
    70f8:	bd10      	pop	{r4, pc}
    70fa:	46c0      	nop			; (mov r8, r8)

000070fc <__aeabi_uldivmod>:
    70fc:	2b00      	cmp	r3, #0
    70fe:	d111      	bne.n	7124 <__aeabi_uldivmod+0x28>
    7100:	2a00      	cmp	r2, #0
    7102:	d10f      	bne.n	7124 <__aeabi_uldivmod+0x28>
    7104:	2900      	cmp	r1, #0
    7106:	d100      	bne.n	710a <__aeabi_uldivmod+0xe>
    7108:	2800      	cmp	r0, #0
    710a:	d002      	beq.n	7112 <__aeabi_uldivmod+0x16>
    710c:	2100      	movs	r1, #0
    710e:	43c9      	mvns	r1, r1
    7110:	1c08      	adds	r0, r1, #0
    7112:	b407      	push	{r0, r1, r2}
    7114:	4802      	ldr	r0, [pc, #8]	; (7120 <__aeabi_uldivmod+0x24>)
    7116:	a102      	add	r1, pc, #8	; (adr r1, 7120 <__aeabi_uldivmod+0x24>)
    7118:	1840      	adds	r0, r0, r1
    711a:	9002      	str	r0, [sp, #8]
    711c:	bd03      	pop	{r0, r1, pc}
    711e:	46c0      	nop			; (mov r8, r8)
    7120:	00001d79 	.word	0x00001d79
    7124:	b403      	push	{r0, r1}
    7126:	4668      	mov	r0, sp
    7128:	b501      	push	{r0, lr}
    712a:	9802      	ldr	r0, [sp, #8]
    712c:	f000 f806 	bl	713c <__udivmoddi4>
    7130:	9b01      	ldr	r3, [sp, #4]
    7132:	469e      	mov	lr, r3
    7134:	b002      	add	sp, #8
    7136:	bc0c      	pop	{r2, r3}
    7138:	4770      	bx	lr
    713a:	46c0      	nop			; (mov r8, r8)

0000713c <__udivmoddi4>:
    713c:	b5f0      	push	{r4, r5, r6, r7, lr}
    713e:	464d      	mov	r5, r9
    7140:	4656      	mov	r6, sl
    7142:	4644      	mov	r4, r8
    7144:	465f      	mov	r7, fp
    7146:	b4f0      	push	{r4, r5, r6, r7}
    7148:	4692      	mov	sl, r2
    714a:	b083      	sub	sp, #12
    714c:	0004      	movs	r4, r0
    714e:	000d      	movs	r5, r1
    7150:	4699      	mov	r9, r3
    7152:	428b      	cmp	r3, r1
    7154:	d82f      	bhi.n	71b6 <__udivmoddi4+0x7a>
    7156:	d02c      	beq.n	71b2 <__udivmoddi4+0x76>
    7158:	4649      	mov	r1, r9
    715a:	4650      	mov	r0, sl
    715c:	f001 febc 	bl	8ed8 <__clzdi2>
    7160:	0029      	movs	r1, r5
    7162:	0006      	movs	r6, r0
    7164:	0020      	movs	r0, r4
    7166:	f001 feb7 	bl	8ed8 <__clzdi2>
    716a:	1a33      	subs	r3, r6, r0
    716c:	4698      	mov	r8, r3
    716e:	3b20      	subs	r3, #32
    7170:	469b      	mov	fp, r3
    7172:	d500      	bpl.n	7176 <__udivmoddi4+0x3a>
    7174:	e074      	b.n	7260 <__udivmoddi4+0x124>
    7176:	4653      	mov	r3, sl
    7178:	465a      	mov	r2, fp
    717a:	4093      	lsls	r3, r2
    717c:	001f      	movs	r7, r3
    717e:	4653      	mov	r3, sl
    7180:	4642      	mov	r2, r8
    7182:	4093      	lsls	r3, r2
    7184:	001e      	movs	r6, r3
    7186:	42af      	cmp	r7, r5
    7188:	d829      	bhi.n	71de <__udivmoddi4+0xa2>
    718a:	d026      	beq.n	71da <__udivmoddi4+0x9e>
    718c:	465b      	mov	r3, fp
    718e:	1ba4      	subs	r4, r4, r6
    7190:	41bd      	sbcs	r5, r7
    7192:	2b00      	cmp	r3, #0
    7194:	da00      	bge.n	7198 <__udivmoddi4+0x5c>
    7196:	e079      	b.n	728c <__udivmoddi4+0x150>
    7198:	2200      	movs	r2, #0
    719a:	2300      	movs	r3, #0
    719c:	9200      	str	r2, [sp, #0]
    719e:	9301      	str	r3, [sp, #4]
    71a0:	2301      	movs	r3, #1
    71a2:	465a      	mov	r2, fp
    71a4:	4093      	lsls	r3, r2
    71a6:	9301      	str	r3, [sp, #4]
    71a8:	2301      	movs	r3, #1
    71aa:	4642      	mov	r2, r8
    71ac:	4093      	lsls	r3, r2
    71ae:	9300      	str	r3, [sp, #0]
    71b0:	e019      	b.n	71e6 <__udivmoddi4+0xaa>
    71b2:	4282      	cmp	r2, r0
    71b4:	d9d0      	bls.n	7158 <__udivmoddi4+0x1c>
    71b6:	2200      	movs	r2, #0
    71b8:	2300      	movs	r3, #0
    71ba:	9200      	str	r2, [sp, #0]
    71bc:	9301      	str	r3, [sp, #4]
    71be:	9b0c      	ldr	r3, [sp, #48]	; 0x30
    71c0:	2b00      	cmp	r3, #0
    71c2:	d001      	beq.n	71c8 <__udivmoddi4+0x8c>
    71c4:	601c      	str	r4, [r3, #0]
    71c6:	605d      	str	r5, [r3, #4]
    71c8:	9800      	ldr	r0, [sp, #0]
    71ca:	9901      	ldr	r1, [sp, #4]
    71cc:	b003      	add	sp, #12
    71ce:	bc3c      	pop	{r2, r3, r4, r5}
    71d0:	4690      	mov	r8, r2
    71d2:	4699      	mov	r9, r3
    71d4:	46a2      	mov	sl, r4
    71d6:	46ab      	mov	fp, r5
    71d8:	bdf0      	pop	{r4, r5, r6, r7, pc}
    71da:	42a3      	cmp	r3, r4
    71dc:	d9d6      	bls.n	718c <__udivmoddi4+0x50>
    71de:	2200      	movs	r2, #0
    71e0:	2300      	movs	r3, #0
    71e2:	9200      	str	r2, [sp, #0]
    71e4:	9301      	str	r3, [sp, #4]
    71e6:	4643      	mov	r3, r8
    71e8:	2b00      	cmp	r3, #0
    71ea:	d0e8      	beq.n	71be <__udivmoddi4+0x82>
    71ec:	07fb      	lsls	r3, r7, #31
    71ee:	0872      	lsrs	r2, r6, #1
    71f0:	431a      	orrs	r2, r3
    71f2:	4646      	mov	r6, r8
    71f4:	087b      	lsrs	r3, r7, #1
    71f6:	e00e      	b.n	7216 <__udivmoddi4+0xda>
    71f8:	42ab      	cmp	r3, r5
    71fa:	d101      	bne.n	7200 <__udivmoddi4+0xc4>
    71fc:	42a2      	cmp	r2, r4
    71fe:	d80c      	bhi.n	721a <__udivmoddi4+0xde>
    7200:	1aa4      	subs	r4, r4, r2
    7202:	419d      	sbcs	r5, r3
    7204:	2001      	movs	r0, #1
    7206:	1924      	adds	r4, r4, r4
    7208:	416d      	adcs	r5, r5
    720a:	2100      	movs	r1, #0
    720c:	3e01      	subs	r6, #1
    720e:	1824      	adds	r4, r4, r0
    7210:	414d      	adcs	r5, r1
    7212:	2e00      	cmp	r6, #0
    7214:	d006      	beq.n	7224 <__udivmoddi4+0xe8>
    7216:	42ab      	cmp	r3, r5
    7218:	d9ee      	bls.n	71f8 <__udivmoddi4+0xbc>
    721a:	3e01      	subs	r6, #1
    721c:	1924      	adds	r4, r4, r4
    721e:	416d      	adcs	r5, r5
    7220:	2e00      	cmp	r6, #0
    7222:	d1f8      	bne.n	7216 <__udivmoddi4+0xda>
    7224:	465b      	mov	r3, fp
    7226:	9800      	ldr	r0, [sp, #0]
    7228:	9901      	ldr	r1, [sp, #4]
    722a:	1900      	adds	r0, r0, r4
    722c:	4169      	adcs	r1, r5
    722e:	2b00      	cmp	r3, #0
    7230:	db22      	blt.n	7278 <__udivmoddi4+0x13c>
    7232:	002b      	movs	r3, r5
    7234:	465a      	mov	r2, fp
    7236:	40d3      	lsrs	r3, r2
    7238:	002a      	movs	r2, r5
    723a:	4644      	mov	r4, r8
    723c:	40e2      	lsrs	r2, r4
    723e:	001c      	movs	r4, r3
    7240:	465b      	mov	r3, fp
    7242:	0015      	movs	r5, r2
    7244:	2b00      	cmp	r3, #0
    7246:	db2c      	blt.n	72a2 <__udivmoddi4+0x166>
    7248:	0026      	movs	r6, r4
    724a:	409e      	lsls	r6, r3
    724c:	0033      	movs	r3, r6
    724e:	0026      	movs	r6, r4
    7250:	4647      	mov	r7, r8
    7252:	40be      	lsls	r6, r7
    7254:	0032      	movs	r2, r6
    7256:	1a80      	subs	r0, r0, r2
    7258:	4199      	sbcs	r1, r3
    725a:	9000      	str	r0, [sp, #0]
    725c:	9101      	str	r1, [sp, #4]
    725e:	e7ae      	b.n	71be <__udivmoddi4+0x82>
    7260:	4642      	mov	r2, r8
    7262:	2320      	movs	r3, #32
    7264:	1a9b      	subs	r3, r3, r2
    7266:	4652      	mov	r2, sl
    7268:	40da      	lsrs	r2, r3
    726a:	4641      	mov	r1, r8
    726c:	0013      	movs	r3, r2
    726e:	464a      	mov	r2, r9
    7270:	408a      	lsls	r2, r1
    7272:	0017      	movs	r7, r2
    7274:	431f      	orrs	r7, r3
    7276:	e782      	b.n	717e <__udivmoddi4+0x42>
    7278:	4642      	mov	r2, r8
    727a:	2320      	movs	r3, #32
    727c:	1a9b      	subs	r3, r3, r2
    727e:	002a      	movs	r2, r5
    7280:	4646      	mov	r6, r8
    7282:	409a      	lsls	r2, r3
    7284:	0023      	movs	r3, r4
    7286:	40f3      	lsrs	r3, r6
    7288:	4313      	orrs	r3, r2
    728a:	e7d5      	b.n	7238 <__udivmoddi4+0xfc>
    728c:	4642      	mov	r2, r8
    728e:	2320      	movs	r3, #32
    7290:	2100      	movs	r1, #0
    7292:	1a9b      	subs	r3, r3, r2
    7294:	2200      	movs	r2, #0
    7296:	9100      	str	r1, [sp, #0]
    7298:	9201      	str	r2, [sp, #4]
    729a:	2201      	movs	r2, #1
    729c:	40da      	lsrs	r2, r3
    729e:	9201      	str	r2, [sp, #4]
    72a0:	e782      	b.n	71a8 <__udivmoddi4+0x6c>
    72a2:	4642      	mov	r2, r8
    72a4:	2320      	movs	r3, #32
    72a6:	0026      	movs	r6, r4
    72a8:	1a9b      	subs	r3, r3, r2
    72aa:	40de      	lsrs	r6, r3
    72ac:	002f      	movs	r7, r5
    72ae:	46b4      	mov	ip, r6
    72b0:	4097      	lsls	r7, r2
    72b2:	4666      	mov	r6, ip
    72b4:	003b      	movs	r3, r7
    72b6:	4333      	orrs	r3, r6
    72b8:	e7c9      	b.n	724e <__udivmoddi4+0x112>
    72ba:	46c0      	nop			; (mov r8, r8)

000072bc <__aeabi_dadd>:
    72bc:	b5f8      	push	{r3, r4, r5, r6, r7, lr}
    72be:	4656      	mov	r6, sl
    72c0:	465f      	mov	r7, fp
    72c2:	464d      	mov	r5, r9
    72c4:	4644      	mov	r4, r8
    72c6:	b4f0      	push	{r4, r5, r6, r7}
    72c8:	000f      	movs	r7, r1
    72ca:	0ffd      	lsrs	r5, r7, #31
    72cc:	46aa      	mov	sl, r5
    72ce:	0309      	lsls	r1, r1, #12
    72d0:	007c      	lsls	r4, r7, #1
    72d2:	002e      	movs	r6, r5
    72d4:	005f      	lsls	r7, r3, #1
    72d6:	0f45      	lsrs	r5, r0, #29
    72d8:	0a49      	lsrs	r1, r1, #9
    72da:	0d7f      	lsrs	r7, r7, #21
    72dc:	4329      	orrs	r1, r5
    72de:	00c5      	lsls	r5, r0, #3
    72e0:	0318      	lsls	r0, r3, #12
    72e2:	46bc      	mov	ip, r7
    72e4:	0a40      	lsrs	r0, r0, #9
    72e6:	0f57      	lsrs	r7, r2, #29
    72e8:	0d64      	lsrs	r4, r4, #21
    72ea:	0fdb      	lsrs	r3, r3, #31
    72ec:	4338      	orrs	r0, r7
    72ee:	00d2      	lsls	r2, r2, #3
    72f0:	459a      	cmp	sl, r3
    72f2:	d100      	bne.n	72f6 <__aeabi_dadd+0x3a>
    72f4:	e0aa      	b.n	744c <__aeabi_dadd+0x190>
    72f6:	4666      	mov	r6, ip
    72f8:	1ba6      	subs	r6, r4, r6
    72fa:	2e00      	cmp	r6, #0
    72fc:	dc00      	bgt.n	7300 <__aeabi_dadd+0x44>
    72fe:	e0ff      	b.n	7500 <__aeabi_dadd+0x244>
    7300:	4663      	mov	r3, ip
    7302:	2b00      	cmp	r3, #0
    7304:	d139      	bne.n	737a <__aeabi_dadd+0xbe>
    7306:	0003      	movs	r3, r0
    7308:	4313      	orrs	r3, r2
    730a:	d000      	beq.n	730e <__aeabi_dadd+0x52>
    730c:	e0d9      	b.n	74c2 <__aeabi_dadd+0x206>
    730e:	076b      	lsls	r3, r5, #29
    7310:	d009      	beq.n	7326 <__aeabi_dadd+0x6a>
    7312:	230f      	movs	r3, #15
    7314:	402b      	ands	r3, r5
    7316:	2b04      	cmp	r3, #4
    7318:	d005      	beq.n	7326 <__aeabi_dadd+0x6a>
    731a:	1d2b      	adds	r3, r5, #4
    731c:	42ab      	cmp	r3, r5
    731e:	41ad      	sbcs	r5, r5
    7320:	426d      	negs	r5, r5
    7322:	1949      	adds	r1, r1, r5
    7324:	001d      	movs	r5, r3
    7326:	020b      	lsls	r3, r1, #8
    7328:	d400      	bmi.n	732c <__aeabi_dadd+0x70>
    732a:	e082      	b.n	7432 <__aeabi_dadd+0x176>
    732c:	4bca      	ldr	r3, [pc, #808]	; (7658 <__aeabi_dadd+0x39c>)
    732e:	3401      	adds	r4, #1
    7330:	429c      	cmp	r4, r3
    7332:	d100      	bne.n	7336 <__aeabi_dadd+0x7a>
    7334:	e0fe      	b.n	7534 <__aeabi_dadd+0x278>
    7336:	000a      	movs	r2, r1
    7338:	4656      	mov	r6, sl
    733a:	4bc8      	ldr	r3, [pc, #800]	; (765c <__aeabi_dadd+0x3a0>)
    733c:	08ed      	lsrs	r5, r5, #3
    733e:	401a      	ands	r2, r3
    7340:	0750      	lsls	r0, r2, #29
    7342:	0564      	lsls	r4, r4, #21
    7344:	0252      	lsls	r2, r2, #9
    7346:	4305      	orrs	r5, r0
    7348:	0b12      	lsrs	r2, r2, #12
    734a:	0d64      	lsrs	r4, r4, #21
    734c:	2100      	movs	r1, #0
    734e:	0312      	lsls	r2, r2, #12
    7350:	0d0b      	lsrs	r3, r1, #20
    7352:	051b      	lsls	r3, r3, #20
    7354:	0564      	lsls	r4, r4, #21
    7356:	0b12      	lsrs	r2, r2, #12
    7358:	431a      	orrs	r2, r3
    735a:	0863      	lsrs	r3, r4, #1
    735c:	4cc0      	ldr	r4, [pc, #768]	; (7660 <__aeabi_dadd+0x3a4>)
    735e:	07f6      	lsls	r6, r6, #31
    7360:	4014      	ands	r4, r2
    7362:	431c      	orrs	r4, r3
    7364:	0064      	lsls	r4, r4, #1
    7366:	0864      	lsrs	r4, r4, #1
    7368:	4334      	orrs	r4, r6
    736a:	0028      	movs	r0, r5
    736c:	0021      	movs	r1, r4
    736e:	bc3c      	pop	{r2, r3, r4, r5}
    7370:	4690      	mov	r8, r2
    7372:	4699      	mov	r9, r3
    7374:	46a2      	mov	sl, r4
    7376:	46ab      	mov	fp, r5
    7378:	bdf8      	pop	{r3, r4, r5, r6, r7, pc}
    737a:	4bb7      	ldr	r3, [pc, #732]	; (7658 <__aeabi_dadd+0x39c>)
    737c:	429c      	cmp	r4, r3
    737e:	d0c6      	beq.n	730e <__aeabi_dadd+0x52>
    7380:	2380      	movs	r3, #128	; 0x80
    7382:	041b      	lsls	r3, r3, #16
    7384:	4318      	orrs	r0, r3
    7386:	2e38      	cmp	r6, #56	; 0x38
    7388:	dd00      	ble.n	738c <__aeabi_dadd+0xd0>
    738a:	e0eb      	b.n	7564 <__aeabi_dadd+0x2a8>
    738c:	2e1f      	cmp	r6, #31
    738e:	dd00      	ble.n	7392 <__aeabi_dadd+0xd6>
    7390:	e11e      	b.n	75d0 <__aeabi_dadd+0x314>
    7392:	2320      	movs	r3, #32
    7394:	1b9b      	subs	r3, r3, r6
    7396:	469c      	mov	ip, r3
    7398:	0003      	movs	r3, r0
    739a:	4667      	mov	r7, ip
    739c:	40bb      	lsls	r3, r7
    739e:	4698      	mov	r8, r3
    73a0:	0013      	movs	r3, r2
    73a2:	4647      	mov	r7, r8
    73a4:	40f3      	lsrs	r3, r6
    73a6:	433b      	orrs	r3, r7
    73a8:	4667      	mov	r7, ip
    73aa:	40ba      	lsls	r2, r7
    73ac:	1e57      	subs	r7, r2, #1
    73ae:	41ba      	sbcs	r2, r7
    73b0:	4313      	orrs	r3, r2
    73b2:	0002      	movs	r2, r0
    73b4:	40f2      	lsrs	r2, r6
    73b6:	1aeb      	subs	r3, r5, r3
    73b8:	429d      	cmp	r5, r3
    73ba:	41b6      	sbcs	r6, r6
    73bc:	001d      	movs	r5, r3
    73be:	1a8a      	subs	r2, r1, r2
    73c0:	4276      	negs	r6, r6
    73c2:	1b91      	subs	r1, r2, r6
    73c4:	020b      	lsls	r3, r1, #8
    73c6:	d531      	bpl.n	742c <__aeabi_dadd+0x170>
    73c8:	024a      	lsls	r2, r1, #9
    73ca:	0a56      	lsrs	r6, r2, #9
    73cc:	2e00      	cmp	r6, #0
    73ce:	d100      	bne.n	73d2 <__aeabi_dadd+0x116>
    73d0:	e0b4      	b.n	753c <__aeabi_dadd+0x280>
    73d2:	0030      	movs	r0, r6
    73d4:	f001 fd62 	bl	8e9c <__clzsi2>
    73d8:	0003      	movs	r3, r0
    73da:	3b08      	subs	r3, #8
    73dc:	2b1f      	cmp	r3, #31
    73de:	dd00      	ble.n	73e2 <__aeabi_dadd+0x126>
    73e0:	e0b5      	b.n	754e <__aeabi_dadd+0x292>
    73e2:	2220      	movs	r2, #32
    73e4:	0029      	movs	r1, r5
    73e6:	1ad2      	subs	r2, r2, r3
    73e8:	40d1      	lsrs	r1, r2
    73ea:	409e      	lsls	r6, r3
    73ec:	000a      	movs	r2, r1
    73ee:	409d      	lsls	r5, r3
    73f0:	4332      	orrs	r2, r6
    73f2:	429c      	cmp	r4, r3
    73f4:	dd00      	ble.n	73f8 <__aeabi_dadd+0x13c>
    73f6:	e0b1      	b.n	755c <__aeabi_dadd+0x2a0>
    73f8:	1b1c      	subs	r4, r3, r4
    73fa:	1c63      	adds	r3, r4, #1
    73fc:	2b1f      	cmp	r3, #31
    73fe:	dd00      	ble.n	7402 <__aeabi_dadd+0x146>
    7400:	e0d5      	b.n	75ae <__aeabi_dadd+0x2f2>
    7402:	2120      	movs	r1, #32
    7404:	0014      	movs	r4, r2
    7406:	0028      	movs	r0, r5
    7408:	1ac9      	subs	r1, r1, r3
    740a:	408c      	lsls	r4, r1
    740c:	40d8      	lsrs	r0, r3
    740e:	408d      	lsls	r5, r1
    7410:	4304      	orrs	r4, r0
    7412:	40da      	lsrs	r2, r3
    7414:	1e68      	subs	r0, r5, #1
    7416:	4185      	sbcs	r5, r0
    7418:	0011      	movs	r1, r2
    741a:	4325      	orrs	r5, r4
    741c:	2400      	movs	r4, #0
    741e:	e776      	b.n	730e <__aeabi_dadd+0x52>
    7420:	4641      	mov	r1, r8
    7422:	4331      	orrs	r1, r6
    7424:	d100      	bne.n	7428 <__aeabi_dadd+0x16c>
    7426:	e234      	b.n	7892 <__aeabi_dadd+0x5d6>
    7428:	0031      	movs	r1, r6
    742a:	4645      	mov	r5, r8
    742c:	076b      	lsls	r3, r5, #29
    742e:	d000      	beq.n	7432 <__aeabi_dadd+0x176>
    7430:	e76f      	b.n	7312 <__aeabi_dadd+0x56>
    7432:	4656      	mov	r6, sl
    7434:	0748      	lsls	r0, r1, #29
    7436:	08ed      	lsrs	r5, r5, #3
    7438:	08c9      	lsrs	r1, r1, #3
    743a:	4305      	orrs	r5, r0
    743c:	4b86      	ldr	r3, [pc, #536]	; (7658 <__aeabi_dadd+0x39c>)
    743e:	429c      	cmp	r4, r3
    7440:	d035      	beq.n	74ae <__aeabi_dadd+0x1f2>
    7442:	030a      	lsls	r2, r1, #12
    7444:	0564      	lsls	r4, r4, #21
    7446:	0b12      	lsrs	r2, r2, #12
    7448:	0d64      	lsrs	r4, r4, #21
    744a:	e77f      	b.n	734c <__aeabi_dadd+0x90>
    744c:	4663      	mov	r3, ip
    744e:	1ae3      	subs	r3, r4, r3
    7450:	469b      	mov	fp, r3
    7452:	2b00      	cmp	r3, #0
    7454:	dc00      	bgt.n	7458 <__aeabi_dadd+0x19c>
    7456:	e08b      	b.n	7570 <__aeabi_dadd+0x2b4>
    7458:	4667      	mov	r7, ip
    745a:	2f00      	cmp	r7, #0
    745c:	d03c      	beq.n	74d8 <__aeabi_dadd+0x21c>
    745e:	4f7e      	ldr	r7, [pc, #504]	; (7658 <__aeabi_dadd+0x39c>)
    7460:	42bc      	cmp	r4, r7
    7462:	d100      	bne.n	7466 <__aeabi_dadd+0x1aa>
    7464:	e753      	b.n	730e <__aeabi_dadd+0x52>
    7466:	2780      	movs	r7, #128	; 0x80
    7468:	043f      	lsls	r7, r7, #16
    746a:	4338      	orrs	r0, r7
    746c:	465b      	mov	r3, fp
    746e:	2b38      	cmp	r3, #56	; 0x38
    7470:	dc00      	bgt.n	7474 <__aeabi_dadd+0x1b8>
    7472:	e0f7      	b.n	7664 <__aeabi_dadd+0x3a8>
    7474:	4302      	orrs	r2, r0
    7476:	1e50      	subs	r0, r2, #1
    7478:	4182      	sbcs	r2, r0
    747a:	2000      	movs	r0, #0
    747c:	b2d2      	uxtb	r2, r2
    747e:	1953      	adds	r3, r2, r5
    7480:	1842      	adds	r2, r0, r1
    7482:	42ab      	cmp	r3, r5
    7484:	4189      	sbcs	r1, r1
    7486:	001d      	movs	r5, r3
    7488:	4249      	negs	r1, r1
    748a:	1889      	adds	r1, r1, r2
    748c:	020b      	lsls	r3, r1, #8
    748e:	d5cd      	bpl.n	742c <__aeabi_dadd+0x170>
    7490:	4b71      	ldr	r3, [pc, #452]	; (7658 <__aeabi_dadd+0x39c>)
    7492:	3401      	adds	r4, #1
    7494:	429c      	cmp	r4, r3
    7496:	d100      	bne.n	749a <__aeabi_dadd+0x1de>
    7498:	e13d      	b.n	7716 <__aeabi_dadd+0x45a>
    749a:	2001      	movs	r0, #1
    749c:	4a6f      	ldr	r2, [pc, #444]	; (765c <__aeabi_dadd+0x3a0>)
    749e:	086b      	lsrs	r3, r5, #1
    74a0:	400a      	ands	r2, r1
    74a2:	4028      	ands	r0, r5
    74a4:	4318      	orrs	r0, r3
    74a6:	07d5      	lsls	r5, r2, #31
    74a8:	4305      	orrs	r5, r0
    74aa:	0851      	lsrs	r1, r2, #1
    74ac:	e72f      	b.n	730e <__aeabi_dadd+0x52>
    74ae:	002b      	movs	r3, r5
    74b0:	430b      	orrs	r3, r1
    74b2:	d100      	bne.n	74b6 <__aeabi_dadd+0x1fa>
    74b4:	e1cb      	b.n	784e <__aeabi_dadd+0x592>
    74b6:	2380      	movs	r3, #128	; 0x80
    74b8:	031b      	lsls	r3, r3, #12
    74ba:	430b      	orrs	r3, r1
    74bc:	031a      	lsls	r2, r3, #12
    74be:	0b12      	lsrs	r2, r2, #12
    74c0:	e744      	b.n	734c <__aeabi_dadd+0x90>
    74c2:	3e01      	subs	r6, #1
    74c4:	2e00      	cmp	r6, #0
    74c6:	d16d      	bne.n	75a4 <__aeabi_dadd+0x2e8>
    74c8:	1aae      	subs	r6, r5, r2
    74ca:	42b5      	cmp	r5, r6
    74cc:	419b      	sbcs	r3, r3
    74ce:	1a09      	subs	r1, r1, r0
    74d0:	425b      	negs	r3, r3
    74d2:	1ac9      	subs	r1, r1, r3
    74d4:	0035      	movs	r5, r6
    74d6:	e775      	b.n	73c4 <__aeabi_dadd+0x108>
    74d8:	0007      	movs	r7, r0
    74da:	4317      	orrs	r7, r2
    74dc:	d100      	bne.n	74e0 <__aeabi_dadd+0x224>
    74de:	e716      	b.n	730e <__aeabi_dadd+0x52>
    74e0:	2301      	movs	r3, #1
    74e2:	425b      	negs	r3, r3
    74e4:	469c      	mov	ip, r3
    74e6:	44e3      	add	fp, ip
    74e8:	465b      	mov	r3, fp
    74ea:	2b00      	cmp	r3, #0
    74ec:	d000      	beq.n	74f0 <__aeabi_dadd+0x234>
    74ee:	e0e0      	b.n	76b2 <__aeabi_dadd+0x3f6>
    74f0:	18aa      	adds	r2, r5, r2
    74f2:	42aa      	cmp	r2, r5
    74f4:	419b      	sbcs	r3, r3
    74f6:	1809      	adds	r1, r1, r0
    74f8:	425b      	negs	r3, r3
    74fa:	1859      	adds	r1, r3, r1
    74fc:	0015      	movs	r5, r2
    74fe:	e7c5      	b.n	748c <__aeabi_dadd+0x1d0>
    7500:	2e00      	cmp	r6, #0
    7502:	d175      	bne.n	75f0 <__aeabi_dadd+0x334>
    7504:	1c66      	adds	r6, r4, #1
    7506:	0576      	lsls	r6, r6, #21
    7508:	0d76      	lsrs	r6, r6, #21
    750a:	2e01      	cmp	r6, #1
    750c:	dc00      	bgt.n	7510 <__aeabi_dadd+0x254>
    750e:	e0f3      	b.n	76f8 <__aeabi_dadd+0x43c>
    7510:	1aae      	subs	r6, r5, r2
    7512:	46b0      	mov	r8, r6
    7514:	4545      	cmp	r5, r8
    7516:	41bf      	sbcs	r7, r7
    7518:	1a0e      	subs	r6, r1, r0
    751a:	427f      	negs	r7, r7
    751c:	1bf6      	subs	r6, r6, r7
    751e:	0237      	lsls	r7, r6, #8
    7520:	d400      	bmi.n	7524 <__aeabi_dadd+0x268>
    7522:	e08f      	b.n	7644 <__aeabi_dadd+0x388>
    7524:	1b55      	subs	r5, r2, r5
    7526:	42aa      	cmp	r2, r5
    7528:	41b6      	sbcs	r6, r6
    752a:	1a41      	subs	r1, r0, r1
    752c:	4276      	negs	r6, r6
    752e:	1b8e      	subs	r6, r1, r6
    7530:	469a      	mov	sl, r3
    7532:	e74b      	b.n	73cc <__aeabi_dadd+0x110>
    7534:	4656      	mov	r6, sl
    7536:	2200      	movs	r2, #0
    7538:	2500      	movs	r5, #0
    753a:	e707      	b.n	734c <__aeabi_dadd+0x90>
    753c:	0028      	movs	r0, r5
    753e:	f001 fcad 	bl	8e9c <__clzsi2>
    7542:	3020      	adds	r0, #32
    7544:	0003      	movs	r3, r0
    7546:	3b08      	subs	r3, #8
    7548:	2b1f      	cmp	r3, #31
    754a:	dc00      	bgt.n	754e <__aeabi_dadd+0x292>
    754c:	e749      	b.n	73e2 <__aeabi_dadd+0x126>
    754e:	002a      	movs	r2, r5
    7550:	3828      	subs	r0, #40	; 0x28
    7552:	4082      	lsls	r2, r0
    7554:	2500      	movs	r5, #0
    7556:	429c      	cmp	r4, r3
    7558:	dc00      	bgt.n	755c <__aeabi_dadd+0x2a0>
    755a:	e74d      	b.n	73f8 <__aeabi_dadd+0x13c>
    755c:	493f      	ldr	r1, [pc, #252]	; (765c <__aeabi_dadd+0x3a0>)
    755e:	1ae4      	subs	r4, r4, r3
    7560:	4011      	ands	r1, r2
    7562:	e6d4      	b.n	730e <__aeabi_dadd+0x52>
    7564:	4302      	orrs	r2, r0
    7566:	1e50      	subs	r0, r2, #1
    7568:	4182      	sbcs	r2, r0
    756a:	b2d3      	uxtb	r3, r2
    756c:	2200      	movs	r2, #0
    756e:	e722      	b.n	73b6 <__aeabi_dadd+0xfa>
    7570:	2b00      	cmp	r3, #0
    7572:	d000      	beq.n	7576 <__aeabi_dadd+0x2ba>
    7574:	e0f3      	b.n	775e <__aeabi_dadd+0x4a2>
    7576:	1c63      	adds	r3, r4, #1
    7578:	469c      	mov	ip, r3
    757a:	055b      	lsls	r3, r3, #21
    757c:	0d5b      	lsrs	r3, r3, #21
    757e:	2b01      	cmp	r3, #1
    7580:	dc00      	bgt.n	7584 <__aeabi_dadd+0x2c8>
    7582:	e09f      	b.n	76c4 <__aeabi_dadd+0x408>
    7584:	4b34      	ldr	r3, [pc, #208]	; (7658 <__aeabi_dadd+0x39c>)
    7586:	459c      	cmp	ip, r3
    7588:	d100      	bne.n	758c <__aeabi_dadd+0x2d0>
    758a:	e0c3      	b.n	7714 <__aeabi_dadd+0x458>
    758c:	18aa      	adds	r2, r5, r2
    758e:	1809      	adds	r1, r1, r0
    7590:	42aa      	cmp	r2, r5
    7592:	4180      	sbcs	r0, r0
    7594:	4240      	negs	r0, r0
    7596:	1841      	adds	r1, r0, r1
    7598:	07cd      	lsls	r5, r1, #31
    759a:	0852      	lsrs	r2, r2, #1
    759c:	4315      	orrs	r5, r2
    759e:	0849      	lsrs	r1, r1, #1
    75a0:	4664      	mov	r4, ip
    75a2:	e6b4      	b.n	730e <__aeabi_dadd+0x52>
    75a4:	4b2c      	ldr	r3, [pc, #176]	; (7658 <__aeabi_dadd+0x39c>)
    75a6:	429c      	cmp	r4, r3
    75a8:	d000      	beq.n	75ac <__aeabi_dadd+0x2f0>
    75aa:	e6ec      	b.n	7386 <__aeabi_dadd+0xca>
    75ac:	e6af      	b.n	730e <__aeabi_dadd+0x52>
    75ae:	0011      	movs	r1, r2
    75b0:	3c1f      	subs	r4, #31
    75b2:	40e1      	lsrs	r1, r4
    75b4:	000c      	movs	r4, r1
    75b6:	2b20      	cmp	r3, #32
    75b8:	d100      	bne.n	75bc <__aeabi_dadd+0x300>
    75ba:	e07f      	b.n	76bc <__aeabi_dadd+0x400>
    75bc:	2140      	movs	r1, #64	; 0x40
    75be:	1acb      	subs	r3, r1, r3
    75c0:	409a      	lsls	r2, r3
    75c2:	4315      	orrs	r5, r2
    75c4:	1e6a      	subs	r2, r5, #1
    75c6:	4195      	sbcs	r5, r2
    75c8:	2100      	movs	r1, #0
    75ca:	4325      	orrs	r5, r4
    75cc:	2400      	movs	r4, #0
    75ce:	e72d      	b.n	742c <__aeabi_dadd+0x170>
    75d0:	0033      	movs	r3, r6
    75d2:	0007      	movs	r7, r0
    75d4:	3b20      	subs	r3, #32
    75d6:	40df      	lsrs	r7, r3
    75d8:	003b      	movs	r3, r7
    75da:	2e20      	cmp	r6, #32
    75dc:	d070      	beq.n	76c0 <__aeabi_dadd+0x404>
    75de:	2740      	movs	r7, #64	; 0x40
    75e0:	1bbe      	subs	r6, r7, r6
    75e2:	40b0      	lsls	r0, r6
    75e4:	4302      	orrs	r2, r0
    75e6:	1e50      	subs	r0, r2, #1
    75e8:	4182      	sbcs	r2, r0
    75ea:	4313      	orrs	r3, r2
    75ec:	2200      	movs	r2, #0
    75ee:	e6e2      	b.n	73b6 <__aeabi_dadd+0xfa>
    75f0:	2c00      	cmp	r4, #0
    75f2:	d04f      	beq.n	7694 <__aeabi_dadd+0x3d8>
    75f4:	4c18      	ldr	r4, [pc, #96]	; (7658 <__aeabi_dadd+0x39c>)
    75f6:	45a4      	cmp	ip, r4
    75f8:	d100      	bne.n	75fc <__aeabi_dadd+0x340>
    75fa:	e0ab      	b.n	7754 <__aeabi_dadd+0x498>
    75fc:	2480      	movs	r4, #128	; 0x80
    75fe:	0424      	lsls	r4, r4, #16
    7600:	4276      	negs	r6, r6
    7602:	4321      	orrs	r1, r4
    7604:	2e38      	cmp	r6, #56	; 0x38
    7606:	dd00      	ble.n	760a <__aeabi_dadd+0x34e>
    7608:	e0df      	b.n	77ca <__aeabi_dadd+0x50e>
    760a:	2e1f      	cmp	r6, #31
    760c:	dd00      	ble.n	7610 <__aeabi_dadd+0x354>
    760e:	e143      	b.n	7898 <__aeabi_dadd+0x5dc>
    7610:	2720      	movs	r7, #32
    7612:	1bbc      	subs	r4, r7, r6
    7614:	46a1      	mov	r9, r4
    7616:	000c      	movs	r4, r1
    7618:	464f      	mov	r7, r9
    761a:	40bc      	lsls	r4, r7
    761c:	46a0      	mov	r8, r4
    761e:	002c      	movs	r4, r5
    7620:	4647      	mov	r7, r8
    7622:	40f4      	lsrs	r4, r6
    7624:	433c      	orrs	r4, r7
    7626:	464f      	mov	r7, r9
    7628:	40bd      	lsls	r5, r7
    762a:	1e6f      	subs	r7, r5, #1
    762c:	41bd      	sbcs	r5, r7
    762e:	40f1      	lsrs	r1, r6
    7630:	432c      	orrs	r4, r5
    7632:	1b15      	subs	r5, r2, r4
    7634:	42aa      	cmp	r2, r5
    7636:	4192      	sbcs	r2, r2
    7638:	1a41      	subs	r1, r0, r1
    763a:	4252      	negs	r2, r2
    763c:	1a89      	subs	r1, r1, r2
    763e:	4664      	mov	r4, ip
    7640:	469a      	mov	sl, r3
    7642:	e6bf      	b.n	73c4 <__aeabi_dadd+0x108>
    7644:	4641      	mov	r1, r8
    7646:	4645      	mov	r5, r8
    7648:	4331      	orrs	r1, r6
    764a:	d000      	beq.n	764e <__aeabi_dadd+0x392>
    764c:	e6be      	b.n	73cc <__aeabi_dadd+0x110>
    764e:	2600      	movs	r6, #0
    7650:	2400      	movs	r4, #0
    7652:	2500      	movs	r5, #0
    7654:	e6f2      	b.n	743c <__aeabi_dadd+0x180>
    7656:	46c0      	nop			; (mov r8, r8)
    7658:	000007ff 	.word	0x000007ff
    765c:	ff7fffff 	.word	0xff7fffff
    7660:	800fffff 	.word	0x800fffff
    7664:	2b1f      	cmp	r3, #31
    7666:	dc59      	bgt.n	771c <__aeabi_dadd+0x460>
    7668:	2720      	movs	r7, #32
    766a:	1aff      	subs	r7, r7, r3
    766c:	46bc      	mov	ip, r7
    766e:	0007      	movs	r7, r0
    7670:	4663      	mov	r3, ip
    7672:	409f      	lsls	r7, r3
    7674:	465b      	mov	r3, fp
    7676:	46b9      	mov	r9, r7
    7678:	0017      	movs	r7, r2
    767a:	40df      	lsrs	r7, r3
    767c:	46b8      	mov	r8, r7
    767e:	464f      	mov	r7, r9
    7680:	4643      	mov	r3, r8
    7682:	431f      	orrs	r7, r3
    7684:	4663      	mov	r3, ip
    7686:	409a      	lsls	r2, r3
    7688:	1e53      	subs	r3, r2, #1
    768a:	419a      	sbcs	r2, r3
    768c:	465b      	mov	r3, fp
    768e:	433a      	orrs	r2, r7
    7690:	40d8      	lsrs	r0, r3
    7692:	e6f4      	b.n	747e <__aeabi_dadd+0x1c2>
    7694:	000c      	movs	r4, r1
    7696:	432c      	orrs	r4, r5
    7698:	d05c      	beq.n	7754 <__aeabi_dadd+0x498>
    769a:	43f6      	mvns	r6, r6
    769c:	2e00      	cmp	r6, #0
    769e:	d155      	bne.n	774c <__aeabi_dadd+0x490>
    76a0:	1b55      	subs	r5, r2, r5
    76a2:	42aa      	cmp	r2, r5
    76a4:	41a4      	sbcs	r4, r4
    76a6:	1a41      	subs	r1, r0, r1
    76a8:	4264      	negs	r4, r4
    76aa:	1b09      	subs	r1, r1, r4
    76ac:	469a      	mov	sl, r3
    76ae:	4664      	mov	r4, ip
    76b0:	e688      	b.n	73c4 <__aeabi_dadd+0x108>
    76b2:	4f96      	ldr	r7, [pc, #600]	; (790c <__aeabi_dadd+0x650>)
    76b4:	42bc      	cmp	r4, r7
    76b6:	d000      	beq.n	76ba <__aeabi_dadd+0x3fe>
    76b8:	e6d8      	b.n	746c <__aeabi_dadd+0x1b0>
    76ba:	e628      	b.n	730e <__aeabi_dadd+0x52>
    76bc:	2200      	movs	r2, #0
    76be:	e780      	b.n	75c2 <__aeabi_dadd+0x306>
    76c0:	2000      	movs	r0, #0
    76c2:	e78f      	b.n	75e4 <__aeabi_dadd+0x328>
    76c4:	000b      	movs	r3, r1
    76c6:	432b      	orrs	r3, r5
    76c8:	2c00      	cmp	r4, #0
    76ca:	d000      	beq.n	76ce <__aeabi_dadd+0x412>
    76cc:	e0c2      	b.n	7854 <__aeabi_dadd+0x598>
    76ce:	2b00      	cmp	r3, #0
    76d0:	d100      	bne.n	76d4 <__aeabi_dadd+0x418>
    76d2:	e101      	b.n	78d8 <__aeabi_dadd+0x61c>
    76d4:	0003      	movs	r3, r0
    76d6:	4313      	orrs	r3, r2
    76d8:	d100      	bne.n	76dc <__aeabi_dadd+0x420>
    76da:	e618      	b.n	730e <__aeabi_dadd+0x52>
    76dc:	18ab      	adds	r3, r5, r2
    76de:	42ab      	cmp	r3, r5
    76e0:	41b6      	sbcs	r6, r6
    76e2:	1809      	adds	r1, r1, r0
    76e4:	4276      	negs	r6, r6
    76e6:	1871      	adds	r1, r6, r1
    76e8:	020a      	lsls	r2, r1, #8
    76ea:	d400      	bmi.n	76ee <__aeabi_dadd+0x432>
    76ec:	e109      	b.n	7902 <__aeabi_dadd+0x646>
    76ee:	4a88      	ldr	r2, [pc, #544]	; (7910 <__aeabi_dadd+0x654>)
    76f0:	001d      	movs	r5, r3
    76f2:	4011      	ands	r1, r2
    76f4:	4664      	mov	r4, ip
    76f6:	e60a      	b.n	730e <__aeabi_dadd+0x52>
    76f8:	2c00      	cmp	r4, #0
    76fa:	d15b      	bne.n	77b4 <__aeabi_dadd+0x4f8>
    76fc:	000e      	movs	r6, r1
    76fe:	432e      	orrs	r6, r5
    7700:	d000      	beq.n	7704 <__aeabi_dadd+0x448>
    7702:	e08a      	b.n	781a <__aeabi_dadd+0x55e>
    7704:	0001      	movs	r1, r0
    7706:	4311      	orrs	r1, r2
    7708:	d100      	bne.n	770c <__aeabi_dadd+0x450>
    770a:	e0c2      	b.n	7892 <__aeabi_dadd+0x5d6>
    770c:	0001      	movs	r1, r0
    770e:	0015      	movs	r5, r2
    7710:	469a      	mov	sl, r3
    7712:	e5fc      	b.n	730e <__aeabi_dadd+0x52>
    7714:	4664      	mov	r4, ip
    7716:	2100      	movs	r1, #0
    7718:	2500      	movs	r5, #0
    771a:	e68f      	b.n	743c <__aeabi_dadd+0x180>
    771c:	2320      	movs	r3, #32
    771e:	425b      	negs	r3, r3
    7720:	469c      	mov	ip, r3
    7722:	44dc      	add	ip, fp
    7724:	4663      	mov	r3, ip
    7726:	0007      	movs	r7, r0
    7728:	40df      	lsrs	r7, r3
    772a:	465b      	mov	r3, fp
    772c:	46bc      	mov	ip, r7
    772e:	2b20      	cmp	r3, #32
    7730:	d100      	bne.n	7734 <__aeabi_dadd+0x478>
    7732:	e0ac      	b.n	788e <__aeabi_dadd+0x5d2>
    7734:	2340      	movs	r3, #64	; 0x40
    7736:	465f      	mov	r7, fp
    7738:	1bdb      	subs	r3, r3, r7
    773a:	4098      	lsls	r0, r3
    773c:	4302      	orrs	r2, r0
    773e:	1e50      	subs	r0, r2, #1
    7740:	4182      	sbcs	r2, r0
    7742:	4663      	mov	r3, ip
    7744:	4313      	orrs	r3, r2
    7746:	001a      	movs	r2, r3
    7748:	2000      	movs	r0, #0
    774a:	e698      	b.n	747e <__aeabi_dadd+0x1c2>
    774c:	4c6f      	ldr	r4, [pc, #444]	; (790c <__aeabi_dadd+0x650>)
    774e:	45a4      	cmp	ip, r4
    7750:	d000      	beq.n	7754 <__aeabi_dadd+0x498>
    7752:	e757      	b.n	7604 <__aeabi_dadd+0x348>
    7754:	0001      	movs	r1, r0
    7756:	0015      	movs	r5, r2
    7758:	4664      	mov	r4, ip
    775a:	469a      	mov	sl, r3
    775c:	e5d7      	b.n	730e <__aeabi_dadd+0x52>
    775e:	2c00      	cmp	r4, #0
    7760:	d139      	bne.n	77d6 <__aeabi_dadd+0x51a>
    7762:	000c      	movs	r4, r1
    7764:	432c      	orrs	r4, r5
    7766:	d06e      	beq.n	7846 <__aeabi_dadd+0x58a>
    7768:	43db      	mvns	r3, r3
    776a:	2b00      	cmp	r3, #0
    776c:	d01a      	beq.n	77a4 <__aeabi_dadd+0x4e8>
    776e:	4c67      	ldr	r4, [pc, #412]	; (790c <__aeabi_dadd+0x650>)
    7770:	45a4      	cmp	ip, r4
    7772:	d068      	beq.n	7846 <__aeabi_dadd+0x58a>
    7774:	2b38      	cmp	r3, #56	; 0x38
    7776:	dd00      	ble.n	777a <__aeabi_dadd+0x4be>
    7778:	e0a4      	b.n	78c4 <__aeabi_dadd+0x608>
    777a:	2b1f      	cmp	r3, #31
    777c:	dd00      	ble.n	7780 <__aeabi_dadd+0x4c4>
    777e:	e0ae      	b.n	78de <__aeabi_dadd+0x622>
    7780:	2420      	movs	r4, #32
    7782:	000f      	movs	r7, r1
    7784:	1ae4      	subs	r4, r4, r3
    7786:	40a7      	lsls	r7, r4
    7788:	46b9      	mov	r9, r7
    778a:	002f      	movs	r7, r5
    778c:	40df      	lsrs	r7, r3
    778e:	46b8      	mov	r8, r7
    7790:	46a3      	mov	fp, r4
    7792:	464f      	mov	r7, r9
    7794:	4644      	mov	r4, r8
    7796:	4327      	orrs	r7, r4
    7798:	465c      	mov	r4, fp
    779a:	40a5      	lsls	r5, r4
    779c:	1e6c      	subs	r4, r5, #1
    779e:	41a5      	sbcs	r5, r4
    77a0:	40d9      	lsrs	r1, r3
    77a2:	433d      	orrs	r5, r7
    77a4:	18ad      	adds	r5, r5, r2
    77a6:	4295      	cmp	r5, r2
    77a8:	419b      	sbcs	r3, r3
    77aa:	1809      	adds	r1, r1, r0
    77ac:	425b      	negs	r3, r3
    77ae:	1859      	adds	r1, r3, r1
    77b0:	4664      	mov	r4, ip
    77b2:	e66b      	b.n	748c <__aeabi_dadd+0x1d0>
    77b4:	000c      	movs	r4, r1
    77b6:	432c      	orrs	r4, r5
    77b8:	d115      	bne.n	77e6 <__aeabi_dadd+0x52a>
    77ba:	0001      	movs	r1, r0
    77bc:	4311      	orrs	r1, r2
    77be:	d07b      	beq.n	78b8 <__aeabi_dadd+0x5fc>
    77c0:	0001      	movs	r1, r0
    77c2:	0015      	movs	r5, r2
    77c4:	469a      	mov	sl, r3
    77c6:	4c51      	ldr	r4, [pc, #324]	; (790c <__aeabi_dadd+0x650>)
    77c8:	e5a1      	b.n	730e <__aeabi_dadd+0x52>
    77ca:	430d      	orrs	r5, r1
    77cc:	1e69      	subs	r1, r5, #1
    77ce:	418d      	sbcs	r5, r1
    77d0:	2100      	movs	r1, #0
    77d2:	b2ec      	uxtb	r4, r5
    77d4:	e72d      	b.n	7632 <__aeabi_dadd+0x376>
    77d6:	4c4d      	ldr	r4, [pc, #308]	; (790c <__aeabi_dadd+0x650>)
    77d8:	45a4      	cmp	ip, r4
    77da:	d034      	beq.n	7846 <__aeabi_dadd+0x58a>
    77dc:	2480      	movs	r4, #128	; 0x80
    77de:	0424      	lsls	r4, r4, #16
    77e0:	425b      	negs	r3, r3
    77e2:	4321      	orrs	r1, r4
    77e4:	e7c6      	b.n	7774 <__aeabi_dadd+0x4b8>
    77e6:	0004      	movs	r4, r0
    77e8:	4314      	orrs	r4, r2
    77ea:	d04e      	beq.n	788a <__aeabi_dadd+0x5ce>
    77ec:	08ed      	lsrs	r5, r5, #3
    77ee:	074c      	lsls	r4, r1, #29
    77f0:	432c      	orrs	r4, r5
    77f2:	2580      	movs	r5, #128	; 0x80
    77f4:	08c9      	lsrs	r1, r1, #3
    77f6:	032d      	lsls	r5, r5, #12
    77f8:	4229      	tst	r1, r5
    77fa:	d008      	beq.n	780e <__aeabi_dadd+0x552>
    77fc:	08c6      	lsrs	r6, r0, #3
    77fe:	422e      	tst	r6, r5
    7800:	d105      	bne.n	780e <__aeabi_dadd+0x552>
    7802:	08d2      	lsrs	r2, r2, #3
    7804:	0741      	lsls	r1, r0, #29
    7806:	4311      	orrs	r1, r2
    7808:	000c      	movs	r4, r1
    780a:	469a      	mov	sl, r3
    780c:	0031      	movs	r1, r6
    780e:	0f62      	lsrs	r2, r4, #29
    7810:	00c9      	lsls	r1, r1, #3
    7812:	00e5      	lsls	r5, r4, #3
    7814:	4311      	orrs	r1, r2
    7816:	4c3d      	ldr	r4, [pc, #244]	; (790c <__aeabi_dadd+0x650>)
    7818:	e579      	b.n	730e <__aeabi_dadd+0x52>
    781a:	0006      	movs	r6, r0
    781c:	4316      	orrs	r6, r2
    781e:	d100      	bne.n	7822 <__aeabi_dadd+0x566>
    7820:	e575      	b.n	730e <__aeabi_dadd+0x52>
    7822:	1aae      	subs	r6, r5, r2
    7824:	46b0      	mov	r8, r6
    7826:	4545      	cmp	r5, r8
    7828:	41bf      	sbcs	r7, r7
    782a:	1a0e      	subs	r6, r1, r0
    782c:	427f      	negs	r7, r7
    782e:	1bf6      	subs	r6, r6, r7
    7830:	0237      	lsls	r7, r6, #8
    7832:	d400      	bmi.n	7836 <__aeabi_dadd+0x57a>
    7834:	e5f4      	b.n	7420 <__aeabi_dadd+0x164>
    7836:	1b55      	subs	r5, r2, r5
    7838:	42aa      	cmp	r2, r5
    783a:	41b6      	sbcs	r6, r6
    783c:	1a41      	subs	r1, r0, r1
    783e:	4276      	negs	r6, r6
    7840:	1b89      	subs	r1, r1, r6
    7842:	469a      	mov	sl, r3
    7844:	e563      	b.n	730e <__aeabi_dadd+0x52>
    7846:	0001      	movs	r1, r0
    7848:	0015      	movs	r5, r2
    784a:	4664      	mov	r4, ip
    784c:	e55f      	b.n	730e <__aeabi_dadd+0x52>
    784e:	2200      	movs	r2, #0
    7850:	2500      	movs	r5, #0
    7852:	e57b      	b.n	734c <__aeabi_dadd+0x90>
    7854:	2b00      	cmp	r3, #0
    7856:	d03b      	beq.n	78d0 <__aeabi_dadd+0x614>
    7858:	0003      	movs	r3, r0
    785a:	4313      	orrs	r3, r2
    785c:	d015      	beq.n	788a <__aeabi_dadd+0x5ce>
    785e:	08ed      	lsrs	r5, r5, #3
    7860:	074b      	lsls	r3, r1, #29
    7862:	432b      	orrs	r3, r5
    7864:	2580      	movs	r5, #128	; 0x80
    7866:	08c9      	lsrs	r1, r1, #3
    7868:	032d      	lsls	r5, r5, #12
    786a:	4229      	tst	r1, r5
    786c:	d007      	beq.n	787e <__aeabi_dadd+0x5c2>
    786e:	08c4      	lsrs	r4, r0, #3
    7870:	422c      	tst	r4, r5
    7872:	d104      	bne.n	787e <__aeabi_dadd+0x5c2>
    7874:	0741      	lsls	r1, r0, #29
    7876:	000b      	movs	r3, r1
    7878:	0021      	movs	r1, r4
    787a:	08d2      	lsrs	r2, r2, #3
    787c:	4313      	orrs	r3, r2
    787e:	00c9      	lsls	r1, r1, #3
    7880:	0f5a      	lsrs	r2, r3, #29
    7882:	4311      	orrs	r1, r2
    7884:	00dd      	lsls	r5, r3, #3
    7886:	4c21      	ldr	r4, [pc, #132]	; (790c <__aeabi_dadd+0x650>)
    7888:	e541      	b.n	730e <__aeabi_dadd+0x52>
    788a:	4c20      	ldr	r4, [pc, #128]	; (790c <__aeabi_dadd+0x650>)
    788c:	e53f      	b.n	730e <__aeabi_dadd+0x52>
    788e:	2000      	movs	r0, #0
    7890:	e754      	b.n	773c <__aeabi_dadd+0x480>
    7892:	2600      	movs	r6, #0
    7894:	2500      	movs	r5, #0
    7896:	e5d1      	b.n	743c <__aeabi_dadd+0x180>
    7898:	0034      	movs	r4, r6
    789a:	000f      	movs	r7, r1
    789c:	3c20      	subs	r4, #32
    789e:	40e7      	lsrs	r7, r4
    78a0:	003c      	movs	r4, r7
    78a2:	2e20      	cmp	r6, #32
    78a4:	d02b      	beq.n	78fe <__aeabi_dadd+0x642>
    78a6:	2740      	movs	r7, #64	; 0x40
    78a8:	1bbe      	subs	r6, r7, r6
    78aa:	40b1      	lsls	r1, r6
    78ac:	430d      	orrs	r5, r1
    78ae:	1e69      	subs	r1, r5, #1
    78b0:	418d      	sbcs	r5, r1
    78b2:	2100      	movs	r1, #0
    78b4:	432c      	orrs	r4, r5
    78b6:	e6bc      	b.n	7632 <__aeabi_dadd+0x376>
    78b8:	2180      	movs	r1, #128	; 0x80
    78ba:	2600      	movs	r6, #0
    78bc:	0309      	lsls	r1, r1, #12
    78be:	4c13      	ldr	r4, [pc, #76]	; (790c <__aeabi_dadd+0x650>)
    78c0:	2500      	movs	r5, #0
    78c2:	e5bb      	b.n	743c <__aeabi_dadd+0x180>
    78c4:	430d      	orrs	r5, r1
    78c6:	1e69      	subs	r1, r5, #1
    78c8:	418d      	sbcs	r5, r1
    78ca:	2100      	movs	r1, #0
    78cc:	b2ed      	uxtb	r5, r5
    78ce:	e769      	b.n	77a4 <__aeabi_dadd+0x4e8>
    78d0:	0001      	movs	r1, r0
    78d2:	0015      	movs	r5, r2
    78d4:	4c0d      	ldr	r4, [pc, #52]	; (790c <__aeabi_dadd+0x650>)
    78d6:	e51a      	b.n	730e <__aeabi_dadd+0x52>
    78d8:	0001      	movs	r1, r0
    78da:	0015      	movs	r5, r2
    78dc:	e517      	b.n	730e <__aeabi_dadd+0x52>
    78de:	001c      	movs	r4, r3
    78e0:	000f      	movs	r7, r1
    78e2:	3c20      	subs	r4, #32
    78e4:	40e7      	lsrs	r7, r4
    78e6:	003c      	movs	r4, r7
    78e8:	2b20      	cmp	r3, #32
    78ea:	d00c      	beq.n	7906 <__aeabi_dadd+0x64a>
    78ec:	2740      	movs	r7, #64	; 0x40
    78ee:	1afb      	subs	r3, r7, r3
    78f0:	4099      	lsls	r1, r3
    78f2:	430d      	orrs	r5, r1
    78f4:	1e69      	subs	r1, r5, #1
    78f6:	418d      	sbcs	r5, r1
    78f8:	2100      	movs	r1, #0
    78fa:	4325      	orrs	r5, r4
    78fc:	e752      	b.n	77a4 <__aeabi_dadd+0x4e8>
    78fe:	2100      	movs	r1, #0
    7900:	e7d4      	b.n	78ac <__aeabi_dadd+0x5f0>
    7902:	001d      	movs	r5, r3
    7904:	e592      	b.n	742c <__aeabi_dadd+0x170>
    7906:	2100      	movs	r1, #0
    7908:	e7f3      	b.n	78f2 <__aeabi_dadd+0x636>
    790a:	46c0      	nop			; (mov r8, r8)
    790c:	000007ff 	.word	0x000007ff
    7910:	ff7fffff 	.word	0xff7fffff

00007914 <__aeabi_ddiv>:
    7914:	b5f0      	push	{r4, r5, r6, r7, lr}
    7916:	4656      	mov	r6, sl
    7918:	464d      	mov	r5, r9
    791a:	4644      	mov	r4, r8
    791c:	465f      	mov	r7, fp
    791e:	b4f0      	push	{r4, r5, r6, r7}
    7920:	001d      	movs	r5, r3
    7922:	030e      	lsls	r6, r1, #12
    7924:	004c      	lsls	r4, r1, #1
    7926:	0fcb      	lsrs	r3, r1, #31
    7928:	b087      	sub	sp, #28
    792a:	0007      	movs	r7, r0
    792c:	4692      	mov	sl, r2
    792e:	4681      	mov	r9, r0
    7930:	0b36      	lsrs	r6, r6, #12
    7932:	0d64      	lsrs	r4, r4, #21
    7934:	4698      	mov	r8, r3
    7936:	d06a      	beq.n	7a0e <__aeabi_ddiv+0xfa>
    7938:	4b6d      	ldr	r3, [pc, #436]	; (7af0 <__aeabi_ddiv+0x1dc>)
    793a:	429c      	cmp	r4, r3
    793c:	d035      	beq.n	79aa <__aeabi_ddiv+0x96>
    793e:	2280      	movs	r2, #128	; 0x80
    7940:	0f43      	lsrs	r3, r0, #29
    7942:	0412      	lsls	r2, r2, #16
    7944:	4313      	orrs	r3, r2
    7946:	00f6      	lsls	r6, r6, #3
    7948:	431e      	orrs	r6, r3
    794a:	00c3      	lsls	r3, r0, #3
    794c:	4699      	mov	r9, r3
    794e:	4b69      	ldr	r3, [pc, #420]	; (7af4 <__aeabi_ddiv+0x1e0>)
    7950:	2700      	movs	r7, #0
    7952:	469c      	mov	ip, r3
    7954:	2300      	movs	r3, #0
    7956:	4464      	add	r4, ip
    7958:	9302      	str	r3, [sp, #8]
    795a:	032b      	lsls	r3, r5, #12
    795c:	0068      	lsls	r0, r5, #1
    795e:	0b1b      	lsrs	r3, r3, #12
    7960:	0fed      	lsrs	r5, r5, #31
    7962:	4651      	mov	r1, sl
    7964:	469b      	mov	fp, r3
    7966:	0d40      	lsrs	r0, r0, #21
    7968:	9500      	str	r5, [sp, #0]
    796a:	d100      	bne.n	796e <__aeabi_ddiv+0x5a>
    796c:	e078      	b.n	7a60 <__aeabi_ddiv+0x14c>
    796e:	4b60      	ldr	r3, [pc, #384]	; (7af0 <__aeabi_ddiv+0x1dc>)
    7970:	4298      	cmp	r0, r3
    7972:	d06c      	beq.n	7a4e <__aeabi_ddiv+0x13a>
    7974:	465b      	mov	r3, fp
    7976:	00da      	lsls	r2, r3, #3
    7978:	0f4b      	lsrs	r3, r1, #29
    797a:	2180      	movs	r1, #128	; 0x80
    797c:	0409      	lsls	r1, r1, #16
    797e:	430b      	orrs	r3, r1
    7980:	4313      	orrs	r3, r2
    7982:	469b      	mov	fp, r3
    7984:	4653      	mov	r3, sl
    7986:	00d9      	lsls	r1, r3, #3
    7988:	4b5a      	ldr	r3, [pc, #360]	; (7af4 <__aeabi_ddiv+0x1e0>)
    798a:	469c      	mov	ip, r3
    798c:	2300      	movs	r3, #0
    798e:	4460      	add	r0, ip
    7990:	4642      	mov	r2, r8
    7992:	1a20      	subs	r0, r4, r0
    7994:	406a      	eors	r2, r5
    7996:	4692      	mov	sl, r2
    7998:	9001      	str	r0, [sp, #4]
    799a:	431f      	orrs	r7, r3
    799c:	2f0f      	cmp	r7, #15
    799e:	d900      	bls.n	79a2 <__aeabi_ddiv+0x8e>
    79a0:	e0b0      	b.n	7b04 <__aeabi_ddiv+0x1f0>
    79a2:	4855      	ldr	r0, [pc, #340]	; (7af8 <__aeabi_ddiv+0x1e4>)
    79a4:	00bf      	lsls	r7, r7, #2
    79a6:	59c0      	ldr	r0, [r0, r7]
    79a8:	4687      	mov	pc, r0
    79aa:	4337      	orrs	r7, r6
    79ac:	d000      	beq.n	79b0 <__aeabi_ddiv+0x9c>
    79ae:	e088      	b.n	7ac2 <__aeabi_ddiv+0x1ae>
    79b0:	2300      	movs	r3, #0
    79b2:	4699      	mov	r9, r3
    79b4:	3302      	adds	r3, #2
    79b6:	2708      	movs	r7, #8
    79b8:	2600      	movs	r6, #0
    79ba:	9302      	str	r3, [sp, #8]
    79bc:	e7cd      	b.n	795a <__aeabi_ddiv+0x46>
    79be:	4643      	mov	r3, r8
    79c0:	46b3      	mov	fp, r6
    79c2:	4649      	mov	r1, r9
    79c4:	9300      	str	r3, [sp, #0]
    79c6:	9b02      	ldr	r3, [sp, #8]
    79c8:	9a00      	ldr	r2, [sp, #0]
    79ca:	4692      	mov	sl, r2
    79cc:	2b02      	cmp	r3, #2
    79ce:	d000      	beq.n	79d2 <__aeabi_ddiv+0xbe>
    79d0:	e1bf      	b.n	7d52 <__aeabi_ddiv+0x43e>
    79d2:	2100      	movs	r1, #0
    79d4:	4653      	mov	r3, sl
    79d6:	2201      	movs	r2, #1
    79d8:	2600      	movs	r6, #0
    79da:	4689      	mov	r9, r1
    79dc:	401a      	ands	r2, r3
    79de:	4b44      	ldr	r3, [pc, #272]	; (7af0 <__aeabi_ddiv+0x1dc>)
    79e0:	2100      	movs	r1, #0
    79e2:	0336      	lsls	r6, r6, #12
    79e4:	0d0c      	lsrs	r4, r1, #20
    79e6:	0524      	lsls	r4, r4, #20
    79e8:	0b36      	lsrs	r6, r6, #12
    79ea:	4326      	orrs	r6, r4
    79ec:	4c43      	ldr	r4, [pc, #268]	; (7afc <__aeabi_ddiv+0x1e8>)
    79ee:	051b      	lsls	r3, r3, #20
    79f0:	4026      	ands	r6, r4
    79f2:	431e      	orrs	r6, r3
    79f4:	0076      	lsls	r6, r6, #1
    79f6:	07d2      	lsls	r2, r2, #31
    79f8:	0876      	lsrs	r6, r6, #1
    79fa:	4316      	orrs	r6, r2
    79fc:	4648      	mov	r0, r9
    79fe:	0031      	movs	r1, r6
    7a00:	b007      	add	sp, #28
    7a02:	bc3c      	pop	{r2, r3, r4, r5}
    7a04:	4690      	mov	r8, r2
    7a06:	4699      	mov	r9, r3
    7a08:	46a2      	mov	sl, r4
    7a0a:	46ab      	mov	fp, r5
    7a0c:	bdf0      	pop	{r4, r5, r6, r7, pc}
    7a0e:	0033      	movs	r3, r6
    7a10:	4303      	orrs	r3, r0
    7a12:	d04f      	beq.n	7ab4 <__aeabi_ddiv+0x1a0>
    7a14:	2e00      	cmp	r6, #0
    7a16:	d100      	bne.n	7a1a <__aeabi_ddiv+0x106>
    7a18:	e1bc      	b.n	7d94 <__aeabi_ddiv+0x480>
    7a1a:	0030      	movs	r0, r6
    7a1c:	f001 fa3e 	bl	8e9c <__clzsi2>
    7a20:	0003      	movs	r3, r0
    7a22:	3b0b      	subs	r3, #11
    7a24:	2b1c      	cmp	r3, #28
    7a26:	dd00      	ble.n	7a2a <__aeabi_ddiv+0x116>
    7a28:	e1ad      	b.n	7d86 <__aeabi_ddiv+0x472>
    7a2a:	221d      	movs	r2, #29
    7a2c:	0001      	movs	r1, r0
    7a2e:	1ad3      	subs	r3, r2, r3
    7a30:	3908      	subs	r1, #8
    7a32:	003a      	movs	r2, r7
    7a34:	408f      	lsls	r7, r1
    7a36:	408e      	lsls	r6, r1
    7a38:	40da      	lsrs	r2, r3
    7a3a:	46b9      	mov	r9, r7
    7a3c:	4316      	orrs	r6, r2
    7a3e:	4b30      	ldr	r3, [pc, #192]	; (7b00 <__aeabi_ddiv+0x1ec>)
    7a40:	2700      	movs	r7, #0
    7a42:	469c      	mov	ip, r3
    7a44:	2300      	movs	r3, #0
    7a46:	4460      	add	r0, ip
    7a48:	4244      	negs	r4, r0
    7a4a:	9302      	str	r3, [sp, #8]
    7a4c:	e785      	b.n	795a <__aeabi_ddiv+0x46>
    7a4e:	4653      	mov	r3, sl
    7a50:	465a      	mov	r2, fp
    7a52:	4313      	orrs	r3, r2
    7a54:	d12c      	bne.n	7ab0 <__aeabi_ddiv+0x19c>
    7a56:	2300      	movs	r3, #0
    7a58:	2100      	movs	r1, #0
    7a5a:	469b      	mov	fp, r3
    7a5c:	3302      	adds	r3, #2
    7a5e:	e797      	b.n	7990 <__aeabi_ddiv+0x7c>
    7a60:	430b      	orrs	r3, r1
    7a62:	d020      	beq.n	7aa6 <__aeabi_ddiv+0x192>
    7a64:	465b      	mov	r3, fp
    7a66:	2b00      	cmp	r3, #0
    7a68:	d100      	bne.n	7a6c <__aeabi_ddiv+0x158>
    7a6a:	e19e      	b.n	7daa <__aeabi_ddiv+0x496>
    7a6c:	4658      	mov	r0, fp
    7a6e:	f001 fa15 	bl	8e9c <__clzsi2>
    7a72:	0003      	movs	r3, r0
    7a74:	3b0b      	subs	r3, #11
    7a76:	2b1c      	cmp	r3, #28
    7a78:	dd00      	ble.n	7a7c <__aeabi_ddiv+0x168>
    7a7a:	e18f      	b.n	7d9c <__aeabi_ddiv+0x488>
    7a7c:	0002      	movs	r2, r0
    7a7e:	4659      	mov	r1, fp
    7a80:	3a08      	subs	r2, #8
    7a82:	4091      	lsls	r1, r2
    7a84:	468b      	mov	fp, r1
    7a86:	211d      	movs	r1, #29
    7a88:	1acb      	subs	r3, r1, r3
    7a8a:	4651      	mov	r1, sl
    7a8c:	40d9      	lsrs	r1, r3
    7a8e:	000b      	movs	r3, r1
    7a90:	4659      	mov	r1, fp
    7a92:	430b      	orrs	r3, r1
    7a94:	4651      	mov	r1, sl
    7a96:	469b      	mov	fp, r3
    7a98:	4091      	lsls	r1, r2
    7a9a:	4b19      	ldr	r3, [pc, #100]	; (7b00 <__aeabi_ddiv+0x1ec>)
    7a9c:	469c      	mov	ip, r3
    7a9e:	4460      	add	r0, ip
    7aa0:	4240      	negs	r0, r0
    7aa2:	2300      	movs	r3, #0
    7aa4:	e774      	b.n	7990 <__aeabi_ddiv+0x7c>
    7aa6:	2300      	movs	r3, #0
    7aa8:	2100      	movs	r1, #0
    7aaa:	469b      	mov	fp, r3
    7aac:	3301      	adds	r3, #1
    7aae:	e76f      	b.n	7990 <__aeabi_ddiv+0x7c>
    7ab0:	2303      	movs	r3, #3
    7ab2:	e76d      	b.n	7990 <__aeabi_ddiv+0x7c>
    7ab4:	2300      	movs	r3, #0
    7ab6:	4699      	mov	r9, r3
    7ab8:	3301      	adds	r3, #1
    7aba:	2704      	movs	r7, #4
    7abc:	2600      	movs	r6, #0
    7abe:	9302      	str	r3, [sp, #8]
    7ac0:	e74b      	b.n	795a <__aeabi_ddiv+0x46>
    7ac2:	2303      	movs	r3, #3
    7ac4:	270c      	movs	r7, #12
    7ac6:	9302      	str	r3, [sp, #8]
    7ac8:	e747      	b.n	795a <__aeabi_ddiv+0x46>
    7aca:	2201      	movs	r2, #1
    7acc:	1ad5      	subs	r5, r2, r3
    7ace:	2d38      	cmp	r5, #56	; 0x38
    7ad0:	dc00      	bgt.n	7ad4 <__aeabi_ddiv+0x1c0>
    7ad2:	e1b0      	b.n	7e36 <__aeabi_ddiv+0x522>
    7ad4:	4653      	mov	r3, sl
    7ad6:	401a      	ands	r2, r3
    7ad8:	2100      	movs	r1, #0
    7ada:	2300      	movs	r3, #0
    7adc:	2600      	movs	r6, #0
    7ade:	4689      	mov	r9, r1
    7ae0:	e77e      	b.n	79e0 <__aeabi_ddiv+0xcc>
    7ae2:	2300      	movs	r3, #0
    7ae4:	2680      	movs	r6, #128	; 0x80
    7ae6:	4699      	mov	r9, r3
    7ae8:	2200      	movs	r2, #0
    7aea:	0336      	lsls	r6, r6, #12
    7aec:	4b00      	ldr	r3, [pc, #0]	; (7af0 <__aeabi_ddiv+0x1dc>)
    7aee:	e777      	b.n	79e0 <__aeabi_ddiv+0xcc>
    7af0:	000007ff 	.word	0x000007ff
    7af4:	fffffc01 	.word	0xfffffc01
    7af8:	00009598 	.word	0x00009598
    7afc:	800fffff 	.word	0x800fffff
    7b00:	000003f3 	.word	0x000003f3
    7b04:	455e      	cmp	r6, fp
    7b06:	d900      	bls.n	7b0a <__aeabi_ddiv+0x1f6>
    7b08:	e172      	b.n	7df0 <__aeabi_ddiv+0x4dc>
    7b0a:	d100      	bne.n	7b0e <__aeabi_ddiv+0x1fa>
    7b0c:	e16d      	b.n	7dea <__aeabi_ddiv+0x4d6>
    7b0e:	9b01      	ldr	r3, [sp, #4]
    7b10:	464d      	mov	r5, r9
    7b12:	3b01      	subs	r3, #1
    7b14:	9301      	str	r3, [sp, #4]
    7b16:	2300      	movs	r3, #0
    7b18:	0034      	movs	r4, r6
    7b1a:	9302      	str	r3, [sp, #8]
    7b1c:	465b      	mov	r3, fp
    7b1e:	021e      	lsls	r6, r3, #8
    7b20:	0e0b      	lsrs	r3, r1, #24
    7b22:	431e      	orrs	r6, r3
    7b24:	020b      	lsls	r3, r1, #8
    7b26:	9303      	str	r3, [sp, #12]
    7b28:	0c33      	lsrs	r3, r6, #16
    7b2a:	4699      	mov	r9, r3
    7b2c:	0433      	lsls	r3, r6, #16
    7b2e:	0c1b      	lsrs	r3, r3, #16
    7b30:	4649      	mov	r1, r9
    7b32:	0020      	movs	r0, r4
    7b34:	9300      	str	r3, [sp, #0]
    7b36:	f7f9 f964 	bl	e02 <__aeabi_uidiv>
    7b3a:	9b00      	ldr	r3, [sp, #0]
    7b3c:	0037      	movs	r7, r6
    7b3e:	4343      	muls	r3, r0
    7b40:	0006      	movs	r6, r0
    7b42:	4649      	mov	r1, r9
    7b44:	0020      	movs	r0, r4
    7b46:	4698      	mov	r8, r3
    7b48:	f7f9 f95b 	bl	e02 <__aeabi_uidiv>
    7b4c:	0c2c      	lsrs	r4, r5, #16
    7b4e:	0409      	lsls	r1, r1, #16
    7b50:	430c      	orrs	r4, r1
    7b52:	45a0      	cmp	r8, r4
    7b54:	d909      	bls.n	7b6a <__aeabi_ddiv+0x256>
    7b56:	19e4      	adds	r4, r4, r7
    7b58:	1e73      	subs	r3, r6, #1
    7b5a:	42a7      	cmp	r7, r4
    7b5c:	d900      	bls.n	7b60 <__aeabi_ddiv+0x24c>
    7b5e:	e15c      	b.n	7e1a <__aeabi_ddiv+0x506>
    7b60:	45a0      	cmp	r8, r4
    7b62:	d800      	bhi.n	7b66 <__aeabi_ddiv+0x252>
    7b64:	e159      	b.n	7e1a <__aeabi_ddiv+0x506>
    7b66:	3e02      	subs	r6, #2
    7b68:	19e4      	adds	r4, r4, r7
    7b6a:	4643      	mov	r3, r8
    7b6c:	1ae4      	subs	r4, r4, r3
    7b6e:	4649      	mov	r1, r9
    7b70:	0020      	movs	r0, r4
    7b72:	f7f9 f946 	bl	e02 <__aeabi_uidiv>
    7b76:	0003      	movs	r3, r0
    7b78:	9a00      	ldr	r2, [sp, #0]
    7b7a:	4680      	mov	r8, r0
    7b7c:	4353      	muls	r3, r2
    7b7e:	4649      	mov	r1, r9
    7b80:	0020      	movs	r0, r4
    7b82:	469b      	mov	fp, r3
    7b84:	f7f9 f93d 	bl	e02 <__aeabi_uidiv>
    7b88:	042a      	lsls	r2, r5, #16
    7b8a:	0409      	lsls	r1, r1, #16
    7b8c:	0c12      	lsrs	r2, r2, #16
    7b8e:	430a      	orrs	r2, r1
    7b90:	4593      	cmp	fp, r2
    7b92:	d90d      	bls.n	7bb0 <__aeabi_ddiv+0x29c>
    7b94:	4643      	mov	r3, r8
    7b96:	19d2      	adds	r2, r2, r7
    7b98:	3b01      	subs	r3, #1
    7b9a:	4297      	cmp	r7, r2
    7b9c:	d900      	bls.n	7ba0 <__aeabi_ddiv+0x28c>
    7b9e:	e13a      	b.n	7e16 <__aeabi_ddiv+0x502>
    7ba0:	4593      	cmp	fp, r2
    7ba2:	d800      	bhi.n	7ba6 <__aeabi_ddiv+0x292>
    7ba4:	e137      	b.n	7e16 <__aeabi_ddiv+0x502>
    7ba6:	2302      	movs	r3, #2
    7ba8:	425b      	negs	r3, r3
    7baa:	469c      	mov	ip, r3
    7bac:	19d2      	adds	r2, r2, r7
    7bae:	44e0      	add	r8, ip
    7bb0:	465b      	mov	r3, fp
    7bb2:	1ad2      	subs	r2, r2, r3
    7bb4:	4643      	mov	r3, r8
    7bb6:	0436      	lsls	r6, r6, #16
    7bb8:	4333      	orrs	r3, r6
    7bba:	469b      	mov	fp, r3
    7bbc:	9903      	ldr	r1, [sp, #12]
    7bbe:	0c18      	lsrs	r0, r3, #16
    7bc0:	0c0b      	lsrs	r3, r1, #16
    7bc2:	001d      	movs	r5, r3
    7bc4:	9305      	str	r3, [sp, #20]
    7bc6:	0409      	lsls	r1, r1, #16
    7bc8:	465b      	mov	r3, fp
    7bca:	0c09      	lsrs	r1, r1, #16
    7bcc:	000c      	movs	r4, r1
    7bce:	041b      	lsls	r3, r3, #16
    7bd0:	0c1b      	lsrs	r3, r3, #16
    7bd2:	4344      	muls	r4, r0
    7bd4:	9104      	str	r1, [sp, #16]
    7bd6:	4359      	muls	r1, r3
    7bd8:	436b      	muls	r3, r5
    7bda:	4368      	muls	r0, r5
    7bdc:	191b      	adds	r3, r3, r4
    7bde:	0c0d      	lsrs	r5, r1, #16
    7be0:	18eb      	adds	r3, r5, r3
    7be2:	429c      	cmp	r4, r3
    7be4:	d903      	bls.n	7bee <__aeabi_ddiv+0x2da>
    7be6:	2480      	movs	r4, #128	; 0x80
    7be8:	0264      	lsls	r4, r4, #9
    7bea:	46a4      	mov	ip, r4
    7bec:	4460      	add	r0, ip
    7bee:	0c1c      	lsrs	r4, r3, #16
    7bf0:	0409      	lsls	r1, r1, #16
    7bf2:	041b      	lsls	r3, r3, #16
    7bf4:	0c09      	lsrs	r1, r1, #16
    7bf6:	1820      	adds	r0, r4, r0
    7bf8:	185d      	adds	r5, r3, r1
    7bfa:	4282      	cmp	r2, r0
    7bfc:	d200      	bcs.n	7c00 <__aeabi_ddiv+0x2ec>
    7bfe:	e0de      	b.n	7dbe <__aeabi_ddiv+0x4aa>
    7c00:	d100      	bne.n	7c04 <__aeabi_ddiv+0x2f0>
    7c02:	e0d7      	b.n	7db4 <__aeabi_ddiv+0x4a0>
    7c04:	1a16      	subs	r6, r2, r0
    7c06:	9b02      	ldr	r3, [sp, #8]
    7c08:	469c      	mov	ip, r3
    7c0a:	1b5d      	subs	r5, r3, r5
    7c0c:	45ac      	cmp	ip, r5
    7c0e:	419b      	sbcs	r3, r3
    7c10:	425b      	negs	r3, r3
    7c12:	1af6      	subs	r6, r6, r3
    7c14:	42b7      	cmp	r7, r6
    7c16:	d100      	bne.n	7c1a <__aeabi_ddiv+0x306>
    7c18:	e106      	b.n	7e28 <__aeabi_ddiv+0x514>
    7c1a:	4649      	mov	r1, r9
    7c1c:	0030      	movs	r0, r6
    7c1e:	f7f9 f8f0 	bl	e02 <__aeabi_uidiv>
    7c22:	9b00      	ldr	r3, [sp, #0]
    7c24:	0004      	movs	r4, r0
    7c26:	4343      	muls	r3, r0
    7c28:	4649      	mov	r1, r9
    7c2a:	0030      	movs	r0, r6
    7c2c:	4698      	mov	r8, r3
    7c2e:	f7f9 f8e8 	bl	e02 <__aeabi_uidiv>
    7c32:	0c2e      	lsrs	r6, r5, #16
    7c34:	0409      	lsls	r1, r1, #16
    7c36:	430e      	orrs	r6, r1
    7c38:	45b0      	cmp	r8, r6
    7c3a:	d909      	bls.n	7c50 <__aeabi_ddiv+0x33c>
    7c3c:	19f6      	adds	r6, r6, r7
    7c3e:	1e63      	subs	r3, r4, #1
    7c40:	42b7      	cmp	r7, r6
    7c42:	d900      	bls.n	7c46 <__aeabi_ddiv+0x332>
    7c44:	e0f3      	b.n	7e2e <__aeabi_ddiv+0x51a>
    7c46:	45b0      	cmp	r8, r6
    7c48:	d800      	bhi.n	7c4c <__aeabi_ddiv+0x338>
    7c4a:	e0f0      	b.n	7e2e <__aeabi_ddiv+0x51a>
    7c4c:	3c02      	subs	r4, #2
    7c4e:	19f6      	adds	r6, r6, r7
    7c50:	4643      	mov	r3, r8
    7c52:	1af3      	subs	r3, r6, r3
    7c54:	4649      	mov	r1, r9
    7c56:	0018      	movs	r0, r3
    7c58:	9302      	str	r3, [sp, #8]
    7c5a:	f7f9 f8d2 	bl	e02 <__aeabi_uidiv>
    7c5e:	9b00      	ldr	r3, [sp, #0]
    7c60:	0006      	movs	r6, r0
    7c62:	4343      	muls	r3, r0
    7c64:	4649      	mov	r1, r9
    7c66:	9802      	ldr	r0, [sp, #8]
    7c68:	4698      	mov	r8, r3
    7c6a:	f7f9 f8ca 	bl	e02 <__aeabi_uidiv>
    7c6e:	042d      	lsls	r5, r5, #16
    7c70:	0409      	lsls	r1, r1, #16
    7c72:	0c2d      	lsrs	r5, r5, #16
    7c74:	430d      	orrs	r5, r1
    7c76:	45a8      	cmp	r8, r5
    7c78:	d909      	bls.n	7c8e <__aeabi_ddiv+0x37a>
    7c7a:	19ed      	adds	r5, r5, r7
    7c7c:	1e73      	subs	r3, r6, #1
    7c7e:	42af      	cmp	r7, r5
    7c80:	d900      	bls.n	7c84 <__aeabi_ddiv+0x370>
    7c82:	e0d6      	b.n	7e32 <__aeabi_ddiv+0x51e>
    7c84:	45a8      	cmp	r8, r5
    7c86:	d800      	bhi.n	7c8a <__aeabi_ddiv+0x376>
    7c88:	e0d3      	b.n	7e32 <__aeabi_ddiv+0x51e>
    7c8a:	3e02      	subs	r6, #2
    7c8c:	19ed      	adds	r5, r5, r7
    7c8e:	0424      	lsls	r4, r4, #16
    7c90:	0021      	movs	r1, r4
    7c92:	4643      	mov	r3, r8
    7c94:	4331      	orrs	r1, r6
    7c96:	9e04      	ldr	r6, [sp, #16]
    7c98:	9a05      	ldr	r2, [sp, #20]
    7c9a:	0030      	movs	r0, r6
    7c9c:	1aed      	subs	r5, r5, r3
    7c9e:	040b      	lsls	r3, r1, #16
    7ca0:	0c0c      	lsrs	r4, r1, #16
    7ca2:	0c1b      	lsrs	r3, r3, #16
    7ca4:	4358      	muls	r0, r3
    7ca6:	4366      	muls	r6, r4
    7ca8:	4353      	muls	r3, r2
    7caa:	4354      	muls	r4, r2
    7cac:	199a      	adds	r2, r3, r6
    7cae:	0c03      	lsrs	r3, r0, #16
    7cb0:	189b      	adds	r3, r3, r2
    7cb2:	429e      	cmp	r6, r3
    7cb4:	d903      	bls.n	7cbe <__aeabi_ddiv+0x3aa>
    7cb6:	2280      	movs	r2, #128	; 0x80
    7cb8:	0252      	lsls	r2, r2, #9
    7cba:	4694      	mov	ip, r2
    7cbc:	4464      	add	r4, ip
    7cbe:	0c1a      	lsrs	r2, r3, #16
    7cc0:	0400      	lsls	r0, r0, #16
    7cc2:	041b      	lsls	r3, r3, #16
    7cc4:	0c00      	lsrs	r0, r0, #16
    7cc6:	1914      	adds	r4, r2, r4
    7cc8:	181b      	adds	r3, r3, r0
    7cca:	42a5      	cmp	r5, r4
    7ccc:	d350      	bcc.n	7d70 <__aeabi_ddiv+0x45c>
    7cce:	d04d      	beq.n	7d6c <__aeabi_ddiv+0x458>
    7cd0:	2301      	movs	r3, #1
    7cd2:	4319      	orrs	r1, r3
    7cd4:	4a96      	ldr	r2, [pc, #600]	; (7f30 <__aeabi_ddiv+0x61c>)
    7cd6:	9b01      	ldr	r3, [sp, #4]
    7cd8:	4694      	mov	ip, r2
    7cda:	4463      	add	r3, ip
    7cdc:	2b00      	cmp	r3, #0
    7cde:	dc00      	bgt.n	7ce2 <__aeabi_ddiv+0x3ce>
    7ce0:	e6f3      	b.n	7aca <__aeabi_ddiv+0x1b6>
    7ce2:	074a      	lsls	r2, r1, #29
    7ce4:	d009      	beq.n	7cfa <__aeabi_ddiv+0x3e6>
    7ce6:	220f      	movs	r2, #15
    7ce8:	400a      	ands	r2, r1
    7cea:	2a04      	cmp	r2, #4
    7cec:	d005      	beq.n	7cfa <__aeabi_ddiv+0x3e6>
    7cee:	1d0a      	adds	r2, r1, #4
    7cf0:	428a      	cmp	r2, r1
    7cf2:	4189      	sbcs	r1, r1
    7cf4:	4249      	negs	r1, r1
    7cf6:	448b      	add	fp, r1
    7cf8:	0011      	movs	r1, r2
    7cfa:	465a      	mov	r2, fp
    7cfc:	01d2      	lsls	r2, r2, #7
    7cfe:	d508      	bpl.n	7d12 <__aeabi_ddiv+0x3fe>
    7d00:	465a      	mov	r2, fp
    7d02:	4b8c      	ldr	r3, [pc, #560]	; (7f34 <__aeabi_ddiv+0x620>)
    7d04:	401a      	ands	r2, r3
    7d06:	4693      	mov	fp, r2
    7d08:	2280      	movs	r2, #128	; 0x80
    7d0a:	00d2      	lsls	r2, r2, #3
    7d0c:	4694      	mov	ip, r2
    7d0e:	9b01      	ldr	r3, [sp, #4]
    7d10:	4463      	add	r3, ip
    7d12:	4a89      	ldr	r2, [pc, #548]	; (7f38 <__aeabi_ddiv+0x624>)
    7d14:	4293      	cmp	r3, r2
    7d16:	dd00      	ble.n	7d1a <__aeabi_ddiv+0x406>
    7d18:	e65b      	b.n	79d2 <__aeabi_ddiv+0xbe>
    7d1a:	465a      	mov	r2, fp
    7d1c:	08c9      	lsrs	r1, r1, #3
    7d1e:	0750      	lsls	r0, r2, #29
    7d20:	4308      	orrs	r0, r1
    7d22:	0256      	lsls	r6, r2, #9
    7d24:	4651      	mov	r1, sl
    7d26:	2201      	movs	r2, #1
    7d28:	055b      	lsls	r3, r3, #21
    7d2a:	4681      	mov	r9, r0
    7d2c:	0b36      	lsrs	r6, r6, #12
    7d2e:	0d5b      	lsrs	r3, r3, #21
    7d30:	400a      	ands	r2, r1
    7d32:	e655      	b.n	79e0 <__aeabi_ddiv+0xcc>
    7d34:	2380      	movs	r3, #128	; 0x80
    7d36:	031b      	lsls	r3, r3, #12
    7d38:	421e      	tst	r6, r3
    7d3a:	d011      	beq.n	7d60 <__aeabi_ddiv+0x44c>
    7d3c:	465a      	mov	r2, fp
    7d3e:	421a      	tst	r2, r3
    7d40:	d10e      	bne.n	7d60 <__aeabi_ddiv+0x44c>
    7d42:	465e      	mov	r6, fp
    7d44:	431e      	orrs	r6, r3
    7d46:	0336      	lsls	r6, r6, #12
    7d48:	0b36      	lsrs	r6, r6, #12
    7d4a:	002a      	movs	r2, r5
    7d4c:	4689      	mov	r9, r1
    7d4e:	4b7b      	ldr	r3, [pc, #492]	; (7f3c <__aeabi_ddiv+0x628>)
    7d50:	e646      	b.n	79e0 <__aeabi_ddiv+0xcc>
    7d52:	2b03      	cmp	r3, #3
    7d54:	d100      	bne.n	7d58 <__aeabi_ddiv+0x444>
    7d56:	e0e1      	b.n	7f1c <__aeabi_ddiv+0x608>
    7d58:	2b01      	cmp	r3, #1
    7d5a:	d1bb      	bne.n	7cd4 <__aeabi_ddiv+0x3c0>
    7d5c:	401a      	ands	r2, r3
    7d5e:	e6bb      	b.n	7ad8 <__aeabi_ddiv+0x1c4>
    7d60:	431e      	orrs	r6, r3
    7d62:	0336      	lsls	r6, r6, #12
    7d64:	0b36      	lsrs	r6, r6, #12
    7d66:	4642      	mov	r2, r8
    7d68:	4b74      	ldr	r3, [pc, #464]	; (7f3c <__aeabi_ddiv+0x628>)
    7d6a:	e639      	b.n	79e0 <__aeabi_ddiv+0xcc>
    7d6c:	2b00      	cmp	r3, #0
    7d6e:	d0b1      	beq.n	7cd4 <__aeabi_ddiv+0x3c0>
    7d70:	197d      	adds	r5, r7, r5
    7d72:	1e4a      	subs	r2, r1, #1
    7d74:	42af      	cmp	r7, r5
    7d76:	d952      	bls.n	7e1e <__aeabi_ddiv+0x50a>
    7d78:	0011      	movs	r1, r2
    7d7a:	42a5      	cmp	r5, r4
    7d7c:	d1a8      	bne.n	7cd0 <__aeabi_ddiv+0x3bc>
    7d7e:	9a03      	ldr	r2, [sp, #12]
    7d80:	429a      	cmp	r2, r3
    7d82:	d1a5      	bne.n	7cd0 <__aeabi_ddiv+0x3bc>
    7d84:	e7a6      	b.n	7cd4 <__aeabi_ddiv+0x3c0>
    7d86:	0003      	movs	r3, r0
    7d88:	003e      	movs	r6, r7
    7d8a:	3b28      	subs	r3, #40	; 0x28
    7d8c:	409e      	lsls	r6, r3
    7d8e:	2300      	movs	r3, #0
    7d90:	4699      	mov	r9, r3
    7d92:	e654      	b.n	7a3e <__aeabi_ddiv+0x12a>
    7d94:	f001 f882 	bl	8e9c <__clzsi2>
    7d98:	3020      	adds	r0, #32
    7d9a:	e641      	b.n	7a20 <__aeabi_ddiv+0x10c>
    7d9c:	0003      	movs	r3, r0
    7d9e:	4652      	mov	r2, sl
    7da0:	3b28      	subs	r3, #40	; 0x28
    7da2:	409a      	lsls	r2, r3
    7da4:	2100      	movs	r1, #0
    7da6:	4693      	mov	fp, r2
    7da8:	e677      	b.n	7a9a <__aeabi_ddiv+0x186>
    7daa:	4650      	mov	r0, sl
    7dac:	f001 f876 	bl	8e9c <__clzsi2>
    7db0:	3020      	adds	r0, #32
    7db2:	e65e      	b.n	7a72 <__aeabi_ddiv+0x15e>
    7db4:	9b02      	ldr	r3, [sp, #8]
    7db6:	2600      	movs	r6, #0
    7db8:	42ab      	cmp	r3, r5
    7dba:	d300      	bcc.n	7dbe <__aeabi_ddiv+0x4aa>
    7dbc:	e723      	b.n	7c06 <__aeabi_ddiv+0x2f2>
    7dbe:	9e03      	ldr	r6, [sp, #12]
    7dc0:	9902      	ldr	r1, [sp, #8]
    7dc2:	46b4      	mov	ip, r6
    7dc4:	4461      	add	r1, ip
    7dc6:	4688      	mov	r8, r1
    7dc8:	45b0      	cmp	r8, r6
    7dca:	41b6      	sbcs	r6, r6
    7dcc:	465b      	mov	r3, fp
    7dce:	4276      	negs	r6, r6
    7dd0:	19f6      	adds	r6, r6, r7
    7dd2:	18b2      	adds	r2, r6, r2
    7dd4:	3b01      	subs	r3, #1
    7dd6:	9102      	str	r1, [sp, #8]
    7dd8:	4297      	cmp	r7, r2
    7dda:	d213      	bcs.n	7e04 <__aeabi_ddiv+0x4f0>
    7ddc:	4290      	cmp	r0, r2
    7dde:	d84f      	bhi.n	7e80 <__aeabi_ddiv+0x56c>
    7de0:	d100      	bne.n	7de4 <__aeabi_ddiv+0x4d0>
    7de2:	e08e      	b.n	7f02 <__aeabi_ddiv+0x5ee>
    7de4:	1a16      	subs	r6, r2, r0
    7de6:	469b      	mov	fp, r3
    7de8:	e70d      	b.n	7c06 <__aeabi_ddiv+0x2f2>
    7dea:	4589      	cmp	r9, r1
    7dec:	d200      	bcs.n	7df0 <__aeabi_ddiv+0x4dc>
    7dee:	e68e      	b.n	7b0e <__aeabi_ddiv+0x1fa>
    7df0:	0874      	lsrs	r4, r6, #1
    7df2:	464b      	mov	r3, r9
    7df4:	07f6      	lsls	r6, r6, #31
    7df6:	0035      	movs	r5, r6
    7df8:	085b      	lsrs	r3, r3, #1
    7dfa:	431d      	orrs	r5, r3
    7dfc:	464b      	mov	r3, r9
    7dfe:	07db      	lsls	r3, r3, #31
    7e00:	9302      	str	r3, [sp, #8]
    7e02:	e68b      	b.n	7b1c <__aeabi_ddiv+0x208>
    7e04:	4297      	cmp	r7, r2
    7e06:	d1ed      	bne.n	7de4 <__aeabi_ddiv+0x4d0>
    7e08:	9903      	ldr	r1, [sp, #12]
    7e0a:	9c02      	ldr	r4, [sp, #8]
    7e0c:	42a1      	cmp	r1, r4
    7e0e:	d9e5      	bls.n	7ddc <__aeabi_ddiv+0x4c8>
    7e10:	1a3e      	subs	r6, r7, r0
    7e12:	469b      	mov	fp, r3
    7e14:	e6f7      	b.n	7c06 <__aeabi_ddiv+0x2f2>
    7e16:	4698      	mov	r8, r3
    7e18:	e6ca      	b.n	7bb0 <__aeabi_ddiv+0x29c>
    7e1a:	001e      	movs	r6, r3
    7e1c:	e6a5      	b.n	7b6a <__aeabi_ddiv+0x256>
    7e1e:	42ac      	cmp	r4, r5
    7e20:	d83e      	bhi.n	7ea0 <__aeabi_ddiv+0x58c>
    7e22:	d074      	beq.n	7f0e <__aeabi_ddiv+0x5fa>
    7e24:	0011      	movs	r1, r2
    7e26:	e753      	b.n	7cd0 <__aeabi_ddiv+0x3bc>
    7e28:	2101      	movs	r1, #1
    7e2a:	4249      	negs	r1, r1
    7e2c:	e752      	b.n	7cd4 <__aeabi_ddiv+0x3c0>
    7e2e:	001c      	movs	r4, r3
    7e30:	e70e      	b.n	7c50 <__aeabi_ddiv+0x33c>
    7e32:	001e      	movs	r6, r3
    7e34:	e72b      	b.n	7c8e <__aeabi_ddiv+0x37a>
    7e36:	2d1f      	cmp	r5, #31
    7e38:	dc3c      	bgt.n	7eb4 <__aeabi_ddiv+0x5a0>
    7e3a:	2320      	movs	r3, #32
    7e3c:	000a      	movs	r2, r1
    7e3e:	4658      	mov	r0, fp
    7e40:	1b5b      	subs	r3, r3, r5
    7e42:	4098      	lsls	r0, r3
    7e44:	40ea      	lsrs	r2, r5
    7e46:	4099      	lsls	r1, r3
    7e48:	4302      	orrs	r2, r0
    7e4a:	1e48      	subs	r0, r1, #1
    7e4c:	4181      	sbcs	r1, r0
    7e4e:	465e      	mov	r6, fp
    7e50:	4311      	orrs	r1, r2
    7e52:	40ee      	lsrs	r6, r5
    7e54:	074b      	lsls	r3, r1, #29
    7e56:	d009      	beq.n	7e6c <__aeabi_ddiv+0x558>
    7e58:	230f      	movs	r3, #15
    7e5a:	400b      	ands	r3, r1
    7e5c:	2b04      	cmp	r3, #4
    7e5e:	d005      	beq.n	7e6c <__aeabi_ddiv+0x558>
    7e60:	000b      	movs	r3, r1
    7e62:	1d19      	adds	r1, r3, #4
    7e64:	4299      	cmp	r1, r3
    7e66:	419b      	sbcs	r3, r3
    7e68:	425b      	negs	r3, r3
    7e6a:	18f6      	adds	r6, r6, r3
    7e6c:	0233      	lsls	r3, r6, #8
    7e6e:	d53c      	bpl.n	7eea <__aeabi_ddiv+0x5d6>
    7e70:	4653      	mov	r3, sl
    7e72:	2201      	movs	r2, #1
    7e74:	2100      	movs	r1, #0
    7e76:	401a      	ands	r2, r3
    7e78:	2600      	movs	r6, #0
    7e7a:	2301      	movs	r3, #1
    7e7c:	4689      	mov	r9, r1
    7e7e:	e5af      	b.n	79e0 <__aeabi_ddiv+0xcc>
    7e80:	2302      	movs	r3, #2
    7e82:	425b      	negs	r3, r3
    7e84:	469c      	mov	ip, r3
    7e86:	9c03      	ldr	r4, [sp, #12]
    7e88:	44e3      	add	fp, ip
    7e8a:	46a4      	mov	ip, r4
    7e8c:	9b02      	ldr	r3, [sp, #8]
    7e8e:	4463      	add	r3, ip
    7e90:	4698      	mov	r8, r3
    7e92:	45a0      	cmp	r8, r4
    7e94:	41b6      	sbcs	r6, r6
    7e96:	4276      	negs	r6, r6
    7e98:	19f6      	adds	r6, r6, r7
    7e9a:	9302      	str	r3, [sp, #8]
    7e9c:	18b2      	adds	r2, r6, r2
    7e9e:	e6b1      	b.n	7c04 <__aeabi_ddiv+0x2f0>
    7ea0:	9803      	ldr	r0, [sp, #12]
    7ea2:	1e8a      	subs	r2, r1, #2
    7ea4:	0041      	lsls	r1, r0, #1
    7ea6:	4281      	cmp	r1, r0
    7ea8:	41b6      	sbcs	r6, r6
    7eaa:	4276      	negs	r6, r6
    7eac:	19f6      	adds	r6, r6, r7
    7eae:	19ad      	adds	r5, r5, r6
    7eb0:	9103      	str	r1, [sp, #12]
    7eb2:	e761      	b.n	7d78 <__aeabi_ddiv+0x464>
    7eb4:	221f      	movs	r2, #31
    7eb6:	4252      	negs	r2, r2
    7eb8:	1ad3      	subs	r3, r2, r3
    7eba:	465a      	mov	r2, fp
    7ebc:	40da      	lsrs	r2, r3
    7ebe:	0013      	movs	r3, r2
    7ec0:	2d20      	cmp	r5, #32
    7ec2:	d029      	beq.n	7f18 <__aeabi_ddiv+0x604>
    7ec4:	2240      	movs	r2, #64	; 0x40
    7ec6:	4658      	mov	r0, fp
    7ec8:	1b55      	subs	r5, r2, r5
    7eca:	40a8      	lsls	r0, r5
    7ecc:	4301      	orrs	r1, r0
    7ece:	1e48      	subs	r0, r1, #1
    7ed0:	4181      	sbcs	r1, r0
    7ed2:	2007      	movs	r0, #7
    7ed4:	430b      	orrs	r3, r1
    7ed6:	4018      	ands	r0, r3
    7ed8:	2600      	movs	r6, #0
    7eda:	2800      	cmp	r0, #0
    7edc:	d009      	beq.n	7ef2 <__aeabi_ddiv+0x5de>
    7ede:	220f      	movs	r2, #15
    7ee0:	2600      	movs	r6, #0
    7ee2:	401a      	ands	r2, r3
    7ee4:	0019      	movs	r1, r3
    7ee6:	2a04      	cmp	r2, #4
    7ee8:	d1bb      	bne.n	7e62 <__aeabi_ddiv+0x54e>
    7eea:	000b      	movs	r3, r1
    7eec:	0770      	lsls	r0, r6, #29
    7eee:	0276      	lsls	r6, r6, #9
    7ef0:	0b36      	lsrs	r6, r6, #12
    7ef2:	08db      	lsrs	r3, r3, #3
    7ef4:	4303      	orrs	r3, r0
    7ef6:	4699      	mov	r9, r3
    7ef8:	2201      	movs	r2, #1
    7efa:	4653      	mov	r3, sl
    7efc:	401a      	ands	r2, r3
    7efe:	2300      	movs	r3, #0
    7f00:	e56e      	b.n	79e0 <__aeabi_ddiv+0xcc>
    7f02:	9902      	ldr	r1, [sp, #8]
    7f04:	428d      	cmp	r5, r1
    7f06:	d8bb      	bhi.n	7e80 <__aeabi_ddiv+0x56c>
    7f08:	469b      	mov	fp, r3
    7f0a:	2600      	movs	r6, #0
    7f0c:	e67b      	b.n	7c06 <__aeabi_ddiv+0x2f2>
    7f0e:	9803      	ldr	r0, [sp, #12]
    7f10:	4298      	cmp	r0, r3
    7f12:	d3c5      	bcc.n	7ea0 <__aeabi_ddiv+0x58c>
    7f14:	0011      	movs	r1, r2
    7f16:	e732      	b.n	7d7e <__aeabi_ddiv+0x46a>
    7f18:	2000      	movs	r0, #0
    7f1a:	e7d7      	b.n	7ecc <__aeabi_ddiv+0x5b8>
    7f1c:	2680      	movs	r6, #128	; 0x80
    7f1e:	465b      	mov	r3, fp
    7f20:	0336      	lsls	r6, r6, #12
    7f22:	431e      	orrs	r6, r3
    7f24:	0336      	lsls	r6, r6, #12
    7f26:	0b36      	lsrs	r6, r6, #12
    7f28:	9a00      	ldr	r2, [sp, #0]
    7f2a:	4689      	mov	r9, r1
    7f2c:	4b03      	ldr	r3, [pc, #12]	; (7f3c <__aeabi_ddiv+0x628>)
    7f2e:	e557      	b.n	79e0 <__aeabi_ddiv+0xcc>
    7f30:	000003ff 	.word	0x000003ff
    7f34:	feffffff 	.word	0xfeffffff
    7f38:	000007fe 	.word	0x000007fe
    7f3c:	000007ff 	.word	0x000007ff

00007f40 <__eqdf2>:
    7f40:	b5f0      	push	{r4, r5, r6, r7, lr}
    7f42:	465f      	mov	r7, fp
    7f44:	4656      	mov	r6, sl
    7f46:	464d      	mov	r5, r9
    7f48:	4644      	mov	r4, r8
    7f4a:	b4f0      	push	{r4, r5, r6, r7}
    7f4c:	031f      	lsls	r7, r3, #12
    7f4e:	005c      	lsls	r4, r3, #1
    7f50:	0fdb      	lsrs	r3, r3, #31
    7f52:	469a      	mov	sl, r3
    7f54:	4b19      	ldr	r3, [pc, #100]	; (7fbc <__eqdf2+0x7c>)
    7f56:	030e      	lsls	r6, r1, #12
    7f58:	004d      	lsls	r5, r1, #1
    7f5a:	0fc9      	lsrs	r1, r1, #31
    7f5c:	4680      	mov	r8, r0
    7f5e:	0b36      	lsrs	r6, r6, #12
    7f60:	0d6d      	lsrs	r5, r5, #21
    7f62:	468b      	mov	fp, r1
    7f64:	4691      	mov	r9, r2
    7f66:	0b3f      	lsrs	r7, r7, #12
    7f68:	0d64      	lsrs	r4, r4, #21
    7f6a:	429d      	cmp	r5, r3
    7f6c:	d019      	beq.n	7fa2 <__eqdf2+0x62>
    7f6e:	4b13      	ldr	r3, [pc, #76]	; (7fbc <__eqdf2+0x7c>)
    7f70:	429c      	cmp	r4, r3
    7f72:	d01b      	beq.n	7fac <__eqdf2+0x6c>
    7f74:	2301      	movs	r3, #1
    7f76:	42a5      	cmp	r5, r4
    7f78:	d006      	beq.n	7f88 <__eqdf2+0x48>
    7f7a:	0018      	movs	r0, r3
    7f7c:	bc3c      	pop	{r2, r3, r4, r5}
    7f7e:	4690      	mov	r8, r2
    7f80:	4699      	mov	r9, r3
    7f82:	46a2      	mov	sl, r4
    7f84:	46ab      	mov	fp, r5
    7f86:	bdf0      	pop	{r4, r5, r6, r7, pc}
    7f88:	42be      	cmp	r6, r7
    7f8a:	d1f6      	bne.n	7f7a <__eqdf2+0x3a>
    7f8c:	45c8      	cmp	r8, r9
    7f8e:	d1f4      	bne.n	7f7a <__eqdf2+0x3a>
    7f90:	45d3      	cmp	fp, sl
    7f92:	d010      	beq.n	7fb6 <__eqdf2+0x76>
    7f94:	2d00      	cmp	r5, #0
    7f96:	d1f0      	bne.n	7f7a <__eqdf2+0x3a>
    7f98:	4330      	orrs	r0, r6
    7f9a:	0003      	movs	r3, r0
    7f9c:	1e5a      	subs	r2, r3, #1
    7f9e:	4193      	sbcs	r3, r2
    7fa0:	e7eb      	b.n	7f7a <__eqdf2+0x3a>
    7fa2:	0031      	movs	r1, r6
    7fa4:	2301      	movs	r3, #1
    7fa6:	4301      	orrs	r1, r0
    7fa8:	d1e7      	bne.n	7f7a <__eqdf2+0x3a>
    7faa:	e7e0      	b.n	7f6e <__eqdf2+0x2e>
    7fac:	433a      	orrs	r2, r7
    7fae:	2301      	movs	r3, #1
    7fb0:	2a00      	cmp	r2, #0
    7fb2:	d1e2      	bne.n	7f7a <__eqdf2+0x3a>
    7fb4:	e7de      	b.n	7f74 <__eqdf2+0x34>
    7fb6:	2300      	movs	r3, #0
    7fb8:	e7df      	b.n	7f7a <__eqdf2+0x3a>
    7fba:	46c0      	nop			; (mov r8, r8)
    7fbc:	000007ff 	.word	0x000007ff

00007fc0 <__gedf2>:
    7fc0:	b5f0      	push	{r4, r5, r6, r7, lr}
    7fc2:	465f      	mov	r7, fp
    7fc4:	4644      	mov	r4, r8
    7fc6:	4656      	mov	r6, sl
    7fc8:	464d      	mov	r5, r9
    7fca:	b4f0      	push	{r4, r5, r6, r7}
    7fcc:	031f      	lsls	r7, r3, #12
    7fce:	0b3c      	lsrs	r4, r7, #12
    7fd0:	4f2c      	ldr	r7, [pc, #176]	; (8084 <__gedf2+0xc4>)
    7fd2:	030e      	lsls	r6, r1, #12
    7fd4:	004d      	lsls	r5, r1, #1
    7fd6:	46a3      	mov	fp, r4
    7fd8:	005c      	lsls	r4, r3, #1
    7fda:	4684      	mov	ip, r0
    7fdc:	0b36      	lsrs	r6, r6, #12
    7fde:	0d6d      	lsrs	r5, r5, #21
    7fe0:	0fc9      	lsrs	r1, r1, #31
    7fe2:	4690      	mov	r8, r2
    7fe4:	0d64      	lsrs	r4, r4, #21
    7fe6:	0fdb      	lsrs	r3, r3, #31
    7fe8:	42bd      	cmp	r5, r7
    7fea:	d02b      	beq.n	8044 <__gedf2+0x84>
    7fec:	4f25      	ldr	r7, [pc, #148]	; (8084 <__gedf2+0xc4>)
    7fee:	42bc      	cmp	r4, r7
    7ff0:	d02e      	beq.n	8050 <__gedf2+0x90>
    7ff2:	2d00      	cmp	r5, #0
    7ff4:	d10e      	bne.n	8014 <__gedf2+0x54>
    7ff6:	4330      	orrs	r0, r6
    7ff8:	0007      	movs	r7, r0
    7ffa:	4681      	mov	r9, r0
    7ffc:	4278      	negs	r0, r7
    7ffe:	4178      	adcs	r0, r7
    8000:	2c00      	cmp	r4, #0
    8002:	d117      	bne.n	8034 <__gedf2+0x74>
    8004:	465f      	mov	r7, fp
    8006:	433a      	orrs	r2, r7
    8008:	d114      	bne.n	8034 <__gedf2+0x74>
    800a:	464b      	mov	r3, r9
    800c:	2000      	movs	r0, #0
    800e:	2b00      	cmp	r3, #0
    8010:	d00a      	beq.n	8028 <__gedf2+0x68>
    8012:	e006      	b.n	8022 <__gedf2+0x62>
    8014:	2c00      	cmp	r4, #0
    8016:	d102      	bne.n	801e <__gedf2+0x5e>
    8018:	4658      	mov	r0, fp
    801a:	4302      	orrs	r2, r0
    801c:	d001      	beq.n	8022 <__gedf2+0x62>
    801e:	4299      	cmp	r1, r3
    8020:	d01a      	beq.n	8058 <__gedf2+0x98>
    8022:	2301      	movs	r3, #1
    8024:	4248      	negs	r0, r1
    8026:	4318      	orrs	r0, r3
    8028:	bc3c      	pop	{r2, r3, r4, r5}
    802a:	4690      	mov	r8, r2
    802c:	4699      	mov	r9, r3
    802e:	46a2      	mov	sl, r4
    8030:	46ab      	mov	fp, r5
    8032:	bdf0      	pop	{r4, r5, r6, r7, pc}
    8034:	2800      	cmp	r0, #0
    8036:	d0f2      	beq.n	801e <__gedf2+0x5e>
    8038:	4258      	negs	r0, r3
    803a:	4158      	adcs	r0, r3
    803c:	2201      	movs	r2, #1
    803e:	4240      	negs	r0, r0
    8040:	4310      	orrs	r0, r2
    8042:	e7f1      	b.n	8028 <__gedf2+0x68>
    8044:	0037      	movs	r7, r6
    8046:	4307      	orrs	r7, r0
    8048:	d0d0      	beq.n	7fec <__gedf2+0x2c>
    804a:	2002      	movs	r0, #2
    804c:	4240      	negs	r0, r0
    804e:	e7eb      	b.n	8028 <__gedf2+0x68>
    8050:	465f      	mov	r7, fp
    8052:	4317      	orrs	r7, r2
    8054:	d0cd      	beq.n	7ff2 <__gedf2+0x32>
    8056:	e7f8      	b.n	804a <__gedf2+0x8a>
    8058:	42a5      	cmp	r5, r4
    805a:	dce2      	bgt.n	8022 <__gedf2+0x62>
    805c:	db05      	blt.n	806a <__gedf2+0xaa>
    805e:	455e      	cmp	r6, fp
    8060:	d8df      	bhi.n	8022 <__gedf2+0x62>
    8062:	d008      	beq.n	8076 <__gedf2+0xb6>
    8064:	2000      	movs	r0, #0
    8066:	455e      	cmp	r6, fp
    8068:	d2de      	bcs.n	8028 <__gedf2+0x68>
    806a:	4248      	negs	r0, r1
    806c:	4148      	adcs	r0, r1
    806e:	2301      	movs	r3, #1
    8070:	4240      	negs	r0, r0
    8072:	4318      	orrs	r0, r3
    8074:	e7d8      	b.n	8028 <__gedf2+0x68>
    8076:	45c4      	cmp	ip, r8
    8078:	d8d3      	bhi.n	8022 <__gedf2+0x62>
    807a:	2000      	movs	r0, #0
    807c:	45c4      	cmp	ip, r8
    807e:	d3f4      	bcc.n	806a <__gedf2+0xaa>
    8080:	e7d2      	b.n	8028 <__gedf2+0x68>
    8082:	46c0      	nop			; (mov r8, r8)
    8084:	000007ff 	.word	0x000007ff

00008088 <__ledf2>:
    8088:	b5f0      	push	{r4, r5, r6, r7, lr}
    808a:	465f      	mov	r7, fp
    808c:	464d      	mov	r5, r9
    808e:	4644      	mov	r4, r8
    8090:	4656      	mov	r6, sl
    8092:	b4f0      	push	{r4, r5, r6, r7}
    8094:	031c      	lsls	r4, r3, #12
    8096:	0b24      	lsrs	r4, r4, #12
    8098:	46a4      	mov	ip, r4
    809a:	4c2f      	ldr	r4, [pc, #188]	; (8158 <__ledf2+0xd0>)
    809c:	030f      	lsls	r7, r1, #12
    809e:	004d      	lsls	r5, r1, #1
    80a0:	005e      	lsls	r6, r3, #1
    80a2:	0fc9      	lsrs	r1, r1, #31
    80a4:	4680      	mov	r8, r0
    80a6:	0b3f      	lsrs	r7, r7, #12
    80a8:	0d6d      	lsrs	r5, r5, #21
    80aa:	468b      	mov	fp, r1
    80ac:	4691      	mov	r9, r2
    80ae:	0d76      	lsrs	r6, r6, #21
    80b0:	0fdb      	lsrs	r3, r3, #31
    80b2:	42a5      	cmp	r5, r4
    80b4:	d020      	beq.n	80f8 <__ledf2+0x70>
    80b6:	4c28      	ldr	r4, [pc, #160]	; (8158 <__ledf2+0xd0>)
    80b8:	42a6      	cmp	r6, r4
    80ba:	d022      	beq.n	8102 <__ledf2+0x7a>
    80bc:	2d00      	cmp	r5, #0
    80be:	d112      	bne.n	80e6 <__ledf2+0x5e>
    80c0:	4338      	orrs	r0, r7
    80c2:	4244      	negs	r4, r0
    80c4:	4144      	adcs	r4, r0
    80c6:	2e00      	cmp	r6, #0
    80c8:	d020      	beq.n	810c <__ledf2+0x84>
    80ca:	2c00      	cmp	r4, #0
    80cc:	d00d      	beq.n	80ea <__ledf2+0x62>
    80ce:	425c      	negs	r4, r3
    80d0:	4163      	adcs	r3, r4
    80d2:	2401      	movs	r4, #1
    80d4:	425b      	negs	r3, r3
    80d6:	431c      	orrs	r4, r3
    80d8:	0020      	movs	r0, r4
    80da:	bc3c      	pop	{r2, r3, r4, r5}
    80dc:	4690      	mov	r8, r2
    80de:	4699      	mov	r9, r3
    80e0:	46a2      	mov	sl, r4
    80e2:	46ab      	mov	fp, r5
    80e4:	bdf0      	pop	{r4, r5, r6, r7, pc}
    80e6:	2e00      	cmp	r6, #0
    80e8:	d017      	beq.n	811a <__ledf2+0x92>
    80ea:	455b      	cmp	r3, fp
    80ec:	d019      	beq.n	8122 <__ledf2+0x9a>
    80ee:	465b      	mov	r3, fp
    80f0:	425c      	negs	r4, r3
    80f2:	2301      	movs	r3, #1
    80f4:	431c      	orrs	r4, r3
    80f6:	e7ef      	b.n	80d8 <__ledf2+0x50>
    80f8:	0039      	movs	r1, r7
    80fa:	2402      	movs	r4, #2
    80fc:	4301      	orrs	r1, r0
    80fe:	d1eb      	bne.n	80d8 <__ledf2+0x50>
    8100:	e7d9      	b.n	80b6 <__ledf2+0x2e>
    8102:	4661      	mov	r1, ip
    8104:	2402      	movs	r4, #2
    8106:	4311      	orrs	r1, r2
    8108:	d1e6      	bne.n	80d8 <__ledf2+0x50>
    810a:	e7d7      	b.n	80bc <__ledf2+0x34>
    810c:	4661      	mov	r1, ip
    810e:	430a      	orrs	r2, r1
    8110:	d1db      	bne.n	80ca <__ledf2+0x42>
    8112:	2400      	movs	r4, #0
    8114:	2800      	cmp	r0, #0
    8116:	d0df      	beq.n	80d8 <__ledf2+0x50>
    8118:	e7e9      	b.n	80ee <__ledf2+0x66>
    811a:	4661      	mov	r1, ip
    811c:	430a      	orrs	r2, r1
    811e:	d1e4      	bne.n	80ea <__ledf2+0x62>
    8120:	e7e5      	b.n	80ee <__ledf2+0x66>
    8122:	42b5      	cmp	r5, r6
    8124:	dd03      	ble.n	812e <__ledf2+0xa6>
    8126:	2201      	movs	r2, #1
    8128:	425c      	negs	r4, r3
    812a:	4314      	orrs	r4, r2
    812c:	e7d4      	b.n	80d8 <__ledf2+0x50>
    812e:	42b5      	cmp	r5, r6
    8130:	dbcd      	blt.n	80ce <__ledf2+0x46>
    8132:	4567      	cmp	r7, ip
    8134:	d8db      	bhi.n	80ee <__ledf2+0x66>
    8136:	d009      	beq.n	814c <__ledf2+0xc4>
    8138:	2400      	movs	r4, #0
    813a:	4567      	cmp	r7, ip
    813c:	d2cc      	bcs.n	80d8 <__ledf2+0x50>
    813e:	4659      	mov	r1, fp
    8140:	424c      	negs	r4, r1
    8142:	4161      	adcs	r1, r4
    8144:	2401      	movs	r4, #1
    8146:	4249      	negs	r1, r1
    8148:	430c      	orrs	r4, r1
    814a:	e7c5      	b.n	80d8 <__ledf2+0x50>
    814c:	45c8      	cmp	r8, r9
    814e:	d8ce      	bhi.n	80ee <__ledf2+0x66>
    8150:	2400      	movs	r4, #0
    8152:	45c8      	cmp	r8, r9
    8154:	d3f3      	bcc.n	813e <__ledf2+0xb6>
    8156:	e7bf      	b.n	80d8 <__ledf2+0x50>
    8158:	000007ff 	.word	0x000007ff

0000815c <__aeabi_dmul>:
    815c:	b5f0      	push	{r4, r5, r6, r7, lr}
    815e:	465f      	mov	r7, fp
    8160:	4656      	mov	r6, sl
    8162:	464d      	mov	r5, r9
    8164:	4644      	mov	r4, r8
    8166:	b4f0      	push	{r4, r5, r6, r7}
    8168:	030d      	lsls	r5, r1, #12
    816a:	4699      	mov	r9, r3
    816c:	004e      	lsls	r6, r1, #1
    816e:	0b2b      	lsrs	r3, r5, #12
    8170:	b087      	sub	sp, #28
    8172:	0007      	movs	r7, r0
    8174:	4692      	mov	sl, r2
    8176:	4680      	mov	r8, r0
    8178:	469b      	mov	fp, r3
    817a:	0d76      	lsrs	r6, r6, #21
    817c:	0fcc      	lsrs	r4, r1, #31
    817e:	2e00      	cmp	r6, #0
    8180:	d069      	beq.n	8256 <__aeabi_dmul+0xfa>
    8182:	4b6d      	ldr	r3, [pc, #436]	; (8338 <__aeabi_dmul+0x1dc>)
    8184:	429e      	cmp	r6, r3
    8186:	d035      	beq.n	81f4 <__aeabi_dmul+0x98>
    8188:	465b      	mov	r3, fp
    818a:	2280      	movs	r2, #128	; 0x80
    818c:	00dd      	lsls	r5, r3, #3
    818e:	0412      	lsls	r2, r2, #16
    8190:	0f43      	lsrs	r3, r0, #29
    8192:	4313      	orrs	r3, r2
    8194:	432b      	orrs	r3, r5
    8196:	469b      	mov	fp, r3
    8198:	00c3      	lsls	r3, r0, #3
    819a:	4698      	mov	r8, r3
    819c:	4b67      	ldr	r3, [pc, #412]	; (833c <__aeabi_dmul+0x1e0>)
    819e:	2700      	movs	r7, #0
    81a0:	469c      	mov	ip, r3
    81a2:	2300      	movs	r3, #0
    81a4:	4466      	add	r6, ip
    81a6:	9301      	str	r3, [sp, #4]
    81a8:	464a      	mov	r2, r9
    81aa:	0315      	lsls	r5, r2, #12
    81ac:	0050      	lsls	r0, r2, #1
    81ae:	0fd2      	lsrs	r2, r2, #31
    81b0:	4653      	mov	r3, sl
    81b2:	0b2d      	lsrs	r5, r5, #12
    81b4:	0d40      	lsrs	r0, r0, #21
    81b6:	4691      	mov	r9, r2
    81b8:	d100      	bne.n	81bc <__aeabi_dmul+0x60>
    81ba:	e076      	b.n	82aa <__aeabi_dmul+0x14e>
    81bc:	4a5e      	ldr	r2, [pc, #376]	; (8338 <__aeabi_dmul+0x1dc>)
    81be:	4290      	cmp	r0, r2
    81c0:	d06c      	beq.n	829c <__aeabi_dmul+0x140>
    81c2:	2280      	movs	r2, #128	; 0x80
    81c4:	0f5b      	lsrs	r3, r3, #29
    81c6:	0412      	lsls	r2, r2, #16
    81c8:	4313      	orrs	r3, r2
    81ca:	4a5c      	ldr	r2, [pc, #368]	; (833c <__aeabi_dmul+0x1e0>)
    81cc:	00ed      	lsls	r5, r5, #3
    81ce:	4694      	mov	ip, r2
    81d0:	431d      	orrs	r5, r3
    81d2:	4653      	mov	r3, sl
    81d4:	2200      	movs	r2, #0
    81d6:	00db      	lsls	r3, r3, #3
    81d8:	4460      	add	r0, ip
    81da:	4649      	mov	r1, r9
    81dc:	1836      	adds	r6, r6, r0
    81de:	1c70      	adds	r0, r6, #1
    81e0:	4061      	eors	r1, r4
    81e2:	9002      	str	r0, [sp, #8]
    81e4:	4317      	orrs	r7, r2
    81e6:	2f0f      	cmp	r7, #15
    81e8:	d900      	bls.n	81ec <__aeabi_dmul+0x90>
    81ea:	e0af      	b.n	834c <__aeabi_dmul+0x1f0>
    81ec:	4854      	ldr	r0, [pc, #336]	; (8340 <__aeabi_dmul+0x1e4>)
    81ee:	00bf      	lsls	r7, r7, #2
    81f0:	59c7      	ldr	r7, [r0, r7]
    81f2:	46bf      	mov	pc, r7
    81f4:	465b      	mov	r3, fp
    81f6:	431f      	orrs	r7, r3
    81f8:	d000      	beq.n	81fc <__aeabi_dmul+0xa0>
    81fa:	e088      	b.n	830e <__aeabi_dmul+0x1b2>
    81fc:	2300      	movs	r3, #0
    81fe:	469b      	mov	fp, r3
    8200:	4698      	mov	r8, r3
    8202:	3302      	adds	r3, #2
    8204:	2708      	movs	r7, #8
    8206:	9301      	str	r3, [sp, #4]
    8208:	e7ce      	b.n	81a8 <__aeabi_dmul+0x4c>
    820a:	4649      	mov	r1, r9
    820c:	2a02      	cmp	r2, #2
    820e:	d06a      	beq.n	82e6 <__aeabi_dmul+0x18a>
    8210:	2a03      	cmp	r2, #3
    8212:	d100      	bne.n	8216 <__aeabi_dmul+0xba>
    8214:	e209      	b.n	862a <__aeabi_dmul+0x4ce>
    8216:	2a01      	cmp	r2, #1
    8218:	d000      	beq.n	821c <__aeabi_dmul+0xc0>
    821a:	e1bb      	b.n	8594 <__aeabi_dmul+0x438>
    821c:	4011      	ands	r1, r2
    821e:	2200      	movs	r2, #0
    8220:	2300      	movs	r3, #0
    8222:	2500      	movs	r5, #0
    8224:	4690      	mov	r8, r2
    8226:	b2cc      	uxtb	r4, r1
    8228:	2100      	movs	r1, #0
    822a:	032d      	lsls	r5, r5, #12
    822c:	0d0a      	lsrs	r2, r1, #20
    822e:	0512      	lsls	r2, r2, #20
    8230:	0b2d      	lsrs	r5, r5, #12
    8232:	4315      	orrs	r5, r2
    8234:	4a43      	ldr	r2, [pc, #268]	; (8344 <__aeabi_dmul+0x1e8>)
    8236:	051b      	lsls	r3, r3, #20
    8238:	4015      	ands	r5, r2
    823a:	431d      	orrs	r5, r3
    823c:	006d      	lsls	r5, r5, #1
    823e:	07e4      	lsls	r4, r4, #31
    8240:	086d      	lsrs	r5, r5, #1
    8242:	4325      	orrs	r5, r4
    8244:	4640      	mov	r0, r8
    8246:	0029      	movs	r1, r5
    8248:	b007      	add	sp, #28
    824a:	bc3c      	pop	{r2, r3, r4, r5}
    824c:	4690      	mov	r8, r2
    824e:	4699      	mov	r9, r3
    8250:	46a2      	mov	sl, r4
    8252:	46ab      	mov	fp, r5
    8254:	bdf0      	pop	{r4, r5, r6, r7, pc}
    8256:	4303      	orrs	r3, r0
    8258:	d052      	beq.n	8300 <__aeabi_dmul+0x1a4>
    825a:	465b      	mov	r3, fp
    825c:	2b00      	cmp	r3, #0
    825e:	d100      	bne.n	8262 <__aeabi_dmul+0x106>
    8260:	e18a      	b.n	8578 <__aeabi_dmul+0x41c>
    8262:	4658      	mov	r0, fp
    8264:	f000 fe1a 	bl	8e9c <__clzsi2>
    8268:	0003      	movs	r3, r0
    826a:	3b0b      	subs	r3, #11
    826c:	2b1c      	cmp	r3, #28
    826e:	dd00      	ble.n	8272 <__aeabi_dmul+0x116>
    8270:	e17b      	b.n	856a <__aeabi_dmul+0x40e>
    8272:	221d      	movs	r2, #29
    8274:	1ad3      	subs	r3, r2, r3
    8276:	003a      	movs	r2, r7
    8278:	0001      	movs	r1, r0
    827a:	465d      	mov	r5, fp
    827c:	40da      	lsrs	r2, r3
    827e:	3908      	subs	r1, #8
    8280:	408d      	lsls	r5, r1
    8282:	0013      	movs	r3, r2
    8284:	408f      	lsls	r7, r1
    8286:	432b      	orrs	r3, r5
    8288:	469b      	mov	fp, r3
    828a:	46b8      	mov	r8, r7
    828c:	4b2e      	ldr	r3, [pc, #184]	; (8348 <__aeabi_dmul+0x1ec>)
    828e:	2700      	movs	r7, #0
    8290:	469c      	mov	ip, r3
    8292:	2300      	movs	r3, #0
    8294:	4460      	add	r0, ip
    8296:	4246      	negs	r6, r0
    8298:	9301      	str	r3, [sp, #4]
    829a:	e785      	b.n	81a8 <__aeabi_dmul+0x4c>
    829c:	4652      	mov	r2, sl
    829e:	432a      	orrs	r2, r5
    82a0:	d12c      	bne.n	82fc <__aeabi_dmul+0x1a0>
    82a2:	2500      	movs	r5, #0
    82a4:	2300      	movs	r3, #0
    82a6:	2202      	movs	r2, #2
    82a8:	e797      	b.n	81da <__aeabi_dmul+0x7e>
    82aa:	4652      	mov	r2, sl
    82ac:	432a      	orrs	r2, r5
    82ae:	d021      	beq.n	82f4 <__aeabi_dmul+0x198>
    82b0:	2d00      	cmp	r5, #0
    82b2:	d100      	bne.n	82b6 <__aeabi_dmul+0x15a>
    82b4:	e154      	b.n	8560 <__aeabi_dmul+0x404>
    82b6:	0028      	movs	r0, r5
    82b8:	f000 fdf0 	bl	8e9c <__clzsi2>
    82bc:	0003      	movs	r3, r0
    82be:	3b0b      	subs	r3, #11
    82c0:	2b1c      	cmp	r3, #28
    82c2:	dd00      	ble.n	82c6 <__aeabi_dmul+0x16a>
    82c4:	e146      	b.n	8554 <__aeabi_dmul+0x3f8>
    82c6:	211d      	movs	r1, #29
    82c8:	1acb      	subs	r3, r1, r3
    82ca:	4651      	mov	r1, sl
    82cc:	0002      	movs	r2, r0
    82ce:	40d9      	lsrs	r1, r3
    82d0:	4653      	mov	r3, sl
    82d2:	3a08      	subs	r2, #8
    82d4:	4095      	lsls	r5, r2
    82d6:	4093      	lsls	r3, r2
    82d8:	430d      	orrs	r5, r1
    82da:	4a1b      	ldr	r2, [pc, #108]	; (8348 <__aeabi_dmul+0x1ec>)
    82dc:	4694      	mov	ip, r2
    82de:	4460      	add	r0, ip
    82e0:	4240      	negs	r0, r0
    82e2:	2200      	movs	r2, #0
    82e4:	e779      	b.n	81da <__aeabi_dmul+0x7e>
    82e6:	2401      	movs	r4, #1
    82e8:	2200      	movs	r2, #0
    82ea:	400c      	ands	r4, r1
    82ec:	4b12      	ldr	r3, [pc, #72]	; (8338 <__aeabi_dmul+0x1dc>)
    82ee:	2500      	movs	r5, #0
    82f0:	4690      	mov	r8, r2
    82f2:	e799      	b.n	8228 <__aeabi_dmul+0xcc>
    82f4:	2500      	movs	r5, #0
    82f6:	2300      	movs	r3, #0
    82f8:	2201      	movs	r2, #1
    82fa:	e76e      	b.n	81da <__aeabi_dmul+0x7e>
    82fc:	2203      	movs	r2, #3
    82fe:	e76c      	b.n	81da <__aeabi_dmul+0x7e>
    8300:	2300      	movs	r3, #0
    8302:	469b      	mov	fp, r3
    8304:	4698      	mov	r8, r3
    8306:	3301      	adds	r3, #1
    8308:	2704      	movs	r7, #4
    830a:	9301      	str	r3, [sp, #4]
    830c:	e74c      	b.n	81a8 <__aeabi_dmul+0x4c>
    830e:	2303      	movs	r3, #3
    8310:	270c      	movs	r7, #12
    8312:	9301      	str	r3, [sp, #4]
    8314:	e748      	b.n	81a8 <__aeabi_dmul+0x4c>
    8316:	2300      	movs	r3, #0
    8318:	2580      	movs	r5, #128	; 0x80
    831a:	4698      	mov	r8, r3
    831c:	2400      	movs	r4, #0
    831e:	032d      	lsls	r5, r5, #12
    8320:	4b05      	ldr	r3, [pc, #20]	; (8338 <__aeabi_dmul+0x1dc>)
    8322:	e781      	b.n	8228 <__aeabi_dmul+0xcc>
    8324:	465d      	mov	r5, fp
    8326:	4643      	mov	r3, r8
    8328:	9a01      	ldr	r2, [sp, #4]
    832a:	e76f      	b.n	820c <__aeabi_dmul+0xb0>
    832c:	465d      	mov	r5, fp
    832e:	4643      	mov	r3, r8
    8330:	0021      	movs	r1, r4
    8332:	9a01      	ldr	r2, [sp, #4]
    8334:	e76a      	b.n	820c <__aeabi_dmul+0xb0>
    8336:	46c0      	nop			; (mov r8, r8)
    8338:	000007ff 	.word	0x000007ff
    833c:	fffffc01 	.word	0xfffffc01
    8340:	000095d8 	.word	0x000095d8
    8344:	800fffff 	.word	0x800fffff
    8348:	000003f3 	.word	0x000003f3
    834c:	4642      	mov	r2, r8
    834e:	0c12      	lsrs	r2, r2, #16
    8350:	4691      	mov	r9, r2
    8352:	0c1a      	lsrs	r2, r3, #16
    8354:	4694      	mov	ip, r2
    8356:	4642      	mov	r2, r8
    8358:	0417      	lsls	r7, r2, #16
    835a:	464a      	mov	r2, r9
    835c:	041b      	lsls	r3, r3, #16
    835e:	0c1b      	lsrs	r3, r3, #16
    8360:	435a      	muls	r2, r3
    8362:	4660      	mov	r0, ip
    8364:	4690      	mov	r8, r2
    8366:	464a      	mov	r2, r9
    8368:	4342      	muls	r2, r0
    836a:	0010      	movs	r0, r2
    836c:	9203      	str	r2, [sp, #12]
    836e:	4662      	mov	r2, ip
    8370:	001c      	movs	r4, r3
    8372:	0c3f      	lsrs	r7, r7, #16
    8374:	437a      	muls	r2, r7
    8376:	437c      	muls	r4, r7
    8378:	4442      	add	r2, r8
    837a:	9201      	str	r2, [sp, #4]
    837c:	0c22      	lsrs	r2, r4, #16
    837e:	4692      	mov	sl, r2
    8380:	9a01      	ldr	r2, [sp, #4]
    8382:	4452      	add	r2, sl
    8384:	4590      	cmp	r8, r2
    8386:	d906      	bls.n	8396 <__aeabi_dmul+0x23a>
    8388:	4682      	mov	sl, r0
    838a:	2080      	movs	r0, #128	; 0x80
    838c:	0240      	lsls	r0, r0, #9
    838e:	4680      	mov	r8, r0
    8390:	44c2      	add	sl, r8
    8392:	4650      	mov	r0, sl
    8394:	9003      	str	r0, [sp, #12]
    8396:	0c10      	lsrs	r0, r2, #16
    8398:	9004      	str	r0, [sp, #16]
    839a:	4648      	mov	r0, r9
    839c:	0424      	lsls	r4, r4, #16
    839e:	0c24      	lsrs	r4, r4, #16
    83a0:	0412      	lsls	r2, r2, #16
    83a2:	1912      	adds	r2, r2, r4
    83a4:	9205      	str	r2, [sp, #20]
    83a6:	0c2a      	lsrs	r2, r5, #16
    83a8:	042d      	lsls	r5, r5, #16
    83aa:	0c2d      	lsrs	r5, r5, #16
    83ac:	4368      	muls	r0, r5
    83ae:	002c      	movs	r4, r5
    83b0:	4682      	mov	sl, r0
    83b2:	4648      	mov	r0, r9
    83b4:	437c      	muls	r4, r7
    83b6:	4350      	muls	r0, r2
    83b8:	4681      	mov	r9, r0
    83ba:	0c20      	lsrs	r0, r4, #16
    83bc:	4680      	mov	r8, r0
    83be:	4357      	muls	r7, r2
    83c0:	4457      	add	r7, sl
    83c2:	4447      	add	r7, r8
    83c4:	45ba      	cmp	sl, r7
    83c6:	d903      	bls.n	83d0 <__aeabi_dmul+0x274>
    83c8:	2080      	movs	r0, #128	; 0x80
    83ca:	0240      	lsls	r0, r0, #9
    83cc:	4680      	mov	r8, r0
    83ce:	44c1      	add	r9, r8
    83d0:	0c38      	lsrs	r0, r7, #16
    83d2:	043f      	lsls	r7, r7, #16
    83d4:	46b8      	mov	r8, r7
    83d6:	4448      	add	r0, r9
    83d8:	0424      	lsls	r4, r4, #16
    83da:	0c24      	lsrs	r4, r4, #16
    83dc:	9001      	str	r0, [sp, #4]
    83de:	9804      	ldr	r0, [sp, #16]
    83e0:	44a0      	add	r8, r4
    83e2:	4440      	add	r0, r8
    83e4:	9004      	str	r0, [sp, #16]
    83e6:	4658      	mov	r0, fp
    83e8:	0c00      	lsrs	r0, r0, #16
    83ea:	4681      	mov	r9, r0
    83ec:	4658      	mov	r0, fp
    83ee:	0404      	lsls	r4, r0, #16
    83f0:	0c20      	lsrs	r0, r4, #16
    83f2:	4682      	mov	sl, r0
    83f4:	0007      	movs	r7, r0
    83f6:	4648      	mov	r0, r9
    83f8:	435f      	muls	r7, r3
    83fa:	464c      	mov	r4, r9
    83fc:	4343      	muls	r3, r0
    83fe:	4660      	mov	r0, ip
    8400:	4360      	muls	r0, r4
    8402:	4664      	mov	r4, ip
    8404:	4683      	mov	fp, r0
    8406:	4650      	mov	r0, sl
    8408:	4344      	muls	r4, r0
    840a:	0c38      	lsrs	r0, r7, #16
    840c:	4684      	mov	ip, r0
    840e:	18e4      	adds	r4, r4, r3
    8410:	4464      	add	r4, ip
    8412:	42a3      	cmp	r3, r4
    8414:	d903      	bls.n	841e <__aeabi_dmul+0x2c2>
    8416:	2380      	movs	r3, #128	; 0x80
    8418:	025b      	lsls	r3, r3, #9
    841a:	469c      	mov	ip, r3
    841c:	44e3      	add	fp, ip
    841e:	4648      	mov	r0, r9
    8420:	043f      	lsls	r7, r7, #16
    8422:	0c23      	lsrs	r3, r4, #16
    8424:	0c3f      	lsrs	r7, r7, #16
    8426:	0424      	lsls	r4, r4, #16
    8428:	19e4      	adds	r4, r4, r7
    842a:	4657      	mov	r7, sl
    842c:	4368      	muls	r0, r5
    842e:	436f      	muls	r7, r5
    8430:	4684      	mov	ip, r0
    8432:	464d      	mov	r5, r9
    8434:	4650      	mov	r0, sl
    8436:	4355      	muls	r5, r2
    8438:	4342      	muls	r2, r0
    843a:	0c38      	lsrs	r0, r7, #16
    843c:	4681      	mov	r9, r0
    843e:	4462      	add	r2, ip
    8440:	444a      	add	r2, r9
    8442:	445b      	add	r3, fp
    8444:	4594      	cmp	ip, r2
    8446:	d903      	bls.n	8450 <__aeabi_dmul+0x2f4>
    8448:	2080      	movs	r0, #128	; 0x80
    844a:	0240      	lsls	r0, r0, #9
    844c:	4684      	mov	ip, r0
    844e:	4465      	add	r5, ip
    8450:	9803      	ldr	r0, [sp, #12]
    8452:	043f      	lsls	r7, r7, #16
    8454:	4683      	mov	fp, r0
    8456:	9804      	ldr	r0, [sp, #16]
    8458:	0c3f      	lsrs	r7, r7, #16
    845a:	4684      	mov	ip, r0
    845c:	44e3      	add	fp, ip
    845e:	45c3      	cmp	fp, r8
    8460:	4180      	sbcs	r0, r0
    8462:	4240      	negs	r0, r0
    8464:	4682      	mov	sl, r0
    8466:	0410      	lsls	r0, r2, #16
    8468:	4684      	mov	ip, r0
    846a:	9801      	ldr	r0, [sp, #4]
    846c:	4467      	add	r7, ip
    846e:	4684      	mov	ip, r0
    8470:	4467      	add	r7, ip
    8472:	44a3      	add	fp, r4
    8474:	46bc      	mov	ip, r7
    8476:	45a3      	cmp	fp, r4
    8478:	41a4      	sbcs	r4, r4
    847a:	4699      	mov	r9, r3
    847c:	44d4      	add	ip, sl
    847e:	4264      	negs	r4, r4
    8480:	4287      	cmp	r7, r0
    8482:	41bf      	sbcs	r7, r7
    8484:	45d4      	cmp	ip, sl
    8486:	4180      	sbcs	r0, r0
    8488:	44e1      	add	r9, ip
    848a:	46a0      	mov	r8, r4
    848c:	4599      	cmp	r9, r3
    848e:	419b      	sbcs	r3, r3
    8490:	427f      	negs	r7, r7
    8492:	4240      	negs	r0, r0
    8494:	44c8      	add	r8, r9
    8496:	4307      	orrs	r7, r0
    8498:	0c12      	lsrs	r2, r2, #16
    849a:	18ba      	adds	r2, r7, r2
    849c:	45a0      	cmp	r8, r4
    849e:	41a4      	sbcs	r4, r4
    84a0:	425f      	negs	r7, r3
    84a2:	003b      	movs	r3, r7
    84a4:	4264      	negs	r4, r4
    84a6:	4323      	orrs	r3, r4
    84a8:	18d7      	adds	r7, r2, r3
    84aa:	4643      	mov	r3, r8
    84ac:	197d      	adds	r5, r7, r5
    84ae:	0ddb      	lsrs	r3, r3, #23
    84b0:	026d      	lsls	r5, r5, #9
    84b2:	431d      	orrs	r5, r3
    84b4:	465b      	mov	r3, fp
    84b6:	025a      	lsls	r2, r3, #9
    84b8:	9b05      	ldr	r3, [sp, #20]
    84ba:	431a      	orrs	r2, r3
    84bc:	1e53      	subs	r3, r2, #1
    84be:	419a      	sbcs	r2, r3
    84c0:	465b      	mov	r3, fp
    84c2:	0ddb      	lsrs	r3, r3, #23
    84c4:	431a      	orrs	r2, r3
    84c6:	4643      	mov	r3, r8
    84c8:	025b      	lsls	r3, r3, #9
    84ca:	4313      	orrs	r3, r2
    84cc:	01ea      	lsls	r2, r5, #7
    84ce:	d507      	bpl.n	84e0 <__aeabi_dmul+0x384>
    84d0:	2201      	movs	r2, #1
    84d2:	085c      	lsrs	r4, r3, #1
    84d4:	4013      	ands	r3, r2
    84d6:	4323      	orrs	r3, r4
    84d8:	07ea      	lsls	r2, r5, #31
    84da:	9e02      	ldr	r6, [sp, #8]
    84dc:	4313      	orrs	r3, r2
    84de:	086d      	lsrs	r5, r5, #1
    84e0:	4a57      	ldr	r2, [pc, #348]	; (8640 <__aeabi_dmul+0x4e4>)
    84e2:	18b2      	adds	r2, r6, r2
    84e4:	2a00      	cmp	r2, #0
    84e6:	dd4b      	ble.n	8580 <__aeabi_dmul+0x424>
    84e8:	0758      	lsls	r0, r3, #29
    84ea:	d009      	beq.n	8500 <__aeabi_dmul+0x3a4>
    84ec:	200f      	movs	r0, #15
    84ee:	4018      	ands	r0, r3
    84f0:	2804      	cmp	r0, #4
    84f2:	d005      	beq.n	8500 <__aeabi_dmul+0x3a4>
    84f4:	1d18      	adds	r0, r3, #4
    84f6:	4298      	cmp	r0, r3
    84f8:	419b      	sbcs	r3, r3
    84fa:	425b      	negs	r3, r3
    84fc:	18ed      	adds	r5, r5, r3
    84fe:	0003      	movs	r3, r0
    8500:	01e8      	lsls	r0, r5, #7
    8502:	d504      	bpl.n	850e <__aeabi_dmul+0x3b2>
    8504:	4a4f      	ldr	r2, [pc, #316]	; (8644 <__aeabi_dmul+0x4e8>)
    8506:	4015      	ands	r5, r2
    8508:	2280      	movs	r2, #128	; 0x80
    850a:	00d2      	lsls	r2, r2, #3
    850c:	18b2      	adds	r2, r6, r2
    850e:	484e      	ldr	r0, [pc, #312]	; (8648 <__aeabi_dmul+0x4ec>)
    8510:	4282      	cmp	r2, r0
    8512:	dd00      	ble.n	8516 <__aeabi_dmul+0x3ba>
    8514:	e6e7      	b.n	82e6 <__aeabi_dmul+0x18a>
    8516:	2401      	movs	r4, #1
    8518:	08db      	lsrs	r3, r3, #3
    851a:	0768      	lsls	r0, r5, #29
    851c:	4318      	orrs	r0, r3
    851e:	026d      	lsls	r5, r5, #9
    8520:	0553      	lsls	r3, r2, #21
    8522:	4680      	mov	r8, r0
    8524:	0b2d      	lsrs	r5, r5, #12
    8526:	0d5b      	lsrs	r3, r3, #21
    8528:	400c      	ands	r4, r1
    852a:	e67d      	b.n	8228 <__aeabi_dmul+0xcc>
    852c:	2280      	movs	r2, #128	; 0x80
    852e:	4659      	mov	r1, fp
    8530:	0312      	lsls	r2, r2, #12
    8532:	4211      	tst	r1, r2
    8534:	d008      	beq.n	8548 <__aeabi_dmul+0x3ec>
    8536:	4215      	tst	r5, r2
    8538:	d106      	bne.n	8548 <__aeabi_dmul+0x3ec>
    853a:	4315      	orrs	r5, r2
    853c:	032d      	lsls	r5, r5, #12
    853e:	4698      	mov	r8, r3
    8540:	0b2d      	lsrs	r5, r5, #12
    8542:	464c      	mov	r4, r9
    8544:	4b41      	ldr	r3, [pc, #260]	; (864c <__aeabi_dmul+0x4f0>)
    8546:	e66f      	b.n	8228 <__aeabi_dmul+0xcc>
    8548:	465d      	mov	r5, fp
    854a:	4315      	orrs	r5, r2
    854c:	032d      	lsls	r5, r5, #12
    854e:	0b2d      	lsrs	r5, r5, #12
    8550:	4b3e      	ldr	r3, [pc, #248]	; (864c <__aeabi_dmul+0x4f0>)
    8552:	e669      	b.n	8228 <__aeabi_dmul+0xcc>
    8554:	0003      	movs	r3, r0
    8556:	4655      	mov	r5, sl
    8558:	3b28      	subs	r3, #40	; 0x28
    855a:	409d      	lsls	r5, r3
    855c:	2300      	movs	r3, #0
    855e:	e6bc      	b.n	82da <__aeabi_dmul+0x17e>
    8560:	4650      	mov	r0, sl
    8562:	f000 fc9b 	bl	8e9c <__clzsi2>
    8566:	3020      	adds	r0, #32
    8568:	e6a8      	b.n	82bc <__aeabi_dmul+0x160>
    856a:	0003      	movs	r3, r0
    856c:	3b28      	subs	r3, #40	; 0x28
    856e:	409f      	lsls	r7, r3
    8570:	2300      	movs	r3, #0
    8572:	46bb      	mov	fp, r7
    8574:	4698      	mov	r8, r3
    8576:	e689      	b.n	828c <__aeabi_dmul+0x130>
    8578:	f000 fc90 	bl	8e9c <__clzsi2>
    857c:	3020      	adds	r0, #32
    857e:	e673      	b.n	8268 <__aeabi_dmul+0x10c>
    8580:	2401      	movs	r4, #1
    8582:	1aa6      	subs	r6, r4, r2
    8584:	2e38      	cmp	r6, #56	; 0x38
    8586:	dd07      	ble.n	8598 <__aeabi_dmul+0x43c>
    8588:	2200      	movs	r2, #0
    858a:	400c      	ands	r4, r1
    858c:	2300      	movs	r3, #0
    858e:	2500      	movs	r5, #0
    8590:	4690      	mov	r8, r2
    8592:	e649      	b.n	8228 <__aeabi_dmul+0xcc>
    8594:	9e02      	ldr	r6, [sp, #8]
    8596:	e7a3      	b.n	84e0 <__aeabi_dmul+0x384>
    8598:	2e1f      	cmp	r6, #31
    859a:	dc20      	bgt.n	85de <__aeabi_dmul+0x482>
    859c:	2220      	movs	r2, #32
    859e:	002c      	movs	r4, r5
    85a0:	0018      	movs	r0, r3
    85a2:	1b92      	subs	r2, r2, r6
    85a4:	40f0      	lsrs	r0, r6
    85a6:	4094      	lsls	r4, r2
    85a8:	4093      	lsls	r3, r2
    85aa:	4304      	orrs	r4, r0
    85ac:	1e58      	subs	r0, r3, #1
    85ae:	4183      	sbcs	r3, r0
    85b0:	431c      	orrs	r4, r3
    85b2:	40f5      	lsrs	r5, r6
    85b4:	0763      	lsls	r3, r4, #29
    85b6:	d009      	beq.n	85cc <__aeabi_dmul+0x470>
    85b8:	230f      	movs	r3, #15
    85ba:	4023      	ands	r3, r4
    85bc:	2b04      	cmp	r3, #4
    85be:	d005      	beq.n	85cc <__aeabi_dmul+0x470>
    85c0:	0023      	movs	r3, r4
    85c2:	1d1c      	adds	r4, r3, #4
    85c4:	429c      	cmp	r4, r3
    85c6:	4192      	sbcs	r2, r2
    85c8:	4252      	negs	r2, r2
    85ca:	18ad      	adds	r5, r5, r2
    85cc:	022b      	lsls	r3, r5, #8
    85ce:	d51f      	bpl.n	8610 <__aeabi_dmul+0x4b4>
    85d0:	2401      	movs	r4, #1
    85d2:	2200      	movs	r2, #0
    85d4:	400c      	ands	r4, r1
    85d6:	2301      	movs	r3, #1
    85d8:	2500      	movs	r5, #0
    85da:	4690      	mov	r8, r2
    85dc:	e624      	b.n	8228 <__aeabi_dmul+0xcc>
    85de:	201f      	movs	r0, #31
    85e0:	002c      	movs	r4, r5
    85e2:	4240      	negs	r0, r0
    85e4:	1a82      	subs	r2, r0, r2
    85e6:	40d4      	lsrs	r4, r2
    85e8:	2e20      	cmp	r6, #32
    85ea:	d01c      	beq.n	8626 <__aeabi_dmul+0x4ca>
    85ec:	2240      	movs	r2, #64	; 0x40
    85ee:	1b96      	subs	r6, r2, r6
    85f0:	40b5      	lsls	r5, r6
    85f2:	432b      	orrs	r3, r5
    85f4:	1e58      	subs	r0, r3, #1
    85f6:	4183      	sbcs	r3, r0
    85f8:	2007      	movs	r0, #7
    85fa:	4323      	orrs	r3, r4
    85fc:	4018      	ands	r0, r3
    85fe:	2500      	movs	r5, #0
    8600:	2800      	cmp	r0, #0
    8602:	d009      	beq.n	8618 <__aeabi_dmul+0x4bc>
    8604:	220f      	movs	r2, #15
    8606:	2500      	movs	r5, #0
    8608:	401a      	ands	r2, r3
    860a:	001c      	movs	r4, r3
    860c:	2a04      	cmp	r2, #4
    860e:	d1d8      	bne.n	85c2 <__aeabi_dmul+0x466>
    8610:	0023      	movs	r3, r4
    8612:	0768      	lsls	r0, r5, #29
    8614:	026d      	lsls	r5, r5, #9
    8616:	0b2d      	lsrs	r5, r5, #12
    8618:	2401      	movs	r4, #1
    861a:	08db      	lsrs	r3, r3, #3
    861c:	4303      	orrs	r3, r0
    861e:	4698      	mov	r8, r3
    8620:	400c      	ands	r4, r1
    8622:	2300      	movs	r3, #0
    8624:	e600      	b.n	8228 <__aeabi_dmul+0xcc>
    8626:	2500      	movs	r5, #0
    8628:	e7e3      	b.n	85f2 <__aeabi_dmul+0x496>
    862a:	2280      	movs	r2, #128	; 0x80
    862c:	2401      	movs	r4, #1
    862e:	0312      	lsls	r2, r2, #12
    8630:	4315      	orrs	r5, r2
    8632:	032d      	lsls	r5, r5, #12
    8634:	4698      	mov	r8, r3
    8636:	0b2d      	lsrs	r5, r5, #12
    8638:	400c      	ands	r4, r1
    863a:	4b04      	ldr	r3, [pc, #16]	; (864c <__aeabi_dmul+0x4f0>)
    863c:	e5f4      	b.n	8228 <__aeabi_dmul+0xcc>
    863e:	46c0      	nop			; (mov r8, r8)
    8640:	000003ff 	.word	0x000003ff
    8644:	feffffff 	.word	0xfeffffff
    8648:	000007fe 	.word	0x000007fe
    864c:	000007ff 	.word	0x000007ff

00008650 <__aeabi_dsub>:
    8650:	b5f0      	push	{r4, r5, r6, r7, lr}
    8652:	4657      	mov	r7, sl
    8654:	464e      	mov	r6, r9
    8656:	4645      	mov	r5, r8
    8658:	b4e0      	push	{r5, r6, r7}
    865a:	000e      	movs	r6, r1
    865c:	0011      	movs	r1, r2
    865e:	0ff2      	lsrs	r2, r6, #31
    8660:	4692      	mov	sl, r2
    8662:	00c5      	lsls	r5, r0, #3
    8664:	0f42      	lsrs	r2, r0, #29
    8666:	0318      	lsls	r0, r3, #12
    8668:	0337      	lsls	r7, r6, #12
    866a:	0074      	lsls	r4, r6, #1
    866c:	0a40      	lsrs	r0, r0, #9
    866e:	0f4e      	lsrs	r6, r1, #29
    8670:	0a7f      	lsrs	r7, r7, #9
    8672:	4330      	orrs	r0, r6
    8674:	4ecf      	ldr	r6, [pc, #828]	; (89b4 <__aeabi_dsub+0x364>)
    8676:	4317      	orrs	r7, r2
    8678:	005a      	lsls	r2, r3, #1
    867a:	0d64      	lsrs	r4, r4, #21
    867c:	0d52      	lsrs	r2, r2, #21
    867e:	0fdb      	lsrs	r3, r3, #31
    8680:	00c9      	lsls	r1, r1, #3
    8682:	42b2      	cmp	r2, r6
    8684:	d100      	bne.n	8688 <__aeabi_dsub+0x38>
    8686:	e0e5      	b.n	8854 <__aeabi_dsub+0x204>
    8688:	2601      	movs	r6, #1
    868a:	4073      	eors	r3, r6
    868c:	1aa6      	subs	r6, r4, r2
    868e:	46b4      	mov	ip, r6
    8690:	4553      	cmp	r3, sl
    8692:	d100      	bne.n	8696 <__aeabi_dsub+0x46>
    8694:	e0af      	b.n	87f6 <__aeabi_dsub+0x1a6>
    8696:	2e00      	cmp	r6, #0
    8698:	dc00      	bgt.n	869c <__aeabi_dsub+0x4c>
    869a:	e10d      	b.n	88b8 <__aeabi_dsub+0x268>
    869c:	2a00      	cmp	r2, #0
    869e:	d13a      	bne.n	8716 <__aeabi_dsub+0xc6>
    86a0:	0003      	movs	r3, r0
    86a2:	430b      	orrs	r3, r1
    86a4:	d000      	beq.n	86a8 <__aeabi_dsub+0x58>
    86a6:	e0e4      	b.n	8872 <__aeabi_dsub+0x222>
    86a8:	076b      	lsls	r3, r5, #29
    86aa:	d009      	beq.n	86c0 <__aeabi_dsub+0x70>
    86ac:	230f      	movs	r3, #15
    86ae:	402b      	ands	r3, r5
    86b0:	2b04      	cmp	r3, #4
    86b2:	d005      	beq.n	86c0 <__aeabi_dsub+0x70>
    86b4:	1d2b      	adds	r3, r5, #4
    86b6:	42ab      	cmp	r3, r5
    86b8:	41ad      	sbcs	r5, r5
    86ba:	426d      	negs	r5, r5
    86bc:	197f      	adds	r7, r7, r5
    86be:	001d      	movs	r5, r3
    86c0:	023b      	lsls	r3, r7, #8
    86c2:	d400      	bmi.n	86c6 <__aeabi_dsub+0x76>
    86c4:	e088      	b.n	87d8 <__aeabi_dsub+0x188>
    86c6:	4bbb      	ldr	r3, [pc, #748]	; (89b4 <__aeabi_dsub+0x364>)
    86c8:	3401      	adds	r4, #1
    86ca:	429c      	cmp	r4, r3
    86cc:	d100      	bne.n	86d0 <__aeabi_dsub+0x80>
    86ce:	e110      	b.n	88f2 <__aeabi_dsub+0x2a2>
    86d0:	003a      	movs	r2, r7
    86d2:	4bb9      	ldr	r3, [pc, #740]	; (89b8 <__aeabi_dsub+0x368>)
    86d4:	4651      	mov	r1, sl
    86d6:	401a      	ands	r2, r3
    86d8:	2301      	movs	r3, #1
    86da:	0750      	lsls	r0, r2, #29
    86dc:	08ed      	lsrs	r5, r5, #3
    86de:	0252      	lsls	r2, r2, #9
    86e0:	0564      	lsls	r4, r4, #21
    86e2:	4305      	orrs	r5, r0
    86e4:	0b12      	lsrs	r2, r2, #12
    86e6:	0d64      	lsrs	r4, r4, #21
    86e8:	400b      	ands	r3, r1
    86ea:	2100      	movs	r1, #0
    86ec:	0028      	movs	r0, r5
    86ee:	0312      	lsls	r2, r2, #12
    86f0:	0d0d      	lsrs	r5, r1, #20
    86f2:	0b12      	lsrs	r2, r2, #12
    86f4:	0564      	lsls	r4, r4, #21
    86f6:	052d      	lsls	r5, r5, #20
    86f8:	4315      	orrs	r5, r2
    86fa:	0862      	lsrs	r2, r4, #1
    86fc:	4caf      	ldr	r4, [pc, #700]	; (89bc <__aeabi_dsub+0x36c>)
    86fe:	07db      	lsls	r3, r3, #31
    8700:	402c      	ands	r4, r5
    8702:	4314      	orrs	r4, r2
    8704:	0064      	lsls	r4, r4, #1
    8706:	0864      	lsrs	r4, r4, #1
    8708:	431c      	orrs	r4, r3
    870a:	0021      	movs	r1, r4
    870c:	bc1c      	pop	{r2, r3, r4}
    870e:	4690      	mov	r8, r2
    8710:	4699      	mov	r9, r3
    8712:	46a2      	mov	sl, r4
    8714:	bdf0      	pop	{r4, r5, r6, r7, pc}
    8716:	4ba7      	ldr	r3, [pc, #668]	; (89b4 <__aeabi_dsub+0x364>)
    8718:	429c      	cmp	r4, r3
    871a:	d0c5      	beq.n	86a8 <__aeabi_dsub+0x58>
    871c:	2380      	movs	r3, #128	; 0x80
    871e:	041b      	lsls	r3, r3, #16
    8720:	4318      	orrs	r0, r3
    8722:	4663      	mov	r3, ip
    8724:	2b38      	cmp	r3, #56	; 0x38
    8726:	dd00      	ble.n	872a <__aeabi_dsub+0xda>
    8728:	e0fd      	b.n	8926 <__aeabi_dsub+0x2d6>
    872a:	2b1f      	cmp	r3, #31
    872c:	dd00      	ble.n	8730 <__aeabi_dsub+0xe0>
    872e:	e130      	b.n	8992 <__aeabi_dsub+0x342>
    8730:	4662      	mov	r2, ip
    8732:	2320      	movs	r3, #32
    8734:	1a9b      	subs	r3, r3, r2
    8736:	0002      	movs	r2, r0
    8738:	409a      	lsls	r2, r3
    873a:	4666      	mov	r6, ip
    873c:	4690      	mov	r8, r2
    873e:	000a      	movs	r2, r1
    8740:	4099      	lsls	r1, r3
    8742:	40f2      	lsrs	r2, r6
    8744:	4646      	mov	r6, r8
    8746:	1e4b      	subs	r3, r1, #1
    8748:	4199      	sbcs	r1, r3
    874a:	4332      	orrs	r2, r6
    874c:	4311      	orrs	r1, r2
    874e:	4663      	mov	r3, ip
    8750:	0002      	movs	r2, r0
    8752:	40da      	lsrs	r2, r3
    8754:	1a69      	subs	r1, r5, r1
    8756:	428d      	cmp	r5, r1
    8758:	419b      	sbcs	r3, r3
    875a:	000d      	movs	r5, r1
    875c:	1aba      	subs	r2, r7, r2
    875e:	425b      	negs	r3, r3
    8760:	1ad7      	subs	r7, r2, r3
    8762:	023b      	lsls	r3, r7, #8
    8764:	d535      	bpl.n	87d2 <__aeabi_dsub+0x182>
    8766:	027a      	lsls	r2, r7, #9
    8768:	0a53      	lsrs	r3, r2, #9
    876a:	4698      	mov	r8, r3
    876c:	4643      	mov	r3, r8
    876e:	2b00      	cmp	r3, #0
    8770:	d100      	bne.n	8774 <__aeabi_dsub+0x124>
    8772:	e0c4      	b.n	88fe <__aeabi_dsub+0x2ae>
    8774:	4640      	mov	r0, r8
    8776:	f000 fb91 	bl	8e9c <__clzsi2>
    877a:	0003      	movs	r3, r0
    877c:	3b08      	subs	r3, #8
    877e:	2b1f      	cmp	r3, #31
    8780:	dd00      	ble.n	8784 <__aeabi_dsub+0x134>
    8782:	e0c5      	b.n	8910 <__aeabi_dsub+0x2c0>
    8784:	2220      	movs	r2, #32
    8786:	0029      	movs	r1, r5
    8788:	1ad2      	subs	r2, r2, r3
    878a:	4647      	mov	r7, r8
    878c:	40d1      	lsrs	r1, r2
    878e:	409f      	lsls	r7, r3
    8790:	000a      	movs	r2, r1
    8792:	409d      	lsls	r5, r3
    8794:	433a      	orrs	r2, r7
    8796:	429c      	cmp	r4, r3
    8798:	dd00      	ble.n	879c <__aeabi_dsub+0x14c>
    879a:	e0c0      	b.n	891e <__aeabi_dsub+0x2ce>
    879c:	1b1c      	subs	r4, r3, r4
    879e:	1c63      	adds	r3, r4, #1
    87a0:	2b1f      	cmp	r3, #31
    87a2:	dd00      	ble.n	87a6 <__aeabi_dsub+0x156>
    87a4:	e0e4      	b.n	8970 <__aeabi_dsub+0x320>
    87a6:	2120      	movs	r1, #32
    87a8:	0014      	movs	r4, r2
    87aa:	0028      	movs	r0, r5
    87ac:	1ac9      	subs	r1, r1, r3
    87ae:	40d8      	lsrs	r0, r3
    87b0:	408c      	lsls	r4, r1
    87b2:	408d      	lsls	r5, r1
    87b4:	4304      	orrs	r4, r0
    87b6:	40da      	lsrs	r2, r3
    87b8:	1e68      	subs	r0, r5, #1
    87ba:	4185      	sbcs	r5, r0
    87bc:	0017      	movs	r7, r2
    87be:	4325      	orrs	r5, r4
    87c0:	2400      	movs	r4, #0
    87c2:	e771      	b.n	86a8 <__aeabi_dsub+0x58>
    87c4:	4642      	mov	r2, r8
    87c6:	4663      	mov	r3, ip
    87c8:	431a      	orrs	r2, r3
    87ca:	d100      	bne.n	87ce <__aeabi_dsub+0x17e>
    87cc:	e24c      	b.n	8c68 <__aeabi_dsub+0x618>
    87ce:	4667      	mov	r7, ip
    87d0:	4645      	mov	r5, r8
    87d2:	076b      	lsls	r3, r5, #29
    87d4:	d000      	beq.n	87d8 <__aeabi_dsub+0x188>
    87d6:	e769      	b.n	86ac <__aeabi_dsub+0x5c>
    87d8:	2301      	movs	r3, #1
    87da:	4651      	mov	r1, sl
    87dc:	0778      	lsls	r0, r7, #29
    87de:	08ed      	lsrs	r5, r5, #3
    87e0:	08fa      	lsrs	r2, r7, #3
    87e2:	400b      	ands	r3, r1
    87e4:	4305      	orrs	r5, r0
    87e6:	4973      	ldr	r1, [pc, #460]	; (89b4 <__aeabi_dsub+0x364>)
    87e8:	428c      	cmp	r4, r1
    87ea:	d038      	beq.n	885e <__aeabi_dsub+0x20e>
    87ec:	0312      	lsls	r2, r2, #12
    87ee:	0564      	lsls	r4, r4, #21
    87f0:	0b12      	lsrs	r2, r2, #12
    87f2:	0d64      	lsrs	r4, r4, #21
    87f4:	e779      	b.n	86ea <__aeabi_dsub+0x9a>
    87f6:	2e00      	cmp	r6, #0
    87f8:	dc00      	bgt.n	87fc <__aeabi_dsub+0x1ac>
    87fa:	e09a      	b.n	8932 <__aeabi_dsub+0x2e2>
    87fc:	2a00      	cmp	r2, #0
    87fe:	d047      	beq.n	8890 <__aeabi_dsub+0x240>
    8800:	4a6c      	ldr	r2, [pc, #432]	; (89b4 <__aeabi_dsub+0x364>)
    8802:	4294      	cmp	r4, r2
    8804:	d100      	bne.n	8808 <__aeabi_dsub+0x1b8>
    8806:	e74f      	b.n	86a8 <__aeabi_dsub+0x58>
    8808:	2280      	movs	r2, #128	; 0x80
    880a:	0412      	lsls	r2, r2, #16
    880c:	4310      	orrs	r0, r2
    880e:	4662      	mov	r2, ip
    8810:	2a38      	cmp	r2, #56	; 0x38
    8812:	dc00      	bgt.n	8816 <__aeabi_dsub+0x1c6>
    8814:	e108      	b.n	8a28 <__aeabi_dsub+0x3d8>
    8816:	4301      	orrs	r1, r0
    8818:	1e48      	subs	r0, r1, #1
    881a:	4181      	sbcs	r1, r0
    881c:	2200      	movs	r2, #0
    881e:	b2c9      	uxtb	r1, r1
    8820:	1949      	adds	r1, r1, r5
    8822:	19d2      	adds	r2, r2, r7
    8824:	42a9      	cmp	r1, r5
    8826:	41bf      	sbcs	r7, r7
    8828:	000d      	movs	r5, r1
    882a:	427f      	negs	r7, r7
    882c:	18bf      	adds	r7, r7, r2
    882e:	023a      	lsls	r2, r7, #8
    8830:	d400      	bmi.n	8834 <__aeabi_dsub+0x1e4>
    8832:	e142      	b.n	8aba <__aeabi_dsub+0x46a>
    8834:	4a5f      	ldr	r2, [pc, #380]	; (89b4 <__aeabi_dsub+0x364>)
    8836:	3401      	adds	r4, #1
    8838:	4294      	cmp	r4, r2
    883a:	d100      	bne.n	883e <__aeabi_dsub+0x1ee>
    883c:	e14e      	b.n	8adc <__aeabi_dsub+0x48c>
    883e:	2001      	movs	r0, #1
    8840:	4a5d      	ldr	r2, [pc, #372]	; (89b8 <__aeabi_dsub+0x368>)
    8842:	0869      	lsrs	r1, r5, #1
    8844:	403a      	ands	r2, r7
    8846:	4028      	ands	r0, r5
    8848:	4308      	orrs	r0, r1
    884a:	07d5      	lsls	r5, r2, #31
    884c:	4305      	orrs	r5, r0
    884e:	0857      	lsrs	r7, r2, #1
    8850:	469a      	mov	sl, r3
    8852:	e729      	b.n	86a8 <__aeabi_dsub+0x58>
    8854:	0006      	movs	r6, r0
    8856:	430e      	orrs	r6, r1
    8858:	d000      	beq.n	885c <__aeabi_dsub+0x20c>
    885a:	e717      	b.n	868c <__aeabi_dsub+0x3c>
    885c:	e714      	b.n	8688 <__aeabi_dsub+0x38>
    885e:	0029      	movs	r1, r5
    8860:	4311      	orrs	r1, r2
    8862:	d100      	bne.n	8866 <__aeabi_dsub+0x216>
    8864:	e1f9      	b.n	8c5a <__aeabi_dsub+0x60a>
    8866:	2180      	movs	r1, #128	; 0x80
    8868:	0309      	lsls	r1, r1, #12
    886a:	430a      	orrs	r2, r1
    886c:	0312      	lsls	r2, r2, #12
    886e:	0b12      	lsrs	r2, r2, #12
    8870:	e73b      	b.n	86ea <__aeabi_dsub+0x9a>
    8872:	2301      	movs	r3, #1
    8874:	425b      	negs	r3, r3
    8876:	4698      	mov	r8, r3
    8878:	44c4      	add	ip, r8
    887a:	4663      	mov	r3, ip
    887c:	2b00      	cmp	r3, #0
    887e:	d172      	bne.n	8966 <__aeabi_dsub+0x316>
    8880:	1a69      	subs	r1, r5, r1
    8882:	428d      	cmp	r5, r1
    8884:	419b      	sbcs	r3, r3
    8886:	1a3f      	subs	r7, r7, r0
    8888:	425b      	negs	r3, r3
    888a:	1aff      	subs	r7, r7, r3
    888c:	000d      	movs	r5, r1
    888e:	e768      	b.n	8762 <__aeabi_dsub+0x112>
    8890:	0002      	movs	r2, r0
    8892:	430a      	orrs	r2, r1
    8894:	d100      	bne.n	8898 <__aeabi_dsub+0x248>
    8896:	e707      	b.n	86a8 <__aeabi_dsub+0x58>
    8898:	2201      	movs	r2, #1
    889a:	4252      	negs	r2, r2
    889c:	4690      	mov	r8, r2
    889e:	44c4      	add	ip, r8
    88a0:	4662      	mov	r2, ip
    88a2:	2a00      	cmp	r2, #0
    88a4:	d000      	beq.n	88a8 <__aeabi_dsub+0x258>
    88a6:	e0e6      	b.n	8a76 <__aeabi_dsub+0x426>
    88a8:	1869      	adds	r1, r5, r1
    88aa:	42a9      	cmp	r1, r5
    88ac:	41b6      	sbcs	r6, r6
    88ae:	183f      	adds	r7, r7, r0
    88b0:	4276      	negs	r6, r6
    88b2:	19f7      	adds	r7, r6, r7
    88b4:	000d      	movs	r5, r1
    88b6:	e7ba      	b.n	882e <__aeabi_dsub+0x1de>
    88b8:	2e00      	cmp	r6, #0
    88ba:	d000      	beq.n	88be <__aeabi_dsub+0x26e>
    88bc:	e080      	b.n	89c0 <__aeabi_dsub+0x370>
    88be:	1c62      	adds	r2, r4, #1
    88c0:	0552      	lsls	r2, r2, #21
    88c2:	0d52      	lsrs	r2, r2, #21
    88c4:	2a01      	cmp	r2, #1
    88c6:	dc00      	bgt.n	88ca <__aeabi_dsub+0x27a>
    88c8:	e0f9      	b.n	8abe <__aeabi_dsub+0x46e>
    88ca:	1a6a      	subs	r2, r5, r1
    88cc:	4691      	mov	r9, r2
    88ce:	454d      	cmp	r5, r9
    88d0:	41b6      	sbcs	r6, r6
    88d2:	1a3a      	subs	r2, r7, r0
    88d4:	4276      	negs	r6, r6
    88d6:	1b92      	subs	r2, r2, r6
    88d8:	4690      	mov	r8, r2
    88da:	0212      	lsls	r2, r2, #8
    88dc:	d400      	bmi.n	88e0 <__aeabi_dsub+0x290>
    88de:	e099      	b.n	8a14 <__aeabi_dsub+0x3c4>
    88e0:	1b4d      	subs	r5, r1, r5
    88e2:	42a9      	cmp	r1, r5
    88e4:	4189      	sbcs	r1, r1
    88e6:	1bc7      	subs	r7, r0, r7
    88e8:	4249      	negs	r1, r1
    88ea:	1a7a      	subs	r2, r7, r1
    88ec:	4690      	mov	r8, r2
    88ee:	469a      	mov	sl, r3
    88f0:	e73c      	b.n	876c <__aeabi_dsub+0x11c>
    88f2:	4652      	mov	r2, sl
    88f4:	2301      	movs	r3, #1
    88f6:	2500      	movs	r5, #0
    88f8:	4013      	ands	r3, r2
    88fa:	2200      	movs	r2, #0
    88fc:	e6f5      	b.n	86ea <__aeabi_dsub+0x9a>
    88fe:	0028      	movs	r0, r5
    8900:	f000 facc 	bl	8e9c <__clzsi2>
    8904:	3020      	adds	r0, #32
    8906:	0003      	movs	r3, r0
    8908:	3b08      	subs	r3, #8
    890a:	2b1f      	cmp	r3, #31
    890c:	dc00      	bgt.n	8910 <__aeabi_dsub+0x2c0>
    890e:	e739      	b.n	8784 <__aeabi_dsub+0x134>
    8910:	002a      	movs	r2, r5
    8912:	3828      	subs	r0, #40	; 0x28
    8914:	4082      	lsls	r2, r0
    8916:	2500      	movs	r5, #0
    8918:	429c      	cmp	r4, r3
    891a:	dc00      	bgt.n	891e <__aeabi_dsub+0x2ce>
    891c:	e73e      	b.n	879c <__aeabi_dsub+0x14c>
    891e:	4f26      	ldr	r7, [pc, #152]	; (89b8 <__aeabi_dsub+0x368>)
    8920:	1ae4      	subs	r4, r4, r3
    8922:	4017      	ands	r7, r2
    8924:	e6c0      	b.n	86a8 <__aeabi_dsub+0x58>
    8926:	4301      	orrs	r1, r0
    8928:	1e48      	subs	r0, r1, #1
    892a:	4181      	sbcs	r1, r0
    892c:	2200      	movs	r2, #0
    892e:	b2c9      	uxtb	r1, r1
    8930:	e710      	b.n	8754 <__aeabi_dsub+0x104>
    8932:	2e00      	cmp	r6, #0
    8934:	d000      	beq.n	8938 <__aeabi_dsub+0x2e8>
    8936:	e0f1      	b.n	8b1c <__aeabi_dsub+0x4cc>
    8938:	1c62      	adds	r2, r4, #1
    893a:	4694      	mov	ip, r2
    893c:	0552      	lsls	r2, r2, #21
    893e:	0d52      	lsrs	r2, r2, #21
    8940:	2a01      	cmp	r2, #1
    8942:	dc00      	bgt.n	8946 <__aeabi_dsub+0x2f6>
    8944:	e0a0      	b.n	8a88 <__aeabi_dsub+0x438>
    8946:	4a1b      	ldr	r2, [pc, #108]	; (89b4 <__aeabi_dsub+0x364>)
    8948:	4594      	cmp	ip, r2
    894a:	d100      	bne.n	894e <__aeabi_dsub+0x2fe>
    894c:	e0c5      	b.n	8ada <__aeabi_dsub+0x48a>
    894e:	1869      	adds	r1, r5, r1
    8950:	42a9      	cmp	r1, r5
    8952:	4192      	sbcs	r2, r2
    8954:	183f      	adds	r7, r7, r0
    8956:	4252      	negs	r2, r2
    8958:	19d2      	adds	r2, r2, r7
    895a:	0849      	lsrs	r1, r1, #1
    895c:	07d5      	lsls	r5, r2, #31
    895e:	430d      	orrs	r5, r1
    8960:	0857      	lsrs	r7, r2, #1
    8962:	4664      	mov	r4, ip
    8964:	e6a0      	b.n	86a8 <__aeabi_dsub+0x58>
    8966:	4b13      	ldr	r3, [pc, #76]	; (89b4 <__aeabi_dsub+0x364>)
    8968:	429c      	cmp	r4, r3
    896a:	d000      	beq.n	896e <__aeabi_dsub+0x31e>
    896c:	e6d9      	b.n	8722 <__aeabi_dsub+0xd2>
    896e:	e69b      	b.n	86a8 <__aeabi_dsub+0x58>
    8970:	0011      	movs	r1, r2
    8972:	3c1f      	subs	r4, #31
    8974:	40e1      	lsrs	r1, r4
    8976:	000c      	movs	r4, r1
    8978:	2b20      	cmp	r3, #32
    897a:	d100      	bne.n	897e <__aeabi_dsub+0x32e>
    897c:	e080      	b.n	8a80 <__aeabi_dsub+0x430>
    897e:	2140      	movs	r1, #64	; 0x40
    8980:	1acb      	subs	r3, r1, r3
    8982:	409a      	lsls	r2, r3
    8984:	4315      	orrs	r5, r2
    8986:	1e6a      	subs	r2, r5, #1
    8988:	4195      	sbcs	r5, r2
    898a:	2700      	movs	r7, #0
    898c:	4325      	orrs	r5, r4
    898e:	2400      	movs	r4, #0
    8990:	e71f      	b.n	87d2 <__aeabi_dsub+0x182>
    8992:	4663      	mov	r3, ip
    8994:	0002      	movs	r2, r0
    8996:	3b20      	subs	r3, #32
    8998:	40da      	lsrs	r2, r3
    899a:	4663      	mov	r3, ip
    899c:	2b20      	cmp	r3, #32
    899e:	d071      	beq.n	8a84 <__aeabi_dsub+0x434>
    89a0:	2340      	movs	r3, #64	; 0x40
    89a2:	4666      	mov	r6, ip
    89a4:	1b9b      	subs	r3, r3, r6
    89a6:	4098      	lsls	r0, r3
    89a8:	4301      	orrs	r1, r0
    89aa:	1e48      	subs	r0, r1, #1
    89ac:	4181      	sbcs	r1, r0
    89ae:	4311      	orrs	r1, r2
    89b0:	2200      	movs	r2, #0
    89b2:	e6cf      	b.n	8754 <__aeabi_dsub+0x104>
    89b4:	000007ff 	.word	0x000007ff
    89b8:	ff7fffff 	.word	0xff7fffff
    89bc:	800fffff 	.word	0x800fffff
    89c0:	2c00      	cmp	r4, #0
    89c2:	d048      	beq.n	8a56 <__aeabi_dsub+0x406>
    89c4:	4cca      	ldr	r4, [pc, #808]	; (8cf0 <__aeabi_dsub+0x6a0>)
    89c6:	42a2      	cmp	r2, r4
    89c8:	d100      	bne.n	89cc <__aeabi_dsub+0x37c>
    89ca:	e0a2      	b.n	8b12 <__aeabi_dsub+0x4c2>
    89cc:	4274      	negs	r4, r6
    89ce:	46a1      	mov	r9, r4
    89d0:	2480      	movs	r4, #128	; 0x80
    89d2:	0424      	lsls	r4, r4, #16
    89d4:	4327      	orrs	r7, r4
    89d6:	464c      	mov	r4, r9
    89d8:	2c38      	cmp	r4, #56	; 0x38
    89da:	dd00      	ble.n	89de <__aeabi_dsub+0x38e>
    89dc:	e0db      	b.n	8b96 <__aeabi_dsub+0x546>
    89de:	2c1f      	cmp	r4, #31
    89e0:	dd00      	ble.n	89e4 <__aeabi_dsub+0x394>
    89e2:	e144      	b.n	8c6e <__aeabi_dsub+0x61e>
    89e4:	464e      	mov	r6, r9
    89e6:	2420      	movs	r4, #32
    89e8:	1ba4      	subs	r4, r4, r6
    89ea:	003e      	movs	r6, r7
    89ec:	40a6      	lsls	r6, r4
    89ee:	46a2      	mov	sl, r4
    89f0:	46b0      	mov	r8, r6
    89f2:	464c      	mov	r4, r9
    89f4:	002e      	movs	r6, r5
    89f6:	40e6      	lsrs	r6, r4
    89f8:	46b4      	mov	ip, r6
    89fa:	4646      	mov	r6, r8
    89fc:	4664      	mov	r4, ip
    89fe:	4326      	orrs	r6, r4
    8a00:	4654      	mov	r4, sl
    8a02:	40a5      	lsls	r5, r4
    8a04:	1e6c      	subs	r4, r5, #1
    8a06:	41a5      	sbcs	r5, r4
    8a08:	0034      	movs	r4, r6
    8a0a:	432c      	orrs	r4, r5
    8a0c:	464d      	mov	r5, r9
    8a0e:	40ef      	lsrs	r7, r5
    8a10:	1b0d      	subs	r5, r1, r4
    8a12:	e028      	b.n	8a66 <__aeabi_dsub+0x416>
    8a14:	464a      	mov	r2, r9
    8a16:	4643      	mov	r3, r8
    8a18:	464d      	mov	r5, r9
    8a1a:	431a      	orrs	r2, r3
    8a1c:	d000      	beq.n	8a20 <__aeabi_dsub+0x3d0>
    8a1e:	e6a5      	b.n	876c <__aeabi_dsub+0x11c>
    8a20:	2300      	movs	r3, #0
    8a22:	2400      	movs	r4, #0
    8a24:	2500      	movs	r5, #0
    8a26:	e6de      	b.n	87e6 <__aeabi_dsub+0x196>
    8a28:	2a1f      	cmp	r2, #31
    8a2a:	dc5a      	bgt.n	8ae2 <__aeabi_dsub+0x492>
    8a2c:	4666      	mov	r6, ip
    8a2e:	2220      	movs	r2, #32
    8a30:	1b92      	subs	r2, r2, r6
    8a32:	0006      	movs	r6, r0
    8a34:	4096      	lsls	r6, r2
    8a36:	4691      	mov	r9, r2
    8a38:	46b0      	mov	r8, r6
    8a3a:	4662      	mov	r2, ip
    8a3c:	000e      	movs	r6, r1
    8a3e:	40d6      	lsrs	r6, r2
    8a40:	4642      	mov	r2, r8
    8a42:	4316      	orrs	r6, r2
    8a44:	464a      	mov	r2, r9
    8a46:	4091      	lsls	r1, r2
    8a48:	1e4a      	subs	r2, r1, #1
    8a4a:	4191      	sbcs	r1, r2
    8a4c:	0002      	movs	r2, r0
    8a4e:	4660      	mov	r0, ip
    8a50:	4331      	orrs	r1, r6
    8a52:	40c2      	lsrs	r2, r0
    8a54:	e6e4      	b.n	8820 <__aeabi_dsub+0x1d0>
    8a56:	003c      	movs	r4, r7
    8a58:	432c      	orrs	r4, r5
    8a5a:	d05a      	beq.n	8b12 <__aeabi_dsub+0x4c2>
    8a5c:	43f4      	mvns	r4, r6
    8a5e:	46a1      	mov	r9, r4
    8a60:	2c00      	cmp	r4, #0
    8a62:	d152      	bne.n	8b0a <__aeabi_dsub+0x4ba>
    8a64:	1b4d      	subs	r5, r1, r5
    8a66:	42a9      	cmp	r1, r5
    8a68:	4189      	sbcs	r1, r1
    8a6a:	1bc7      	subs	r7, r0, r7
    8a6c:	4249      	negs	r1, r1
    8a6e:	1a7f      	subs	r7, r7, r1
    8a70:	0014      	movs	r4, r2
    8a72:	469a      	mov	sl, r3
    8a74:	e675      	b.n	8762 <__aeabi_dsub+0x112>
    8a76:	4a9e      	ldr	r2, [pc, #632]	; (8cf0 <__aeabi_dsub+0x6a0>)
    8a78:	4294      	cmp	r4, r2
    8a7a:	d000      	beq.n	8a7e <__aeabi_dsub+0x42e>
    8a7c:	e6c7      	b.n	880e <__aeabi_dsub+0x1be>
    8a7e:	e613      	b.n	86a8 <__aeabi_dsub+0x58>
    8a80:	2200      	movs	r2, #0
    8a82:	e77f      	b.n	8984 <__aeabi_dsub+0x334>
    8a84:	2000      	movs	r0, #0
    8a86:	e78f      	b.n	89a8 <__aeabi_dsub+0x358>
    8a88:	2c00      	cmp	r4, #0
    8a8a:	d000      	beq.n	8a8e <__aeabi_dsub+0x43e>
    8a8c:	e0c8      	b.n	8c20 <__aeabi_dsub+0x5d0>
    8a8e:	003b      	movs	r3, r7
    8a90:	432b      	orrs	r3, r5
    8a92:	d100      	bne.n	8a96 <__aeabi_dsub+0x446>
    8a94:	e10f      	b.n	8cb6 <__aeabi_dsub+0x666>
    8a96:	0003      	movs	r3, r0
    8a98:	430b      	orrs	r3, r1
    8a9a:	d100      	bne.n	8a9e <__aeabi_dsub+0x44e>
    8a9c:	e604      	b.n	86a8 <__aeabi_dsub+0x58>
    8a9e:	1869      	adds	r1, r5, r1
    8aa0:	42a9      	cmp	r1, r5
    8aa2:	419b      	sbcs	r3, r3
    8aa4:	183f      	adds	r7, r7, r0
    8aa6:	425b      	negs	r3, r3
    8aa8:	19df      	adds	r7, r3, r7
    8aaa:	023b      	lsls	r3, r7, #8
    8aac:	d400      	bmi.n	8ab0 <__aeabi_dsub+0x460>
    8aae:	e11a      	b.n	8ce6 <__aeabi_dsub+0x696>
    8ab0:	4b90      	ldr	r3, [pc, #576]	; (8cf4 <__aeabi_dsub+0x6a4>)
    8ab2:	000d      	movs	r5, r1
    8ab4:	401f      	ands	r7, r3
    8ab6:	4664      	mov	r4, ip
    8ab8:	e5f6      	b.n	86a8 <__aeabi_dsub+0x58>
    8aba:	469a      	mov	sl, r3
    8abc:	e689      	b.n	87d2 <__aeabi_dsub+0x182>
    8abe:	003a      	movs	r2, r7
    8ac0:	432a      	orrs	r2, r5
    8ac2:	2c00      	cmp	r4, #0
    8ac4:	d15c      	bne.n	8b80 <__aeabi_dsub+0x530>
    8ac6:	2a00      	cmp	r2, #0
    8ac8:	d175      	bne.n	8bb6 <__aeabi_dsub+0x566>
    8aca:	0002      	movs	r2, r0
    8acc:	430a      	orrs	r2, r1
    8ace:	d100      	bne.n	8ad2 <__aeabi_dsub+0x482>
    8ad0:	e0ca      	b.n	8c68 <__aeabi_dsub+0x618>
    8ad2:	0007      	movs	r7, r0
    8ad4:	000d      	movs	r5, r1
    8ad6:	469a      	mov	sl, r3
    8ad8:	e5e6      	b.n	86a8 <__aeabi_dsub+0x58>
    8ada:	4664      	mov	r4, ip
    8adc:	2200      	movs	r2, #0
    8ade:	2500      	movs	r5, #0
    8ae0:	e681      	b.n	87e6 <__aeabi_dsub+0x196>
    8ae2:	4662      	mov	r2, ip
    8ae4:	0006      	movs	r6, r0
    8ae6:	3a20      	subs	r2, #32
    8ae8:	40d6      	lsrs	r6, r2
    8aea:	4662      	mov	r2, ip
    8aec:	46b0      	mov	r8, r6
    8aee:	2a20      	cmp	r2, #32
    8af0:	d100      	bne.n	8af4 <__aeabi_dsub+0x4a4>
    8af2:	e0b7      	b.n	8c64 <__aeabi_dsub+0x614>
    8af4:	2240      	movs	r2, #64	; 0x40
    8af6:	4666      	mov	r6, ip
    8af8:	1b92      	subs	r2, r2, r6
    8afa:	4090      	lsls	r0, r2
    8afc:	4301      	orrs	r1, r0
    8afe:	4642      	mov	r2, r8
    8b00:	1e48      	subs	r0, r1, #1
    8b02:	4181      	sbcs	r1, r0
    8b04:	4311      	orrs	r1, r2
    8b06:	2200      	movs	r2, #0
    8b08:	e68a      	b.n	8820 <__aeabi_dsub+0x1d0>
    8b0a:	4c79      	ldr	r4, [pc, #484]	; (8cf0 <__aeabi_dsub+0x6a0>)
    8b0c:	42a2      	cmp	r2, r4
    8b0e:	d000      	beq.n	8b12 <__aeabi_dsub+0x4c2>
    8b10:	e761      	b.n	89d6 <__aeabi_dsub+0x386>
    8b12:	0007      	movs	r7, r0
    8b14:	000d      	movs	r5, r1
    8b16:	0014      	movs	r4, r2
    8b18:	469a      	mov	sl, r3
    8b1a:	e5c5      	b.n	86a8 <__aeabi_dsub+0x58>
    8b1c:	2c00      	cmp	r4, #0
    8b1e:	d141      	bne.n	8ba4 <__aeabi_dsub+0x554>
    8b20:	003c      	movs	r4, r7
    8b22:	432c      	orrs	r4, r5
    8b24:	d078      	beq.n	8c18 <__aeabi_dsub+0x5c8>
    8b26:	43f4      	mvns	r4, r6
    8b28:	46a1      	mov	r9, r4
    8b2a:	2c00      	cmp	r4, #0
    8b2c:	d020      	beq.n	8b70 <__aeabi_dsub+0x520>
    8b2e:	4c70      	ldr	r4, [pc, #448]	; (8cf0 <__aeabi_dsub+0x6a0>)
    8b30:	42a2      	cmp	r2, r4
    8b32:	d071      	beq.n	8c18 <__aeabi_dsub+0x5c8>
    8b34:	464c      	mov	r4, r9
    8b36:	2c38      	cmp	r4, #56	; 0x38
    8b38:	dd00      	ble.n	8b3c <__aeabi_dsub+0x4ec>
    8b3a:	e0b2      	b.n	8ca2 <__aeabi_dsub+0x652>
    8b3c:	2c1f      	cmp	r4, #31
    8b3e:	dd00      	ble.n	8b42 <__aeabi_dsub+0x4f2>
    8b40:	e0bc      	b.n	8cbc <__aeabi_dsub+0x66c>
    8b42:	2620      	movs	r6, #32
    8b44:	1b34      	subs	r4, r6, r4
    8b46:	46a2      	mov	sl, r4
    8b48:	003c      	movs	r4, r7
    8b4a:	4656      	mov	r6, sl
    8b4c:	40b4      	lsls	r4, r6
    8b4e:	464e      	mov	r6, r9
    8b50:	46a0      	mov	r8, r4
    8b52:	002c      	movs	r4, r5
    8b54:	40f4      	lsrs	r4, r6
    8b56:	46a4      	mov	ip, r4
    8b58:	4644      	mov	r4, r8
    8b5a:	4666      	mov	r6, ip
    8b5c:	4334      	orrs	r4, r6
    8b5e:	46a4      	mov	ip, r4
    8b60:	4654      	mov	r4, sl
    8b62:	40a5      	lsls	r5, r4
    8b64:	4664      	mov	r4, ip
    8b66:	1e6e      	subs	r6, r5, #1
    8b68:	41b5      	sbcs	r5, r6
    8b6a:	4325      	orrs	r5, r4
    8b6c:	464c      	mov	r4, r9
    8b6e:	40e7      	lsrs	r7, r4
    8b70:	186d      	adds	r5, r5, r1
    8b72:	428d      	cmp	r5, r1
    8b74:	4189      	sbcs	r1, r1
    8b76:	183f      	adds	r7, r7, r0
    8b78:	4249      	negs	r1, r1
    8b7a:	19cf      	adds	r7, r1, r7
    8b7c:	0014      	movs	r4, r2
    8b7e:	e656      	b.n	882e <__aeabi_dsub+0x1de>
    8b80:	2a00      	cmp	r2, #0
    8b82:	d12f      	bne.n	8be4 <__aeabi_dsub+0x594>
    8b84:	0002      	movs	r2, r0
    8b86:	430a      	orrs	r2, r1
    8b88:	d100      	bne.n	8b8c <__aeabi_dsub+0x53c>
    8b8a:	e084      	b.n	8c96 <__aeabi_dsub+0x646>
    8b8c:	0007      	movs	r7, r0
    8b8e:	000d      	movs	r5, r1
    8b90:	469a      	mov	sl, r3
    8b92:	4c57      	ldr	r4, [pc, #348]	; (8cf0 <__aeabi_dsub+0x6a0>)
    8b94:	e588      	b.n	86a8 <__aeabi_dsub+0x58>
    8b96:	433d      	orrs	r5, r7
    8b98:	1e6f      	subs	r7, r5, #1
    8b9a:	41bd      	sbcs	r5, r7
    8b9c:	b2ec      	uxtb	r4, r5
    8b9e:	2700      	movs	r7, #0
    8ba0:	1b0d      	subs	r5, r1, r4
    8ba2:	e760      	b.n	8a66 <__aeabi_dsub+0x416>
    8ba4:	4c52      	ldr	r4, [pc, #328]	; (8cf0 <__aeabi_dsub+0x6a0>)
    8ba6:	42a2      	cmp	r2, r4
    8ba8:	d036      	beq.n	8c18 <__aeabi_dsub+0x5c8>
    8baa:	4274      	negs	r4, r6
    8bac:	2680      	movs	r6, #128	; 0x80
    8bae:	0436      	lsls	r6, r6, #16
    8bb0:	46a1      	mov	r9, r4
    8bb2:	4337      	orrs	r7, r6
    8bb4:	e7be      	b.n	8b34 <__aeabi_dsub+0x4e4>
    8bb6:	0002      	movs	r2, r0
    8bb8:	430a      	orrs	r2, r1
    8bba:	d100      	bne.n	8bbe <__aeabi_dsub+0x56e>
    8bbc:	e574      	b.n	86a8 <__aeabi_dsub+0x58>
    8bbe:	1a6a      	subs	r2, r5, r1
    8bc0:	4690      	mov	r8, r2
    8bc2:	4545      	cmp	r5, r8
    8bc4:	41b6      	sbcs	r6, r6
    8bc6:	1a3a      	subs	r2, r7, r0
    8bc8:	4276      	negs	r6, r6
    8bca:	1b92      	subs	r2, r2, r6
    8bcc:	4694      	mov	ip, r2
    8bce:	0212      	lsls	r2, r2, #8
    8bd0:	d400      	bmi.n	8bd4 <__aeabi_dsub+0x584>
    8bd2:	e5f7      	b.n	87c4 <__aeabi_dsub+0x174>
    8bd4:	1b4d      	subs	r5, r1, r5
    8bd6:	42a9      	cmp	r1, r5
    8bd8:	4189      	sbcs	r1, r1
    8bda:	1bc7      	subs	r7, r0, r7
    8bdc:	4249      	negs	r1, r1
    8bde:	1a7f      	subs	r7, r7, r1
    8be0:	469a      	mov	sl, r3
    8be2:	e561      	b.n	86a8 <__aeabi_dsub+0x58>
    8be4:	0002      	movs	r2, r0
    8be6:	430a      	orrs	r2, r1
    8be8:	d03a      	beq.n	8c60 <__aeabi_dsub+0x610>
    8bea:	08ed      	lsrs	r5, r5, #3
    8bec:	077c      	lsls	r4, r7, #29
    8bee:	432c      	orrs	r4, r5
    8bf0:	2580      	movs	r5, #128	; 0x80
    8bf2:	08fa      	lsrs	r2, r7, #3
    8bf4:	032d      	lsls	r5, r5, #12
    8bf6:	422a      	tst	r2, r5
    8bf8:	d008      	beq.n	8c0c <__aeabi_dsub+0x5bc>
    8bfa:	08c7      	lsrs	r7, r0, #3
    8bfc:	422f      	tst	r7, r5
    8bfe:	d105      	bne.n	8c0c <__aeabi_dsub+0x5bc>
    8c00:	0745      	lsls	r5, r0, #29
    8c02:	002c      	movs	r4, r5
    8c04:	003a      	movs	r2, r7
    8c06:	469a      	mov	sl, r3
    8c08:	08c9      	lsrs	r1, r1, #3
    8c0a:	430c      	orrs	r4, r1
    8c0c:	0f67      	lsrs	r7, r4, #29
    8c0e:	00d2      	lsls	r2, r2, #3
    8c10:	00e5      	lsls	r5, r4, #3
    8c12:	4317      	orrs	r7, r2
    8c14:	4c36      	ldr	r4, [pc, #216]	; (8cf0 <__aeabi_dsub+0x6a0>)
    8c16:	e547      	b.n	86a8 <__aeabi_dsub+0x58>
    8c18:	0007      	movs	r7, r0
    8c1a:	000d      	movs	r5, r1
    8c1c:	0014      	movs	r4, r2
    8c1e:	e543      	b.n	86a8 <__aeabi_dsub+0x58>
    8c20:	003a      	movs	r2, r7
    8c22:	432a      	orrs	r2, r5
    8c24:	d043      	beq.n	8cae <__aeabi_dsub+0x65e>
    8c26:	0002      	movs	r2, r0
    8c28:	430a      	orrs	r2, r1
    8c2a:	d019      	beq.n	8c60 <__aeabi_dsub+0x610>
    8c2c:	08ed      	lsrs	r5, r5, #3
    8c2e:	077c      	lsls	r4, r7, #29
    8c30:	432c      	orrs	r4, r5
    8c32:	2580      	movs	r5, #128	; 0x80
    8c34:	08fa      	lsrs	r2, r7, #3
    8c36:	032d      	lsls	r5, r5, #12
    8c38:	422a      	tst	r2, r5
    8c3a:	d007      	beq.n	8c4c <__aeabi_dsub+0x5fc>
    8c3c:	08c6      	lsrs	r6, r0, #3
    8c3e:	422e      	tst	r6, r5
    8c40:	d104      	bne.n	8c4c <__aeabi_dsub+0x5fc>
    8c42:	0747      	lsls	r7, r0, #29
    8c44:	003c      	movs	r4, r7
    8c46:	0032      	movs	r2, r6
    8c48:	08c9      	lsrs	r1, r1, #3
    8c4a:	430c      	orrs	r4, r1
    8c4c:	00d7      	lsls	r7, r2, #3
    8c4e:	0f62      	lsrs	r2, r4, #29
    8c50:	00e5      	lsls	r5, r4, #3
    8c52:	4317      	orrs	r7, r2
    8c54:	469a      	mov	sl, r3
    8c56:	4c26      	ldr	r4, [pc, #152]	; (8cf0 <__aeabi_dsub+0x6a0>)
    8c58:	e526      	b.n	86a8 <__aeabi_dsub+0x58>
    8c5a:	2200      	movs	r2, #0
    8c5c:	2500      	movs	r5, #0
    8c5e:	e544      	b.n	86ea <__aeabi_dsub+0x9a>
    8c60:	4c23      	ldr	r4, [pc, #140]	; (8cf0 <__aeabi_dsub+0x6a0>)
    8c62:	e521      	b.n	86a8 <__aeabi_dsub+0x58>
    8c64:	2000      	movs	r0, #0
    8c66:	e749      	b.n	8afc <__aeabi_dsub+0x4ac>
    8c68:	2300      	movs	r3, #0
    8c6a:	2500      	movs	r5, #0
    8c6c:	e5bb      	b.n	87e6 <__aeabi_dsub+0x196>
    8c6e:	464c      	mov	r4, r9
    8c70:	003e      	movs	r6, r7
    8c72:	3c20      	subs	r4, #32
    8c74:	40e6      	lsrs	r6, r4
    8c76:	464c      	mov	r4, r9
    8c78:	46b4      	mov	ip, r6
    8c7a:	2c20      	cmp	r4, #32
    8c7c:	d031      	beq.n	8ce2 <__aeabi_dsub+0x692>
    8c7e:	2440      	movs	r4, #64	; 0x40
    8c80:	464e      	mov	r6, r9
    8c82:	1ba6      	subs	r6, r4, r6
    8c84:	40b7      	lsls	r7, r6
    8c86:	433d      	orrs	r5, r7
    8c88:	1e6c      	subs	r4, r5, #1
    8c8a:	41a5      	sbcs	r5, r4
    8c8c:	4664      	mov	r4, ip
    8c8e:	432c      	orrs	r4, r5
    8c90:	2700      	movs	r7, #0
    8c92:	1b0d      	subs	r5, r1, r4
    8c94:	e6e7      	b.n	8a66 <__aeabi_dsub+0x416>
    8c96:	2280      	movs	r2, #128	; 0x80
    8c98:	2300      	movs	r3, #0
    8c9a:	0312      	lsls	r2, r2, #12
    8c9c:	4c14      	ldr	r4, [pc, #80]	; (8cf0 <__aeabi_dsub+0x6a0>)
    8c9e:	2500      	movs	r5, #0
    8ca0:	e5a1      	b.n	87e6 <__aeabi_dsub+0x196>
    8ca2:	433d      	orrs	r5, r7
    8ca4:	1e6f      	subs	r7, r5, #1
    8ca6:	41bd      	sbcs	r5, r7
    8ca8:	2700      	movs	r7, #0
    8caa:	b2ed      	uxtb	r5, r5
    8cac:	e760      	b.n	8b70 <__aeabi_dsub+0x520>
    8cae:	0007      	movs	r7, r0
    8cb0:	000d      	movs	r5, r1
    8cb2:	4c0f      	ldr	r4, [pc, #60]	; (8cf0 <__aeabi_dsub+0x6a0>)
    8cb4:	e4f8      	b.n	86a8 <__aeabi_dsub+0x58>
    8cb6:	0007      	movs	r7, r0
    8cb8:	000d      	movs	r5, r1
    8cba:	e4f5      	b.n	86a8 <__aeabi_dsub+0x58>
    8cbc:	464e      	mov	r6, r9
    8cbe:	003c      	movs	r4, r7
    8cc0:	3e20      	subs	r6, #32
    8cc2:	40f4      	lsrs	r4, r6
    8cc4:	46a0      	mov	r8, r4
    8cc6:	464c      	mov	r4, r9
    8cc8:	2c20      	cmp	r4, #32
    8cca:	d00e      	beq.n	8cea <__aeabi_dsub+0x69a>
    8ccc:	2440      	movs	r4, #64	; 0x40
    8cce:	464e      	mov	r6, r9
    8cd0:	1ba4      	subs	r4, r4, r6
    8cd2:	40a7      	lsls	r7, r4
    8cd4:	433d      	orrs	r5, r7
    8cd6:	1e6f      	subs	r7, r5, #1
    8cd8:	41bd      	sbcs	r5, r7
    8cda:	4644      	mov	r4, r8
    8cdc:	2700      	movs	r7, #0
    8cde:	4325      	orrs	r5, r4
    8ce0:	e746      	b.n	8b70 <__aeabi_dsub+0x520>
    8ce2:	2700      	movs	r7, #0
    8ce4:	e7cf      	b.n	8c86 <__aeabi_dsub+0x636>
    8ce6:	000d      	movs	r5, r1
    8ce8:	e573      	b.n	87d2 <__aeabi_dsub+0x182>
    8cea:	2700      	movs	r7, #0
    8cec:	e7f2      	b.n	8cd4 <__aeabi_dsub+0x684>
    8cee:	46c0      	nop			; (mov r8, r8)
    8cf0:	000007ff 	.word	0x000007ff
    8cf4:	ff7fffff 	.word	0xff7fffff

00008cf8 <__aeabi_dcmpun>:
    8cf8:	b570      	push	{r4, r5, r6, lr}
    8cfa:	4e0e      	ldr	r6, [pc, #56]	; (8d34 <__aeabi_dcmpun+0x3c>)
    8cfc:	030c      	lsls	r4, r1, #12
    8cfe:	031d      	lsls	r5, r3, #12
    8d00:	0049      	lsls	r1, r1, #1
    8d02:	005b      	lsls	r3, r3, #1
    8d04:	0b24      	lsrs	r4, r4, #12
    8d06:	0d49      	lsrs	r1, r1, #21
    8d08:	0b2d      	lsrs	r5, r5, #12
    8d0a:	0d5b      	lsrs	r3, r3, #21
    8d0c:	42b1      	cmp	r1, r6
    8d0e:	d004      	beq.n	8d1a <__aeabi_dcmpun+0x22>
    8d10:	4908      	ldr	r1, [pc, #32]	; (8d34 <__aeabi_dcmpun+0x3c>)
    8d12:	2000      	movs	r0, #0
    8d14:	428b      	cmp	r3, r1
    8d16:	d008      	beq.n	8d2a <__aeabi_dcmpun+0x32>
    8d18:	bd70      	pop	{r4, r5, r6, pc}
    8d1a:	4304      	orrs	r4, r0
    8d1c:	2001      	movs	r0, #1
    8d1e:	2c00      	cmp	r4, #0
    8d20:	d1fa      	bne.n	8d18 <__aeabi_dcmpun+0x20>
    8d22:	4904      	ldr	r1, [pc, #16]	; (8d34 <__aeabi_dcmpun+0x3c>)
    8d24:	2000      	movs	r0, #0
    8d26:	428b      	cmp	r3, r1
    8d28:	d1f6      	bne.n	8d18 <__aeabi_dcmpun+0x20>
    8d2a:	4315      	orrs	r5, r2
    8d2c:	0028      	movs	r0, r5
    8d2e:	1e45      	subs	r5, r0, #1
    8d30:	41a8      	sbcs	r0, r5
    8d32:	e7f1      	b.n	8d18 <__aeabi_dcmpun+0x20>
    8d34:	000007ff 	.word	0x000007ff

00008d38 <__aeabi_d2iz>:
    8d38:	030b      	lsls	r3, r1, #12
    8d3a:	b530      	push	{r4, r5, lr}
    8d3c:	4d13      	ldr	r5, [pc, #76]	; (8d8c <__aeabi_d2iz+0x54>)
    8d3e:	0b1a      	lsrs	r2, r3, #12
    8d40:	004b      	lsls	r3, r1, #1
    8d42:	0d5b      	lsrs	r3, r3, #21
    8d44:	0fc9      	lsrs	r1, r1, #31
    8d46:	2400      	movs	r4, #0
    8d48:	42ab      	cmp	r3, r5
    8d4a:	dd11      	ble.n	8d70 <__aeabi_d2iz+0x38>
    8d4c:	4c10      	ldr	r4, [pc, #64]	; (8d90 <__aeabi_d2iz+0x58>)
    8d4e:	42a3      	cmp	r3, r4
    8d50:	dc10      	bgt.n	8d74 <__aeabi_d2iz+0x3c>
    8d52:	2480      	movs	r4, #128	; 0x80
    8d54:	0364      	lsls	r4, r4, #13
    8d56:	4322      	orrs	r2, r4
    8d58:	4c0e      	ldr	r4, [pc, #56]	; (8d94 <__aeabi_d2iz+0x5c>)
    8d5a:	1ae4      	subs	r4, r4, r3
    8d5c:	2c1f      	cmp	r4, #31
    8d5e:	dd0c      	ble.n	8d7a <__aeabi_d2iz+0x42>
    8d60:	480d      	ldr	r0, [pc, #52]	; (8d98 <__aeabi_d2iz+0x60>)
    8d62:	1ac3      	subs	r3, r0, r3
    8d64:	40da      	lsrs	r2, r3
    8d66:	0013      	movs	r3, r2
    8d68:	425c      	negs	r4, r3
    8d6a:	2900      	cmp	r1, #0
    8d6c:	d100      	bne.n	8d70 <__aeabi_d2iz+0x38>
    8d6e:	001c      	movs	r4, r3
    8d70:	0020      	movs	r0, r4
    8d72:	bd30      	pop	{r4, r5, pc}
    8d74:	4b09      	ldr	r3, [pc, #36]	; (8d9c <__aeabi_d2iz+0x64>)
    8d76:	18cc      	adds	r4, r1, r3
    8d78:	e7fa      	b.n	8d70 <__aeabi_d2iz+0x38>
    8d7a:	40e0      	lsrs	r0, r4
    8d7c:	4c08      	ldr	r4, [pc, #32]	; (8da0 <__aeabi_d2iz+0x68>)
    8d7e:	46a4      	mov	ip, r4
    8d80:	4463      	add	r3, ip
    8d82:	409a      	lsls	r2, r3
    8d84:	0013      	movs	r3, r2
    8d86:	4303      	orrs	r3, r0
    8d88:	e7ee      	b.n	8d68 <__aeabi_d2iz+0x30>
    8d8a:	46c0      	nop			; (mov r8, r8)
    8d8c:	000003fe 	.word	0x000003fe
    8d90:	0000041d 	.word	0x0000041d
    8d94:	00000433 	.word	0x00000433
    8d98:	00000413 	.word	0x00000413
    8d9c:	7fffffff 	.word	0x7fffffff
    8da0:	fffffbed 	.word	0xfffffbed

00008da4 <__aeabi_i2d>:
    8da4:	b570      	push	{r4, r5, r6, lr}
    8da6:	2800      	cmp	r0, #0
    8da8:	d030      	beq.n	8e0c <__aeabi_i2d+0x68>
    8daa:	17c3      	asrs	r3, r0, #31
    8dac:	18c4      	adds	r4, r0, r3
    8dae:	405c      	eors	r4, r3
    8db0:	0fc5      	lsrs	r5, r0, #31
    8db2:	0020      	movs	r0, r4
    8db4:	f000 f872 	bl	8e9c <__clzsi2>
    8db8:	4b17      	ldr	r3, [pc, #92]	; (8e18 <__aeabi_i2d+0x74>)
    8dba:	4a18      	ldr	r2, [pc, #96]	; (8e1c <__aeabi_i2d+0x78>)
    8dbc:	1a1b      	subs	r3, r3, r0
    8dbe:	1ad2      	subs	r2, r2, r3
    8dc0:	2a1f      	cmp	r2, #31
    8dc2:	dd18      	ble.n	8df6 <__aeabi_i2d+0x52>
    8dc4:	4a16      	ldr	r2, [pc, #88]	; (8e20 <__aeabi_i2d+0x7c>)
    8dc6:	1ad2      	subs	r2, r2, r3
    8dc8:	4094      	lsls	r4, r2
    8dca:	2200      	movs	r2, #0
    8dcc:	0324      	lsls	r4, r4, #12
    8dce:	055b      	lsls	r3, r3, #21
    8dd0:	0b24      	lsrs	r4, r4, #12
    8dd2:	0d5b      	lsrs	r3, r3, #21
    8dd4:	2100      	movs	r1, #0
    8dd6:	0010      	movs	r0, r2
    8dd8:	0324      	lsls	r4, r4, #12
    8dda:	0d0a      	lsrs	r2, r1, #20
    8ddc:	0512      	lsls	r2, r2, #20
    8dde:	0b24      	lsrs	r4, r4, #12
    8de0:	4314      	orrs	r4, r2
    8de2:	4a10      	ldr	r2, [pc, #64]	; (8e24 <__aeabi_i2d+0x80>)
    8de4:	051b      	lsls	r3, r3, #20
    8de6:	4014      	ands	r4, r2
    8de8:	431c      	orrs	r4, r3
    8dea:	0064      	lsls	r4, r4, #1
    8dec:	07ed      	lsls	r5, r5, #31
    8dee:	0864      	lsrs	r4, r4, #1
    8df0:	432c      	orrs	r4, r5
    8df2:	0021      	movs	r1, r4
    8df4:	bd70      	pop	{r4, r5, r6, pc}
    8df6:	0021      	movs	r1, r4
    8df8:	4091      	lsls	r1, r2
    8dfa:	000a      	movs	r2, r1
    8dfc:	210b      	movs	r1, #11
    8dfe:	1a08      	subs	r0, r1, r0
    8e00:	40c4      	lsrs	r4, r0
    8e02:	055b      	lsls	r3, r3, #21
    8e04:	0324      	lsls	r4, r4, #12
    8e06:	0b24      	lsrs	r4, r4, #12
    8e08:	0d5b      	lsrs	r3, r3, #21
    8e0a:	e7e3      	b.n	8dd4 <__aeabi_i2d+0x30>
    8e0c:	2500      	movs	r5, #0
    8e0e:	2300      	movs	r3, #0
    8e10:	2400      	movs	r4, #0
    8e12:	2200      	movs	r2, #0
    8e14:	e7de      	b.n	8dd4 <__aeabi_i2d+0x30>
    8e16:	46c0      	nop			; (mov r8, r8)
    8e18:	0000041e 	.word	0x0000041e
    8e1c:	00000433 	.word	0x00000433
    8e20:	00000413 	.word	0x00000413
    8e24:	800fffff 	.word	0x800fffff

00008e28 <__aeabi_ui2d>:
    8e28:	b570      	push	{r4, r5, r6, lr}
    8e2a:	1e05      	subs	r5, r0, #0
    8e2c:	d028      	beq.n	8e80 <__aeabi_ui2d+0x58>
    8e2e:	f000 f835 	bl	8e9c <__clzsi2>
    8e32:	4b15      	ldr	r3, [pc, #84]	; (8e88 <__aeabi_ui2d+0x60>)
    8e34:	4a15      	ldr	r2, [pc, #84]	; (8e8c <__aeabi_ui2d+0x64>)
    8e36:	1a1b      	subs	r3, r3, r0
    8e38:	1ad2      	subs	r2, r2, r3
    8e3a:	2a1f      	cmp	r2, #31
    8e3c:	dd16      	ble.n	8e6c <__aeabi_ui2d+0x44>
    8e3e:	002c      	movs	r4, r5
    8e40:	4a13      	ldr	r2, [pc, #76]	; (8e90 <__aeabi_ui2d+0x68>)
    8e42:	2500      	movs	r5, #0
    8e44:	1ad2      	subs	r2, r2, r3
    8e46:	4094      	lsls	r4, r2
    8e48:	055a      	lsls	r2, r3, #21
    8e4a:	0324      	lsls	r4, r4, #12
    8e4c:	0b24      	lsrs	r4, r4, #12
    8e4e:	0d52      	lsrs	r2, r2, #21
    8e50:	2100      	movs	r1, #0
    8e52:	0324      	lsls	r4, r4, #12
    8e54:	0d0b      	lsrs	r3, r1, #20
    8e56:	0b24      	lsrs	r4, r4, #12
    8e58:	051b      	lsls	r3, r3, #20
    8e5a:	4323      	orrs	r3, r4
    8e5c:	4c0d      	ldr	r4, [pc, #52]	; (8e94 <__aeabi_ui2d+0x6c>)
    8e5e:	0512      	lsls	r2, r2, #20
    8e60:	4023      	ands	r3, r4
    8e62:	4313      	orrs	r3, r2
    8e64:	005b      	lsls	r3, r3, #1
    8e66:	0028      	movs	r0, r5
    8e68:	0859      	lsrs	r1, r3, #1
    8e6a:	bd70      	pop	{r4, r5, r6, pc}
    8e6c:	210b      	movs	r1, #11
    8e6e:	002c      	movs	r4, r5
    8e70:	1a08      	subs	r0, r1, r0
    8e72:	40c4      	lsrs	r4, r0
    8e74:	4095      	lsls	r5, r2
    8e76:	0324      	lsls	r4, r4, #12
    8e78:	055a      	lsls	r2, r3, #21
    8e7a:	0b24      	lsrs	r4, r4, #12
    8e7c:	0d52      	lsrs	r2, r2, #21
    8e7e:	e7e7      	b.n	8e50 <__aeabi_ui2d+0x28>
    8e80:	2200      	movs	r2, #0
    8e82:	2400      	movs	r4, #0
    8e84:	e7e4      	b.n	8e50 <__aeabi_ui2d+0x28>
    8e86:	46c0      	nop			; (mov r8, r8)
    8e88:	0000041e 	.word	0x0000041e
    8e8c:	00000433 	.word	0x00000433
    8e90:	00000413 	.word	0x00000413
    8e94:	800fffff 	.word	0x800fffff

00008e98 <__aeabi_idiv0>:
    8e98:	4770      	bx	lr
    8e9a:	46c0      	nop			; (mov r8, r8)

00008e9c <__clzsi2>:
    8e9c:	211c      	movs	r1, #28
    8e9e:	2301      	movs	r3, #1
    8ea0:	041b      	lsls	r3, r3, #16
    8ea2:	4298      	cmp	r0, r3
    8ea4:	d301      	bcc.n	8eaa <__clzsi2+0xe>
    8ea6:	0c00      	lsrs	r0, r0, #16
    8ea8:	3910      	subs	r1, #16
    8eaa:	0a1b      	lsrs	r3, r3, #8
    8eac:	4298      	cmp	r0, r3
    8eae:	d301      	bcc.n	8eb4 <__clzsi2+0x18>
    8eb0:	0a00      	lsrs	r0, r0, #8
    8eb2:	3908      	subs	r1, #8
    8eb4:	091b      	lsrs	r3, r3, #4
    8eb6:	4298      	cmp	r0, r3
    8eb8:	d301      	bcc.n	8ebe <__clzsi2+0x22>
    8eba:	0900      	lsrs	r0, r0, #4
    8ebc:	3904      	subs	r1, #4
    8ebe:	a202      	add	r2, pc, #8	; (adr r2, 8ec8 <__clzsi2+0x2c>)
    8ec0:	5c10      	ldrb	r0, [r2, r0]
    8ec2:	1840      	adds	r0, r0, r1
    8ec4:	4770      	bx	lr
    8ec6:	46c0      	nop			; (mov r8, r8)
    8ec8:	02020304 	.word	0x02020304
    8ecc:	01010101 	.word	0x01010101
	...

00008ed8 <__clzdi2>:
    8ed8:	b510      	push	{r4, lr}
    8eda:	2900      	cmp	r1, #0
    8edc:	d103      	bne.n	8ee6 <__clzdi2+0xe>
    8ede:	f7ff ffdd 	bl	8e9c <__clzsi2>
    8ee2:	3020      	adds	r0, #32
    8ee4:	e002      	b.n	8eec <__clzdi2+0x14>
    8ee6:	1c08      	adds	r0, r1, #0
    8ee8:	f7ff ffd8 	bl	8e9c <__clzsi2>
    8eec:	bd10      	pop	{r4, pc}
    8eee:	46c0      	nop			; (mov r8, r8)
    8ef0:	20454c42 	.word	0x20454c42
    8ef4:	35367830 	.word	0x35367830
    8ef8:	4c42000d 	.word	0x4c42000d
    8efc:	6f632045 	.word	0x6f632045
    8f00:	63656e6e 	.word	0x63656e6e
    8f04:	42000d74 	.word	0x42000d74
    8f08:	6420454c 	.word	0x6420454c
    8f0c:	6f637369 	.word	0x6f637369
    8f10:	63656e6e 	.word	0x63656e6e
    8f14:	65000d74 	.word	0x65000d74
    8f18:	7265746e 	.word	0x7265746e
    8f1c:	65766520 	.word	0x65766520
    8f20:	5b20746e 	.word	0x5b20746e
    8f24:	0d5d6425 	.word	0x0d5d6425
    8f28:	000a      	.short	0x000a

00008f2a <__FUNCTION__.6325>:
    8f2a:	6c62 5f65 6572 6461 725f 7165 635f 0062     ble_read_req_cb.
    8f3a:	7325 003a 6168 6c64 7265 255b 5d78 0a0d     %s:.hadler[%x]..
	...

00008f4b <__FUNCTION__.6330>:
    8f4b:	6c62 5f65 6572 6461 635f 6e6f 5f6e 6170     ble_read_conn_pa
    8f5b:	6172 006d 3025 7832 0020 000d               ram.%02x ...

00008f67 <ucUuid>:
    8f67:	40b9 307f f8f5 6e46 f9af 5525 576b 6dfe     .@.0..Fn..%UkW.m

00008f77 <ucFlags>:
    8f77:	0102 2d06 2d2d 2d2d 2d2d 2d2d 2d2d 4249     ...-----------IB
    8f87:	4145 4f43 204e 7845 6d61 6c70 2d65 2d2d     EACON Example---
    8f97:	2d2d 2d2d 2d2d 2d2d 000d 2d2d 2d2d 2d2d     --------..------
    8fa7:	2d2d 2d2d 532d 6174 7472 4920 4542 4341     -----Start IBEAC
    8fb7:	4e4f 2d2d 2d2d 2d2d 2d2d 2d2d 0d2d 0000     ON-----------...
    8fc7:	4c00 004d 3400 0080 0000 0000 0000 0000     .LM..4..........
    8fd7:	0000 8000 8000 0000 0d00 0d0a 440a 6665     .............Def
    8fe7:	7561 746c 485f 6e61 6c64 7265 0a0d 000d     ault_Handler....
    8ff7:	0a00 0000 da00 001d 3e00 001e 3e00 001e     .........>...>..
    9007:	e800 001d 3e00 001e 3e00 001e 3e00 001e     .....>...>...>..
    9017:	3e00 001e 3e00 001e 3e00 001e 0400 0018     .>...>...>......
    9027:	f400 001d 3e00 001e 3200 0017 1800 0018     .....>...2......
    9037:	3e00 001e 6800 0018 7400 0018 7400 0018     .>...h...t...t..
    9047:	7400 0018 7400 0018 7400 0018 7400 0018     .t...t...t...t..
    9057:	7400 0018 7400 0018 7400 0018 3e00 001e     .t...t...t...>..
    9067:	3e00 001e 3e00 001e 3e00 001e 3e00 001e     .>...>...>...>..
    9077:	3e00 001e 3e00 001e 3e00 001e 3e00 001e     .>...>...>...>..
    9087:	3e00 001e 9c00 0018 5c00 0019 3e00 001e     .>.......\...>..
    9097:	5c00 0019 3e00 001e 3e00 001e 3e00 001e     .\...>...>...>..
    90a7:	3e00 001e f400 0019 3e00 001e 3e00 001e     .>.......>...>..
    90b7:	0000 001a 3e00 001e 3e00 001e 3e00 001e     .....>...>...>..
    90c7:	3e00 001e 3e00 001e 6a00 001b 3e00 001e     .>...>...j...>..
    90d7:	3e00 001e a400 001c 3e00 001e 3e00 001e     .>.......>...>..
    90e7:	3e00 001e 3e00 001e 3e00 001e 3e00 001e     .>...>...>...>..
    90f7:	3e00 001e 3e00 001e 3e00 001e 3e00 001e     .>...>...>...>..
    9107:	fc00 001d 4000 001c 5c00 0019 5c00 0019     .....@...\...\..
    9117:	5c00 0019 5000 001c 4000 001c 3e00 001e     .\...P...@...>..
    9127:	3e00 001e 5c00 001c 3e00 001e 7000 001c     .>...\...>...p..
    9137:	cc00 001b 3e00 0017 dc00 001b 3e00 001e     .....>.......>..
    9147:	e800 001b 3e00 001e 5c00 001d 3e00 001e     .....>...\...>..
    9157:	3e00 001e 6c00 001d 3000                         .>...l...

00009160 <zeroes.7271>:
    9160:	3030 3030 3030 3030 3030 3030 3030 3030     0000000000000000
    9170:	4e49 0046 6e69 0066 414e 004e 616e 006e     INF.inf.NAN.nan.
    9180:	3130 3332 3534 3736 3938 4241 4443 4645     0123456789ABCDEF
    9190:	0000 0000 3130 3332 3534 3736 3938 6261     ....0123456789ab
    91a0:	6463 6665 0000 0000 6e28 6c75 296c 0000     cdef....(null)..
    91b0:	0030 0000                                   0...

000091b4 <blanks.7270>:
    91b4:	2020 2020 2020 2020 2020 2020 2020 2020                     
    91c4:	6e49 6966 696e 7974 0000 0000 614e 004e     Infinity....NaN.

000091d4 <_global_impure_ptr>:
    91d4:	0918 1001                                   ....

000091d8 <__mprec_tens>:
    91d8:	0000 0000 0000 3ff0 0000 0000 0000 4024     .......?......$@
    91e8:	0000 0000 0000 4059 0000 0000 4000 408f     ......Y@.....@.@
    91f8:	0000 0000 8800 40c3 0000 0000 6a00 40f8     .......@.....j.@
    9208:	0000 0000 8480 412e 0000 0000 12d0 4163     .......A......cA
    9218:	0000 0000 d784 4197 0000 0000 cd65 41cd     .......A....e..A
    9228:	0000 2000 a05f 4202 0000 e800 4876 4237     ... _..B....vH7B
    9238:	0000 a200 1a94 426d 0000 e540 309c 42a2     ......mB..@..0.B
    9248:	0000 1e90 bcc4 42d6 0000 2634 6bf5 430c     .......B..4&.k.C
    9258:	8000 37e0 c379 4341 a000 85d8 3457 4376     ...7y.AC....W4vC
    9268:	c800 674e c16d 43ab 3d00 6091 58e4 43e1     ..Ngm..C.=.`.X.C
    9278:	8c40 78b5 af1d 4415 ef50 d6e2 1ae4 444b     @..x...DP.....KD
    9288:	d592 064d f0cf 4480 4af6 c7e1 2d02 44b5     ..M....D.J...-.D
    9298:	9db4 79d9 7843 44ea                         ...yCx.D

000092a0 <p05.6085>:
    92a0:	0005 0000 0019 0000 007d 0000 0000 0000     ........}.......

000092b0 <__mprec_bigtens>:
    92b0:	8000 37e0 c379 4341 6e17 b505 b8b5 4693     ...7y.AC.n.....F
    92c0:	f9f5 e93f 4f03 4d38 1d32 f930 7748 5a82     ..?..O8M2.0.Hw.Z
    92d0:	bf3c 7f73 4fdd 7515                         <.s..O.u

000092d8 <__mprec_tinytens>:
    92d8:	89bc 97d8 d2b2 3c9c a733 d5a8 f623 3949     .......<3...#.I9
    92e8:	a73d 44f4 0ffd 32a5 979d cf8c ba08 255b     =..D...2......[%
    92f8:	6f43 64ac 0628 0ac8 6312 0000 63d0 0000     Co.d(....c...c..
    9308:	63d0 0000 6320 0000 63d0 0000 63d0 0000     .c.. c...c...c..
    9318:	63d0 0000 63d0 0000 63d0 0000 63d0 0000     .c...c...c...c..
    9328:	6158 0000 6116 0000 63d0 0000 5cfc 0000     Xa...a...c...\..
    9338:	611e 0000 63d0 0000 5f86 0000 60f2 0000     .a...c..._...`..
    9348:	60f2 0000 60f2 0000 60f2 0000 60f2 0000     .`...`...`...`..
    9358:	60f2 0000 60f2 0000 60f2 0000 60f2 0000     .`...`...`...`..
    9368:	63d0 0000 63d0 0000 63d0 0000 63d0 0000     .c...c...c...c..
    9378:	63d0 0000 63d0 0000 63d0 0000 63d0 0000     .c...c...c...c..
    9388:	63d0 0000 63d0 0000 5f92 0000 63d0 0000     .c...c..._...c..
    9398:	63d0 0000 63d0 0000 63d0 0000 63d0 0000     .c...c...c...c..
    93a8:	63d0 0000 63d0 0000 63d0 0000 63d0 0000     .c...c...c...c..
    93b8:	63d0 0000 6036 0000 63d0 0000 63d0 0000     .c..6`...c...c..
    93c8:	63d0 0000 63d0 0000 63d0 0000 623c 0000     .c...c...c..<b..
    93d8:	63d0 0000 63d0 0000 6298 0000 63d0 0000     .c...c...b...c..
    93e8:	63d0 0000 63d0 0000 63d0 0000 63d0 0000     .c...c...c...c..
    93f8:	63d0 0000 63d0 0000 63d0 0000 63d0 0000     .c...c...c...c..
    9408:	63d0 0000 62ec 0000 63c4 0000 63d0 0000     .c...b...c...c..
    9418:	63d0 0000 63d0 0000 6382 0000 63c4 0000     .c...c...c...c..
    9428:	63d0 0000 63d0 0000 638e 0000 63d0 0000     .c...c...c...c..
    9438:	63a0 0000 616c 0000 5d08 0000 6232 0000     .c..la...]..2b..
    9448:	63d0 0000 6178 0000 63d0 0000 61b6 0000     .c..xa...c...a..
    9458:	63d0 0000 63d0 0000 632c 0000               .c...c..,c..

00009464 <zeroes.7250>:
    9464:	3030 3030 3030 3030 3030 3030 3030 3030     0000000000000000

00009474 <blanks.7249>:
    9474:	2020 2020 2020 2020 2020 2020 2020 2020                     
    9484:	0043 0000 4f50 4953 0058 0000 002e 0000     C...POSIX.......

00009494 <_ctype_>:
    9494:	2000 2020 2020 2020 2020 2828 2828 2028     .         ((((( 
    94a4:	2020 2020 2020 2020 2020 2020 2020 2020                     
    94b4:	8820 1010 1010 1010 1010 1010 1010 1010      ...............
    94c4:	0410 0404 0404 0404 0404 1004 1010 1010     ................
    94d4:	1010 4141 4141 4141 0101 0101 0101 0101     ..AAAAAA........
    94e4:	0101 0101 0101 0101 0101 0101 1010 1010     ................
    94f4:	1010 4242 4242 4242 0202 0202 0202 0202     ..BBBBBB........
    9504:	0202 0202 0202 0202 0202 0202 1010 1010     ................
    9514:	0020 0000 0000 0000 0000 0000 0000 0000      ...............
	...
    9598:	7b04 0000 79d2 0000 7ad8 0000 79c8 0000     .{...y...z...y..
    95a8:	7ad8 0000 7ae2 0000 7ad8 0000 79c8 0000     .z...z...z...y..
    95b8:	79d2 0000 79d2 0000 7ae2 0000 79c8 0000     .y...y...z...y..
    95c8:	79be 0000 79be 0000 79be 0000 7d34 0000     .y...y...y..4}..
    95d8:	834c 0000 820c 0000 820c 0000 820a 0000     L...............
    95e8:	8324 0000 8324 0000 8316 0000 820a 0000     $...$...........
    95f8:	8324 0000 8316 0000 8324 0000 820a 0000     $.......$.......
    9608:	832c 0000 832c 0000 832c 0000 852c 0000     ,...,...,...,...
