
output\a.out:     file format elf32-littlearm


Disassembly of section .text:

00000000 <__isr_vector>:
       0:	10014000 	.word	0x10014000
       4:	00000d69 	.word	0x00000d69
       8:	00000db1 	.word	0x00000db1
       c:	00000db1 	.word	0x00000db1
	...
      3c:	00000db1 	.word	0x00000db1
      40:	00000db1 	.word	0x00000db1
      44:	00000db1 	.word	0x00000db1
      48:	00000db1 	.word	0x00000db1
      4c:	00000db1 	.word	0x00000db1
      50:	00000db1 	.word	0x00000db1
      54:	00000db1 	.word	0x00000db1
      58:	00000db1 	.word	0x00000db1
      5c:	00000db1 	.word	0x00000db1
      60:	00000db1 	.word	0x00000db1
      64:	00000db1 	.word	0x00000db1
      68:	00000db1 	.word	0x00000db1
      6c:	00000db1 	.word	0x00000db1
      70:	00000db1 	.word	0x00000db1
      74:	00000db1 	.word	0x00000db1
      78:	00000db1 	.word	0x00000db1
      7c:	00000db1 	.word	0x00000db1
      80:	00000db1 	.word	0x00000db1
      84:	00000db1 	.word	0x00000db1
      88:	00000db1 	.word	0x00000db1
      8c:	00000db1 	.word	0x00000db1
      90:	00000db1 	.word	0x00000db1
      94:	00000db1 	.word	0x00000db1

00000098 <Bt_BleCallBack>:
      98:	4770      	bx	lr

0000009a <Event_call_back>:
{

}

void Event_call_back(uint8_t da)
{
      9a:	0001      	movs	r1, r0
      9c:	b510      	push	{r4, lr}
      9e:	480b      	ldr	r0, [pc, #44]	; (cc <Event_call_back+0x32>)
	switch(da){
      a0:	2915      	cmp	r1, #21
      a2:	d007      	beq.n	b4 <Event_call_back+0x1a>
      a4:	2965      	cmp	r1, #101	; 0x65
      a6:	d002      	beq.n	ae <Event_call_back+0x14>
      a8:	2914      	cmp	r1, #20
      aa:	d10a      	bne.n	c2 <Event_call_back+0x28>
		case 0x65:
			printf("BLE 0x65\r\n");
			break;
		case IPC_EVT_LE_CONNECTED:{
			printf("BLE connect\r\n");
      ac:	300a      	adds	r0, #10
      ae:	f001 fa5f 	bl	1570 <puts>
		}break;
      b2:	e009      	b.n	c8 <Event_call_back+0x2e>
			
		case IPC_EVT_LE_DISCONNECTED:{
			printf("BLE disconnect\r\n");
      b4:	3017      	adds	r0, #23
      b6:	f001 fa5b 	bl	1570 <puts>
			HWRITE(mem_le_adv_enable, 0x01);
      ba:	2201      	movs	r2, #1
      bc:	4b04      	ldr	r3, [pc, #16]	; (d0 <Event_call_back+0x36>)
      be:	701a      	strb	r2, [r3, #0]
      c0:	e002      	b.n	c8 <Event_call_back+0x2e>
		}break;
		default:
			printf("enter event [%d]\r\n", da);
      c2:	3027      	adds	r0, #39	; 0x27
      c4:	f001 fa0a 	bl	14dc <printf>
			break;
	}
}
      c8:	bd10      	pop	{r4, pc}
      ca:	46c0      	nop			; (mov r8, r8)
      cc:	00008ef0 	.word	0x00008ef0
      d0:	100043b1 	.word	0x100043b1

000000d4 <Mesh_Adv_Cb>:
void Mesh_Adv_Cb(uint8_t* sour, uint16_t len)
{

}
      d4:	4770      	bx	lr

000000d6 <ble_read_req_cb>:

void ble_read_req_cb(uint8_t* buf, uint16_t len)
{
      d6:	b570      	push	{r4, r5, r6, lr}
	printf("%s:", __FUNCTION__);
      d8:	4c06      	ldr	r4, [pc, #24]	; (f4 <ble_read_req_cb+0x1e>)
{

}

void ble_read_req_cb(uint8_t* buf, uint16_t len)
{
      da:	0005      	movs	r5, r0
	printf("%s:", __FUNCTION__);
      dc:	0021      	movs	r1, r4
      de:	0020      	movs	r0, r4
      e0:	313a      	adds	r1, #58	; 0x3a
      e2:	304a      	adds	r0, #74	; 0x4a
      e4:	f001 f9fa 	bl	14dc <printf>
	printf("hadler[%x]\r\n", (uint16_t)*buf);
      e8:	0020      	movs	r0, r4
      ea:	7829      	ldrb	r1, [r5, #0]
      ec:	304e      	adds	r0, #78	; 0x4e
      ee:	f001 f9f5 	bl	14dc <printf>
}
      f2:	bd70      	pop	{r4, r5, r6, pc}
      f4:	00008ef0 	.word	0x00008ef0

000000f8 <ble_read_conn_param>:

void ble_read_conn_param(uint8_t* buf, uint16_t len)
{
      f8:	b5f8      	push	{r3, r4, r5, r6, r7, lr}
	printf("%s:", __FUNCTION__);
      fa:	4c0c      	ldr	r4, [pc, #48]	; (12c <ble_read_conn_param+0x34>)
	printf("%s:", __FUNCTION__);
	printf("hadler[%x]\r\n", (uint16_t)*buf);
}

void ble_read_conn_param(uint8_t* buf, uint16_t len)
{
      fc:	0006      	movs	r6, r0
      fe:	000f      	movs	r7, r1
	printf("%s:", __FUNCTION__);
     100:	0020      	movs	r0, r4
     102:	0021      	movs	r1, r4
     104:	304a      	adds	r0, #74	; 0x4a
     106:	315b      	adds	r1, #91	; 0x5b
     108:	f001 f9e8 	bl	14dc <printf>
	for(int i = 0; i < len; ++i){
     10c:	0035      	movs	r5, r6
     10e:	1bab      	subs	r3, r5, r6
     110:	429f      	cmp	r7, r3
     112:	dd06      	ble.n	122 <ble_read_conn_param+0x2a>
		printf("%02x ", buf[i]);
     114:	0020      	movs	r0, r4
     116:	7829      	ldrb	r1, [r5, #0]
     118:	306f      	adds	r0, #111	; 0x6f
     11a:	f001 f9df 	bl	14dc <printf>
     11e:	3501      	adds	r5, #1
     120:	e7f5      	b.n	10e <ble_read_conn_param+0x16>
	}
	printf("\r\n");
     122:	0020      	movs	r0, r4
     124:	3075      	adds	r0, #117	; 0x75
     126:	f001 fa23 	bl	1570 <puts>
}
     12a:	bdf8      	pop	{r3, r4, r5, r6, r7, pc}
     12c:	00008ef0 	.word	0x00008ef0

00000130 <main>:
const uint8_t ucUuid[] = {0xB9 ,0x40, 0x7F, 0x30, 0xF5, 0xF8, 0x46, 0x6E, 0xAF, 0xF9, 0x25, 0x55, 0x6B, 0x57, 0xFE, 0x6D};
const uint8_t ucFlags[] = {0x02, 0x01, 0x06};
void main()
{	
     130:	b5f0      	push	{r4, r5, r6, r7, lr}
		
	UART_RemapToPrintf(UARTB, GPIO_UART_TX, GPIO_UART_RX);
     132:	221c      	movs	r2, #28
	printf("\r\n");
}
const uint8_t ucUuid[] = {0xB9 ,0x40, 0x7F, 0x30, 0xF5, 0xF8, 0x46, 0x6E, 0xAF, 0xF9, 0x25, 0x55, 0x6B, 0x57, 0xFE, 0x6D};
const uint8_t ucFlags[] = {0x02, 0x01, 0x06};
void main()
{	
     134:	b08b      	sub	sp, #44	; 0x2c
		
	UART_RemapToPrintf(UARTB, GPIO_UART_TX, GPIO_UART_RX);
     136:	211b      	movs	r1, #27
     138:	2001      	movs	r0, #1
     13a:	f000 fd1d 	bl	b78 <UART_RemapToPrintf>
	printf("-----------IBEACON Example-----------\r\n");
     13e:	4e31      	ldr	r6, [pc, #196]	; (204 <main+0xd4>)

	//tBTADDR _ucAddr = {0xFF, 0x01, 0x02, 0x03, 0x04, 0x05};
	//BLE_SetMacAddr(_ucAddr);
#if 1

	HWRITE(mem_tx_power,0x02);
     140:	2702      	movs	r7, #2
const uint8_t ucFlags[] = {0x02, 0x01, 0x06};
void main()
{	
		
	UART_RemapToPrintf(UARTB, GPIO_UART_TX, GPIO_UART_RX);
	printf("-----------IBEACON Example-----------\r\n");
     142:	0030      	movs	r0, r6
     144:	300a      	adds	r0, #10
     146:	f001 fa13 	bl	1570 <puts>

	//tBTADDR _ucAddr = {0xFF, 0x01, 0x02, 0x03, 0x04, 0x05};
	//BLE_SetMacAddr(_ucAddr);
#if 1

	HWRITE(mem_tx_power,0x02);
     14a:	4b2f      	ldr	r3, [pc, #188]	; (208 <main+0xd8>)
	
	tIPCControlBlock cb;
	memset(&cb, 0, sizeof(tIPCControlBlock));
     14c:	2228      	movs	r2, #40	; 0x28

	//tBTADDR _ucAddr = {0xFF, 0x01, 0x02, 0x03, 0x04, 0x05};
	//BLE_SetMacAddr(_ucAddr);
#if 1

	HWRITE(mem_tx_power,0x02);
     14e:	701f      	strb	r7, [r3, #0]
	
	tIPCControlBlock cb;
	memset(&cb, 0, sizeof(tIPCControlBlock));
     150:	2100      	movs	r1, #0
     152:	4668      	mov	r0, sp
     154:	f001 f96a 	bl	142c <memset>
	cb.blecb = Bt_BleCallBack;
     158:	4b2c      	ldr	r3, [pc, #176]	; (20c <main+0xdc>)
	cb.readconnparamcb = ble_read_conn_param;
	
	IPC_Initialize(&cb);	//Register callback function.

	/*ADV Parameter init*/
	HWRITE(mem_le_adv_type, ADV_TYPE_NOMAL);
     15a:	2500      	movs	r5, #0

	HWRITE(mem_tx_power,0x02);
	
	tIPCControlBlock cb;
	memset(&cb, 0, sizeof(tIPCControlBlock));
	cb.blecb = Bt_BleCallBack;
     15c:	9304      	str	r3, [sp, #16]
	cb.evtcb = Event_call_back;
     15e:	4b2c      	ldr	r3, [pc, #176]	; (210 <main+0xe0>)
	cb.advcb = Mesh_Adv_Cb;
	//cb.readreqcb = ble_read_req_cb;
	cb.readconnparamcb = ble_read_conn_param;
	
	IPC_Initialize(&cb);	//Register callback function.
     160:	4668      	mov	r0, sp
	HWRITE(mem_tx_power,0x02);
	
	tIPCControlBlock cb;
	memset(&cb, 0, sizeof(tIPCControlBlock));
	cb.blecb = Bt_BleCallBack;
	cb.evtcb = Event_call_back;
     162:	9300      	str	r3, [sp, #0]
	cb.advcb = Mesh_Adv_Cb;
     164:	4b2b      	ldr	r3, [pc, #172]	; (214 <main+0xe4>)
     166:	9305      	str	r3, [sp, #20]
	//cb.readreqcb = ble_read_req_cb;
	cb.readconnparamcb = ble_read_conn_param;
     168:	4b2b      	ldr	r3, [pc, #172]	; (218 <main+0xe8>)
     16a:	9309      	str	r3, [sp, #36]	; 0x24
	
	IPC_Initialize(&cb);	//Register callback function.
     16c:	f000 f886 	bl	27c <IPC_Initialize>
#define OS_EXIT_CRITICAL() __enable_irq() 


static inline void HW_REG_16BIT(uint32_t reg, uint16_t word)
{
    HW_REG_8BIT(reg, word & 0x00FF);
     170:	2240      	movs	r2, #64	; 0x40

	/*ADV Parameter init*/
	HWRITE(mem_le_adv_type, ADV_TYPE_NOMAL);
     172:	4b2a      	ldr	r3, [pc, #168]	; (21c <main+0xec>)
     174:	701d      	strb	r5, [r3, #0]
     176:	4b2a      	ldr	r3, [pc, #168]	; (220 <main+0xf0>)
     178:	701a      	strb	r2, [r3, #0]

#define BW(addr)			(int)*(addr) << 24 | (int)*(addr + 1) << 16 | (int)*(addr + 2) << 8 | *(addr + 3)

static inline void hw_delay() 
{
	__asm__ __volatile__("nop");
     17a:	46c0      	nop			; (mov r8, r8)
	__asm__ __volatile__("nop");
     17c:	46c0      	nop			; (mov r8, r8)
	__asm__ __volatile__("nop");
     17e:	46c0      	nop			; (mov r8, r8)
	__asm__ __volatile__("nop");
     180:	46c0      	nop			; (mov r8, r8)
	__asm__ __volatile__("nop");
     182:	46c0      	nop			; (mov r8, r8)
	HW_REG_16BIT(reg_map(mem_le_adv_interval_max), 1600);	//itl : 1s; unit: 0.625ms
	
	/*Set IBEACON Information*/
	static ibeacon_t stIBeacon;
	memcpy(stIBeacon.sucFlag, ucFlags, sizeof(ucFlags));
     184:	4c27      	ldr	r4, [pc, #156]	; (224 <main+0xf4>)
    hw_delay();
    HW_REG_8BIT(reg + 1,(word >> 8));
     186:	4b28      	ldr	r3, [pc, #160]	; (228 <main+0xf8>)
     188:	3a3a      	subs	r2, #58	; 0x3a
     18a:	701a      	strb	r2, [r3, #0]
     18c:	1df1      	adds	r1, r6, #7
     18e:	3a03      	subs	r2, #3
     190:	0020      	movs	r0, r4
     192:	f001 f90d 	bl	13b0 <memcpy>
	stIBeacon.sucLength = 0x1A;
     196:	231a      	movs	r3, #26
	stIBeacon.sucType = 0xff;
	stIBeacon.susCpyId = 0x004c;
     198:	224c      	movs	r2, #76	; 0x4c
	HW_REG_16BIT(reg_map(mem_le_adv_interval_max), 1600);	//itl : 1s; unit: 0.625ms
	
	/*Set IBEACON Information*/
	static ibeacon_t stIBeacon;
	memcpy(stIBeacon.sucFlag, ucFlags, sizeof(ucFlags));
	stIBeacon.sucLength = 0x1A;
     19a:	70e3      	strb	r3, [r4, #3]
	stIBeacon.sucType = 0xff;
	stIBeacon.susCpyId = 0x004c;
	stIBeacon.susBcnType = 0x1502;
	memcpy(stIBeacon.sucUuid, ucUuid, sizeof(ucUuid));
     19c:	0020      	movs	r0, r4
	
	/*Set IBEACON Information*/
	static ibeacon_t stIBeacon;
	memcpy(stIBeacon.sucFlag, ucFlags, sizeof(ucFlags));
	stIBeacon.sucLength = 0x1A;
	stIBeacon.sucType = 0xff;
     19e:	33e5      	adds	r3, #229	; 0xe5
     1a0:	7123      	strb	r3, [r4, #4]
	stIBeacon.susCpyId = 0x004c;
	stIBeacon.susBcnType = 0x1502;
     1a2:	2315      	movs	r3, #21
	memcpy(stIBeacon.sucUuid, ucUuid, sizeof(ucUuid));
     1a4:	4921      	ldr	r1, [pc, #132]	; (22c <main+0xfc>)
	/*Set IBEACON Information*/
	static ibeacon_t stIBeacon;
	memcpy(stIBeacon.sucFlag, ucFlags, sizeof(ucFlags));
	stIBeacon.sucLength = 0x1A;
	stIBeacon.sucType = 0xff;
	stIBeacon.susCpyId = 0x004c;
     1a6:	7162      	strb	r2, [r4, #5]
	stIBeacon.susBcnType = 0x1502;
	memcpy(stIBeacon.sucUuid, ucUuid, sizeof(ucUuid));
     1a8:	3177      	adds	r1, #119	; 0x77
     1aa:	3a3c      	subs	r2, #60	; 0x3c
     1ac:	3009      	adds	r0, #9
	static ibeacon_t stIBeacon;
	memcpy(stIBeacon.sucFlag, ucFlags, sizeof(ucFlags));
	stIBeacon.sucLength = 0x1A;
	stIBeacon.sucType = 0xff;
	stIBeacon.susCpyId = 0x004c;
	stIBeacon.susBcnType = 0x1502;
     1ae:	71e7      	strb	r7, [r4, #7]
     1b0:	7223      	strb	r3, [r4, #8]
	/*Set IBEACON Information*/
	static ibeacon_t stIBeacon;
	memcpy(stIBeacon.sucFlag, ucFlags, sizeof(ucFlags));
	stIBeacon.sucLength = 0x1A;
	stIBeacon.sucType = 0xff;
	stIBeacon.susCpyId = 0x004c;
     1b2:	71a5      	strb	r5, [r4, #6]
	stIBeacon.susBcnType = 0x1502;
	memcpy(stIBeacon.sucUuid, ucUuid, sizeof(ucUuid));
     1b4:	f001 f8fc 	bl	13b0 <memcpy>
	stIBeacon.susMajor = 0x0101;
     1b8:	2301      	movs	r3, #1
	stIBeacon.susMinor = 0x0202;
     1ba:	76e7      	strb	r7, [r4, #27]
     1bc:	7727      	strb	r7, [r4, #28]
	stIBeacon.sucMPower = 0xc5;
	
	memcpy((unsigned char*)reg_map(mem_le_adv_data),&stIBeacon,sizeof(stIBeacon));
     1be:	371c      	adds	r7, #28
	stIBeacon.sucLength = 0x1A;
	stIBeacon.sucType = 0xff;
	stIBeacon.susCpyId = 0x004c;
	stIBeacon.susBcnType = 0x1502;
	memcpy(stIBeacon.sucUuid, ucUuid, sizeof(ucUuid));
	stIBeacon.susMajor = 0x0101;
     1c0:	7663      	strb	r3, [r4, #25]
     1c2:	76a3      	strb	r3, [r4, #26]
	stIBeacon.susMinor = 0x0202;
	stIBeacon.sucMPower = 0xc5;
	
	memcpy((unsigned char*)reg_map(mem_le_adv_data),&stIBeacon,sizeof(stIBeacon));
     1c4:	003a      	movs	r2, r7
	stIBeacon.susCpyId = 0x004c;
	stIBeacon.susBcnType = 0x1502;
	memcpy(stIBeacon.sucUuid, ucUuid, sizeof(ucUuid));
	stIBeacon.susMajor = 0x0101;
	stIBeacon.susMinor = 0x0202;
	stIBeacon.sucMPower = 0xc5;
     1c6:	33c4      	adds	r3, #196	; 0xc4
	
	memcpy((unsigned char*)reg_map(mem_le_adv_data),&stIBeacon,sizeof(stIBeacon));
     1c8:	0021      	movs	r1, r4
     1ca:	4819      	ldr	r0, [pc, #100]	; (230 <main+0x100>)
	stIBeacon.susCpyId = 0x004c;
	stIBeacon.susBcnType = 0x1502;
	memcpy(stIBeacon.sucUuid, ucUuid, sizeof(ucUuid));
	stIBeacon.susMajor = 0x0101;
	stIBeacon.susMinor = 0x0202;
	stIBeacon.sucMPower = 0xc5;
     1cc:	7763      	strb	r3, [r4, #29]
	
	memcpy((unsigned char*)reg_map(mem_le_adv_data),&stIBeacon,sizeof(stIBeacon));
     1ce:	f001 f8ef 	bl	13b0 <memcpy>
	HWRITE(mem_le_adv_data_len,sizeof(stIBeacon));
     1d2:	4b18      	ldr	r3, [pc, #96]	; (234 <main+0x104>)
     1d4:	701f      	strb	r7, [r3, #0]
     1d6:	4f15      	ldr	r7, [pc, #84]	; (22c <main+0xfc>)

	for(int i = 0; i < sizeof(stIBeacon); ++i){
		printf("%02x ", ((uint8_t*)&stIBeacon)[i]);
     1d8:	0038      	movs	r0, r7
     1da:	5d61      	ldrb	r1, [r4, r5]
     1dc:	306f      	adds	r0, #111	; 0x6f
	stIBeacon.sucMPower = 0xc5;
	
	memcpy((unsigned char*)reg_map(mem_le_adv_data),&stIBeacon,sizeof(stIBeacon));
	HWRITE(mem_le_adv_data_len,sizeof(stIBeacon));

	for(int i = 0; i < sizeof(stIBeacon); ++i){
     1de:	3501      	adds	r5, #1
		printf("%02x ", ((uint8_t*)&stIBeacon)[i]);
     1e0:	f001 f97c 	bl	14dc <printf>
	stIBeacon.sucMPower = 0xc5;
	
	memcpy((unsigned char*)reg_map(mem_le_adv_data),&stIBeacon,sizeof(stIBeacon));
	HWRITE(mem_le_adv_data_len,sizeof(stIBeacon));

	for(int i = 0; i < sizeof(stIBeacon); ++i){
     1e4:	2d1e      	cmp	r5, #30
     1e6:	d1f7      	bne.n	1d8 <main+0xa8>
		printf("%02x ", ((uint8_t*)&stIBeacon)[i]);
	}
	printf("\r\n");
     1e8:	0038      	movs	r0, r7
     1ea:	3075      	adds	r0, #117	; 0x75
     1ec:	f001 f9c0 	bl	1570 <puts>

	/*Start ADV*/
	HWRITE(mem_le_adv_enable, 0x01);
     1f0:	2201      	movs	r2, #1
#endif	


	printf("-----------Start IBEACON-----------\r\n");
     1f2:	0030      	movs	r0, r6
		printf("%02x ", ((uint8_t*)&stIBeacon)[i]);
	}
	printf("\r\n");

	/*Start ADV*/
	HWRITE(mem_le_adv_enable, 0x01);
     1f4:	4b10      	ldr	r3, [pc, #64]	; (238 <main+0x108>)
#endif	


	printf("-----------Start IBEACON-----------\r\n");
     1f6:	3031      	adds	r0, #49	; 0x31
		printf("%02x ", ((uint8_t*)&stIBeacon)[i]);
	}
	printf("\r\n");

	/*Start ADV*/
	HWRITE(mem_le_adv_enable, 0x01);
     1f8:	701a      	strb	r2, [r3, #0]
#endif	


	printf("-----------Start IBEACON-----------\r\n");
     1fa:	f001 f9b9 	bl	1570 <puts>

	while(1){
		//WDT_Kick();

		//ble process
		IPC_DealSingleStep();	
     1fe:	f000 f96b 	bl	4d8 <IPC_DealSingleStep>
     202:	e7fc      	b.n	1fe <main+0xce>
     204:	00008f70 	.word	0x00008f70
     208:	10004291 	.word	0x10004291
     20c:	00000099 	.word	0x00000099
     210:	0000009b 	.word	0x0000009b
     214:	000000d5 	.word	0x000000d5
     218:	000000f9 	.word	0x000000f9
     21c:	100044ee 	.word	0x100044ee
     220:	100044ec 	.word	0x100044ec
     224:	10010eb0 	.word	0x10010eb0
     228:	100044ed 	.word	0x100044ed
     22c:	00008ef0 	.word	0x00008ef0
     230:	100043b3 	.word	0x100043b3
     234:	100043b2 	.word	0x100043b2
     238:	100043b1 	.word	0x100043b1

0000023c <hw_delay>:

#define BW(addr)			(int)*(addr) << 24 | (int)*(addr + 1) << 16 | (int)*(addr + 2) << 8 | *(addr + 3)

static inline void hw_delay() 
{
	__asm__ __volatile__("nop");
     23c:	46c0      	nop			; (mov r8, r8)
	__asm__ __volatile__("nop");
     23e:	46c0      	nop			; (mov r8, r8)
	__asm__ __volatile__("nop");
     240:	46c0      	nop			; (mov r8, r8)
	__asm__ __volatile__("nop");
     242:	46c0      	nop			; (mov r8, r8)
	__asm__ __volatile__("nop");
     244:	46c0      	nop			; (mov r8, r8)
}
     246:	4770      	bx	lr

00000248 <HR_REG_24BIT>:
	return_data = (return_data | ((H_data << 8) & 0xFF00));
	return return_data;
}

static inline uint32_t HR_REG_24BIT(uint32_t reg)
{
     248:	b570      	push	{r4, r5, r6, lr}
     24a:	0006      	movs	r6, r0
	uint32_t return_data = 0;
	hw_delay();
     24c:	f7ff fff6 	bl	23c <hw_delay>
	return_data = HR_REG_8BIT(reg);
     250:	7834      	ldrb	r4, [r6, #0]
	hw_delay();
     252:	f7ff fff3 	bl	23c <hw_delay>
	return_data = return_data |(HR_REG_8BIT(reg + 1)<<8);
     256:	7875      	ldrb	r5, [r6, #1]
	hw_delay();
     258:	f7ff fff0 	bl	23c <hw_delay>
	return_data = return_data | (HR_REG_8BIT(reg + 2)<<16);
     25c:	78b3      	ldrb	r3, [r6, #2]
{
	uint32_t return_data = 0;
	hw_delay();
	return_data = HR_REG_8BIT(reg);
	hw_delay();
	return_data = return_data |(HR_REG_8BIT(reg + 1)<<8);
     25e:	b2ed      	uxtb	r5, r5
	hw_delay();
	return_data = return_data | (HR_REG_8BIT(reg + 2)<<16);
	
	return return_data;
     260:	0228      	lsls	r0, r5, #8
     262:	041b      	lsls	r3, r3, #16

static inline uint32_t HR_REG_24BIT(uint32_t reg)
{
	uint32_t return_data = 0;
	hw_delay();
	return_data = HR_REG_8BIT(reg);
     264:	b2e4      	uxtb	r4, r4
	hw_delay();
	return_data = return_data |(HR_REG_8BIT(reg + 1)<<8);
	hw_delay();
	return_data = return_data | (HR_REG_8BIT(reg + 2)<<16);
	
	return return_data;
     266:	4318      	orrs	r0, r3
     268:	4320      	orrs	r0, r4
}
     26a:	bd70      	pop	{r4, r5, r6, pc}

0000026c <IpcDefaultCallBack>:
uint8_t gIPC_test;


void IpcDefaultCallBack(uint8_t len,uint8_t *dataPtr)
{
	gIPC_test++;
     26c:	4a02      	ldr	r2, [pc, #8]	; (278 <IpcDefaultCallBack+0xc>)
     26e:	7813      	ldrb	r3, [r2, #0]
     270:	3301      	adds	r3, #1
     272:	7013      	strb	r3, [r2, #0]
	return;
}
     274:	4770      	bx	lr
     276:	46c0      	nop			; (mov r8, r8)
     278:	10011020 	.word	0x10011020

0000027c <IPC_Initialize>:

void IPC_Initialize(tIPCControlBlock *Cb)
{
	ipcCb = *Cb;
     27c:	4a05      	ldr	r2, [pc, #20]	; (294 <IPC_Initialize+0x18>)
	gIPC_test++;
	return;
}

void IPC_Initialize(tIPCControlBlock *Cb)
{
     27e:	b510      	push	{r4, lr}
	ipcCb = *Cb;
     280:	0013      	movs	r3, r2
     282:	c816      	ldmia	r0!, {r1, r2, r4}
     284:	c316      	stmia	r3!, {r1, r2, r4}
     286:	c816      	ldmia	r0!, {r1, r2, r4}
     288:	c316      	stmia	r3!, {r1, r2, r4}
     28a:	c816      	ldmia	r0!, {r1, r2, r4}
     28c:	c316      	stmia	r3!, {r1, r2, r4}
     28e:	6802      	ldr	r2, [r0, #0]
     290:	601a      	str	r2, [r3, #0]
}
     292:	bd10      	pop	{r4, pc}
     294:	10010ed0 	.word	0x10010ed0

00000298 <IPC_init>:

void IPC_init(tIPCHandleCbArray cbArrayPtr)
{
	ipcCbArray = cbArrayPtr;
     298:	4b01      	ldr	r3, [pc, #4]	; (2a0 <IPC_init+0x8>)
     29a:	6298      	str	r0, [r3, #40]	; 0x28
	return;
}
     29c:	4770      	bx	lr
     29e:	46c0      	nop			; (mov r8, r8)
     2a0:	10010ed0 	.word	0x10010ed0

000002a4 <ipcRx>:

static void ipcRx(uint8_t* Dest, uint16_t Len)
{
     2a4:	b570      	push	{r4, r5, r6, lr}
     2a6:	0005      	movs	r5, r0
	uint32_t RxPtr = HR_REG_24BIT(reg_map(IPC_RX_READ_PTR));
     2a8:	4810      	ldr	r0, [pc, #64]	; (2ec <ipcRx+0x48>)
	ipcCbArray = cbArrayPtr;
	return;
}

static void ipcRx(uint8_t* Dest, uint16_t Len)
{
     2aa:	000c      	movs	r4, r1
	uint32_t RxPtr = HR_REG_24BIT(reg_map(IPC_RX_READ_PTR));
     2ac:	f7ff ffcc 	bl	248 <HR_REG_24BIT>
	for (uint16_t i=0; i<Len; i++) {
		Dest[i] = HREAD(RxPtr);
     2b0:	2180      	movs	r1, #128	; 0x80
}

static void ipcRx(uint8_t* Dest, uint16_t Len)
{
	uint32_t RxPtr = HR_REG_24BIT(reg_map(IPC_RX_READ_PTR));
	for (uint16_t i=0; i<Len; i++) {
     2b2:	2300      	movs	r3, #0
		Dest[i] = HREAD(RxPtr);
		if(++RxPtr >= IPC_RX_END) 
     2b4:	4e0e      	ldr	r6, [pc, #56]	; (2f0 <ipcRx+0x4c>)

static void ipcRx(uint8_t* Dest, uint16_t Len)
{
	uint32_t RxPtr = HR_REG_24BIT(reg_map(IPC_RX_READ_PTR));
	for (uint16_t i=0; i<Len; i++) {
		Dest[i] = HREAD(RxPtr);
     2b6:	0549      	lsls	r1, r1, #21
}

static void ipcRx(uint8_t* Dest, uint16_t Len)
{
	uint32_t RxPtr = HR_REG_24BIT(reg_map(IPC_RX_READ_PTR));
	for (uint16_t i=0; i<Len; i++) {
     2b8:	b29a      	uxth	r2, r3
     2ba:	4294      	cmp	r4, r2
     2bc:	d909      	bls.n	2d2 <ipcRx+0x2e>
		Dest[i] = HREAD(RxPtr);
     2be:	000a      	movs	r2, r1
     2c0:	4302      	orrs	r2, r0
     2c2:	7812      	ldrb	r2, [r2, #0]
		if(++RxPtr >= IPC_RX_END) 
     2c4:	3001      	adds	r0, #1

static void ipcRx(uint8_t* Dest, uint16_t Len)
{
	uint32_t RxPtr = HR_REG_24BIT(reg_map(IPC_RX_READ_PTR));
	for (uint16_t i=0; i<Len; i++) {
		Dest[i] = HREAD(RxPtr);
     2c6:	54ea      	strb	r2, [r5, r3]
		if(++RxPtr >= IPC_RX_END) 
     2c8:	42b0      	cmp	r0, r6
     2ca:	d900      	bls.n	2ce <ipcRx+0x2a>
			RxPtr = IPC_RX_HEAD;
     2cc:	4809      	ldr	r0, [pc, #36]	; (2f4 <ipcRx+0x50>)
     2ce:	3301      	adds	r3, #1
     2d0:	e7f2      	b.n	2b8 <ipcRx+0x14>
	}
	
	HWRITE24BIT(IPC_RX_READ_PTR, RxPtr);
     2d2:	4b06      	ldr	r3, [pc, #24]	; (2ec <ipcRx+0x48>)
     2d4:	b2c2      	uxtb	r2, r0
     2d6:	701a      	strb	r2, [r3, #0]
     2d8:	1203      	asrs	r3, r0, #8
     2da:	4a07      	ldr	r2, [pc, #28]	; (2f8 <ipcRx+0x54>)
     2dc:	b2db      	uxtb	r3, r3
     2de:	7013      	strb	r3, [r2, #0]
     2e0:	1400      	asrs	r0, r0, #16
     2e2:	4b06      	ldr	r3, [pc, #24]	; (2fc <ipcRx+0x58>)
     2e4:	b2c0      	uxtb	r0, r0
     2e6:	7018      	strb	r0, [r3, #0]
}
     2e8:	bd70      	pop	{r4, r5, r6, pc}
     2ea:	46c0      	nop			; (mov r8, r8)
     2ec:	1001030c 	.word	0x1001030c
     2f0:	000104ff 	.word	0x000104ff
     2f4:	00010350 	.word	0x00010350
     2f8:	1001030d 	.word	0x1001030d
     2fc:	1001030e 	.word	0x1001030e

00000300 <ipcTx>:

static void ipcTx(uint8_t* Src, uint8_t Len)
{
     300:	b570      	push	{r4, r5, r6, lr}
     302:	0004      	movs	r4, r0
	int me;
	uint32_t TxPtr = HR_REG_24BIT(reg_map(IPC_TX_WRITE_PTR));
     304:	4810      	ldr	r0, [pc, #64]	; (348 <ipcTx+0x48>)
	
	HWRITE24BIT(IPC_RX_READ_PTR, RxPtr);
}

static void ipcTx(uint8_t* Src, uint8_t Len)
{
     306:	000d      	movs	r5, r1
	int me;
	uint32_t TxPtr = HR_REG_24BIT(reg_map(IPC_TX_WRITE_PTR));
     308:	f7ff ff9e 	bl	248 <HR_REG_24BIT>
	for (uint16_t i=0; i<Len; i++) {
		HWRITE(TxPtr, Src[i]);
     30c:	2280      	movs	r2, #128	; 0x80
     30e:	0023      	movs	r3, r4
		if(++TxPtr >= IPC_TX_END) 
     310:	490e      	ldr	r1, [pc, #56]	; (34c <ipcTx+0x4c>)
     312:	1965      	adds	r5, r4, r5
static void ipcTx(uint8_t* Src, uint8_t Len)
{
	int me;
	uint32_t TxPtr = HR_REG_24BIT(reg_map(IPC_TX_WRITE_PTR));
	for (uint16_t i=0; i<Len; i++) {
		HWRITE(TxPtr, Src[i]);
     314:	0552      	lsls	r2, r2, #21

static void ipcTx(uint8_t* Src, uint8_t Len)
{
	int me;
	uint32_t TxPtr = HR_REG_24BIT(reg_map(IPC_TX_WRITE_PTR));
	for (uint16_t i=0; i<Len; i++) {
     316:	429d      	cmp	r5, r3
     318:	d00a      	beq.n	330 <ipcTx+0x30>
		HWRITE(TxPtr, Src[i]);
     31a:	0014      	movs	r4, r2
     31c:	781e      	ldrb	r6, [r3, #0]
     31e:	4304      	orrs	r4, r0
		if(++TxPtr >= IPC_TX_END) 
     320:	3001      	adds	r0, #1
static void ipcTx(uint8_t* Src, uint8_t Len)
{
	int me;
	uint32_t TxPtr = HR_REG_24BIT(reg_map(IPC_TX_WRITE_PTR));
	for (uint16_t i=0; i<Len; i++) {
		HWRITE(TxPtr, Src[i]);
     322:	7026      	strb	r6, [r4, #0]
		if(++TxPtr >= IPC_TX_END) 
     324:	4288      	cmp	r0, r1
     326:	d901      	bls.n	32c <ipcTx+0x2c>
			TxPtr = IPC_TX_HEAD;
     328:	2080      	movs	r0, #128	; 0x80
     32a:	0240      	lsls	r0, r0, #9
     32c:	3301      	adds	r3, #1
     32e:	e7f2      	b.n	316 <ipcTx+0x16>
		me=100;
		while(me--);
	}
	HWRITE24BIT(IPC_TX_WRITE_PTR, TxPtr);
     330:	4b05      	ldr	r3, [pc, #20]	; (348 <ipcTx+0x48>)
     332:	b2c2      	uxtb	r2, r0
     334:	701a      	strb	r2, [r3, #0]
     336:	1203      	asrs	r3, r0, #8
     338:	4a05      	ldr	r2, [pc, #20]	; (350 <ipcTx+0x50>)
     33a:	b2db      	uxtb	r3, r3
     33c:	7013      	strb	r3, [r2, #0]
     33e:	1400      	asrs	r0, r0, #16
     340:	4b04      	ldr	r3, [pc, #16]	; (354 <ipcTx+0x54>)
     342:	b2c0      	uxtb	r0, r0
     344:	7018      	strb	r0, [r3, #0]
}
     346:	bd70      	pop	{r4, r5, r6, pc}
     348:	10010300 	.word	0x10010300
     34c:	000102ff 	.word	0x000102ff
     350:	10010301 	.word	0x10010301
     354:	10010302 	.word	0x10010302

00000358 <IPC_TxBufferIsEnough>:

unsigned char IPC_TxBufferIsEnough(uint8_t Len)
{
     358:	b570      	push	{r4, r5, r6, lr}
     35a:	0005      	movs	r5, r0
	uint32_t TxPtr = HR_REG_24BIT(reg_map(IPC_TX_WRITE_PTR));
     35c:	480c      	ldr	r0, [pc, #48]	; (390 <IPC_TxBufferIsEnough+0x38>)
     35e:	f7ff ff73 	bl	248 <HR_REG_24BIT>
     362:	0004      	movs	r4, r0
	uint32_t TxReadPtr = HR_REG_24BIT(reg_map(IPC_TX_READ_PTR));
     364:	480b      	ldr	r0, [pc, #44]	; (394 <IPC_TxBufferIsEnough+0x3c>)
     366:	f7ff ff6f 	bl	248 <HR_REG_24BIT>

	for (uint16_t i=0; i<Len; i++) {
     36a:	2300      	movs	r3, #0
		if(++TxPtr >= IPC_TX_END) 
     36c:	4a0a      	ldr	r2, [pc, #40]	; (398 <IPC_TxBufferIsEnough+0x40>)
unsigned char IPC_TxBufferIsEnough(uint8_t Len)
{
	uint32_t TxPtr = HR_REG_24BIT(reg_map(IPC_TX_WRITE_PTR));
	uint32_t TxReadPtr = HR_REG_24BIT(reg_map(IPC_TX_READ_PTR));

	for (uint16_t i=0; i<Len; i++) {
     36e:	b2ad      	uxth	r5, r5
     370:	42ab      	cmp	r3, r5
     372:	d209      	bcs.n	388 <IPC_TxBufferIsEnough+0x30>
		if(++TxPtr >= IPC_TX_END) 
     374:	3401      	adds	r4, #1
     376:	4294      	cmp	r4, r2
     378:	d901      	bls.n	37e <IPC_TxBufferIsEnough+0x26>
			TxPtr = IPC_TX_HEAD;
     37a:	2480      	movs	r4, #128	; 0x80
     37c:	0264      	lsls	r4, r4, #9

		if(TxPtr == TxReadPtr)
     37e:	4284      	cmp	r4, r0
     380:	d004      	beq.n	38c <IPC_TxBufferIsEnough+0x34>
unsigned char IPC_TxBufferIsEnough(uint8_t Len)
{
	uint32_t TxPtr = HR_REG_24BIT(reg_map(IPC_TX_WRITE_PTR));
	uint32_t TxReadPtr = HR_REG_24BIT(reg_map(IPC_TX_READ_PTR));

	for (uint16_t i=0; i<Len; i++) {
     382:	3301      	adds	r3, #1
     384:	b29b      	uxth	r3, r3
     386:	e7f3      	b.n	370 <IPC_TxBufferIsEnough+0x18>

		if(TxPtr == TxReadPtr)
			return 0;

	}
	return 1;
     388:	2001      	movs	r0, #1
     38a:	e000      	b.n	38e <IPC_TxBufferIsEnough+0x36>
	for (uint16_t i=0; i<Len; i++) {
		if(++TxPtr >= IPC_TX_END) 
			TxPtr = IPC_TX_HEAD;

		if(TxPtr == TxReadPtr)
			return 0;
     38c:	2000      	movs	r0, #0

	}
	return 1;
}
     38e:	bd70      	pop	{r4, r5, r6, pc}
     390:	10010300 	.word	0x10010300
     394:	10010304 	.word	0x10010304
     398:	000102ff 	.word	0x000102ff

0000039c <IPC_WaitBufferEnough>:

unsigned char IPC_WaitBufferEnough(uint8_t Len)
{
     39c:	b510      	push	{r4, lr}
     39e:	0004      	movs	r4, r0
	int m;
	while(1){
		if(IPC_TxBufferIsEnough(Len))
     3a0:	0020      	movs	r0, r4
     3a2:	f7ff ffd9 	bl	358 <IPC_TxBufferIsEnough>
     3a6:	2800      	cmp	r0, #0
     3a8:	d0fa      	beq.n	3a0 <IPC_WaitBufferEnough+0x4>
		{
			m = 1000;
			while(m--);
		}
	}
}
     3aa:	2001      	movs	r0, #1
     3ac:	bd10      	pop	{r4, pc}

000003ae <IPC_TxCommon>:

void IPC_TxCommon(uint8_t Type, uint8_t* Dt, uint8_t Len)
{
     3ae:	b570      	push	{r4, r5, r6, lr}
	ipcSendBuff[0] = Type;
     3b0:	4d07      	ldr	r5, [pc, #28]	; (3d0 <IPC_TxCommon+0x22>)
	if (Len == 0 || Len > IPC_TX_BUFF_LEN-2)
     3b2:	1e53      	subs	r3, r2, #1
		}
	}
}

void IPC_TxCommon(uint8_t Type, uint8_t* Dt, uint8_t Len)
{
     3b4:	0014      	movs	r4, r2
	ipcSendBuff[0] = Type;
     3b6:	7028      	strb	r0, [r5, #0]
	if (Len == 0 || Len > IPC_TX_BUFF_LEN-2)
     3b8:	2b1b      	cmp	r3, #27
     3ba:	d808      	bhi.n	3ce <IPC_TxCommon+0x20>
		return;
	ipcSendBuff[1] = Len;
	memcpy(&ipcSendBuff[2], Dt, Len);
     3bc:	4805      	ldr	r0, [pc, #20]	; (3d4 <IPC_TxCommon+0x26>)
	ipcTx(ipcSendBuff, Len + 2);
     3be:	3402      	adds	r4, #2
void IPC_TxCommon(uint8_t Type, uint8_t* Dt, uint8_t Len)
{
	ipcSendBuff[0] = Type;
	if (Len == 0 || Len > IPC_TX_BUFF_LEN-2)
		return;
	ipcSendBuff[1] = Len;
     3c0:	706a      	strb	r2, [r5, #1]
	memcpy(&ipcSendBuff[2], Dt, Len);
     3c2:	f000 fff5 	bl	13b0 <memcpy>
	ipcTx(ipcSendBuff, Len + 2);
     3c6:	b2e1      	uxtb	r1, r4
     3c8:	0028      	movs	r0, r5
     3ca:	f7ff ff99 	bl	300 <ipcTx>
}
     3ce:	bd70      	pop	{r4, r5, r6, pc}
     3d0:	10011002 	.word	0x10011002
     3d4:	10011004 	.word	0x10011004

000003d8 <IPC_TxPacket>:

void IPC_TxPacket(IPC_DATA_FORMAT *packet)
{
	if (packet->len == 0)
     3d8:	7841      	ldrb	r1, [r0, #1]
	memcpy(&ipcSendBuff[2], Dt, Len);
	ipcTx(ipcSendBuff, Len + 2);
}

void IPC_TxPacket(IPC_DATA_FORMAT *packet)
{
     3da:	b510      	push	{r4, lr}
	if (packet->len == 0)
     3dc:	2900      	cmp	r1, #0
     3de:	d003      	beq.n	3e8 <IPC_TxPacket+0x10>
		return;

	ipcTx((unsigned char*)packet,  packet->len+ 2);
     3e0:	3102      	adds	r1, #2
     3e2:	b2c9      	uxtb	r1, r1
     3e4:	f7ff ff8c 	bl	300 <ipcTx>
}
     3e8:	bd10      	pop	{r4, pc}

000003ea <IPC_TxControlCmd>:

void IPC_TxControlCmd(uint8_t Cmd)
{
     3ea:	b573      	push	{r0, r1, r4, r5, r6, lr}
#define IPC_CMD_LEN 3
	uint8_t cmdBuff[IPC_CMD_LEN] = {IPC_CONTROL_CMD,0x01};
     3ec:	2503      	movs	r5, #3
     3ee:	ac01      	add	r4, sp, #4

	ipcTx((unsigned char*)packet,  packet->len+ 2);
}

void IPC_TxControlCmd(uint8_t Cmd)
{
     3f0:	0006      	movs	r6, r0
#define IPC_CMD_LEN 3
	uint8_t cmdBuff[IPC_CMD_LEN] = {IPC_CONTROL_CMD,0x01};
     3f2:	002a      	movs	r2, r5
     3f4:	2100      	movs	r1, #0
     3f6:	0020      	movs	r0, r4
     3f8:	f001 f818 	bl	142c <memset>
     3fc:	2301      	movs	r3, #1
	cmdBuff[IPC_CMD_LEN - 1] = Cmd;
	ipcTx(cmdBuff, IPC_CMD_LEN);
     3fe:	0029      	movs	r1, r5
     400:	0020      	movs	r0, r4

void IPC_TxControlCmd(uint8_t Cmd)
{
#define IPC_CMD_LEN 3
	uint8_t cmdBuff[IPC_CMD_LEN] = {IPC_CONTROL_CMD,0x01};
	cmdBuff[IPC_CMD_LEN - 1] = Cmd;
     402:	70a6      	strb	r6, [r4, #2]
}

void IPC_TxControlCmd(uint8_t Cmd)
{
#define IPC_CMD_LEN 3
	uint8_t cmdBuff[IPC_CMD_LEN] = {IPC_CONTROL_CMD,0x01};
     404:	7023      	strb	r3, [r4, #0]
     406:	7063      	strb	r3, [r4, #1]
	cmdBuff[IPC_CMD_LEN - 1] = Cmd;
	ipcTx(cmdBuff, IPC_CMD_LEN);
     408:	f7ff ff7a 	bl	300 <ipcTx>
}
     40c:	bd73      	pop	{r0, r1, r4, r5, r6, pc}

0000040e <IPC_GetBBDIsconnectReason>:
     40e:	2000      	movs	r0, #0
     410:	4770      	bx	lr

00000412 <IPC_CheckServerConenct>:
}

uint8_t IPC_CheckServerConenct()
{
	return 0;
}
     412:	2000      	movs	r0, #0
     414:	4770      	bx	lr

00000416 <IPC_CheckReconnect>:

uint8_t IPC_CheckReconnect()
{
	return 0;
}
     416:	2000      	movs	r0, #0
     418:	4770      	bx	lr

0000041a <IPC_WaitLpm>:

void IPC_WaitLpm()
{
     41a:	b510      	push	{r4, lr}
	int dayloop = 10000;
	while(dayloop--) hw_delay();
     41c:	4c03      	ldr	r4, [pc, #12]	; (42c <IPC_WaitLpm+0x12>)
     41e:	3c01      	subs	r4, #1
     420:	2c00      	cmp	r4, #0
     422:	d002      	beq.n	42a <IPC_WaitLpm+0x10>
     424:	f7ff ff0a 	bl	23c <hw_delay>
     428:	e7f9      	b.n	41e <IPC_WaitLpm+0x4>
}
     42a:	bd10      	pop	{r4, pc}
     42c:	00002711 	.word	0x00002711

00000430 <IPC_AbandonLpm>:

void IPC_AbandonLpm()
{
     430:	b510      	push	{r4, lr}
	hw_delay();
     432:	f7ff ff03 	bl	23c <hw_delay>
	//HW_REG_8BIT(IPC_M0_BUSY_FALG_ADDR, 0);
}
     436:	bd10      	pop	{r4, pc}

00000438 <IPC_DisableLpm>:
     438:	b510      	push	{r4, lr}
     43a:	f7ff feff 	bl	23c <hw_delay>
     43e:	bd10      	pop	{r4, pc}

00000440 <IPC_EnableLpm>:
	hw_delay();
	//HW_REG_8BIT(IPC_LPM_FLAG_ADDR, 0);
}

void IPC_EnableLpm()
{
     440:	b510      	push	{r4, lr}
	hw_delay();
     442:	f7ff fefb 	bl	23c <hw_delay>
	//HW_REG_8BIT(IPC_LPM_FLAG_ADDR, 1);
}
     446:	bd10      	pop	{r4, pc}

00000448 <IPC_IsTxBuffEmpty>:


uint8_t IPC_IsTxBuffEmpty()
{
     448:	b510      	push	{r4, lr}
	uint32_t TxReadPtr = HR_REG_24BIT(reg_map(IPC_TX_READ_PTR));
     44a:	4806      	ldr	r0, [pc, #24]	; (464 <IPC_IsTxBuffEmpty+0x1c>)
     44c:	f7ff fefc 	bl	248 <HR_REG_24BIT>
     450:	0004      	movs	r4, r0
	uint32_t TxWritePtr = HR_REG_24BIT(reg_map(IPC_TX_WRITE_PTR));
     452:	4805      	ldr	r0, [pc, #20]	; (468 <IPC_IsTxBuffEmpty+0x20>)
     454:	f7ff fef8 	bl	248 <HR_REG_24BIT>
     458:	1a20      	subs	r0, r4, r0
     45a:	4244      	negs	r4, r0
     45c:	4160      	adcs	r0, r4
	if (TxWritePtr == TxReadPtr)
		return 1;
	return 0;
}
     45e:	b2c0      	uxtb	r0, r0
     460:	bd10      	pop	{r4, pc}
     462:	46c0      	nop			; (mov r8, r8)
     464:	10010304 	.word	0x10010304
     468:	10010300 	.word	0x10010300

0000046c <IPC_IsRxBuffEmpty>:

uint8_t IPC_IsRxBuffEmpty()
{
     46c:	b510      	push	{r4, lr}
	uint32_t RxReadPtr = HR_REG_24BIT(reg_map(IPC_RX_READ_PTR));
     46e:	4806      	ldr	r0, [pc, #24]	; (488 <IPC_IsRxBuffEmpty+0x1c>)
     470:	f7ff feea 	bl	248 <HR_REG_24BIT>
     474:	0004      	movs	r4, r0
	uint32_t RxWritePtr = HR_REG_24BIT(reg_map(IPC_RX_WRITE_PTR));
     476:	4805      	ldr	r0, [pc, #20]	; (48c <IPC_IsRxBuffEmpty+0x20>)
     478:	f7ff fee6 	bl	248 <HR_REG_24BIT>
     47c:	1a20      	subs	r0, r4, r0
     47e:	4244      	negs	r4, r0
     480:	4160      	adcs	r0, r4
//	printf("RxReadPtr = %06x, RxWritePtr = %06x \n",RxReadPtr,RxWritePtr);
	if (RxReadPtr == RxWritePtr)
		return 1;
	return 0;
}
     482:	b2c0      	uxtb	r0, r0
     484:	bd10      	pop	{r4, pc}
     486:	46c0      	nop			; (mov r8, r8)
     488:	1001030c 	.word	0x1001030c
     48c:	10010308 	.word	0x10010308

00000490 <IPC_HandleRxPacket>:

uint16_t a2dpLen;


void IPC_HandleRxPacket()
{
     490:	b570      	push	{r4, r5, r6, lr}
	uint8_t *pbuff = ipcReadBuff;
	if (IPC_IsRxBuffEmpty())
     492:	f7ff ffeb 	bl	46c <IPC_IsRxBuffEmpty>
     496:	2800      	cmp	r0, #0
     498:	d117      	bne.n	4ca <IPC_HandleRxPacket+0x3a>
		return;

	ipcRx(ipcReadBuff, 2);
     49a:	4c0c      	ldr	r4, [pc, #48]	; (4cc <IPC_HandleRxPacket+0x3c>)
     49c:	2102      	movs	r1, #2
     49e:	0020      	movs	r0, r4
     4a0:	f7ff ff00 	bl	2a4 <ipcRx>
	if(*pbuff > IPC_TYPE_START && *pbuff < IPC_TYPE_NUM)
     4a4:	7823      	ldrb	r3, [r4, #0]
     4a6:	3b01      	subs	r3, #1
     4a8:	2b0a      	cmp	r3, #10
     4aa:	d80d      	bhi.n	4c8 <IPC_HandleRxPacket+0x38>
	{
		ipcRx(ipcReadBuff+2, *(pbuff+1));	
     4ac:	4d08      	ldr	r5, [pc, #32]	; (4d0 <IPC_HandleRxPacket+0x40>)
     4ae:	7861      	ldrb	r1, [r4, #1]
     4b0:	0028      	movs	r0, r5
     4b2:	f7ff fef7 	bl	2a4 <ipcRx>
		//(*gIPCHandleCb[*pbuff])(*(pbuff+1),pbuff+2);
		(*(*ipcCbArray)[*pbuff])(*(pbuff+1),pbuff+2);
     4b6:	4b07      	ldr	r3, [pc, #28]	; (4d4 <IPC_HandleRxPacket+0x44>)
     4b8:	7860      	ldrb	r0, [r4, #1]
     4ba:	6a9a      	ldr	r2, [r3, #40]	; 0x28
     4bc:	7823      	ldrb	r3, [r4, #0]
     4be:	0029      	movs	r1, r5
     4c0:	009b      	lsls	r3, r3, #2
     4c2:	589b      	ldr	r3, [r3, r2]
     4c4:	4798      	blx	r3
     4c6:	e000      	b.n	4ca <IPC_HandleRxPacket+0x3a>
     4c8:	e7fe      	b.n	4c8 <IPC_HandleRxPacket+0x38>
	else
	{
		while(1);
	}

}
     4ca:	bd70      	pop	{r4, r5, r6, pc}
     4cc:	10010f3a 	.word	0x10010f3a
     4d0:	10010f3c 	.word	0x10010f3c
     4d4:	10010ed0 	.word	0x10010ed0

000004d8 <IPC_DealSingleStep>:

void IPC_DealSingleStep()
{
     4d8:	b570      	push	{r4, r5, r6, lr}
#define IPC_FRAME_HEAD_SIZE 3
	uint8_t *pbuff = ipcReadBuff;//大小为30个字节
	if (IPC_IsRxBuffEmpty())
     4da:	f7ff ffc7 	bl	46c <IPC_IsRxBuffEmpty>
     4de:	2800      	cmp	r0, #0
     4e0:	d000      	beq.n	4e4 <IPC_DealSingleStep+0xc>
     4e2:	e082      	b.n	5ea <IPC_DealSingleStep+0x112>
		return;
			
	ipcRx(ipcReadBuff, IPC_FRAME_HEAD_SIZE);
     4e4:	4d41      	ldr	r5, [pc, #260]	; (5ec <IPC_DealSingleStep+0x114>)
     4e6:	2103      	movs	r1, #3
     4e8:	0028      	movs	r0, r5
     4ea:	f7ff fedb 	bl	2a4 <ipcRx>
 		
	if (*pbuff == IPC_CONTROL_EVT) {
     4ee:	782b      	ldrb	r3, [r5, #0]
     4f0:	2b02      	cmp	r3, #2
     4f2:	d108      	bne.n	506 <IPC_DealSingleStep+0x2e>
		pbuff += 2;
		if(ipcCb.evtcb) ipcCb.evtcb(*pbuff);//处理收到的命令
     4f4:	4b3e      	ldr	r3, [pc, #248]	; (5f0 <IPC_DealSingleStep+0x118>)
     4f6:	4e3f      	ldr	r6, [pc, #252]	; (5f4 <IPC_DealSingleStep+0x11c>)
     4f8:	681b      	ldr	r3, [r3, #0]
		return;
			
	ipcRx(ipcReadBuff, IPC_FRAME_HEAD_SIZE);
 		
	if (*pbuff == IPC_CONTROL_EVT) {
		pbuff += 2;
     4fa:	0034      	movs	r4, r6
		if(ipcCb.evtcb) ipcCb.evtcb(*pbuff);//处理收到的命令
     4fc:	2b00      	cmp	r3, #0
     4fe:	d016      	beq.n	52e <IPC_DealSingleStep+0x56>
     500:	78a8      	ldrb	r0, [r5, #2]
     502:	4798      	blx	r3
     504:	e013      	b.n	52e <IPC_DealSingleStep+0x56>
}

void IPC_DealSingleStep()
{
#define IPC_FRAME_HEAD_SIZE 3
	uint8_t *pbuff = ipcReadBuff;//大小为30个字节
     506:	002c      	movs	r4, r5
 		
	if (*pbuff == IPC_CONTROL_EVT) {
		pbuff += 2;
		if(ipcCb.evtcb) ipcCb.evtcb(*pbuff);//处理收到的命令
	}
	else if (*pbuff == IPC_SPP_DATA) {
     508:	2b04      	cmp	r3, #4
     50a:	d110      	bne.n	52e <IPC_DealSingleStep+0x56>
		pbuff++;
		ipcRx(ipcReadBuff+IPC_FRAME_HEAD_SIZE, *pbuff -1);
     50c:	7869      	ldrb	r1, [r5, #1]
     50e:	483a      	ldr	r0, [pc, #232]	; (5f8 <IPC_DealSingleStep+0x120>)
     510:	3901      	subs	r1, #1
     512:	b289      	uxth	r1, r1
     514:	f7ff fec6 	bl	2a4 <ipcRx>
		if(ipcCb.sppcb) ipcCb.sppcb(pbuff+1, *pbuff);
     518:	4b35      	ldr	r3, [pc, #212]	; (5f0 <IPC_DealSingleStep+0x118>)
     51a:	4d38      	ldr	r5, [pc, #224]	; (5fc <IPC_DealSingleStep+0x124>)
     51c:	685b      	ldr	r3, [r3, #4]
     51e:	2b00      	cmp	r3, #0
     520:	d004      	beq.n	52c <IPC_DealSingleStep+0x54>
     522:	7861      	ldrb	r1, [r4, #1]
     524:	4833      	ldr	r0, [pc, #204]	; (5f4 <IPC_DealSingleStep+0x11c>)
     526:	4798      	blx	r3
	if (*pbuff == IPC_CONTROL_EVT) {
		pbuff += 2;
		if(ipcCb.evtcb) ipcCb.evtcb(*pbuff);//处理收到的命令
	}
	else if (*pbuff == IPC_SPP_DATA) {
		pbuff++;
     528:	002c      	movs	r4, r5
     52a:	e000      	b.n	52e <IPC_DealSingleStep+0x56>
     52c:	002c      	movs	r4, r5
		ipcRx(ipcReadBuff+IPC_FRAME_HEAD_SIZE, *pbuff -1);
		if(ipcCb.sppcb) ipcCb.sppcb(pbuff+1, *pbuff);
	}	
	if (*pbuff == IPC_BLE_DATA) {
     52e:	7823      	ldrb	r3, [r4, #0]
     530:	2b05      	cmp	r3, #5
     532:	d10a      	bne.n	54a <IPC_DealSingleStep+0x72>
		pbuff++;
		ipcRx(ipcReadBuff+IPC_FRAME_HEAD_SIZE, *pbuff -1);				
     534:	7861      	ldrb	r1, [r4, #1]
     536:	4830      	ldr	r0, [pc, #192]	; (5f8 <IPC_DealSingleStep+0x120>)
     538:	3901      	subs	r1, #1
     53a:	b289      	uxth	r1, r1
     53c:	f7ff feb2 	bl	2a4 <ipcRx>
		if(ipcCb.blecb) ipcCb.blecb(pbuff+1, *pbuff);//处理收到的数据
     540:	4b2b      	ldr	r3, [pc, #172]	; (5f0 <IPC_DealSingleStep+0x118>)
     542:	691b      	ldr	r3, [r3, #16]
     544:	2b00      	cmp	r3, #0
     546:	d14d      	bne.n	5e4 <IPC_DealSingleStep+0x10c>
     548:	e04f      	b.n	5ea <IPC_DealSingleStep+0x112>
	}	
	else if (*pbuff == IPC_HID_DATA) {
     54a:	2b03      	cmp	r3, #3
     54c:	d10a      	bne.n	564 <IPC_DealSingleStep+0x8c>
		pbuff++;
		ipcRx(ipcReadBuff+IPC_FRAME_HEAD_SIZE, *pbuff -1);
     54e:	7861      	ldrb	r1, [r4, #1]
     550:	4829      	ldr	r0, [pc, #164]	; (5f8 <IPC_DealSingleStep+0x120>)
     552:	3901      	subs	r1, #1
     554:	b289      	uxth	r1, r1
     556:	f7ff fea5 	bl	2a4 <ipcRx>
		if(ipcCb.hidcb) ipcCb.hidcb(pbuff+1, *pbuff);
     55a:	4b25      	ldr	r3, [pc, #148]	; (5f0 <IPC_DealSingleStep+0x118>)
     55c:	699b      	ldr	r3, [r3, #24]
     55e:	2b00      	cmp	r3, #0
     560:	d140      	bne.n	5e4 <IPC_DealSingleStep+0x10c>
     562:	e042      	b.n	5ea <IPC_DealSingleStep+0x112>
	}
	else if (*pbuff == IPC_MESH_DATA) {
     564:	2b07      	cmp	r3, #7
     566:	d110      	bne.n	58a <IPC_DealSingleStep+0xb2>
 		pbuff++;
		ipcRx(ipcReadBuff+IPC_FRAME_HEAD_SIZE, *pbuff -1);
     568:	7861      	ldrb	r1, [r4, #1]
     56a:	4823      	ldr	r0, [pc, #140]	; (5f8 <IPC_DealSingleStep+0x120>)
     56c:	3901      	subs	r1, #1
     56e:	b289      	uxth	r1, r1
     570:	f7ff fe98 	bl	2a4 <ipcRx>
		if(ipcCb.meshcb) ipcCb.meshcb(*(pbuff+1), pbuff+2, *pbuff-1);
     574:	4b1e      	ldr	r3, [pc, #120]	; (5f0 <IPC_DealSingleStep+0x118>)
     576:	69db      	ldr	r3, [r3, #28]
     578:	2b00      	cmp	r3, #0
     57a:	d036      	beq.n	5ea <IPC_DealSingleStep+0x112>
     57c:	7862      	ldrb	r2, [r4, #1]
     57e:	1ce1      	adds	r1, r4, #3
     580:	3a01      	subs	r2, #1
     582:	b292      	uxth	r2, r2
     584:	78a0      	ldrb	r0, [r4, #2]
     586:	4798      	blx	r3
     588:	e02f      	b.n	5ea <IPC_DealSingleStep+0x112>
	}
	else if (*pbuff == IPC_A2DP_DATA) {
     58a:	2b0a      	cmp	r3, #10
     58c:	d111      	bne.n	5b2 <IPC_DealSingleStep+0xda>
		pbuff++;
		a2dpLen = pbuff[0]|pbuff[1]<<8;
     58e:	78a1      	ldrb	r1, [r4, #2]
     590:	7863      	ldrb	r3, [r4, #1]
		ipcRx(ipcReadBuff+IPC_FRAME_HEAD_SIZE, a2dpLen);
     592:	4c19      	ldr	r4, [pc, #100]	; (5f8 <IPC_DealSingleStep+0x120>)
		ipcRx(ipcReadBuff+IPC_FRAME_HEAD_SIZE, *pbuff -1);
		if(ipcCb.meshcb) ipcCb.meshcb(*(pbuff+1), pbuff+2, *pbuff-1);
	}
	else if (*pbuff == IPC_A2DP_DATA) {
		pbuff++;
		a2dpLen = pbuff[0]|pbuff[1]<<8;
     594:	4d1a      	ldr	r5, [pc, #104]	; (600 <IPC_DealSingleStep+0x128>)
     596:	0209      	lsls	r1, r1, #8
     598:	4319      	orrs	r1, r3
		ipcRx(ipcReadBuff+IPC_FRAME_HEAD_SIZE, a2dpLen);
     59a:	0020      	movs	r0, r4
		ipcRx(ipcReadBuff+IPC_FRAME_HEAD_SIZE, *pbuff -1);
		if(ipcCb.meshcb) ipcCb.meshcb(*(pbuff+1), pbuff+2, *pbuff-1);
	}
	else if (*pbuff == IPC_A2DP_DATA) {
		pbuff++;
		a2dpLen = pbuff[0]|pbuff[1]<<8;
     59c:	8029      	strh	r1, [r5, #0]
		ipcRx(ipcReadBuff+IPC_FRAME_HEAD_SIZE, a2dpLen);
     59e:	f7ff fe81 	bl	2a4 <ipcRx>
		if(ipcCb.a2dpcb) ipcCb.a2dpcb(ipcReadBuff+IPC_FRAME_HEAD_SIZE,a2dpLen);
     5a2:	4b13      	ldr	r3, [pc, #76]	; (5f0 <IPC_DealSingleStep+0x118>)
     5a4:	6a1b      	ldr	r3, [r3, #32]
     5a6:	2b00      	cmp	r3, #0
     5a8:	d01f      	beq.n	5ea <IPC_DealSingleStep+0x112>
     5aa:	8829      	ldrh	r1, [r5, #0]
     5ac:	0020      	movs	r0, r4
     5ae:	4798      	blx	r3
     5b0:	e01b      	b.n	5ea <IPC_DealSingleStep+0x112>
	}
	else if(*pbuff == IPC_MESH_ADV_DATA) {
     5b2:	2b08      	cmp	r3, #8
     5b4:	d10a      	bne.n	5cc <IPC_DealSingleStep+0xf4>
		pbuff++;
		ipcRx(ipcReadBuff+IPC_FRAME_HEAD_SIZE,*pbuff -1);
     5b6:	7861      	ldrb	r1, [r4, #1]
     5b8:	480f      	ldr	r0, [pc, #60]	; (5f8 <IPC_DealSingleStep+0x120>)
     5ba:	3901      	subs	r1, #1
     5bc:	b289      	uxth	r1, r1
     5be:	f7ff fe71 	bl	2a4 <ipcRx>
		if(ipcCb.advcb) ipcCb.advcb(pbuff+1,*pbuff);
     5c2:	4b0b      	ldr	r3, [pc, #44]	; (5f0 <IPC_DealSingleStep+0x118>)
     5c4:	695b      	ldr	r3, [r3, #20]
     5c6:	2b00      	cmp	r3, #0
     5c8:	d10c      	bne.n	5e4 <IPC_DealSingleStep+0x10c>
     5ca:	e00e      	b.n	5ea <IPC_DealSingleStep+0x112>
	}else if(*pbuff == IPC_READ_CONN_PARA) {
     5cc:	2b0c      	cmp	r3, #12
     5ce:	d10c      	bne.n	5ea <IPC_DealSingleStep+0x112>
		pbuff++;
		ipcRx(ipcReadBuff+IPC_FRAME_HEAD_SIZE,*pbuff-1);
     5d0:	7861      	ldrb	r1, [r4, #1]
     5d2:	4809      	ldr	r0, [pc, #36]	; (5f8 <IPC_DealSingleStep+0x120>)
     5d4:	3901      	subs	r1, #1
     5d6:	b289      	uxth	r1, r1
     5d8:	f7ff fe64 	bl	2a4 <ipcRx>
		if(ipcCb.readconnparamcb) ipcCb.readconnparamcb(pbuff+1,*pbuff);//
     5dc:	4b04      	ldr	r3, [pc, #16]	; (5f0 <IPC_DealSingleStep+0x118>)
     5de:	6a5b      	ldr	r3, [r3, #36]	; 0x24
     5e0:	2b00      	cmp	r3, #0
     5e2:	d002      	beq.n	5ea <IPC_DealSingleStep+0x112>
     5e4:	7861      	ldrb	r1, [r4, #1]
     5e6:	1ca0      	adds	r0, r4, #2
     5e8:	4798      	blx	r3
	}
//	while(1);
}
     5ea:	bd70      	pop	{r4, r5, r6, pc}
     5ec:	10010f3a 	.word	0x10010f3a
     5f0:	10010ed0 	.word	0x10010ed0
     5f4:	10010f3c 	.word	0x10010f3c
     5f8:	10010f3d 	.word	0x10010f3d
     5fc:	10010f3b 	.word	0x10010f3b
     600:	10011022 	.word	0x10011022

00000604 <IPC_set_ack_flag>:

void IPC_set_ack_flag()
{
  HWRITE(IPC_MCU_PHASE,IPC_MCU_PHASE1_ACK);
     604:	2302      	movs	r3, #2
     606:	490b      	ldr	r1, [pc, #44]	; (634 <IPC_set_ack_flag+0x30>)
	}
//	while(1);
}

void IPC_set_ack_flag()
{
     608:	b570      	push	{r4, r5, r6, lr}
  HWRITE(IPC_MCU_PHASE,IPC_MCU_PHASE1_ACK);
     60a:	700b      	strb	r3, [r1, #0]
  HWRITE(IPC_MCU_STATE,IPC_MCU_STATE_RUNNING);
     60c:	4b0a      	ldr	r3, [pc, #40]	; (638 <IPC_set_ack_flag+0x34>)
     60e:	2200      	movs	r2, #0
  while(HREAD(IPC_MCU_STATE))
     610:	001c      	movs	r4, r3
    {
    HWRITE(0x4ff1,IPC_MCU_STATE_HIBERNATE);
     612:	2601      	movs	r6, #1
     614:	4d09      	ldr	r5, [pc, #36]	; (63c <IPC_set_ack_flag+0x38>)
}

void IPC_set_ack_flag()
{
  HWRITE(IPC_MCU_PHASE,IPC_MCU_PHASE1_ACK);
  HWRITE(IPC_MCU_STATE,IPC_MCU_STATE_RUNNING);
     616:	701a      	strb	r2, [r3, #0]
  while(HREAD(IPC_MCU_STATE))
     618:	7818      	ldrb	r0, [r3, #0]
     61a:	2800      	cmp	r0, #0
     61c:	d002      	beq.n	624 <IPC_set_ack_flag+0x20>
    {
    HWRITE(0x4ff1,IPC_MCU_STATE_HIBERNATE);
     61e:	702e      	strb	r6, [r5, #0]
    HWRITE(IPC_MCU_STATE,IPC_MCU_STATE_RUNNING);
     620:	7022      	strb	r2, [r4, #0]
     622:	e7f9      	b.n	618 <IPC_set_ack_flag+0x14>
    }
  while(HREAD(IPC_MCU_PHASE) != IPC_MCU_PHASE1_ACK)
     624:	4a03      	ldr	r2, [pc, #12]	; (634 <IPC_set_ack_flag+0x30>)
    {
    HWRITE(IPC_MCU_PHASE,IPC_MCU_PHASE1_ACK);
     626:	3002      	adds	r0, #2
  while(HREAD(IPC_MCU_STATE))
    {
    HWRITE(0x4ff1,IPC_MCU_STATE_HIBERNATE);
    HWRITE(IPC_MCU_STATE,IPC_MCU_STATE_RUNNING);
    }
  while(HREAD(IPC_MCU_PHASE) != IPC_MCU_PHASE1_ACK)
     628:	780b      	ldrb	r3, [r1, #0]
     62a:	2b02      	cmp	r3, #2
     62c:	d001      	beq.n	632 <IPC_set_ack_flag+0x2e>
    {
    HWRITE(IPC_MCU_PHASE,IPC_MCU_PHASE1_ACK);
     62e:	7010      	strb	r0, [r2, #0]
     630:	e7fa      	b.n	628 <IPC_set_ack_flag+0x24>
    }
}
     632:	bd70      	pop	{r4, r5, r6, pc}
     634:	10004333 	.word	0x10004333
     638:	10004334 	.word	0x10004334
     63c:	10004ff1 	.word	0x10004ff1

00000640 <IPC_set_nack_flag>:

void IPC_set_nack_flag()
{
	HWRITE(IPC_MCU_PHASE,IPC_MCU_PHASE1_NACK);
     640:	2201      	movs	r2, #1
     642:	4b03      	ldr	r3, [pc, #12]	; (650 <IPC_set_nack_flag+0x10>)
     644:	701a      	strb	r2, [r3, #0]
	HWRITE(IPC_MCU_STATE,IPC_MCU_STATE_RUNNING);
     646:	2200      	movs	r2, #0
     648:	4b02      	ldr	r3, [pc, #8]	; (654 <IPC_set_nack_flag+0x14>)
     64a:	701a      	strb	r2, [r3, #0]
}
     64c:	4770      	bx	lr
     64e:	46c0      	nop			; (mov r8, r8)
     650:	10004333 	.word	0x10004333
     654:	10004334 	.word	0x10004334

00000658 <IPC_clear_flag>:

void IPC_clear_flag()
{
	HWRITE(IPC_MCU_PHASE,IPC_MCU_PHASE_IDLE);
     658:	2300      	movs	r3, #0
     65a:	4a02      	ldr	r2, [pc, #8]	; (664 <IPC_clear_flag+0xc>)
     65c:	7013      	strb	r3, [r2, #0]
	HWRITE(IPC_MCU_STATE,IPC_MCU_STATE_RUNNING);
     65e:	4a02      	ldr	r2, [pc, #8]	; (668 <IPC_clear_flag+0x10>)
     660:	7013      	strb	r3, [r2, #0]
}
     662:	4770      	bx	lr
     664:	10004333 	.word	0x10004333
     668:	10004334 	.word	0x10004334

0000066c <IPC_wait_ack>:
	int i;
	while(1)
	{
		i = 500;
		while(i--);
		switch (HREAD(IPC_MCU_PHASE))
     66c:	4a02      	ldr	r2, [pc, #8]	; (678 <IPC_wait_ack+0xc>)
     66e:	7813      	ldrb	r3, [r2, #0]
     670:	2b00      	cmp	r3, #0
     672:	d1fc      	bne.n	66e <IPC_wait_ack+0x2>
				break;
			case IPC_MCU_PHASE_IDLE:
				return;
		}
	}
}
     674:	4770      	bx	lr
     676:	46c0      	nop			; (mov r8, r8)
     678:	10004333 	.word	0x10004333

0000067c <hw_delay>:

#define BW(addr)			(int)*(addr) << 24 | (int)*(addr + 1) << 16 | (int)*(addr + 2) << 8 | *(addr + 3)

static inline void hw_delay() 
{
	__asm__ __volatile__("nop");
     67c:	46c0      	nop			; (mov r8, r8)
	__asm__ __volatile__("nop");
     67e:	46c0      	nop			; (mov r8, r8)
	__asm__ __volatile__("nop");
     680:	46c0      	nop			; (mov r8, r8)
	__asm__ __volatile__("nop");
     682:	46c0      	nop			; (mov r8, r8)
	__asm__ __volatile__("nop");
     684:	46c0      	nop			; (mov r8, r8)
}
     686:	4770      	bx	lr

00000688 <BLE_SetAdvData>:
#include "ble_adv.h"


void BLE_SetAdvData(uint8_t* Dt, uint16_t Size)
{
     688:	b510      	push	{r4, lr}
	IPC_TxCommon(IPC_MESH_ADV_DATA, Dt, Size);
     68a:	b2ca      	uxtb	r2, r1
     68c:	0001      	movs	r1, r0
     68e:	2008      	movs	r0, #8
     690:	f7ff fe8d 	bl	3ae <IPC_TxCommon>
}
     694:	bd10      	pop	{r4, pc}

00000696 <BLE_SetScanData>:

void BLE_SetScanData(uint8_t* Dt, uint16_t Size)
{
     696:	b510      	push	{r4, lr}
	IPC_TxCommon(IPC_MESH_RSP_DATA, Dt, Size);
     698:	b2ca      	uxtb	r2, r1
     69a:	0001      	movs	r1, r0
     69c:	2009      	movs	r0, #9
     69e:	f7ff fe86 	bl	3ae <IPC_TxCommon>
}
     6a2:	bd10      	pop	{r4, pc}

000006a4 <BLE_StopAdv>:

void BLE_StopAdv()
{
     6a4:	b510      	push	{r4, lr}
	IPC_TxControlCmd(IPC_CMD_STOP_ADV);
     6a6:	200e      	movs	r0, #14
     6a8:	f7ff fe9f 	bl	3ea <IPC_TxControlCmd>
}
     6ac:	bd10      	pop	{r4, pc}

000006ae <BLE_StartAdv>:

void BLE_StartAdv()
{
     6ae:	b510      	push	{r4, lr}
	IPC_TxControlCmd(IPC_CMD_START_ADV);
     6b0:	200d      	movs	r0, #13
     6b2:	f7ff fe9a 	bl	3ea <IPC_TxControlCmd>
}
     6b6:	bd10      	pop	{r4, pc}

000006b8 <BLE_StartScan>:

void BLE_StartScan()
{
     6b8:	b510      	push	{r4, lr}
	IPC_TxControlCmd(IPC_CMD_START_SCAN);
     6ba:	2017      	movs	r0, #23
     6bc:	f7ff fe95 	bl	3ea <IPC_TxControlCmd>
}
     6c0:	bd10      	pop	{r4, pc}

000006c2 <BLE_StopScan>:

void BLE_StopScan()
{
     6c2:	b510      	push	{r4, lr}
	IPC_TxControlCmd(IPC_CMD_STOP_SCAN);
     6c4:	2018      	movs	r0, #24
     6c6:	f7ff fe90 	bl	3ea <IPC_TxControlCmd>
}
     6ca:	bd10      	pop	{r4, pc}

000006cc <BLE_SetMacAddr>:


void BLE_SetMacAddr(tBTADDR Addr)
{
     6cc:	b530      	push	{r4, r5, lr}
	for (uint8_t i=0; i< BT_ADDR_SIZE; i++) {
		HWRITE(mem_le_lap+i, Addr[BT_ADDR_SIZE-1-i]);
     6ce:	2480      	movs	r4, #128	; 0x80
	IPC_TxControlCmd(IPC_CMD_STOP_SCAN);
}


void BLE_SetMacAddr(tBTADDR Addr)
{
     6d0:	2300      	movs	r3, #0
	for (uint8_t i=0; i< BT_ADDR_SIZE; i++) {
		HWRITE(mem_le_lap+i, Addr[BT_ADDR_SIZE-1-i]);
     6d2:	4d05      	ldr	r5, [pc, #20]	; (6e8 <BLE_SetMacAddr+0x1c>)
     6d4:	0564      	lsls	r4, r4, #21
     6d6:	18c1      	adds	r1, r0, r3
     6d8:	1aea      	subs	r2, r5, r3
     6da:	7949      	ldrb	r1, [r1, #5]
     6dc:	4322      	orrs	r2, r4
     6de:	3b01      	subs	r3, #1
     6e0:	7011      	strb	r1, [r2, #0]
}


void BLE_SetMacAddr(tBTADDR Addr)
{
	for (uint8_t i=0; i< BT_ADDR_SIZE; i++) {
     6e2:	1d9a      	adds	r2, r3, #6
     6e4:	d1f7      	bne.n	6d6 <BLE_SetMacAddr+0xa>
		HWRITE(mem_le_lap+i, Addr[BT_ADDR_SIZE-1-i]);
	}
}
     6e6:	bd30      	pop	{r4, r5, pc}
     6e8:	0000450c 	.word	0x0000450c

000006ec <BLE_SetAdvType>:

void BLE_SetAdvType(enum advType Type)
{
	HWRITE(mem_le_adv_type, Type);
     6ec:	4b01      	ldr	r3, [pc, #4]	; (6f4 <BLE_SetAdvType+0x8>)
     6ee:	7018      	strb	r0, [r3, #0]
}
     6f0:	4770      	bx	lr
     6f2:	46c0      	nop			; (mov r8, r8)
     6f4:	100044ee 	.word	0x100044ee

000006f8 <BLE_SetScanRspType>:

void BLE_SetScanRspType(enum scanType Type)
{
	HWRITE(mem_le_scan_type, Type);
     6f8:	4b01      	ldr	r3, [pc, #4]	; (700 <BLE_SetScanRspType+0x8>)
     6fa:	7018      	strb	r0, [r3, #0]
}
     6fc:	4770      	bx	lr
     6fe:	46c0      	nop			; (mov r8, r8)
     700:	10004509 	.word	0x10004509

00000704 <BLE_SetAdvInterval>:

void BLE_SetAdvInterval(uint16_t Intv)
{
     704:	b510      	push	{r4, lr}
     706:	0004      	movs	r4, r0
#define OS_EXIT_CRITICAL() __enable_irq() 


static inline void HW_REG_16BIT(uint32_t reg, uint16_t word)
{
    HW_REG_8BIT(reg, word & 0x00FF);
     708:	4b04      	ldr	r3, [pc, #16]	; (71c <BLE_SetAdvInterval+0x18>)
     70a:	b2c2      	uxtb	r2, r0
     70c:	701a      	strb	r2, [r3, #0]
    hw_delay();
     70e:	f7ff ffb5 	bl	67c <hw_delay>
    HW_REG_8BIT(reg + 1,(word >> 8));
     712:	4b03      	ldr	r3, [pc, #12]	; (720 <BLE_SetAdvInterval+0x1c>)
     714:	0a24      	lsrs	r4, r4, #8
     716:	701c      	strb	r4, [r3, #0]
	HW_REG_16BIT(reg_map(mem_le_adv_interval_max), Intv);
}
     718:	bd10      	pop	{r4, pc}
     71a:	46c0      	nop			; (mov r8, r8)
     71c:	100044ec 	.word	0x100044ec
     720:	100044ed 	.word	0x100044ed

00000724 <BLE_SetScanInterval>:

void BLE_SetScanInterval(uint16_t Intv)
{
     724:	b510      	push	{r4, lr}
     726:	0004      	movs	r4, r0
#define OS_EXIT_CRITICAL() __enable_irq() 


static inline void HW_REG_16BIT(uint32_t reg, uint16_t word)
{
    HW_REG_8BIT(reg, word & 0x00FF);
     728:	4b04      	ldr	r3, [pc, #16]	; (73c <BLE_SetScanInterval+0x18>)
     72a:	b2c2      	uxtb	r2, r0
     72c:	701a      	strb	r2, [r3, #0]
    hw_delay();
     72e:	f7ff ffa5 	bl	67c <hw_delay>
    HW_REG_8BIT(reg + 1,(word >> 8));
     732:	4b03      	ldr	r3, [pc, #12]	; (740 <BLE_SetScanInterval+0x1c>)
     734:	0a24      	lsrs	r4, r4, #8
     736:	701c      	strb	r4, [r3, #0]
	HW_REG_16BIT(reg_map(mem_le_scan_interval), Intv);
}
     738:	bd10      	pop	{r4, pc}
     73a:	46c0      	nop			; (mov r8, r8)
     73c:	100043ac 	.word	0x100043ac
     740:	100043ad 	.word	0x100043ad

00000744 <BLE_SetScanParameter>:
void BLE_SetScanParameter(uint16_t Intv, uint16_t uIntWindow)
{
     744:	b570      	push	{r4, r5, r6, lr}
     746:	0005      	movs	r5, r0
     748:	000c      	movs	r4, r1
#define OS_EXIT_CRITICAL() __enable_irq() 


static inline void HW_REG_16BIT(uint32_t reg, uint16_t word)
{
    HW_REG_8BIT(reg, word & 0x00FF);
     74a:	4b08      	ldr	r3, [pc, #32]	; (76c <BLE_SetScanParameter+0x28>)
     74c:	b2c2      	uxtb	r2, r0
     74e:	701a      	strb	r2, [r3, #0]
    hw_delay();
     750:	f7ff ff94 	bl	67c <hw_delay>
    HW_REG_8BIT(reg + 1,(word >> 8));
     754:	4b06      	ldr	r3, [pc, #24]	; (770 <BLE_SetScanParameter+0x2c>)
     756:	0a2d      	lsrs	r5, r5, #8
     758:	701d      	strb	r5, [r3, #0]
#define OS_EXIT_CRITICAL() __enable_irq() 


static inline void HW_REG_16BIT(uint32_t reg, uint16_t word)
{
    HW_REG_8BIT(reg, word & 0x00FF);
     75a:	4b06      	ldr	r3, [pc, #24]	; (774 <BLE_SetScanParameter+0x30>)
     75c:	b2e2      	uxtb	r2, r4
     75e:	701a      	strb	r2, [r3, #0]
    hw_delay();
     760:	f7ff ff8c 	bl	67c <hw_delay>
    HW_REG_8BIT(reg + 1,(word >> 8));
     764:	4b04      	ldr	r3, [pc, #16]	; (778 <BLE_SetScanParameter+0x34>)
     766:	0a24      	lsrs	r4, r4, #8
     768:	701c      	strb	r4, [r3, #0]
	HW_REG_16BIT(reg_map(mem_le_scan_interval), Intv);
	
	HW_REG_16BIT(reg_map(mem_le_scan_window), uIntWindow);
}
     76a:	bd70      	pop	{r4, r5, r6, pc}
     76c:	100043ac 	.word	0x100043ac
     770:	100043ad 	.word	0x100043ad
     774:	100043ae 	.word	0x100043ae
     778:	100043af 	.word	0x100043af

0000077c <hw_delay>:

#define BW(addr)			(int)*(addr) << 24 | (int)*(addr + 1) << 16 | (int)*(addr + 2) << 8 | *(addr + 3)

static inline void hw_delay() 
{
	__asm__ __volatile__("nop");
     77c:	46c0      	nop			; (mov r8, r8)
	__asm__ __volatile__("nop");
     77e:	46c0      	nop			; (mov r8, r8)
	__asm__ __volatile__("nop");
     780:	46c0      	nop			; (mov r8, r8)
	__asm__ __volatile__("nop");
     782:	46c0      	nop			; (mov r8, r8)
	__asm__ __volatile__("nop");
     784:	46c0      	nop			; (mov r8, r8)
}
     786:	4770      	bx	lr

00000788 <HW_REG_16BIT>:
#define OS_ENTER_CRITICAL() __disable_irq() 
#define OS_EXIT_CRITICAL() __enable_irq() 


static inline void HW_REG_16BIT(uint32_t reg, uint16_t word)
{
     788:	b570      	push	{r4, r5, r6, lr}
     78a:	000c      	movs	r4, r1
     78c:	0005      	movs	r5, r0
    HW_REG_8BIT(reg, word & 0x00FF);
     78e:	b2cb      	uxtb	r3, r1
     790:	7003      	strb	r3, [r0, #0]
    hw_delay();
    HW_REG_8BIT(reg + 1,(word >> 8));
     792:	0a24      	lsrs	r4, r4, #8


static inline void HW_REG_16BIT(uint32_t reg, uint16_t word)
{
    HW_REG_8BIT(reg, word & 0x00FF);
    hw_delay();
     794:	f7ff fff2 	bl	77c <hw_delay>
    HW_REG_8BIT(reg + 1,(word >> 8));
     798:	706c      	strb	r4, [r5, #1]
}
     79a:	bd70      	pop	{r4, r5, r6, pc}

0000079c <HR_REG_16BIT>:
static inline uint16_t HR_REG_16BIT(uint32_t reg)
{
     79c:	b570      	push	{r4, r5, r6, lr}
     79e:	0005      	movs	r5, r0
	uint16_t return_data = 0;
	uint16_t H_data = 0;
	hw_delay();
     7a0:	f7ff ffec 	bl	77c <hw_delay>
	return_data = HR_REG_8BIT(reg);
     7a4:	782c      	ldrb	r4, [r5, #0]
	hw_delay();
     7a6:	f7ff ffe9 	bl	77c <hw_delay>
	H_data = HR_REG_8BIT(reg + 1);
     7aa:	7868      	ldrb	r0, [r5, #1]
static inline uint16_t HR_REG_16BIT(uint32_t reg)
{
	uint16_t return_data = 0;
	uint16_t H_data = 0;
	hw_delay();
	return_data = HR_REG_8BIT(reg);
     7ac:	b2e4      	uxtb	r4, r4
	hw_delay();
	H_data = HR_REG_8BIT(reg + 1);
	return_data = (return_data | ((H_data << 8) & 0xFF00));
	return return_data;
     7ae:	0200      	lsls	r0, r0, #8
     7b0:	4320      	orrs	r0, r4
}
     7b2:	bd70      	pop	{r4, r5, r6, pc}

000007b4 <usartInitByBackup>:

UartxRegControlBackup regBeck[UART_PER_NUM];


static void usartInitByBackup(USART_TypeDef USARTx)
{
     7b4:	b5f8      	push	{r3, r4, r5, r6, r7, lr}
	uint16_t UartxCtrlAdr = 0;
	UartxRegDef *UartAdr = NULL;
	/*set uart control*/
	if(USARTx == UARTA) {
     7b6:	2800      	cmp	r0, #0
     7b8:	d004      	beq.n	7c4 <usartInitByBackup+0x10>
		UartxCtrlAdr = CORE_UART_CTRL;
		UartAdr = (UartxRegDef *)(reg_map(CORE_UART_BAUD));
	}else if(USARTx == UARTB) {
     7ba:	2801      	cmp	r0, #1
     7bc:	d105      	bne.n	7ca <usartInitByBackup+0x16>
		UartxCtrlAdr = CORE_UARTB_CTRL;
		UartAdr = (UartxRegDef *)(reg_map(CORE_UARTB_BAUD));
     7be:	4e1b      	ldr	r6, [pc, #108]	; (82c <usartInitByBackup+0x78>)
	/*set uart control*/
	if(USARTx == UARTA) {
		UartxCtrlAdr = CORE_UART_CTRL;
		UartAdr = (UartxRegDef *)(reg_map(CORE_UART_BAUD));
	}else if(USARTx == UARTB) {
		UartxCtrlAdr = CORE_UARTB_CTRL;
     7c0:	4b1b      	ldr	r3, [pc, #108]	; (830 <usartInitByBackup+0x7c>)
     7c2:	e004      	b.n	7ce <usartInitByBackup+0x1a>
	uint16_t UartxCtrlAdr = 0;
	UartxRegDef *UartAdr = NULL;
	/*set uart control*/
	if(USARTx == UARTA) {
		UartxCtrlAdr = CORE_UART_CTRL;
		UartAdr = (UartxRegDef *)(reg_map(CORE_UART_BAUD));
     7c4:	4e1b      	ldr	r6, [pc, #108]	; (834 <usartInitByBackup+0x80>)
{
	uint16_t UartxCtrlAdr = 0;
	UartxRegDef *UartAdr = NULL;
	/*set uart control*/
	if(USARTx == UARTA) {
		UartxCtrlAdr = CORE_UART_CTRL;
     7c6:	4b1c      	ldr	r3, [pc, #112]	; (838 <usartInitByBackup+0x84>)
     7c8:	e001      	b.n	7ce <usartInitByBackup+0x1a>


static void usartInitByBackup(USART_TypeDef USARTx)
{
	uint16_t UartxCtrlAdr = 0;
	UartxRegDef *UartAdr = NULL;
     7ca:	2600      	movs	r6, #0
UartxRegControlBackup regBeck[UART_PER_NUM];


static void usartInitByBackup(USART_TypeDef USARTx)
{
	uint16_t UartxCtrlAdr = 0;
     7cc:	0033      	movs	r3, r6
	}else if(USARTx == UARTB) {
		UartxCtrlAdr = CORE_UARTB_CTRL;
		UartAdr = (UartxRegDef *)(reg_map(CORE_UARTB_BAUD));
	}

	HWCOR(UartxCtrlAdr, 1);
     7ce:	2580      	movs	r5, #128	; 0x80
     7d0:	2201      	movs	r2, #1
     7d2:	056d      	lsls	r5, r5, #21
     7d4:	431d      	orrs	r5, r3
     7d6:	782b      	ldrb	r3, [r5, #0]

	/*init all reg by backup*/
	HW_REG_16BIT(((uint32_t)(&UartAdr->Baudrate)), regBeck[USARTx].rbu.Baudrate);
     7d8:	4f18      	ldr	r7, [pc, #96]	; (83c <usartInitByBackup+0x88>)
	}else if(USARTx == UARTB) {
		UartxCtrlAdr = CORE_UARTB_CTRL;
		UartAdr = (UartxRegDef *)(reg_map(CORE_UARTB_BAUD));
	}

	HWCOR(UartxCtrlAdr, 1);
     7da:	4393      	bics	r3, r2
     7dc:	702b      	strb	r3, [r5, #0]

	/*init all reg by backup*/
	HW_REG_16BIT(((uint32_t)(&UartAdr->Baudrate)), regBeck[USARTx].rbu.Baudrate);
     7de:	0104      	lsls	r4, r0, #4
     7e0:	5be1      	ldrh	r1, [r4, r7]
     7e2:	0030      	movs	r0, r6
     7e4:	f7ff ffd0 	bl	788 <HW_REG_16BIT>
	HW_REG_16BIT(((uint32_t)(&UartAdr->TxSadr)), (uint32_t)regBeck[USARTx].rbu.TxSadr);
     7e8:	0030      	movs	r0, r6
     7ea:	193c      	adds	r4, r7, r4
     7ec:	8921      	ldrh	r1, [r4, #8]
     7ee:	3008      	adds	r0, #8
     7f0:	f7ff ffca 	bl	788 <HW_REG_16BIT>
	HW_REG_16BIT(((uint32_t)(&UartAdr->TxEadr)), (uint32_t)regBeck[USARTx].rbu.TxEadr);
     7f4:	0030      	movs	r0, r6
     7f6:	8961      	ldrh	r1, [r4, #10]
     7f8:	300a      	adds	r0, #10
     7fa:	f7ff ffc5 	bl	788 <HW_REG_16BIT>
	HW_REG_16BIT(((uint32_t)(&UartAdr->TxWptr)), (uint32_t)regBeck[USARTx].rbu.TxSadr);
     7fe:	0030      	movs	r0, r6
     800:	8921      	ldrh	r1, [r4, #8]
     802:	300c      	adds	r0, #12
     804:	f7ff ffc0 	bl	788 <HW_REG_16BIT>
	HW_REG_16BIT(((uint32_t)(&UartAdr->RxSadr)), (uint32_t)regBeck[USARTx].rbu.RxSadr);
     808:	1cb0      	adds	r0, r6, #2
     80a:	8861      	ldrh	r1, [r4, #2]
     80c:	f7ff ffbc 	bl	788 <HW_REG_16BIT>
	HW_REG_16BIT(((uint32_t)(&UartAdr->RxEadr)), (uint32_t)regBeck[USARTx].rbu.RxEadr);
     810:	1d30      	adds	r0, r6, #4
     812:	88a1      	ldrh	r1, [r4, #4]
     814:	f7ff ffb8 	bl	788 <HW_REG_16BIT>
	HW_REG_16BIT(((uint32_t)(&UartAdr->RxRptr)), (uint32_t)regBeck[USARTx].rbu.RxSadr);
     818:	1db0      	adds	r0, r6, #6
     81a:	8861      	ldrh	r1, [r4, #2]
     81c:	f7ff ffb4 	bl	788 <HW_REG_16BIT>
	HWOR(UartxCtrlAdr, regBeck[USARTx].cbu);
     820:	782a      	ldrb	r2, [r5, #0]
     822:	7ba3      	ldrb	r3, [r4, #14]
     824:	4313      	orrs	r3, r2
     826:	702b      	strb	r3, [r5, #0]
}
     828:	bdf8      	pop	{r3, r4, r5, r6, r7, pc}
     82a:	46c0      	nop			; (mov r8, r8)
     82c:	10008072 	.word	0x10008072
     830:	00008071 	.word	0x00008071
     834:	10008052 	.word	0x10008052
     838:	00008060 	.word	0x00008060
     83c:	10011024 	.word	0x10011024

00000840 <USART_Init>:
	return SUCCESS;
}
#endif

void USART_Init(USART_TypeDef USARTx, USART_InitTypeDef* USART_InitStruct)
{	
     840:	b5f7      	push	{r0, r1, r2, r4, r5, r6, r7, lr}
     842:	0006      	movs	r6, r0
     844:	1e0c      	subs	r4, r1, #0
#define BAUD_USE_SETTING (1<<7)
	void *Ptr = NULL;
	uint8_t CtrValue = 0;

	/*check parameter*/
	ASSERT(USART_InitStruct != NULL);
     846:	d100      	bne.n	84a <USART_Init+0xa>
     848:	e7fe      	b.n	848 <USART_Init+0x8>
	ASSERT(IS_USARTAB(USARTx));
     84a:	2e01      	cmp	r6, #1
     84c:	d8fd      	bhi.n	84a <USART_Init+0xa>
	ASSERT(IS_UARTE_BAUDRATE(USART_InitStruct->USART_BaudRate));
     84e:	6823      	ldr	r3, [r4, #0]
     850:	4a33      	ldr	r2, [pc, #204]	; (920 <USART_Init+0xe0>)
     852:	3b01      	subs	r3, #1
     854:	4293      	cmp	r3, r2
     856:	d8fd      	bhi.n	854 <USART_Init+0x14>
	ASSERT(IS_USART_WORD_LENGTH(USART_InitStruct->USART_WordLength));
     858:	2204      	movs	r2, #4
     85a:	88a3      	ldrh	r3, [r4, #4]
     85c:	4393      	bics	r3, r2
     85e:	2b00      	cmp	r3, #0
     860:	d1fd      	bne.n	85e <USART_Init+0x1e>
	ASSERT(IS_USART_STOPBITS(USART_InitStruct->USART_StopBits));
     862:	2208      	movs	r2, #8
     864:	88e3      	ldrh	r3, [r4, #6]
     866:	4393      	bics	r3, r2
     868:	2b00      	cmp	r3, #0
     86a:	d1fd      	bne.n	868 <USART_Init+0x28>
	ASSERT(IS_USART_PARITY(USART_InitStruct->USART_Parity));
     86c:	2202      	movs	r2, #2
     86e:	8923      	ldrh	r3, [r4, #8]
     870:	4393      	bics	r3, r2
     872:	2b00      	cmp	r3, #0
     874:	d1fd      	bne.n	872 <USART_Init+0x32>
	ASSERT(IS_USART_MODE(USART_InitStruct->USART_Mode));
     876:	2240      	movs	r2, #64	; 0x40
     878:	8963      	ldrh	r3, [r4, #10]
     87a:	4393      	bics	r3, r2
     87c:	2b00      	cmp	r3, #0
     87e:	d1fd      	bne.n	87c <USART_Init+0x3c>
	ASSERT(IS_USART_HARDWARE_FLOW_CONTROL(USART_InitStruct->USART_HardwareFlowControl));
     880:	2210      	movs	r2, #16
     882:	89a3      	ldrh	r3, [r4, #12]
     884:	4393      	bics	r3, r2
     886:	2b00      	cmp	r3, #0
     888:	d1fd      	bne.n	886 <USART_Init+0x46>
	ASSERT(IS_USART_TXLen(USART_InitStruct->USART_TXLen));
     88a:	89e3      	ldrh	r3, [r4, #14]
     88c:	2b00      	cmp	r3, #0
     88e:	d100      	bne.n	892 <USART_Init+0x52>
     890:	e7fe      	b.n	890 <USART_Init+0x50>
	ASSERT(IS_USART_RXLen(USART_InitStruct->USART_RXLen));
     892:	8a23      	ldrh	r3, [r4, #16]
     894:	2b00      	cmp	r3, #0
     896:	d100      	bne.n	89a <USART_Init+0x5a>
     898:	e7fe      	b.n	898 <USART_Init+0x58>

	HWRITE(CORE_UART_CLKSEL, 1);
     89a:	2101      	movs	r1, #1
	HWCOR(CORE_CLKOFF + 1, 0x80);
     89c:	227f      	movs	r2, #127	; 0x7f
	ASSERT(IS_USART_MODE(USART_InitStruct->USART_Mode));
	ASSERT(IS_USART_HARDWARE_FLOW_CONTROL(USART_InitStruct->USART_HardwareFlowControl));
	ASSERT(IS_USART_TXLen(USART_InitStruct->USART_TXLen));
	ASSERT(IS_USART_RXLen(USART_InitStruct->USART_RXLen));

	HWRITE(CORE_UART_CLKSEL, 1);
     89e:	4b21      	ldr	r3, [pc, #132]	; (924 <USART_Init+0xe4>)
	HWCOR(CORE_CLKOFF + 1, 0x80);
     8a0:	4821      	ldr	r0, [pc, #132]	; (928 <USART_Init+0xe8>)
	ASSERT(IS_USART_MODE(USART_InitStruct->USART_Mode));
	ASSERT(IS_USART_HARDWARE_FLOW_CONTROL(USART_InitStruct->USART_HardwareFlowControl));
	ASSERT(IS_USART_TXLen(USART_InitStruct->USART_TXLen));
	ASSERT(IS_USART_RXLen(USART_InitStruct->USART_RXLen));

	HWRITE(CORE_UART_CLKSEL, 1);
     8a2:	7019      	strb	r1, [r3, #0]
	HWCOR(CORE_CLKOFF + 1, 0x80);
     8a4:	7805      	ldrb	r5, [r0, #0]
     8a6:	402a      	ands	r2, r5
     8a8:	7002      	strb	r2, [r0, #0]
	if(USART_InitStruct->USART_BaudRate == BAUD9600){
     8aa:	6820      	ldr	r0, [r4, #0]
     8ac:	4a1f      	ldr	r2, [pc, #124]	; (92c <USART_Init+0xec>)
     8ae:	4290      	cmp	r0, r2
     8b0:	d102      	bne.n	8b8 <USART_Init+0x78>
		HWCOR(CORE_UART_CLKSEL, 0x01);
     8b2:	781a      	ldrb	r2, [r3, #0]
     8b4:	438a      	bics	r2, r1
     8b6:	701a      	strb	r2, [r3, #0]
	}

	/*init baud backup*/
	regBeck[USARTx].rbu.Baudrate = USART_InitStruct->USART_BaudRate;
     8b8:	4f1d      	ldr	r7, [pc, #116]	; (930 <USART_Init+0xf0>)
     8ba:	8823      	ldrh	r3, [r4, #0]
     8bc:	0135      	lsls	r5, r6, #4
     8be:	53eb      	strh	r3, [r5, r7]
	
	/*init tx ring buffer backup*/
	Ptr = malloc(USART_InitStruct->USART_TXLen);
     8c0:	89e3      	ldrh	r3, [r4, #14]
	regBeck[USARTx].rbu.TxSadr = (uint32_t)Ptr;
     8c2:	197d      	adds	r5, r7, r5

	/*init baud backup*/
	regBeck[USARTx].rbu.Baudrate = USART_InitStruct->USART_BaudRate;
	
	/*init tx ring buffer backup*/
	Ptr = malloc(USART_InitStruct->USART_TXLen);
     8c4:	0018      	movs	r0, r3
     8c6:	9301      	str	r3, [sp, #4]
     8c8:	f000 fab4 	bl	e34 <malloc>
	regBeck[USARTx].rbu.TxSadr = (uint32_t)Ptr;
     8cc:	b283      	uxth	r3, r0
     8ce:	812b      	strh	r3, [r5, #8]

	ASSERT(Ptr != NULL);	
     8d0:	2800      	cmp	r0, #0
     8d2:	d100      	bne.n	8d6 <USART_Init+0x96>
     8d4:	e7fe      	b.n	8d4 <USART_Init+0x94>
	regBeck[USARTx].rbu.TxEadr = ((uint32_t)Ptr) + USART_InitStruct->USART_TXLen;
     8d6:	9a01      	ldr	r2, [sp, #4]
     8d8:	18d3      	adds	r3, r2, r3
     8da:	816b      	strh	r3, [r5, #10]
	Ptr = NULL;
	
	/*init rx ring buffer backup*/
	Ptr = malloc(USART_InitStruct->USART_RXLen);
     8dc:	8a27      	ldrh	r7, [r4, #16]
     8de:	0038      	movs	r0, r7
     8e0:	f000 faa8 	bl	e34 <malloc>
	regBeck[USARTx].rbu.RxSadr = (uint32_t)Ptr;
     8e4:	b283      	uxth	r3, r0
     8e6:	806b      	strh	r3, [r5, #2]
	ASSERT(Ptr != NULL);	
     8e8:	2800      	cmp	r0, #0
     8ea:	d100      	bne.n	8ee <USART_Init+0xae>
     8ec:	e7fe      	b.n	8ec <USART_Init+0xac>
	regBeck[USARTx].rbu.RxEadr = ((uint32_t)Ptr) + USART_InitStruct->USART_RXLen;
     8ee:	18ff      	adds	r7, r7, r3
     8f0:	80af      	strh	r7, [r5, #4]

	CtrValue =  USART_InitStruct->USART_Mode | USART_InitStruct->USART_HardwareFlowControl |\
			  USART_InitStruct->USART_Parity |USART_InitStruct->USART_StopBits| \
			  USART_InitStruct->USART_WordLength|BAUD_USE_SETTING|UARTC_BIT_ENABLE;
	
	regBeck[USARTx].cbu = CtrValue;
     8f2:	8962      	ldrh	r2, [r4, #10]
     8f4:	89a3      	ldrh	r3, [r4, #12]
     8f6:	4313      	orrs	r3, r2
     8f8:	227f      	movs	r2, #127	; 0x7f
     8fa:	4252      	negs	r2, r2
     8fc:	4313      	orrs	r3, r2
     8fe:	8922      	ldrh	r2, [r4, #8]
     900:	4313      	orrs	r3, r2
     902:	88e2      	ldrh	r2, [r4, #6]
     904:	4313      	orrs	r3, r2
     906:	88a2      	ldrh	r2, [r4, #4]
     908:	4313      	orrs	r3, r2
     90a:	73ab      	strb	r3, [r5, #14]

	/*init rx ring buffer regs*/
	if(USARTx == UARTA) {
     90c:	2e00      	cmp	r6, #0
     90e:	d103      	bne.n	918 <USART_Init+0xd8>
		usartInitByBackup(UARTA);
     910:	0030      	movs	r0, r6
     912:	f7ff ff4f 	bl	7b4 <usartInitByBackup>
     916:	e002      	b.n	91e <USART_Init+0xde>
		//DEV_Register(Device_Id_UartA, usartAReinit, NULL);
	}
	else {
		usartInitByBackup(UARTB);
     918:	2001      	movs	r0, #1
     91a:	f7ff ff4b 	bl	7b4 <usartInitByBackup>
		//DEV_Register(Device_Id_UartB, usartBReinit, NULL);
	}

}
     91e:	bdf7      	pop	{r0, r1, r2, r4, r5, r6, r7, pc}
     920:	00008ffe 	.word	0x00008ffe
     924:	10008043 	.word	0x10008043
     928:	10008051 	.word	0x10008051
     92c:	000089c4 	.word	0x000089c4
     930:	10011024 	.word	0x10011024

00000934 <USART_DeInit>:


void USART_DeInit(USART_TypeDef USARTx)
{
     934:	b510      	push	{r4, lr}
	UartxRegDef *UartAdr = NULL;
	ASSERT(IS_USARTAB(USARTx));
     936:	2801      	cmp	r0, #1
     938:	d8fd      	bhi.n	936 <USART_DeInit+0x2>
     93a:	2201      	movs	r2, #1
	
	if(USARTx == UARTA) {
     93c:	2800      	cmp	r0, #0
     93e:	d108      	bne.n	952 <USART_DeInit+0x1e>
		HWOR(reg_map(CORE_UART_CTRL), (1<<0));
     940:	4b0b      	ldr	r3, [pc, #44]	; (970 <USART_DeInit+0x3c>)
		HWOR(reg_map(CORE_UART_CTRL), (0<<0));
		UartAdr = (UartxRegDef *)(reg_map(CORE_UART_BAUD));
     942:	4c0c      	ldr	r4, [pc, #48]	; (974 <USART_DeInit+0x40>)
{
	UartxRegDef *UartAdr = NULL;
	ASSERT(IS_USARTAB(USARTx));
	
	if(USARTx == UARTA) {
		HWOR(reg_map(CORE_UART_CTRL), (1<<0));
     944:	7819      	ldrb	r1, [r3, #0]
     946:	430a      	orrs	r2, r1
     948:	701a      	strb	r2, [r3, #0]
		HWOR(reg_map(CORE_UART_CTRL), (0<<0));
     94a:	781a      	ldrb	r2, [r3, #0]
     94c:	b2d2      	uxtb	r2, r2
     94e:	701a      	strb	r2, [r3, #0]
     950:	e007      	b.n	962 <USART_DeInit+0x2e>
		UartAdr = (UartxRegDef *)(reg_map(CORE_UART_BAUD));
	}else {

		HWOR(reg_map(CORE_UARTB_CTRL), (1<<0));
     952:	4b09      	ldr	r3, [pc, #36]	; (978 <USART_DeInit+0x44>)
		HWOR(reg_map(CORE_UARTB_CTRL), (0<<0));
		UartAdr = (UartxRegDef *)(reg_map(CORE_UARTB_BAUD));
     954:	4c09      	ldr	r4, [pc, #36]	; (97c <USART_DeInit+0x48>)
		HWOR(reg_map(CORE_UART_CTRL), (1<<0));
		HWOR(reg_map(CORE_UART_CTRL), (0<<0));
		UartAdr = (UartxRegDef *)(reg_map(CORE_UART_BAUD));
	}else {

		HWOR(reg_map(CORE_UARTB_CTRL), (1<<0));
     956:	7819      	ldrb	r1, [r3, #0]
     958:	430a      	orrs	r2, r1
     95a:	701a      	strb	r2, [r3, #0]
		HWOR(reg_map(CORE_UARTB_CTRL), (0<<0));
     95c:	781a      	ldrb	r2, [r3, #0]
     95e:	b2d2      	uxtb	r2, r2
     960:	701a      	strb	r2, [r3, #0]
		UartAdr = (UartxRegDef *)(reg_map(CORE_UARTB_BAUD));
	}
	free((void *)((uint32_t)(UartAdr->TxSadr)));
     962:	8920      	ldrh	r0, [r4, #8]
     964:	f000 fa70 	bl	e48 <free>
	free((void *)((uint32_t)(UartAdr->RxSadr)));
     968:	8860      	ldrh	r0, [r4, #2]
     96a:	f000 fa6d 	bl	e48 <free>
}
     96e:	bd10      	pop	{r4, pc}
     970:	10008060 	.word	0x10008060
     974:	10008052 	.word	0x10008052
     978:	10008071 	.word	0x10008071
     97c:	10008072 	.word	0x10008072

00000980 <USART_SendData>:



void USART_SendData(USART_TypeDef USARTx, uint16_t Data)
{
     980:	b5f7      	push	{r0, r1, r2, r4, r5, r6, r7, lr}
     982:	0006      	movs	r6, r0
     984:	9101      	str	r1, [sp, #4]
	UartxRegDef * UartAdr = NULL;
	uint16_t  WPtr = 0; 
	ASSERT(IS_USARTAB(USARTx));
     986:	2e01      	cmp	r6, #1
     988:	d8fd      	bhi.n	986 <USART_SendData+0x6>
	
	if(USARTx == UARTA) {
     98a:	2e00      	cmp	r6, #0
     98c:	d001      	beq.n	992 <USART_SendData+0x12>
		UartAdr = (UartxRegDef *)(reg_map(CORE_UART_BAUD));	
	}else {
		UartAdr = (UartxRegDef *)(reg_map(CORE_UARTB_BAUD));
     98e:	4c15      	ldr	r4, [pc, #84]	; (9e4 <USART_SendData+0x64>)
     990:	e000      	b.n	994 <USART_SendData+0x14>
	UartxRegDef * UartAdr = NULL;
	uint16_t  WPtr = 0; 
	ASSERT(IS_USARTAB(USARTx));
	
	if(USARTx == UARTA) {
		UartAdr = (UartxRegDef *)(reg_map(CORE_UART_BAUD));	
     992:	4c15      	ldr	r4, [pc, #84]	; (9e8 <USART_SendData+0x68>)
	}else {
		UartAdr = (UartxRegDef *)(reg_map(CORE_UARTB_BAUD));
	}
	ASSERT((&UartAdr->TxSadr  != NULL));
	
	WPtr = HR_REG_16BIT((uint32_t)(&UartAdr->TxWptr));
     994:	0027      	movs	r7, r4
     996:	370c      	adds	r7, #12
     998:	0038      	movs	r0, r7
     99a:	f7ff feff 	bl	79c <HR_REG_16BIT>
     99e:	0005      	movs	r5, r0
	if(USARTx == UARTA) {
     9a0:	2e00      	cmp	r6, #0
     9a2:	d104      	bne.n	9ae <USART_SendData+0x2e>
		while(HREAD(CORE_UART_TX_ITEMS) > 0);
     9a4:	4a11      	ldr	r2, [pc, #68]	; (9ec <USART_SendData+0x6c>)
     9a6:	7813      	ldrb	r3, [r2, #0]
     9a8:	2b00      	cmp	r3, #0
     9aa:	d1fc      	bne.n	9a6 <USART_SendData+0x26>
     9ac:	e003      	b.n	9b6 <USART_SendData+0x36>
	}else {
		while(HREAD(CORE_UARTB_TX_ITEMS) > 0);
     9ae:	4a10      	ldr	r2, [pc, #64]	; (9f0 <USART_SendData+0x70>)
     9b0:	7813      	ldrb	r3, [r2, #0]
     9b2:	2b00      	cmp	r3, #0
     9b4:	d1fc      	bne.n	9b0 <USART_SendData+0x30>
	}	
	HW_REG_8BIT(WPtr|M0_MEMORY_BASE,Data);	
     9b6:	466a      	mov	r2, sp
	RB_UPDATE_PTR(WPtr, HR_REG_16BIT((uint32_t)(&UartAdr->TxSadr)),  HR_REG_16BIT((uint32_t)(&UartAdr->TxEadr)));	
     9b8:	0020      	movs	r0, r4
	if(USARTx == UARTA) {
		while(HREAD(CORE_UART_TX_ITEMS) > 0);
	}else {
		while(HREAD(CORE_UARTB_TX_ITEMS) > 0);
	}	
	HW_REG_8BIT(WPtr|M0_MEMORY_BASE,Data);	
     9ba:	4b0e      	ldr	r3, [pc, #56]	; (9f4 <USART_SendData+0x74>)
     9bc:	7912      	ldrb	r2, [r2, #4]
     9be:	432b      	orrs	r3, r5
     9c0:	701a      	strb	r2, [r3, #0]
	RB_UPDATE_PTR(WPtr, HR_REG_16BIT((uint32_t)(&UartAdr->TxSadr)),  HR_REG_16BIT((uint32_t)(&UartAdr->TxEadr)));	
     9c2:	300a      	adds	r0, #10
     9c4:	f7ff feea 	bl	79c <HR_REG_16BIT>
     9c8:	1c69      	adds	r1, r5, #1
     9ca:	b289      	uxth	r1, r1
     9cc:	4285      	cmp	r5, r0
     9ce:	d104      	bne.n	9da <USART_SendData+0x5a>
	if(USARTx == UARTA) {
		UartAdr = (UartxRegDef *)(reg_map(CORE_UART_BAUD));	
	}else {
		UartAdr = (UartxRegDef *)(reg_map(CORE_UARTB_BAUD));
	}
	ASSERT((&UartAdr->TxSadr  != NULL));
     9d0:	0020      	movs	r0, r4
     9d2:	3008      	adds	r0, #8
		while(HREAD(CORE_UART_TX_ITEMS) > 0);
	}else {
		while(HREAD(CORE_UARTB_TX_ITEMS) > 0);
	}	
	HW_REG_8BIT(WPtr|M0_MEMORY_BASE,Data);	
	RB_UPDATE_PTR(WPtr, HR_REG_16BIT((uint32_t)(&UartAdr->TxSadr)),  HR_REG_16BIT((uint32_t)(&UartAdr->TxEadr)));	
     9d4:	f7ff fee2 	bl	79c <HR_REG_16BIT>
     9d8:	0001      	movs	r1, r0
	HW_REG_16BIT((uint32_t)(&UartAdr->TxWptr),  WPtr);                                                                                                		
     9da:	0038      	movs	r0, r7
     9dc:	f7ff fed4 	bl	788 <HW_REG_16BIT>
}
     9e0:	bdf7      	pop	{r0, r1, r2, r4, r5, r6, r7, pc}
     9e2:	46c0      	nop			; (mov r8, r8)
     9e4:	10008072 	.word	0x10008072
     9e8:	10008052 	.word	0x10008052
     9ec:	1000830e 	.word	0x1000830e
     9f0:	10008356 	.word	0x10008356
     9f4:	10010000 	.word	0x10010000

000009f8 <USART_ReceiveData>:



uint16_t USART_ReceiveData(USART_TypeDef USARTx)
{	
     9f8:	b5f8      	push	{r3, r4, r5, r6, r7, lr}
	UartxRegDef *UartAdr = NULL;
	uint16_t  RPtr = 0;
	uint16_t  RdData = 0;
	ASSERT(IS_USARTAB(USARTx)); 
     9fa:	2801      	cmp	r0, #1
     9fc:	d8fd      	bhi.n	9fa <USART_ReceiveData+0x2>

	if(USARTx == UARTA) {
     9fe:	2800      	cmp	r0, #0
     a00:	d001      	beq.n	a06 <USART_ReceiveData+0xe>
		UartAdr = (UartxRegDef *)(reg_map(CORE_UART_BAUD));	
	}else {
		UartAdr = (UartxRegDef *)(reg_map(CORE_UARTB_BAUD));
     a02:	4c0e      	ldr	r4, [pc, #56]	; (a3c <USART_ReceiveData+0x44>)
     a04:	e000      	b.n	a08 <USART_ReceiveData+0x10>
	uint16_t  RPtr = 0;
	uint16_t  RdData = 0;
	ASSERT(IS_USARTAB(USARTx)); 

	if(USARTx == UARTA) {
		UartAdr = (UartxRegDef *)(reg_map(CORE_UART_BAUD));	
     a06:	4c0e      	ldr	r4, [pc, #56]	; (a40 <USART_ReceiveData+0x48>)
	}else {
		UartAdr = (UartxRegDef *)(reg_map(CORE_UARTB_BAUD));
	}
	RPtr = HR_REG_16BIT((uint32_t)(&UartAdr->RxRptr));
     a08:	1da5      	adds	r5, r4, #6
     a0a:	0028      	movs	r0, r5
     a0c:	f7ff fec6 	bl	79c <HR_REG_16BIT>
     a10:	0007      	movs	r7, r0
	RdData = HR_REG_16BIT(RPtr|M0_MEMORY_BASE);
     a12:	480c      	ldr	r0, [pc, #48]	; (a44 <USART_ReceiveData+0x4c>)
     a14:	4338      	orrs	r0, r7
     a16:	f7ff fec1 	bl	79c <HR_REG_16BIT>
     a1a:	0006      	movs	r6, r0
	RB_UPDATE_PTR(RPtr, HR_REG_16BIT((uint32_t)(&UartAdr->RxSadr)), HR_REG_16BIT((uint32_t)(&UartAdr->RxEadr)));
     a1c:	1d20      	adds	r0, r4, #4
     a1e:	f7ff febd 	bl	79c <HR_REG_16BIT>
     a22:	1c79      	adds	r1, r7, #1
     a24:	b289      	uxth	r1, r1
     a26:	4287      	cmp	r7, r0
     a28:	d103      	bne.n	a32 <USART_ReceiveData+0x3a>
     a2a:	1ca0      	adds	r0, r4, #2
     a2c:	f7ff feb6 	bl	79c <HR_REG_16BIT>
     a30:	0001      	movs	r1, r0
	HW_REG_16BIT((uint32_t)(&UartAdr->RxRptr), RPtr);	
     a32:	0028      	movs	r0, r5
     a34:	f7ff fea8 	bl	788 <HW_REG_16BIT>
	return RdData;
}
     a38:	0030      	movs	r0, r6
     a3a:	bdf8      	pop	{r3, r4, r5, r6, r7, pc}
     a3c:	10008072 	.word	0x10008072
     a40:	10008052 	.word	0x10008052
     a44:	10010000 	.word	0x10010000

00000a48 <USART_GetRxCount>:


uint16_t USART_GetRxCount(USART_TypeDef USARTx)
{
     a48:	b510      	push	{r4, lr}
	ASSERT(IS_USARTAB(USARTx));
     a4a:	2801      	cmp	r0, #1
     a4c:	d8fd      	bhi.n	a4a <USART_GetRxCount+0x2>
	if(USARTx == UARTA) {
     a4e:	2800      	cmp	r0, #0
     a50:	d103      	bne.n	a5a <USART_GetRxCount+0x12>
		return HR_REG_16BIT(reg_map(CORE_UART_RX_ITEMS));
     a52:	4804      	ldr	r0, [pc, #16]	; (a64 <USART_GetRxCount+0x1c>)
     a54:	f7ff fea2 	bl	79c <HR_REG_16BIT>
     a58:	e002      	b.n	a60 <USART_GetRxCount+0x18>
	}else {
		return HR_REG_16BIT(reg_map(CORE_UARTB_RX_ITEMS));
     a5a:	4803      	ldr	r0, [pc, #12]	; (a68 <USART_GetRxCount+0x20>)
     a5c:	f7ff fe9e 	bl	79c <HR_REG_16BIT>
	}
}
     a60:	bd10      	pop	{r4, pc}
     a62:	46c0      	nop			; (mov r8, r8)
     a64:	10008312 	.word	0x10008312
     a68:	1000835a 	.word	0x1000835a

00000a6c <USART_ReadDatatoBuff>:


uint16_t USART_ReadDatatoBuff(USART_TypeDef USARTx, uint8_t* RxBuff, uint16_t RxSize)
{
     a6c:	b5f7      	push	{r0, r1, r2, r4, r5, r6, r7, lr}
     a6e:	000d      	movs	r5, r1
     a70:	0016      	movs	r6, r2
	uint16_t RxLen = 0;	
	uint16_t RPtr = 0;
	uint16_t RdataLen = 0;
	uint32_t RxITEMS = 0;
	UartxRegDef *UartAdr = NULL;
	ASSERT(IS_USARTAB(USARTx));
     a72:	2801      	cmp	r0, #1
     a74:	d8fd      	bhi.n	a72 <USART_ReadDatatoBuff+0x6>
	ASSERT(RxBuff != NULL);
     a76:	2d00      	cmp	r5, #0
     a78:	d100      	bne.n	a7c <USART_ReadDatatoBuff+0x10>
     a7a:	e7fe      	b.n	a7a <USART_ReadDatatoBuff+0xe>
	
	if(USARTx == UARTA) {
     a7c:	2800      	cmp	r0, #0
     a7e:	d002      	beq.n	a86 <USART_ReadDatatoBuff+0x1a>
		UartAdr = (UartxRegDef *)(reg_map(CORE_UART_BAUD));
		RxITEMS = reg_map(CORE_UART_RX_ITEMS);
	}else {
		UartAdr = (UartxRegDef *)(reg_map(CORE_UARTB_BAUD));
     a80:	4f1a      	ldr	r7, [pc, #104]	; (aec <USART_ReadDatatoBuff+0x80>)
		RxITEMS = reg_map(CORE_UARTB_RX_ITEMS);
     a82:	481b      	ldr	r0, [pc, #108]	; (af0 <USART_ReadDatatoBuff+0x84>)
     a84:	e001      	b.n	a8a <USART_ReadDatatoBuff+0x1e>
	UartxRegDef *UartAdr = NULL;
	ASSERT(IS_USARTAB(USARTx));
	ASSERT(RxBuff != NULL);
	
	if(USARTx == UARTA) {
		UartAdr = (UartxRegDef *)(reg_map(CORE_UART_BAUD));
     a86:	4f1b      	ldr	r7, [pc, #108]	; (af4 <USART_ReadDatatoBuff+0x88>)
		RxITEMS = reg_map(CORE_UART_RX_ITEMS);
     a88:	481b      	ldr	r0, [pc, #108]	; (af8 <USART_ReadDatatoBuff+0x8c>)
	}else {
		UartAdr = (UartxRegDef *)(reg_map(CORE_UARTB_BAUD));
		RxITEMS = reg_map(CORE_UARTB_RX_ITEMS);
	}
	RxLen = HR_REG_16BIT(reg_map(RxITEMS)); 
     a8a:	f7ff fe87 	bl	79c <HR_REG_16BIT>
	if (RxSize!=0) {
     a8e:	2e00      	cmp	r6, #0
     a90:	d003      	beq.n	a9a <USART_ReadDatatoBuff+0x2e>
		if (RxLen < RxSize) return 0; else RxLen = RxSize;
     a92:	2300      	movs	r3, #0
     a94:	42b0      	cmp	r0, r6
     a96:	d204      	bcs.n	aa2 <USART_ReadDatatoBuff+0x36>
     a98:	e025      	b.n	ae6 <USART_ReadDatatoBuff+0x7a>
     a9a:	0033      	movs	r3, r6
	}
	if (0 == RxLen) {
     a9c:	2800      	cmp	r0, #0
     a9e:	d022      	beq.n	ae6 <USART_ReadDatatoBuff+0x7a>
     aa0:	0006      	movs	r6, r0
        return 0;
	} else {
		RPtr = HR_REG_16BIT((uint32_t)(&UartAdr->RxRptr));
     aa2:	1dbb      	adds	r3, r7, #6
     aa4:	0018      	movs	r0, r3
     aa6:	9300      	str	r3, [sp, #0]
     aa8:	f7ff fe78 	bl	79c <HR_REG_16BIT>
     aac:	0004      	movs	r4, r0
     aae:	19ab      	adds	r3, r5, r6
     ab0:	9301      	str	r3, [sp, #4]
		for(RdataLen = 0; RdataLen<RxLen; RdataLen++ ){
     ab2:	9b01      	ldr	r3, [sp, #4]
     ab4:	429d      	cmp	r5, r3
     ab6:	d011      	beq.n	adc <USART_ReadDatatoBuff+0x70>
			RxBuff[RdataLen] = HR_REG_8BIT(RPtr|M0_MEMORY_BASE);   
     ab8:	4b10      	ldr	r3, [pc, #64]	; (afc <USART_ReadDatatoBuff+0x90>)
			RB_UPDATE_PTR(RPtr, HR_REG_16BIT((uint32_t)(&UartAdr->RxSadr)), HR_REG_16BIT((uint32_t)(&UartAdr->RxEadr)));
     aba:	1d38      	adds	r0, r7, #4
	if (0 == RxLen) {
        return 0;
	} else {
		RPtr = HR_REG_16BIT((uint32_t)(&UartAdr->RxRptr));
		for(RdataLen = 0; RdataLen<RxLen; RdataLen++ ){
			RxBuff[RdataLen] = HR_REG_8BIT(RPtr|M0_MEMORY_BASE);   
     abc:	4323      	orrs	r3, r4
     abe:	781b      	ldrb	r3, [r3, #0]
     ac0:	702b      	strb	r3, [r5, #0]
			RB_UPDATE_PTR(RPtr, HR_REG_16BIT((uint32_t)(&UartAdr->RxSadr)), HR_REG_16BIT((uint32_t)(&UartAdr->RxEadr)));
     ac2:	f7ff fe6b 	bl	79c <HR_REG_16BIT>
     ac6:	4284      	cmp	r4, r0
     ac8:	d104      	bne.n	ad4 <USART_ReadDatatoBuff+0x68>
     aca:	1cb8      	adds	r0, r7, #2
     acc:	f7ff fe66 	bl	79c <HR_REG_16BIT>
     ad0:	0004      	movs	r4, r0
     ad2:	e001      	b.n	ad8 <USART_ReadDatatoBuff+0x6c>
     ad4:	3401      	adds	r4, #1
     ad6:	b2a4      	uxth	r4, r4
     ad8:	3501      	adds	r5, #1
     ada:	e7ea      	b.n	ab2 <USART_ReadDatatoBuff+0x46>
		}
	}
	HW_REG_16BIT((uint32_t)(&UartAdr->RxRptr), (RPtr));
     adc:	0021      	movs	r1, r4
     ade:	9800      	ldr	r0, [sp, #0]
     ae0:	f7ff fe52 	bl	788 <HW_REG_16BIT>
	return RdataLen;
     ae4:	0033      	movs	r3, r6
}
     ae6:	0018      	movs	r0, r3
     ae8:	bdfe      	pop	{r1, r2, r3, r4, r5, r6, r7, pc}
     aea:	46c0      	nop			; (mov r8, r8)
     aec:	10008072 	.word	0x10008072
     af0:	1000835a 	.word	0x1000835a
     af4:	10008052 	.word	0x10008052
     af8:	10008312 	.word	0x10008312
     afc:	10010000 	.word	0x10010000

00000b00 <USART_SendDataFromBuff>:

uint16_t USART_SendDataFromBuff(USART_TypeDef USARTx, uint8_t* TxBuff, uint16_t TxLen)
{
     b00:	b5f7      	push	{r0, r1, r2, r4, r5, r6, r7, lr}
     b02:	000d      	movs	r5, r1
     b04:	0017      	movs	r7, r2
	uint16_t  WPtr = 0;
	uint16_t  SDataLen = 0;	
	UartxRegDef *UartAdr = NULL;
	ASSERT(IS_USARTAB(USARTx));
     b06:	2801      	cmp	r0, #1
     b08:	d8fd      	bhi.n	b06 <USART_SendDataFromBuff+0x6>
	ASSERT(TxBuff != 0);
     b0a:	2d00      	cmp	r5, #0
     b0c:	d100      	bne.n	b10 <USART_SendDataFromBuff+0x10>
     b0e:	e7fe      	b.n	b0e <USART_SendDataFromBuff+0xe>
	ASSERT(TxLen > 0);
     b10:	2f00      	cmp	r7, #0
     b12:	d100      	bne.n	b16 <USART_SendDataFromBuff+0x16>
     b14:	e7fe      	b.n	b14 <USART_SendDataFromBuff+0x14>
	
	if(USARTx == UARTA) {
     b16:	2800      	cmp	r0, #0
     b18:	d001      	beq.n	b1e <USART_SendDataFromBuff+0x1e>
		UartAdr = (UartxRegDef *)(reg_map(CORE_UART_BAUD));	
	}else {
		UartAdr = (UartxRegDef *)(reg_map(CORE_UARTB_BAUD));
     b1a:	4e14      	ldr	r6, [pc, #80]	; (b6c <USART_SendDataFromBuff+0x6c>)
     b1c:	e000      	b.n	b20 <USART_SendDataFromBuff+0x20>
	ASSERT(IS_USARTAB(USARTx));
	ASSERT(TxBuff != 0);
	ASSERT(TxLen > 0);
	
	if(USARTx == UARTA) {
		UartAdr = (UartxRegDef *)(reg_map(CORE_UART_BAUD));	
     b1e:	4e14      	ldr	r6, [pc, #80]	; (b70 <USART_SendDataFromBuff+0x70>)
	}else {
		UartAdr = (UartxRegDef *)(reg_map(CORE_UARTB_BAUD));
	}
   	WPtr = HR_REG_16BIT((uint32_t)(&UartAdr->TxWptr));
     b20:	0033      	movs	r3, r6
     b22:	330c      	adds	r3, #12
     b24:	0018      	movs	r0, r3
     b26:	9300      	str	r3, [sp, #0]
     b28:	f7ff fe38 	bl	79c <HR_REG_16BIT>
     b2c:	0004      	movs	r4, r0
     b2e:	19eb      	adds	r3, r5, r7
     b30:	9301      	str	r3, [sp, #4]
   	for (uint16_t i=0; i<TxLen; i++)  {	
     b32:	9b01      	ldr	r3, [sp, #4]
     b34:	429d      	cmp	r5, r3
     b36:	d013      	beq.n	b60 <USART_SendDataFromBuff+0x60>
		HW_REG_8BIT(WPtr|M0_MEMORY_BASE,TxBuff[i]);	
		RB_UPDATE_PTR(WPtr, HR_REG_16BIT((uint32_t)(&UartAdr->TxSadr)),  HR_REG_16BIT((uint32_t)(&UartAdr->TxEadr)));	   
     b38:	0030      	movs	r0, r6
	}else {
		UartAdr = (UartxRegDef *)(reg_map(CORE_UARTB_BAUD));
	}
   	WPtr = HR_REG_16BIT((uint32_t)(&UartAdr->TxWptr));
   	for (uint16_t i=0; i<TxLen; i++)  {	
		HW_REG_8BIT(WPtr|M0_MEMORY_BASE,TxBuff[i]);	
     b3a:	4b0e      	ldr	r3, [pc, #56]	; (b74 <USART_SendDataFromBuff+0x74>)
     b3c:	782a      	ldrb	r2, [r5, #0]
     b3e:	4323      	orrs	r3, r4
     b40:	701a      	strb	r2, [r3, #0]
		RB_UPDATE_PTR(WPtr, HR_REG_16BIT((uint32_t)(&UartAdr->TxSadr)),  HR_REG_16BIT((uint32_t)(&UartAdr->TxEadr)));	   
     b42:	300a      	adds	r0, #10
     b44:	f7ff fe2a 	bl	79c <HR_REG_16BIT>
     b48:	4284      	cmp	r4, r0
     b4a:	d105      	bne.n	b58 <USART_SendDataFromBuff+0x58>
     b4c:	0030      	movs	r0, r6
     b4e:	3008      	adds	r0, #8
     b50:	f7ff fe24 	bl	79c <HR_REG_16BIT>
     b54:	0004      	movs	r4, r0
     b56:	e001      	b.n	b5c <USART_SendDataFromBuff+0x5c>
     b58:	3401      	adds	r4, #1
     b5a:	b2a4      	uxth	r4, r4
     b5c:	3501      	adds	r5, #1
     b5e:	e7e8      	b.n	b32 <USART_SendDataFromBuff+0x32>
		SDataLen++;	
	}
	HW_REG_16BIT((uint32_t)(&UartAdr->TxWptr),  WPtr);  
     b60:	9800      	ldr	r0, [sp, #0]
     b62:	0021      	movs	r1, r4
     b64:	f7ff fe10 	bl	788 <HW_REG_16BIT>
	return SDataLen;
}
     b68:	0038      	movs	r0, r7
     b6a:	bdfe      	pop	{r1, r2, r3, r4, r5, r6, r7, pc}
     b6c:	10008072 	.word	0x10008072
     b70:	10008052 	.word	0x10008052
     b74:	10010000 	.word	0x10010000

00000b78 <UART_RemapToPrintf>:

static USART_TypeDef _printf_uart = UARTN;

int UART_RemapToPrintf(USART_TypeDef USARTx, uint8_t txPin, uint8_t rxPin)
{
     b78:	b5f0      	push	{r4, r5, r6, r7, lr}
     b7a:	0007      	movs	r7, r0
	_printf_uart = USARTx;
	/*init gpio*/	
	GPIO_CFG cfgTx ={FUNC_UARTB_TXD, GFG_PULLUP};
     b7c:	4b17      	ldr	r3, [pc, #92]	; (bdc <UART_RemapToPrintf+0x64>)
}

static USART_TypeDef _printf_uart = UARTN;

int UART_RemapToPrintf(USART_TypeDef USARTx, uint8_t txPin, uint8_t rxPin)
{
     b7e:	b089      	sub	sp, #36	; 0x24
     b80:	0016      	movs	r6, r2
	_printf_uart = USARTx;
     b82:	4d17      	ldr	r5, [pc, #92]	; (be0 <UART_RemapToPrintf+0x68>)
	/*init gpio*/	
	GPIO_CFG cfgTx ={FUNC_UARTB_TXD, GFG_PULLUP};
     b84:	781a      	ldrb	r2, [r3, #0]
}

static USART_TypeDef _printf_uart = UARTN;

int UART_RemapToPrintf(USART_TypeDef USARTx, uint8_t txPin, uint8_t rxPin)
{
     b86:	0008      	movs	r0, r1
	_printf_uart = USARTx;
	/*init gpio*/	
	GPIO_CFG cfgTx ={FUNC_UARTB_TXD, GFG_PULLUP};
     b88:	a901      	add	r1, sp, #4

static USART_TypeDef _printf_uart = UARTN;

int UART_RemapToPrintf(USART_TypeDef USARTx, uint8_t txPin, uint8_t rxPin)
{
	_printf_uart = USARTx;
     b8a:	702f      	strb	r7, [r5, #0]
	/*init gpio*/	
	GPIO_CFG cfgTx ={FUNC_UARTB_TXD, GFG_PULLUP};
     b8c:	700a      	strb	r2, [r1, #0]
     b8e:	001c      	movs	r4, r3
	if(USARTx == UARTA)
     b90:	2f00      	cmp	r7, #0
     b92:	d105      	bne.n	ba0 <UART_RemapToPrintf+0x28>
		cfgTx.pin_func = FUNC_UART_TXD;
     b94:	b2d3      	uxtb	r3, r2
     b96:	223f      	movs	r2, #63	; 0x3f
     b98:	4393      	bics	r3, r2
     b9a:	3a37      	subs	r2, #55	; 0x37
     b9c:	4313      	orrs	r3, r2
     b9e:	700b      	strb	r3, [r1, #0]
	bc_gpio_init(txPin, &cfgTx);
     ba0:	f000 f832 	bl	c08 <bc_gpio_init>
	
	GPIO_CFG cfgRx ={FUNC_UARTB_RXD, GFG_PULLUP};
     ba4:	7863      	ldrb	r3, [r4, #1]
     ba6:	a902      	add	r1, sp, #8
     ba8:	700b      	strb	r3, [r1, #0]
	if(USARTx == UARTA)
     baa:	2f00      	cmp	r7, #0
     bac:	d105      	bne.n	bba <UART_RemapToPrintf+0x42>
		cfgRx.pin_func = FUNC_UART_RXD;
     bae:	223f      	movs	r2, #63	; 0x3f
     bb0:	b2db      	uxtb	r3, r3
     bb2:	4393      	bics	r3, r2
     bb4:	3a36      	subs	r2, #54	; 0x36
     bb6:	4313      	orrs	r3, r2
     bb8:	700b      	strb	r3, [r1, #0]
	bc_gpio_init(rxPin, &cfgRx);
     bba:	0030      	movs	r0, r6
     bbc:	f000 f824 	bl	c08 <bc_gpio_init>

	/*cofig uart parameter*/	
	USART_InitTypeDef Uart = {BAUD921600, DATA_BITS_8b, STOP_BITS_1, PARITY_EVEN,
     bc0:	a903      	add	r1, sp, #12
     bc2:	000a      	movs	r2, r1
     bc4:	1d23      	adds	r3, r4, #4
     bc6:	cb51      	ldmia	r3!, {r0, r4, r6}
     bc8:	c251      	stmia	r2!, {r0, r4, r6}
     bca:	cb11      	ldmia	r3!, {r0, r4}
     bcc:	c211      	stmia	r2!, {r0, r4}
								MODE_DUPLEX, FLOW_CTRL_NONE, 128, 128};
	USART_Init(_printf_uart, &Uart);
     bce:	7828      	ldrb	r0, [r5, #0]
     bd0:	f7ff fe36 	bl	840 <USART_Init>
	return 0;
}
     bd4:	2000      	movs	r0, #0
     bd6:	b009      	add	sp, #36	; 0x24
     bd8:	bdf0      	pop	{r4, r5, r6, r7, pc}
     bda:	46c0      	nop			; (mov r8, r8)
     bdc:	00008fc8 	.word	0x00008fc8
     be0:	10010500 	.word	0x10010500

00000be4 <UART_PutChar>:

void UART_PutChar(char c)
{
	if(_printf_uart != UARTN)
     be4:	4b04      	ldr	r3, [pc, #16]	; (bf8 <UART_PutChar+0x14>)
	USART_Init(_printf_uart, &Uart);
	return 0;
}

void UART_PutChar(char c)
{
     be6:	0001      	movs	r1, r0
	if(_printf_uart != UARTN)
     be8:	7818      	ldrb	r0, [r3, #0]
	USART_Init(_printf_uart, &Uart);
	return 0;
}

void UART_PutChar(char c)
{
     bea:	b510      	push	{r4, lr}
	if(_printf_uart != UARTN)
     bec:	2802      	cmp	r0, #2
     bee:	d002      	beq.n	bf6 <UART_PutChar+0x12>
		USART_SendData(_printf_uart, (uint16_t)c);
     bf0:	b289      	uxth	r1, r1
     bf2:	f7ff fec5 	bl	980 <USART_SendData>
}
     bf6:	bd10      	pop	{r4, pc}
     bf8:	10010500 	.word	0x10010500

00000bfc <hw_delay>:

#define BW(addr)			(int)*(addr) << 24 | (int)*(addr + 1) << 16 | (int)*(addr + 2) << 8 | *(addr + 3)

static inline void hw_delay() 
{
	__asm__ __volatile__("nop");
     bfc:	46c0      	nop			; (mov r8, r8)
	__asm__ __volatile__("nop");
     bfe:	46c0      	nop			; (mov r8, r8)
	__asm__ __volatile__("nop");
     c00:	46c0      	nop			; (mov r8, r8)
	__asm__ __volatile__("nop");
     c02:	46c0      	nop			; (mov r8, r8)
	__asm__ __volatile__("nop");
     c04:	46c0      	nop			; (mov r8, r8)
}
     c06:	4770      	bx	lr

00000c08 <bc_gpio_init>:
#define IS_VALID_PIN(PIN)
#endif

void bc_gpio_init(uint8_t pin, GPIO_CFG* t)
{
	ASSERT(t != NULL);
     c08:	2900      	cmp	r1, #0
     c0a:	d100      	bne.n	c0e <bc_gpio_init+0x6>
     c0c:	e7fe      	b.n	c0c <bc_gpio_init+0x4>
     c0e:	2301      	movs	r3, #1
     c10:	281c      	cmp	r0, #28
     c12:	d803      	bhi.n	c1c <bc_gpio_init+0x14>
     c14:	4a07      	ldr	r2, [pc, #28]	; (c34 <bc_gpio_init+0x2c>)
     c16:	2301      	movs	r3, #1
     c18:	40c2      	lsrs	r2, r0
     c1a:	4393      	bics	r3, r2
     c1c:	b2db      	uxtb	r3, r3
	ASSERT(IS_VALID_PIN(pin));
     c1e:	2b00      	cmp	r3, #0
     c20:	d1fd      	bne.n	c1e <bc_gpio_init+0x16>
	HWRITE(CORE_GPIO_CONF + pin, *(uint8_t*)t);
     c22:	4b05      	ldr	r3, [pc, #20]	; (c38 <bc_gpio_init+0x30>)
     c24:	18c0      	adds	r0, r0, r3
     c26:	2380      	movs	r3, #128	; 0x80
     c28:	055b      	lsls	r3, r3, #21
     c2a:	4318      	orrs	r0, r3
     c2c:	780b      	ldrb	r3, [r1, #0]
     c2e:	7003      	strb	r3, [r0, #0]
}
     c30:	4770      	bx	lr
     c32:	46c0      	nop			; (mov r8, r8)
     c34:	1b884040 	.word	0x1b884040
     c38:	00008080 	.word	0x00008080

00000c3c <bc_gpio_deinit>:

void bc_gpio_deinit(uint8_t pin, GPIO_CFG* t)
{
	ASSERT(t != NULL);
     c3c:	2900      	cmp	r1, #0
     c3e:	d100      	bne.n	c42 <bc_gpio_deinit+0x6>
     c40:	e7fe      	b.n	c40 <bc_gpio_deinit+0x4>
     c42:	2301      	movs	r3, #1
     c44:	281c      	cmp	r0, #28
     c46:	d803      	bhi.n	c50 <bc_gpio_deinit+0x14>
     c48:	4a03      	ldr	r2, [pc, #12]	; (c58 <bc_gpio_deinit+0x1c>)
     c4a:	2301      	movs	r3, #1
     c4c:	40c2      	lsrs	r2, r0
     c4e:	4393      	bics	r3, r2
     c50:	b2db      	uxtb	r3, r3
	ASSERT(IS_VALID_PIN(pin));
     c52:	2b00      	cmp	r3, #0
     c54:	d1fd      	bne.n	c52 <bc_gpio_deinit+0x16>
}
     c56:	4770      	bx	lr
     c58:	1b884040 	.word	0x1b884040

00000c5c <bc_gpio_set>:

void bc_gpio_set(uint8_t pin, bool val)
{
     c5c:	b570      	push	{r4, r5, r6, lr}
     c5e:	2301      	movs	r3, #1
     c60:	0004      	movs	r4, r0
     c62:	000d      	movs	r5, r1
     c64:	281c      	cmp	r0, #28
     c66:	d803      	bhi.n	c70 <bc_gpio_set+0x14>
     c68:	4a0b      	ldr	r2, [pc, #44]	; (c98 <bc_gpio_set+0x3c>)
     c6a:	2301      	movs	r3, #1
     c6c:	40c2      	lsrs	r2, r0
     c6e:	4393      	bics	r3, r2
     c70:	b2db      	uxtb	r3, r3
	ASSERT(IS_VALID_PIN(pin));
     c72:	2b00      	cmp	r3, #0
     c74:	d1fd      	bne.n	c72 <bc_gpio_set+0x16>
	//GPIO_SetOut(pin, val);
	hw_delay();
     c76:	f7ff ffc1 	bl	bfc <hw_delay>
     c7a:	4b08      	ldr	r3, [pc, #32]	; (c9c <bc_gpio_set+0x40>)
     c7c:	18e4      	adds	r4, r4, r3
     c7e:	2380      	movs	r3, #128	; 0x80
     c80:	055b      	lsls	r3, r3, #21
	if (val)
		HWRITE(CORE_GPIO_CONF + pin, GPCFG_OUTPUT_HIGH);
     c82:	431c      	orrs	r4, r3
void bc_gpio_set(uint8_t pin, bool val)
{
	ASSERT(IS_VALID_PIN(pin));
	//GPIO_SetOut(pin, val);
	hw_delay();
	if (val)
     c84:	2d00      	cmp	r5, #0
     c86:	d002      	beq.n	c8e <bc_gpio_set+0x32>
		HWRITE(CORE_GPIO_CONF + pin, GPCFG_OUTPUT_HIGH);
     c88:	233f      	movs	r3, #63	; 0x3f
     c8a:	7023      	strb	r3, [r4, #0]
     c8c:	e001      	b.n	c92 <bc_gpio_set+0x36>
	else
		HWRITE(CORE_GPIO_CONF + pin, GPCFG_OUTPUT_LOW);
     c8e:	233e      	movs	r3, #62	; 0x3e
     c90:	7023      	strb	r3, [r4, #0]
	hw_delay();
     c92:	f7ff ffb3 	bl	bfc <hw_delay>
}
     c96:	bd70      	pop	{r4, r5, r6, pc}
     c98:	1b884040 	.word	0x1b884040
     c9c:	00008080 	.word	0x00008080

00000ca0 <bc_gpio_get>:

bool bc_gpio_get(uint8_t pin)
{
     ca0:	b510      	push	{r4, lr}
     ca2:	2301      	movs	r3, #1
     ca4:	0004      	movs	r4, r0
     ca6:	281c      	cmp	r0, #28
     ca8:	d803      	bhi.n	cb2 <bc_gpio_get+0x12>
     caa:	4a0d      	ldr	r2, [pc, #52]	; (ce0 <bc_gpio_get+0x40>)
     cac:	2301      	movs	r3, #1
     cae:	40c2      	lsrs	r2, r0
     cb0:	4393      	bics	r3, r2
     cb2:	b2db      	uxtb	r3, r3
	ASSERT(IS_VALID_PIN(pin));
     cb4:	2b00      	cmp	r3, #0
     cb6:	d1fd      	bne.n	cb4 <bc_gpio_get+0x14>
	hw_delay();
     cb8:	f7ff ffa0 	bl	bfc <hw_delay>
	register uint8_t group = 0;
	uint8_t st = 0;
	
	queue = (pin & 7);
	group = pin >> 3 & 3;
	st = HREAD(CORE_GPIO_IN+group);
     cbc:	06e3      	lsls	r3, r4, #27
     cbe:	4a09      	ldr	r2, [pc, #36]	; (ce4 <bc_gpio_get+0x44>)
     cc0:	0f9b      	lsrs	r3, r3, #30
     cc2:	189b      	adds	r3, r3, r2
     cc4:	2280      	movs	r2, #128	; 0x80
     cc6:	0552      	lsls	r2, r2, #21
     cc8:	4313      	orrs	r3, r2
     cca:	781a      	ldrb	r2, [r3, #0]
	return (st & (1 << queue));
     ccc:	2307      	movs	r3, #7
     cce:	401c      	ands	r4, r3
     cd0:	3b06      	subs	r3, #6
     cd2:	40a3      	lsls	r3, r4
     cd4:	0018      	movs	r0, r3
     cd6:	4010      	ands	r0, r2
     cd8:	1e43      	subs	r3, r0, #1
     cda:	4198      	sbcs	r0, r3
     cdc:	b2c0      	uxtb	r0, r0
}
     cde:	bd10      	pop	{r4, pc}
     ce0:	1b884040 	.word	0x1b884040
     ce4:	0000831c 	.word	0x0000831c

00000ce8 <_fstat>:
#include "bc62xx_ble.h"
//#include "Drv_debug.h"

int _fstat (int fd, struct stat *pStat)
{
	pStat->st_mode = S_IFCHR;
     ce8:	2380      	movs	r3, #128	; 0x80
     cea:	019b      	lsls	r3, r3, #6
	return 0;
}
     cec:	2000      	movs	r0, #0
#include "bc62xx_ble.h"
//#include "Drv_debug.h"

int _fstat (int fd, struct stat *pStat)
{
	pStat->st_mode = S_IFCHR;
     cee:	604b      	str	r3, [r1, #4]
	return 0;
}
     cf0:	4770      	bx	lr

00000cf2 <_close>:

int _close(int fd)
{
	return -1;
}
     cf2:	2001      	movs	r0, #1
     cf4:	4240      	negs	r0, r0
     cf6:	4770      	bx	lr

00000cf8 <_write>:

extern void UART_PutChar(char c);
int _write (int fd, char *ptr, int len)
{
     cf8:	b570      	push	{r4, r5, r6, lr}
     cfa:	000e      	movs	r6, r1
     cfc:	0014      	movs	r4, r2
     cfe:	000d      	movs	r5, r1
	int i = 0;

	if (fd > 2)
     d00:	2802      	cmp	r0, #2
     d02:	dc09      	bgt.n	d18 <_write+0x20>
		return -1;

	while(*ptr && (i < len))\
     d04:	7828      	ldrb	r0, [r5, #0]
     d06:	2800      	cmp	r0, #0
     d08:	d009      	beq.n	d1e <_write+0x26>
     d0a:	1bab      	subs	r3, r5, r6
     d0c:	429c      	cmp	r4, r3
     d0e:	dd06      	ble.n	d1e <_write+0x26>
	{
		UART_PutChar(*ptr);
     d10:	f7ff ff68 	bl	be4 <UART_PutChar>
		i++;
		ptr++;
     d14:	3501      	adds	r5, #1
     d16:	e7f5      	b.n	d04 <_write+0xc>
int _write (int fd, char *ptr, int len)
{
	int i = 0;

	if (fd > 2)
		return -1;
     d18:	2001      	movs	r0, #1
     d1a:	4240      	negs	r0, r0
     d1c:	e000      	b.n	d20 <_write+0x28>
     d1e:	0020      	movs	r0, r4
		i++;
		ptr++;
	}
   
 	return len;
}
     d20:	bd70      	pop	{r4, r5, r6, pc}

00000d22 <_isatty>:

int _isatty (int fd)
{
	return 1;
}
     d22:	2001      	movs	r0, #1
     d24:	4770      	bx	lr

00000d26 <_lseek>:

int _lseek(int fd, int offset, int fromwhere)
{
	return 0;
}
     d26:	2000      	movs	r0, #0
     d28:	4770      	bx	lr

00000d2a <_read>:

int _read (int fd, char *pBuffer, int size)
{
	return 0;
}
     d2a:	2000      	movs	r0, #0
     d2c:	4770      	bx	lr

00000d2e <_sbrk>:
caddr_t _sbrk(int increment)
{
	extern char end asm("end");
	register char *pStack asm("sp");
	static char *s_pHeapEnd;
	if (!s_pHeapEnd)
     d2e:	4b08      	ldr	r3, [pc, #32]	; (d50 <_sbrk+0x22>)
{
	return 0;
}

caddr_t _sbrk(int increment)
{
     d30:	0002      	movs	r2, r0
	extern char end asm("end");
	register char *pStack asm("sp");
	static char *s_pHeapEnd;
	if (!s_pHeapEnd)
     d32:	6819      	ldr	r1, [r3, #0]
     d34:	2900      	cmp	r1, #0
     d36:	d101      	bne.n	d3c <_sbrk+0xe>
		s_pHeapEnd = &end;
     d38:	4906      	ldr	r1, [pc, #24]	; (d54 <_sbrk+0x26>)
     d3a:	6019      	str	r1, [r3, #0]

	if (s_pHeapEnd + increment > pStack)
     d3c:	4669      	mov	r1, sp
     d3e:	6818      	ldr	r0, [r3, #0]
     d40:	1882      	adds	r2, r0, r2
     d42:	428a      	cmp	r2, r1
     d44:	d801      	bhi.n	d4a <_sbrk+0x1c>
		return (caddr_t)-1;

	char *pOldHeapEnd = s_pHeapEnd;
	s_pHeapEnd += increment;
     d46:	601a      	str	r2, [r3, #0]
	return (caddr_t)pOldHeapEnd;
     d48:	e001      	b.n	d4e <_sbrk+0x20>
	static char *s_pHeapEnd;
	if (!s_pHeapEnd)
		s_pHeapEnd = &end;

	if (s_pHeapEnd + increment > pStack)
		return (caddr_t)-1;
     d4a:	2001      	movs	r0, #1
     d4c:	4240      	negs	r0, r0

	char *pOldHeapEnd = s_pHeapEnd;
	s_pHeapEnd += increment;
	return (caddr_t)pOldHeapEnd;
}
     d4e:	4770      	bx	lr
     d50:	10010efc 	.word	0x10010efc
     d54:	10011048 	.word	0x10011048

00000d58 <_exit>:

void _exit(int status)
{
     d58:	e7fe      	b.n	d58 <_exit>

00000d5a <Default_Handler>:
	while(1);
}


void Default_Handler(void)
{
     d5a:	b510      	push	{r4, lr}
	printf("\r\n\r\nDefault_Handler\r\n\r\n");
     d5c:	4801      	ldr	r0, [pc, #4]	; (d64 <Default_Handler+0xa>)
     d5e:	f000 fc07 	bl	1570 <puts>
     d62:	e7fe      	b.n	d62 <Default_Handler+0x8>
     d64:	00008fe0 	.word	0x00008fe0

00000d68 <Reset_Handler>:
     d68:	490a      	ldr	r1, [pc, #40]	; (d94 <Reset_Handler+0x2c>)
     d6a:	4a0b      	ldr	r2, [pc, #44]	; (d98 <Reset_Handler+0x30>)
     d6c:	4b0b      	ldr	r3, [pc, #44]	; (d9c <Reset_Handler+0x34>)
     d6e:	1a9b      	subs	r3, r3, r2
     d70:	dd03      	ble.n	d7a <Reset_Handler+0x12>
     d72:	3b04      	subs	r3, #4
     d74:	58c8      	ldr	r0, [r1, r3]
     d76:	50d0      	str	r0, [r2, r3]
     d78:	dcfb      	bgt.n	d72 <Reset_Handler+0xa>
     d7a:	4909      	ldr	r1, [pc, #36]	; (da0 <Reset_Handler+0x38>)
     d7c:	4a09      	ldr	r2, [pc, #36]	; (da4 <Reset_Handler+0x3c>)
     d7e:	2000      	movs	r0, #0
     d80:	1a52      	subs	r2, r2, r1
     d82:	dd02      	ble.n	d8a <Reset_Handler+0x22>
     d84:	3a04      	subs	r2, #4
     d86:	5088      	str	r0, [r1, r2]
     d88:	dcfc      	bgt.n	d84 <Reset_Handler+0x1c>
     d8a:	4807      	ldr	r0, [pc, #28]	; (da8 <Reset_Handler+0x40>)
     d8c:	4b07      	ldr	r3, [pc, #28]	; (dac <Reset_Handler+0x44>)
     d8e:	f7ff f9cf 	bl	130 <main>
     d92:	0000      	.short	0x0000
     d94:	00009620 	.word	0x00009620
     d98:	10010500 	.word	0x10010500
     d9c:	10010eb0 	.word	0x10010eb0
     da0:	10010eb0 	.word	0x10010eb0
     da4:	10011048 	.word	0x10011048
     da8:	00012345 	.word	0x00012345
     dac:	00001111 	.word	0x00001111

00000db0 <DEF_IRQHandler>:
     db0:	e7fe      	b.n	db0 <DEF_IRQHandler>

00000db2 <__aeabi_idiv>:
     db2:	2800      	cmp	r0, #0
     db4:	da04      	bge.n	dc0 <L_num_pos>
     db6:	4240      	negs	r0, r0
     db8:	2900      	cmp	r1, #0
     dba:	da04      	bge.n	dc6 <L_neg_result>
     dbc:	4249      	negs	r1, r1
     dbe:	e020      	b.n	e02 <__aeabi_uidiv>

00000dc0 <L_num_pos>:
     dc0:	2900      	cmp	r1, #0
     dc2:	da1e      	bge.n	e02 <__aeabi_uidiv>
     dc4:	4249      	negs	r1, r1

00000dc6 <L_neg_result>:
     dc6:	b500      	push	{lr}
     dc8:	f000 f81b 	bl	e02 <__aeabi_uidiv>
     dcc:	4240      	negs	r0, r0
     dce:	bd00      	pop	{pc}

00000dd0 <__aeabi_idivmod>:
     dd0:	2800      	cmp	r0, #0
     dd2:	da0e      	bge.n	df2 <L_num_pos_bis>
     dd4:	4240      	negs	r0, r0
     dd6:	2900      	cmp	r1, #0
     dd8:	da05      	bge.n	de6 <L_neg_both>
     dda:	4249      	negs	r1, r1
     ddc:	b500      	push	{lr}
     dde:	f000 f810 	bl	e02 <__aeabi_uidiv>
     de2:	4249      	negs	r1, r1
     de4:	bd00      	pop	{pc}

00000de6 <L_neg_both>:
     de6:	b500      	push	{lr}
     de8:	f000 f80b 	bl	e02 <__aeabi_uidiv>
     dec:	4240      	negs	r0, r0
     dee:	4249      	negs	r1, r1
     df0:	bd00      	pop	{pc}

00000df2 <L_num_pos_bis>:
     df2:	2900      	cmp	r1, #0
     df4:	da05      	bge.n	e02 <__aeabi_uidiv>
     df6:	4249      	negs	r1, r1
     df8:	b500      	push	{lr}
     dfa:	f000 f802 	bl	e02 <__aeabi_uidiv>
     dfe:	4240      	negs	r0, r0
     e00:	bd00      	pop	{pc}

00000e02 <__aeabi_uidiv>:
     e02:	2900      	cmp	r1, #0
     e04:	d100      	bne.n	e08 <L_no_div0>
     e06:	e014      	b.n	e32 <__aeabi_idiv0>

00000e08 <L_no_div0>:
     e08:	2201      	movs	r2, #1
     e0a:	2300      	movs	r3, #0
     e0c:	4288      	cmp	r0, r1
     e0e:	d906      	bls.n	e1e <L_sub_loop0>
     e10:	3100      	adds	r1, #0
     e12:	d404      	bmi.n	e1e <L_sub_loop0>

00000e14 <L_denom_shift_loop>:
     e14:	0052      	lsls	r2, r2, #1
     e16:	0049      	lsls	r1, r1, #1
     e18:	d401      	bmi.n	e1e <L_sub_loop0>
     e1a:	4288      	cmp	r0, r1
     e1c:	d8fa      	bhi.n	e14 <L_denom_shift_loop>

00000e1e <L_sub_loop0>:
     e1e:	4288      	cmp	r0, r1
     e20:	d301      	bcc.n	e26 <L_dont_sub0>
     e22:	1a40      	subs	r0, r0, r1
     e24:	4313      	orrs	r3, r2

00000e26 <L_dont_sub0>:
     e26:	0849      	lsrs	r1, r1, #1
     e28:	0852      	lsrs	r2, r2, #1
     e2a:	d1f8      	bne.n	e1e <L_sub_loop0>
     e2c:	4601      	mov	r1, r0
     e2e:	4618      	mov	r0, r3
     e30:	4770      	bx	lr

00000e32 <__aeabi_idiv0>:
     e32:	e7fe      	b.n	e32 <__aeabi_idiv0>

00000e34 <malloc>:
     e34:	b510      	push	{r4, lr}
     e36:	4b03      	ldr	r3, [pc, #12]	; (e44 <malloc+0x10>)
     e38:	0001      	movs	r1, r0
     e3a:	6818      	ldr	r0, [r3, #0]
     e3c:	f000 f80e 	bl	e5c <_malloc_r>
     e40:	bd10      	pop	{r4, pc}
     e42:	46c0      	nop			; (mov r8, r8)
     e44:	10010d40 	.word	0x10010d40

00000e48 <free>:
     e48:	b510      	push	{r4, lr}
     e4a:	4b03      	ldr	r3, [pc, #12]	; (e58 <free+0x10>)
     e4c:	0001      	movs	r1, r0
     e4e:	6818      	ldr	r0, [r3, #0]
     e50:	f003 fb2e 	bl	44b0 <_free_r>
     e54:	bd10      	pop	{r4, pc}
     e56:	46c0      	nop			; (mov r8, r8)
     e58:	10010d40 	.word	0x10010d40

00000e5c <_malloc_r>:
     e5c:	b5f0      	push	{r4, r5, r6, r7, lr}
     e5e:	465f      	mov	r7, fp
     e60:	464d      	mov	r5, r9
     e62:	4656      	mov	r6, sl
     e64:	4644      	mov	r4, r8
     e66:	b4f0      	push	{r4, r5, r6, r7}
     e68:	000d      	movs	r5, r1
     e6a:	350b      	adds	r5, #11
     e6c:	b083      	sub	sp, #12
     e6e:	0007      	movs	r7, r0
     e70:	2d16      	cmp	r5, #22
     e72:	d800      	bhi.n	e76 <_malloc_r+0x1a>
     e74:	e0a8      	b.n	fc8 <_malloc_r+0x16c>
     e76:	2307      	movs	r3, #7
     e78:	439d      	bics	r5, r3
     e7a:	d500      	bpl.n	e7e <_malloc_r+0x22>
     e7c:	e0ce      	b.n	101c <Stack_Size+0x1c>
     e7e:	42a9      	cmp	r1, r5
     e80:	d900      	bls.n	e84 <_malloc_r+0x28>
     e82:	e0cb      	b.n	101c <Stack_Size+0x1c>
     e84:	f000 fb18 	bl	14b8 <__malloc_lock>
     e88:	23f8      	movs	r3, #248	; 0xf8
     e8a:	33ff      	adds	r3, #255	; 0xff
     e8c:	429d      	cmp	r5, r3
     e8e:	d800      	bhi.n	e92 <_malloc_r+0x36>
     e90:	e284      	b.n	139c <Stack_Size+0x39c>
     e92:	0a6b      	lsrs	r3, r5, #9
     e94:	d100      	bne.n	e98 <_malloc_r+0x3c>
     e96:	e0c5      	b.n	1024 <Stack_Size+0x24>
     e98:	2b04      	cmp	r3, #4
     e9a:	d900      	bls.n	e9e <_malloc_r+0x42>
     e9c:	e16c      	b.n	1178 <Stack_Size+0x178>
     e9e:	2338      	movs	r3, #56	; 0x38
     ea0:	09a9      	lsrs	r1, r5, #6
     ea2:	469c      	mov	ip, r3
     ea4:	3301      	adds	r3, #1
     ea6:	4698      	mov	r8, r3
     ea8:	4488      	add	r8, r1
     eaa:	4643      	mov	r3, r8
     eac:	448c      	add	ip, r1
     eae:	0059      	lsls	r1, r3, #1
     eb0:	4ec9      	ldr	r6, [pc, #804]	; (11d8 <Stack_Size+0x1d8>)
     eb2:	0089      	lsls	r1, r1, #2
     eb4:	1871      	adds	r1, r6, r1
     eb6:	3908      	subs	r1, #8
     eb8:	68cc      	ldr	r4, [r1, #12]
     eba:	42a1      	cmp	r1, r4
     ebc:	d017      	beq.n	eee <_malloc_r+0x92>
     ebe:	2303      	movs	r3, #3
     ec0:	6862      	ldr	r2, [r4, #4]
     ec2:	439a      	bics	r2, r3
     ec4:	0013      	movs	r3, r2
     ec6:	1b52      	subs	r2, r2, r5
     ec8:	2a0f      	cmp	r2, #15
     eca:	dd00      	ble.n	ece <_malloc_r+0x72>
     ecc:	e0b0      	b.n	1030 <Stack_Size+0x30>
     ece:	2003      	movs	r0, #3
     ed0:	2a00      	cmp	r2, #0
     ed2:	db09      	blt.n	ee8 <_malloc_r+0x8c>
     ed4:	e08d      	b.n	ff2 <_malloc_r+0x196>
     ed6:	6863      	ldr	r3, [r4, #4]
     ed8:	4383      	bics	r3, r0
     eda:	1b5a      	subs	r2, r3, r5
     edc:	2a0f      	cmp	r2, #15
     ede:	dd00      	ble.n	ee2 <_malloc_r+0x86>
     ee0:	e0a6      	b.n	1030 <Stack_Size+0x30>
     ee2:	2a00      	cmp	r2, #0
     ee4:	db00      	blt.n	ee8 <_malloc_r+0x8c>
     ee6:	e084      	b.n	ff2 <_malloc_r+0x196>
     ee8:	68e4      	ldr	r4, [r4, #12]
     eea:	42a1      	cmp	r1, r4
     eec:	d1f3      	bne.n	ed6 <_malloc_r+0x7a>
     eee:	4643      	mov	r3, r8
     ef0:	9300      	str	r3, [sp, #0]
     ef2:	0032      	movs	r2, r6
     ef4:	6934      	ldr	r4, [r6, #16]
     ef6:	3208      	adds	r2, #8
     ef8:	4294      	cmp	r4, r2
     efa:	d100      	bne.n	efe <_malloc_r+0xa2>
     efc:	e18f      	b.n	121e <Stack_Size+0x21e>
     efe:	2303      	movs	r3, #3
     f00:	6861      	ldr	r1, [r4, #4]
     f02:	4399      	bics	r1, r3
     f04:	000b      	movs	r3, r1
     f06:	1b48      	subs	r0, r1, r5
     f08:	280f      	cmp	r0, #15
     f0a:	dd00      	ble.n	f0e <_malloc_r+0xb2>
     f0c:	e176      	b.n	11fc <Stack_Size+0x1fc>
     f0e:	6172      	str	r2, [r6, #20]
     f10:	6132      	str	r2, [r6, #16]
     f12:	2800      	cmp	r0, #0
     f14:	da71      	bge.n	ffa <_malloc_r+0x19e>
     f16:	4ab1      	ldr	r2, [pc, #708]	; (11dc <Stack_Size+0x1dc>)
     f18:	4291      	cmp	r1, r2
     f1a:	d900      	bls.n	f1e <_malloc_r+0xc2>
     f1c:	e134      	b.n	1188 <Stack_Size+0x188>
     f1e:	2301      	movs	r3, #1
     f20:	08c8      	lsrs	r0, r1, #3
     f22:	1082      	asrs	r2, r0, #2
     f24:	4093      	lsls	r3, r2
     f26:	6872      	ldr	r2, [r6, #4]
     f28:	431a      	orrs	r2, r3
     f2a:	00c3      	lsls	r3, r0, #3
     f2c:	199b      	adds	r3, r3, r6
     f2e:	6898      	ldr	r0, [r3, #8]
     f30:	6072      	str	r2, [r6, #4]
     f32:	60e3      	str	r3, [r4, #12]
     f34:	60a0      	str	r0, [r4, #8]
     f36:	609c      	str	r4, [r3, #8]
     f38:	0013      	movs	r3, r2
     f3a:	60c4      	str	r4, [r0, #12]
     f3c:	2001      	movs	r0, #1
     f3e:	9900      	ldr	r1, [sp, #0]
     f40:	108a      	asrs	r2, r1, #2
     f42:	4090      	lsls	r0, r2
     f44:	4298      	cmp	r0, r3
     f46:	d900      	bls.n	f4a <_malloc_r+0xee>
     f48:	e075      	b.n	1036 <Stack_Size+0x36>
     f4a:	4203      	tst	r3, r0
     f4c:	d10c      	bne.n	f68 <_malloc_r+0x10c>
     f4e:	2203      	movs	r2, #3
     f50:	4391      	bics	r1, r2
     f52:	1d0a      	adds	r2, r1, #4
     f54:	0040      	lsls	r0, r0, #1
     f56:	9200      	str	r2, [sp, #0]
     f58:	4203      	tst	r3, r0
     f5a:	d105      	bne.n	f68 <_malloc_r+0x10c>
     f5c:	9a00      	ldr	r2, [sp, #0]
     f5e:	0040      	lsls	r0, r0, #1
     f60:	3204      	adds	r2, #4
     f62:	9200      	str	r2, [sp, #0]
     f64:	4203      	tst	r3, r0
     f66:	d0f9      	beq.n	f5c <_malloc_r+0x100>
     f68:	2303      	movs	r3, #3
     f6a:	4698      	mov	r8, r3
     f6c:	9a00      	ldr	r2, [sp, #0]
     f6e:	00d3      	lsls	r3, r2, #3
     f70:	4699      	mov	r9, r3
     f72:	44b1      	add	r9, r6
     f74:	46cc      	mov	ip, r9
     f76:	4692      	mov	sl, r2
     f78:	4663      	mov	r3, ip
     f7a:	68dc      	ldr	r4, [r3, #12]
     f7c:	45a4      	cmp	ip, r4
     f7e:	d107      	bne.n	f90 <_malloc_r+0x134>
     f80:	e14f      	b.n	1222 <Stack_Size+0x222>
     f82:	2a00      	cmp	r2, #0
     f84:	db00      	blt.n	f88 <_malloc_r+0x12c>
     f86:	e15f      	b.n	1248 <Stack_Size+0x248>
     f88:	68e4      	ldr	r4, [r4, #12]
     f8a:	45a4      	cmp	ip, r4
     f8c:	d100      	bne.n	f90 <_malloc_r+0x134>
     f8e:	e148      	b.n	1222 <Stack_Size+0x222>
     f90:	4642      	mov	r2, r8
     f92:	6863      	ldr	r3, [r4, #4]
     f94:	4393      	bics	r3, r2
     f96:	1b5a      	subs	r2, r3, r5
     f98:	2a0f      	cmp	r2, #15
     f9a:	ddf2      	ble.n	f82 <_malloc_r+0x126>
     f9c:	2101      	movs	r1, #1
     f9e:	1963      	adds	r3, r4, r5
     fa0:	430d      	orrs	r5, r1
     fa2:	6065      	str	r5, [r4, #4]
     fa4:	68e0      	ldr	r0, [r4, #12]
     fa6:	68a5      	ldr	r5, [r4, #8]
     fa8:	3608      	adds	r6, #8
     faa:	60e8      	str	r0, [r5, #12]
     fac:	4311      	orrs	r1, r2
     fae:	6085      	str	r5, [r0, #8]
     fb0:	60f3      	str	r3, [r6, #12]
     fb2:	60b3      	str	r3, [r6, #8]
     fb4:	0038      	movs	r0, r7
     fb6:	60de      	str	r6, [r3, #12]
     fb8:	609e      	str	r6, [r3, #8]
     fba:	6059      	str	r1, [r3, #4]
     fbc:	509a      	str	r2, [r3, r2]
     fbe:	f000 fa7d 	bl	14bc <__malloc_unlock>
     fc2:	0020      	movs	r0, r4
     fc4:	3008      	adds	r0, #8
     fc6:	e022      	b.n	100e <Stack_Size+0xe>
     fc8:	2910      	cmp	r1, #16
     fca:	d827      	bhi.n	101c <Stack_Size+0x1c>
     fcc:	0038      	movs	r0, r7
     fce:	f000 fa73 	bl	14b8 <__malloc_lock>
     fd2:	2510      	movs	r5, #16
     fd4:	2306      	movs	r3, #6
     fd6:	2102      	movs	r1, #2
     fd8:	4e7f      	ldr	r6, [pc, #508]	; (11d8 <Stack_Size+0x1d8>)
     fda:	009b      	lsls	r3, r3, #2
     fdc:	18f3      	adds	r3, r6, r3
     fde:	001a      	movs	r2, r3
     fe0:	685c      	ldr	r4, [r3, #4]
     fe2:	3a08      	subs	r2, #8
     fe4:	4294      	cmp	r4, r2
     fe6:	d100      	bne.n	fea <_malloc_r+0x18e>
     fe8:	e127      	b.n	123a <Stack_Size+0x23a>
     fea:	2303      	movs	r3, #3
     fec:	6862      	ldr	r2, [r4, #4]
     fee:	439a      	bics	r2, r3
     ff0:	0013      	movs	r3, r2
     ff2:	68e2      	ldr	r2, [r4, #12]
     ff4:	68a1      	ldr	r1, [r4, #8]
     ff6:	60ca      	str	r2, [r1, #12]
     ff8:	6091      	str	r1, [r2, #8]
     ffa:	2201      	movs	r2, #1
     ffc:	18e3      	adds	r3, r4, r3
     ffe:	6859      	ldr	r1, [r3, #4]
    1000:	0038      	movs	r0, r7
    1002:	430a      	orrs	r2, r1
    1004:	605a      	str	r2, [r3, #4]
    1006:	f000 fa59 	bl	14bc <__malloc_unlock>
    100a:	0020      	movs	r0, r4
    100c:	3008      	adds	r0, #8
    100e:	b003      	add	sp, #12
    1010:	bc3c      	pop	{r2, r3, r4, r5}
    1012:	4690      	mov	r8, r2
    1014:	4699      	mov	r9, r3
    1016:	46a2      	mov	sl, r4
    1018:	46ab      	mov	fp, r5
    101a:	bdf0      	pop	{r4, r5, r6, r7, pc}
    101c:	230c      	movs	r3, #12
    101e:	2000      	movs	r0, #0
    1020:	603b      	str	r3, [r7, #0]
    1022:	e7f4      	b.n	100e <Stack_Size+0xe>
    1024:	2340      	movs	r3, #64	; 0x40
    1026:	4698      	mov	r8, r3
    1028:	3b01      	subs	r3, #1
    102a:	2180      	movs	r1, #128	; 0x80
    102c:	469c      	mov	ip, r3
    102e:	e73f      	b.n	eb0 <_malloc_r+0x54>
    1030:	4663      	mov	r3, ip
    1032:	9300      	str	r3, [sp, #0]
    1034:	e75d      	b.n	ef2 <_malloc_r+0x96>
    1036:	2303      	movs	r3, #3
    1038:	68b4      	ldr	r4, [r6, #8]
    103a:	6862      	ldr	r2, [r4, #4]
    103c:	439a      	bics	r2, r3
    103e:	4690      	mov	r8, r2
    1040:	42aa      	cmp	r2, r5
    1042:	d303      	bcc.n	104c <Stack_Size+0x4c>
    1044:	1b52      	subs	r2, r2, r5
    1046:	2a0f      	cmp	r2, #15
    1048:	dd00      	ble.n	104c <Stack_Size+0x4c>
    104a:	e087      	b.n	115c <Stack_Size+0x15c>
    104c:	0023      	movs	r3, r4
    104e:	4443      	add	r3, r8
    1050:	4a63      	ldr	r2, [pc, #396]	; (11e0 <Stack_Size+0x1e0>)
    1052:	9301      	str	r3, [sp, #4]
    1054:	4b63      	ldr	r3, [pc, #396]	; (11e4 <Stack_Size+0x1e4>)
    1056:	4693      	mov	fp, r2
    1058:	681b      	ldr	r3, [r3, #0]
    105a:	6812      	ldr	r2, [r2, #0]
    105c:	18eb      	adds	r3, r5, r3
    105e:	3201      	adds	r2, #1
    1060:	d100      	bne.n	1064 <Stack_Size+0x64>
    1062:	e157      	b.n	1314 <Stack_Size+0x314>
    1064:	4a60      	ldr	r2, [pc, #384]	; (11e8 <Stack_Size+0x1e8>)
    1066:	4694      	mov	ip, r2
    1068:	4463      	add	r3, ip
    106a:	0b1b      	lsrs	r3, r3, #12
    106c:	031b      	lsls	r3, r3, #12
    106e:	9300      	str	r3, [sp, #0]
    1070:	9900      	ldr	r1, [sp, #0]
    1072:	0038      	movs	r0, r7
    1074:	f000 fa86 	bl	1584 <_sbrk_r>
    1078:	0003      	movs	r3, r0
    107a:	4681      	mov	r9, r0
    107c:	3301      	adds	r3, #1
    107e:	d061      	beq.n	1144 <Stack_Size+0x144>
    1080:	9b01      	ldr	r3, [sp, #4]
    1082:	4283      	cmp	r3, r0
    1084:	d900      	bls.n	1088 <Stack_Size+0x88>
    1086:	e0fd      	b.n	1284 <Stack_Size+0x284>
    1088:	4b58      	ldr	r3, [pc, #352]	; (11ec <Stack_Size+0x1ec>)
    108a:	9a00      	ldr	r2, [sp, #0]
    108c:	469a      	mov	sl, r3
    108e:	681b      	ldr	r3, [r3, #0]
    1090:	469c      	mov	ip, r3
    1092:	4653      	mov	r3, sl
    1094:	4462      	add	r2, ip
    1096:	601a      	str	r2, [r3, #0]
    1098:	9b01      	ldr	r3, [sp, #4]
    109a:	0011      	movs	r1, r2
    109c:	454b      	cmp	r3, r9
    109e:	d100      	bne.n	10a2 <Stack_Size+0xa2>
    10a0:	e143      	b.n	132a <Stack_Size+0x32a>
    10a2:	465b      	mov	r3, fp
    10a4:	681b      	ldr	r3, [r3, #0]
    10a6:	3301      	adds	r3, #1
    10a8:	d100      	bne.n	10ac <Stack_Size+0xac>
    10aa:	e14f      	b.n	134c <Stack_Size+0x34c>
    10ac:	464b      	mov	r3, r9
    10ae:	9a01      	ldr	r2, [sp, #4]
    10b0:	1a9b      	subs	r3, r3, r2
    10b2:	1859      	adds	r1, r3, r1
    10b4:	4653      	mov	r3, sl
    10b6:	6019      	str	r1, [r3, #0]
    10b8:	2307      	movs	r3, #7
    10ba:	464a      	mov	r2, r9
    10bc:	4013      	ands	r3, r2
    10be:	d100      	bne.n	10c2 <Stack_Size+0xc2>
    10c0:	e117      	b.n	12f2 <Stack_Size+0x2f2>
    10c2:	2108      	movs	r1, #8
    10c4:	4689      	mov	r9, r1
    10c6:	494a      	ldr	r1, [pc, #296]	; (11f0 <Stack_Size+0x1f0>)
    10c8:	1ad2      	subs	r2, r2, r3
    10ca:	4491      	add	r9, r2
    10cc:	1ac9      	subs	r1, r1, r3
    10ce:	9b00      	ldr	r3, [sp, #0]
    10d0:	0038      	movs	r0, r7
    10d2:	444b      	add	r3, r9
    10d4:	051b      	lsls	r3, r3, #20
    10d6:	0d1b      	lsrs	r3, r3, #20
    10d8:	1acb      	subs	r3, r1, r3
    10da:	0019      	movs	r1, r3
    10dc:	469b      	mov	fp, r3
    10de:	f000 fa51 	bl	1584 <_sbrk_r>
    10e2:	1c43      	adds	r3, r0, #1
    10e4:	d100      	bne.n	10e8 <Stack_Size+0xe8>
    10e6:	e135      	b.n	1354 <Stack_Size+0x354>
    10e8:	464b      	mov	r3, r9
    10ea:	1ac0      	subs	r0, r0, r3
    10ec:	2301      	movs	r3, #1
    10ee:	4458      	add	r0, fp
    10f0:	4318      	orrs	r0, r3
    10f2:	4653      	mov	r3, sl
    10f4:	681b      	ldr	r3, [r3, #0]
    10f6:	445b      	add	r3, fp
    10f8:	0019      	movs	r1, r3
    10fa:	4653      	mov	r3, sl
    10fc:	6019      	str	r1, [r3, #0]
    10fe:	464b      	mov	r3, r9
    1100:	60b3      	str	r3, [r6, #8]
    1102:	6058      	str	r0, [r3, #4]
    1104:	42b4      	cmp	r4, r6
    1106:	d013      	beq.n	1130 <Stack_Size+0x130>
    1108:	4643      	mov	r3, r8
    110a:	2b0f      	cmp	r3, #15
    110c:	d800      	bhi.n	1110 <Stack_Size+0x110>
    110e:	e0e1      	b.n	12d4 <Stack_Size+0x2d4>
    1110:	4643      	mov	r3, r8
    1112:	2207      	movs	r2, #7
    1114:	6860      	ldr	r0, [r4, #4]
    1116:	3b0c      	subs	r3, #12
    1118:	4393      	bics	r3, r2
    111a:	3a06      	subs	r2, #6
    111c:	4002      	ands	r2, r0
    111e:	2005      	movs	r0, #5
    1120:	431a      	orrs	r2, r3
    1122:	6062      	str	r2, [r4, #4]
    1124:	18e2      	adds	r2, r4, r3
    1126:	6050      	str	r0, [r2, #4]
    1128:	6090      	str	r0, [r2, #8]
    112a:	2b0f      	cmp	r3, #15
    112c:	d900      	bls.n	1130 <Stack_Size+0x130>
    112e:	e115      	b.n	135c <Stack_Size+0x35c>
    1130:	4b30      	ldr	r3, [pc, #192]	; (11f4 <Stack_Size+0x1f4>)
    1132:	681a      	ldr	r2, [r3, #0]
    1134:	4291      	cmp	r1, r2
    1136:	d900      	bls.n	113a <Stack_Size+0x13a>
    1138:	6019      	str	r1, [r3, #0]
    113a:	4b2f      	ldr	r3, [pc, #188]	; (11f8 <Stack_Size+0x1f8>)
    113c:	681a      	ldr	r2, [r3, #0]
    113e:	4291      	cmp	r1, r2
    1140:	d900      	bls.n	1144 <Stack_Size+0x144>
    1142:	6019      	str	r1, [r3, #0]
    1144:	2303      	movs	r3, #3
    1146:	68b4      	ldr	r4, [r6, #8]
    1148:	6862      	ldr	r2, [r4, #4]
    114a:	439a      	bics	r2, r3
    114c:	0013      	movs	r3, r2
    114e:	1b52      	subs	r2, r2, r5
    1150:	429d      	cmp	r5, r3
    1152:	d900      	bls.n	1156 <Stack_Size+0x156>
    1154:	e0c1      	b.n	12da <Stack_Size+0x2da>
    1156:	2a0f      	cmp	r2, #15
    1158:	dc00      	bgt.n	115c <Stack_Size+0x15c>
    115a:	e0be      	b.n	12da <Stack_Size+0x2da>
    115c:	2301      	movs	r3, #1
    115e:	0029      	movs	r1, r5
    1160:	1965      	adds	r5, r4, r5
    1162:	4319      	orrs	r1, r3
    1164:	4313      	orrs	r3, r2
    1166:	6061      	str	r1, [r4, #4]
    1168:	0038      	movs	r0, r7
    116a:	60b5      	str	r5, [r6, #8]
    116c:	606b      	str	r3, [r5, #4]
    116e:	f000 f9a5 	bl	14bc <__malloc_unlock>
    1172:	0020      	movs	r0, r4
    1174:	3008      	adds	r0, #8
    1176:	e74a      	b.n	100e <Stack_Size+0xe>
    1178:	2b14      	cmp	r3, #20
    117a:	d974      	bls.n	1266 <Stack_Size+0x266>
    117c:	2b54      	cmp	r3, #84	; 0x54
    117e:	d900      	bls.n	1182 <Stack_Size+0x182>
    1180:	e0b0      	b.n	12e4 <Stack_Size+0x2e4>
    1182:	0b29      	lsrs	r1, r5, #12
    1184:	236e      	movs	r3, #110	; 0x6e
    1186:	e68c      	b.n	ea2 <_malloc_r+0x46>
    1188:	0a4a      	lsrs	r2, r1, #9
    118a:	2a04      	cmp	r2, #4
    118c:	d974      	bls.n	1278 <Stack_Size+0x278>
    118e:	2a14      	cmp	r2, #20
    1190:	d900      	bls.n	1194 <Stack_Size+0x194>
    1192:	e0c2      	b.n	131a <Stack_Size+0x31a>
    1194:	0010      	movs	r0, r2
    1196:	325c      	adds	r2, #92	; 0x5c
    1198:	305b      	adds	r0, #91	; 0x5b
    119a:	0052      	lsls	r2, r2, #1
    119c:	2108      	movs	r1, #8
    119e:	4249      	negs	r1, r1
    11a0:	468c      	mov	ip, r1
    11a2:	0092      	lsls	r2, r2, #2
    11a4:	18b2      	adds	r2, r6, r2
    11a6:	4494      	add	ip, r2
    11a8:	4662      	mov	r2, ip
    11aa:	6892      	ldr	r2, [r2, #8]
    11ac:	310b      	adds	r1, #11
    11ae:	4688      	mov	r8, r1
    11b0:	4594      	cmp	ip, r2
    11b2:	d100      	bne.n	11b6 <Stack_Size+0x1b6>
    11b4:	e0a0      	b.n	12f8 <Stack_Size+0x2f8>
    11b6:	4641      	mov	r1, r8
    11b8:	6850      	ldr	r0, [r2, #4]
    11ba:	4388      	bics	r0, r1
    11bc:	4283      	cmp	r3, r0
    11be:	d202      	bcs.n	11c6 <Stack_Size+0x1c6>
    11c0:	6892      	ldr	r2, [r2, #8]
    11c2:	4594      	cmp	ip, r2
    11c4:	d1f7      	bne.n	11b6 <Stack_Size+0x1b6>
    11c6:	68d3      	ldr	r3, [r2, #12]
    11c8:	469c      	mov	ip, r3
    11ca:	6873      	ldr	r3, [r6, #4]
    11cc:	4661      	mov	r1, ip
    11ce:	60a2      	str	r2, [r4, #8]
    11d0:	60e1      	str	r1, [r4, #12]
    11d2:	608c      	str	r4, [r1, #8]
    11d4:	60d4      	str	r4, [r2, #12]
    11d6:	e6b1      	b.n	f3c <_malloc_r+0xe0>
    11d8:	10010504 	.word	0x10010504
    11dc:	000001ff 	.word	0x000001ff
    11e0:	10010910 	.word	0x10010910
    11e4:	10010f08 	.word	0x10010f08
    11e8:	0000100f 	.word	0x0000100f
    11ec:	10010f0c 	.word	0x10010f0c
    11f0:	00001008 	.word	0x00001008
    11f4:	10010f04 	.word	0x10010f04
    11f8:	10010f00 	.word	0x10010f00
    11fc:	2101      	movs	r1, #1
    11fe:	1963      	adds	r3, r4, r5
    1200:	430d      	orrs	r5, r1
    1202:	4301      	orrs	r1, r0
    1204:	6065      	str	r5, [r4, #4]
    1206:	6173      	str	r3, [r6, #20]
    1208:	6133      	str	r3, [r6, #16]
    120a:	60da      	str	r2, [r3, #12]
    120c:	609a      	str	r2, [r3, #8]
    120e:	6059      	str	r1, [r3, #4]
    1210:	5018      	str	r0, [r3, r0]
    1212:	0038      	movs	r0, r7
    1214:	f000 f952 	bl	14bc <__malloc_unlock>
    1218:	0020      	movs	r0, r4
    121a:	3008      	adds	r0, #8
    121c:	e6f7      	b.n	100e <Stack_Size+0xe>
    121e:	6873      	ldr	r3, [r6, #4]
    1220:	e68c      	b.n	f3c <_malloc_r+0xe0>
    1222:	2308      	movs	r3, #8
    1224:	469b      	mov	fp, r3
    1226:	3b07      	subs	r3, #7
    1228:	44dc      	add	ip, fp
    122a:	469b      	mov	fp, r3
    122c:	44da      	add	sl, fp
    122e:	4643      	mov	r3, r8
    1230:	4652      	mov	r2, sl
    1232:	4213      	tst	r3, r2
    1234:	d000      	beq.n	1238 <Stack_Size+0x238>
    1236:	e69f      	b.n	f78 <_malloc_r+0x11c>
    1238:	e033      	b.n	12a2 <Stack_Size+0x2a2>
    123a:	68dc      	ldr	r4, [r3, #12]
    123c:	1c8a      	adds	r2, r1, #2
    123e:	9200      	str	r2, [sp, #0]
    1240:	42a3      	cmp	r3, r4
    1242:	d100      	bne.n	1246 <Stack_Size+0x246>
    1244:	e655      	b.n	ef2 <_malloc_r+0x96>
    1246:	e6d0      	b.n	fea <_malloc_r+0x18e>
    1248:	2201      	movs	r2, #1
    124a:	18e3      	adds	r3, r4, r3
    124c:	6859      	ldr	r1, [r3, #4]
    124e:	0038      	movs	r0, r7
    1250:	430a      	orrs	r2, r1
    1252:	605a      	str	r2, [r3, #4]
    1254:	68e3      	ldr	r3, [r4, #12]
    1256:	68a2      	ldr	r2, [r4, #8]
    1258:	60d3      	str	r3, [r2, #12]
    125a:	609a      	str	r2, [r3, #8]
    125c:	f000 f92e 	bl	14bc <__malloc_unlock>
    1260:	0020      	movs	r0, r4
    1262:	3008      	adds	r0, #8
    1264:	e6d3      	b.n	100e <Stack_Size+0xe>
    1266:	225b      	movs	r2, #91	; 0x5b
    1268:	4694      	mov	ip, r2
    126a:	3201      	adds	r2, #1
    126c:	4690      	mov	r8, r2
    126e:	4498      	add	r8, r3
    1270:	449c      	add	ip, r3
    1272:	4643      	mov	r3, r8
    1274:	0059      	lsls	r1, r3, #1
    1276:	e61b      	b.n	eb0 <_malloc_r+0x54>
    1278:	098a      	lsrs	r2, r1, #6
    127a:	0010      	movs	r0, r2
    127c:	3239      	adds	r2, #57	; 0x39
    127e:	3038      	adds	r0, #56	; 0x38
    1280:	0052      	lsls	r2, r2, #1
    1282:	e78b      	b.n	119c <Stack_Size+0x19c>
    1284:	42b4      	cmp	r4, r6
    1286:	d000      	beq.n	128a <Stack_Size+0x28a>
    1288:	e75c      	b.n	1144 <Stack_Size+0x144>
    128a:	e6fd      	b.n	1088 <Stack_Size+0x88>
    128c:	9b00      	ldr	r3, [sp, #0]
    128e:	3b01      	subs	r3, #1
    1290:	9300      	str	r3, [sp, #0]
    1292:	2308      	movs	r3, #8
    1294:	425b      	negs	r3, r3
    1296:	469c      	mov	ip, r3
    1298:	44e1      	add	r9, ip
    129a:	464b      	mov	r3, r9
    129c:	689b      	ldr	r3, [r3, #8]
    129e:	4599      	cmp	r9, r3
    12a0:	d17a      	bne.n	1398 <Stack_Size+0x398>
    12a2:	4643      	mov	r3, r8
    12a4:	9a00      	ldr	r2, [sp, #0]
    12a6:	4213      	tst	r3, r2
    12a8:	d1f0      	bne.n	128c <Stack_Size+0x28c>
    12aa:	6873      	ldr	r3, [r6, #4]
    12ac:	4383      	bics	r3, r0
    12ae:	6073      	str	r3, [r6, #4]
    12b0:	0040      	lsls	r0, r0, #1
    12b2:	4298      	cmp	r0, r3
    12b4:	d900      	bls.n	12b8 <Stack_Size+0x2b8>
    12b6:	e6be      	b.n	1036 <Stack_Size+0x36>
    12b8:	2800      	cmp	r0, #0
    12ba:	d100      	bne.n	12be <Stack_Size+0x2be>
    12bc:	e6bb      	b.n	1036 <Stack_Size+0x36>
    12be:	4203      	tst	r3, r0
    12c0:	d170      	bne.n	13a4 <Stack_Size+0x3a4>
    12c2:	4652      	mov	r2, sl
    12c4:	9200      	str	r2, [sp, #0]
    12c6:	9a00      	ldr	r2, [sp, #0]
    12c8:	0040      	lsls	r0, r0, #1
    12ca:	3204      	adds	r2, #4
    12cc:	9200      	str	r2, [sp, #0]
    12ce:	4203      	tst	r3, r0
    12d0:	d0f9      	beq.n	12c6 <Stack_Size+0x2c6>
    12d2:	e64b      	b.n	f6c <_malloc_r+0x110>
    12d4:	2301      	movs	r3, #1
    12d6:	464a      	mov	r2, r9
    12d8:	6053      	str	r3, [r2, #4]
    12da:	0038      	movs	r0, r7
    12dc:	f000 f8ee 	bl	14bc <__malloc_unlock>
    12e0:	2000      	movs	r0, #0
    12e2:	e694      	b.n	100e <Stack_Size+0xe>
    12e4:	22aa      	movs	r2, #170	; 0xaa
    12e6:	0052      	lsls	r2, r2, #1
    12e8:	4293      	cmp	r3, r2
    12ea:	d80d      	bhi.n	1308 <Stack_Size+0x308>
    12ec:	0be9      	lsrs	r1, r5, #15
    12ee:	2377      	movs	r3, #119	; 0x77
    12f0:	e5d7      	b.n	ea2 <_malloc_r+0x46>
    12f2:	2180      	movs	r1, #128	; 0x80
    12f4:	0149      	lsls	r1, r1, #5
    12f6:	e6ea      	b.n	10ce <Stack_Size+0xce>
    12f8:	2301      	movs	r3, #1
    12fa:	1080      	asrs	r0, r0, #2
    12fc:	4083      	lsls	r3, r0
    12fe:	6872      	ldr	r2, [r6, #4]
    1300:	4313      	orrs	r3, r2
    1302:	6073      	str	r3, [r6, #4]
    1304:	4662      	mov	r2, ip
    1306:	e761      	b.n	11cc <Stack_Size+0x1cc>
    1308:	4a28      	ldr	r2, [pc, #160]	; (13ac <Stack_Size+0x3ac>)
    130a:	4293      	cmp	r3, r2
    130c:	d818      	bhi.n	1340 <Stack_Size+0x340>
    130e:	0ca9      	lsrs	r1, r5, #18
    1310:	237c      	movs	r3, #124	; 0x7c
    1312:	e5c6      	b.n	ea2 <_malloc_r+0x46>
    1314:	3310      	adds	r3, #16
    1316:	9300      	str	r3, [sp, #0]
    1318:	e6aa      	b.n	1070 <Stack_Size+0x70>
    131a:	2a54      	cmp	r2, #84	; 0x54
    131c:	d826      	bhi.n	136c <Stack_Size+0x36c>
    131e:	0b0a      	lsrs	r2, r1, #12
    1320:	0010      	movs	r0, r2
    1322:	326f      	adds	r2, #111	; 0x6f
    1324:	306e      	adds	r0, #110	; 0x6e
    1326:	0052      	lsls	r2, r2, #1
    1328:	e738      	b.n	119c <Stack_Size+0x19c>
    132a:	051b      	lsls	r3, r3, #20
    132c:	d000      	beq.n	1330 <Stack_Size+0x330>
    132e:	e6b8      	b.n	10a2 <Stack_Size+0xa2>
    1330:	9b00      	ldr	r3, [sp, #0]
    1332:	68b2      	ldr	r2, [r6, #8]
    1334:	4443      	add	r3, r8
    1336:	0018      	movs	r0, r3
    1338:	2301      	movs	r3, #1
    133a:	4303      	orrs	r3, r0
    133c:	6053      	str	r3, [r2, #4]
    133e:	e6f7      	b.n	1130 <Stack_Size+0x130>
    1340:	237f      	movs	r3, #127	; 0x7f
    1342:	4698      	mov	r8, r3
    1344:	3b01      	subs	r3, #1
    1346:	21fe      	movs	r1, #254	; 0xfe
    1348:	469c      	mov	ip, r3
    134a:	e5b1      	b.n	eb0 <_malloc_r+0x54>
    134c:	465b      	mov	r3, fp
    134e:	464a      	mov	r2, r9
    1350:	601a      	str	r2, [r3, #0]
    1352:	e6b1      	b.n	10b8 <Stack_Size+0xb8>
    1354:	2300      	movs	r3, #0
    1356:	2001      	movs	r0, #1
    1358:	469b      	mov	fp, r3
    135a:	e6ca      	b.n	10f2 <Stack_Size+0xf2>
    135c:	0021      	movs	r1, r4
    135e:	0038      	movs	r0, r7
    1360:	3108      	adds	r1, #8
    1362:	f003 f8a5 	bl	44b0 <_free_r>
    1366:	4653      	mov	r3, sl
    1368:	6819      	ldr	r1, [r3, #0]
    136a:	e6e1      	b.n	1130 <Stack_Size+0x130>
    136c:	20aa      	movs	r0, #170	; 0xaa
    136e:	0040      	lsls	r0, r0, #1
    1370:	4282      	cmp	r2, r0
    1372:	d805      	bhi.n	1380 <Stack_Size+0x380>
    1374:	0bca      	lsrs	r2, r1, #15
    1376:	0010      	movs	r0, r2
    1378:	3278      	adds	r2, #120	; 0x78
    137a:	3077      	adds	r0, #119	; 0x77
    137c:	0052      	lsls	r2, r2, #1
    137e:	e70d      	b.n	119c <Stack_Size+0x19c>
    1380:	480a      	ldr	r0, [pc, #40]	; (13ac <Stack_Size+0x3ac>)
    1382:	4282      	cmp	r2, r0
    1384:	d805      	bhi.n	1392 <Stack_Size+0x392>
    1386:	0c8a      	lsrs	r2, r1, #18
    1388:	0010      	movs	r0, r2
    138a:	327d      	adds	r2, #125	; 0x7d
    138c:	307c      	adds	r0, #124	; 0x7c
    138e:	0052      	lsls	r2, r2, #1
    1390:	e704      	b.n	119c <Stack_Size+0x19c>
    1392:	22fe      	movs	r2, #254	; 0xfe
    1394:	207e      	movs	r0, #126	; 0x7e
    1396:	e701      	b.n	119c <Stack_Size+0x19c>
    1398:	6873      	ldr	r3, [r6, #4]
    139a:	e789      	b.n	12b0 <Stack_Size+0x2b0>
    139c:	08e9      	lsrs	r1, r5, #3
    139e:	1c4b      	adds	r3, r1, #1
    13a0:	005b      	lsls	r3, r3, #1
    13a2:	e619      	b.n	fd8 <_malloc_r+0x17c>
    13a4:	4653      	mov	r3, sl
    13a6:	9300      	str	r3, [sp, #0]
    13a8:	e5e0      	b.n	f6c <_malloc_r+0x110>
    13aa:	46c0      	nop			; (mov r8, r8)
    13ac:	00000554 	.word	0x00000554

000013b0 <memcpy>:
    13b0:	b570      	push	{r4, r5, r6, lr}
    13b2:	2a0f      	cmp	r2, #15
    13b4:	d932      	bls.n	141c <memcpy+0x6c>
    13b6:	000c      	movs	r4, r1
    13b8:	4304      	orrs	r4, r0
    13ba:	000b      	movs	r3, r1
    13bc:	07a4      	lsls	r4, r4, #30
    13be:	d131      	bne.n	1424 <memcpy+0x74>
    13c0:	0015      	movs	r5, r2
    13c2:	0004      	movs	r4, r0
    13c4:	3d10      	subs	r5, #16
    13c6:	092d      	lsrs	r5, r5, #4
    13c8:	3501      	adds	r5, #1
    13ca:	012d      	lsls	r5, r5, #4
    13cc:	1949      	adds	r1, r1, r5
    13ce:	681e      	ldr	r6, [r3, #0]
    13d0:	6026      	str	r6, [r4, #0]
    13d2:	685e      	ldr	r6, [r3, #4]
    13d4:	6066      	str	r6, [r4, #4]
    13d6:	689e      	ldr	r6, [r3, #8]
    13d8:	60a6      	str	r6, [r4, #8]
    13da:	68de      	ldr	r6, [r3, #12]
    13dc:	3310      	adds	r3, #16
    13de:	60e6      	str	r6, [r4, #12]
    13e0:	3410      	adds	r4, #16
    13e2:	4299      	cmp	r1, r3
    13e4:	d1f3      	bne.n	13ce <memcpy+0x1e>
    13e6:	230f      	movs	r3, #15
    13e8:	1945      	adds	r5, r0, r5
    13ea:	4013      	ands	r3, r2
    13ec:	2b03      	cmp	r3, #3
    13ee:	d91b      	bls.n	1428 <memcpy+0x78>
    13f0:	1f1c      	subs	r4, r3, #4
    13f2:	2300      	movs	r3, #0
    13f4:	08a4      	lsrs	r4, r4, #2
    13f6:	3401      	adds	r4, #1
    13f8:	00a4      	lsls	r4, r4, #2
    13fa:	58ce      	ldr	r6, [r1, r3]
    13fc:	50ee      	str	r6, [r5, r3]
    13fe:	3304      	adds	r3, #4
    1400:	429c      	cmp	r4, r3
    1402:	d1fa      	bne.n	13fa <memcpy+0x4a>
    1404:	2303      	movs	r3, #3
    1406:	192d      	adds	r5, r5, r4
    1408:	1909      	adds	r1, r1, r4
    140a:	401a      	ands	r2, r3
    140c:	d005      	beq.n	141a <memcpy+0x6a>
    140e:	2300      	movs	r3, #0
    1410:	5ccc      	ldrb	r4, [r1, r3]
    1412:	54ec      	strb	r4, [r5, r3]
    1414:	3301      	adds	r3, #1
    1416:	429a      	cmp	r2, r3
    1418:	d1fa      	bne.n	1410 <memcpy+0x60>
    141a:	bd70      	pop	{r4, r5, r6, pc}
    141c:	0005      	movs	r5, r0
    141e:	2a00      	cmp	r2, #0
    1420:	d1f5      	bne.n	140e <memcpy+0x5e>
    1422:	e7fa      	b.n	141a <memcpy+0x6a>
    1424:	0005      	movs	r5, r0
    1426:	e7f2      	b.n	140e <memcpy+0x5e>
    1428:	001a      	movs	r2, r3
    142a:	e7f8      	b.n	141e <memcpy+0x6e>

0000142c <memset>:
    142c:	b570      	push	{r4, r5, r6, lr}
    142e:	0783      	lsls	r3, r0, #30
    1430:	d03f      	beq.n	14b2 <memset+0x86>
    1432:	1e54      	subs	r4, r2, #1
    1434:	2a00      	cmp	r2, #0
    1436:	d03b      	beq.n	14b0 <memset+0x84>
    1438:	b2ce      	uxtb	r6, r1
    143a:	0003      	movs	r3, r0
    143c:	2503      	movs	r5, #3
    143e:	e003      	b.n	1448 <memset+0x1c>
    1440:	1e62      	subs	r2, r4, #1
    1442:	2c00      	cmp	r4, #0
    1444:	d034      	beq.n	14b0 <memset+0x84>
    1446:	0014      	movs	r4, r2
    1448:	3301      	adds	r3, #1
    144a:	1e5a      	subs	r2, r3, #1
    144c:	7016      	strb	r6, [r2, #0]
    144e:	422b      	tst	r3, r5
    1450:	d1f6      	bne.n	1440 <memset+0x14>
    1452:	2c03      	cmp	r4, #3
    1454:	d924      	bls.n	14a0 <memset+0x74>
    1456:	25ff      	movs	r5, #255	; 0xff
    1458:	400d      	ands	r5, r1
    145a:	022a      	lsls	r2, r5, #8
    145c:	4315      	orrs	r5, r2
    145e:	042a      	lsls	r2, r5, #16
    1460:	4315      	orrs	r5, r2
    1462:	2c0f      	cmp	r4, #15
    1464:	d911      	bls.n	148a <memset+0x5e>
    1466:	0026      	movs	r6, r4
    1468:	3e10      	subs	r6, #16
    146a:	0936      	lsrs	r6, r6, #4
    146c:	3601      	adds	r6, #1
    146e:	0136      	lsls	r6, r6, #4
    1470:	001a      	movs	r2, r3
    1472:	199b      	adds	r3, r3, r6
    1474:	6015      	str	r5, [r2, #0]
    1476:	6055      	str	r5, [r2, #4]
    1478:	6095      	str	r5, [r2, #8]
    147a:	60d5      	str	r5, [r2, #12]
    147c:	3210      	adds	r2, #16
    147e:	4293      	cmp	r3, r2
    1480:	d1f8      	bne.n	1474 <memset+0x48>
    1482:	220f      	movs	r2, #15
    1484:	4014      	ands	r4, r2
    1486:	2c03      	cmp	r4, #3
    1488:	d90a      	bls.n	14a0 <memset+0x74>
    148a:	1f26      	subs	r6, r4, #4
    148c:	08b6      	lsrs	r6, r6, #2
    148e:	3601      	adds	r6, #1
    1490:	00b6      	lsls	r6, r6, #2
    1492:	001a      	movs	r2, r3
    1494:	199b      	adds	r3, r3, r6
    1496:	c220      	stmia	r2!, {r5}
    1498:	4293      	cmp	r3, r2
    149a:	d1fc      	bne.n	1496 <memset+0x6a>
    149c:	2203      	movs	r2, #3
    149e:	4014      	ands	r4, r2
    14a0:	2c00      	cmp	r4, #0
    14a2:	d005      	beq.n	14b0 <memset+0x84>
    14a4:	b2c9      	uxtb	r1, r1
    14a6:	191c      	adds	r4, r3, r4
    14a8:	7019      	strb	r1, [r3, #0]
    14aa:	3301      	adds	r3, #1
    14ac:	429c      	cmp	r4, r3
    14ae:	d1fb      	bne.n	14a8 <memset+0x7c>
    14b0:	bd70      	pop	{r4, r5, r6, pc}
    14b2:	0014      	movs	r4, r2
    14b4:	0003      	movs	r3, r0
    14b6:	e7cc      	b.n	1452 <memset+0x26>

000014b8 <__malloc_lock>:
    14b8:	4770      	bx	lr
    14ba:	46c0      	nop			; (mov r8, r8)

000014bc <__malloc_unlock>:
    14bc:	4770      	bx	lr
    14be:	46c0      	nop			; (mov r8, r8)

000014c0 <_printf_r>:
    14c0:	b40e      	push	{r1, r2, r3}
    14c2:	b500      	push	{lr}
    14c4:	b082      	sub	sp, #8
    14c6:	ab03      	add	r3, sp, #12
    14c8:	cb04      	ldmia	r3!, {r2}
    14ca:	6881      	ldr	r1, [r0, #8]
    14cc:	9301      	str	r3, [sp, #4]
    14ce:	f000 f89f 	bl	1610 <_vfprintf_r>
    14d2:	b002      	add	sp, #8
    14d4:	bc08      	pop	{r3}
    14d6:	b003      	add	sp, #12
    14d8:	4718      	bx	r3
    14da:	46c0      	nop			; (mov r8, r8)

000014dc <printf>:
    14dc:	b40f      	push	{r0, r1, r2, r3}
    14de:	b500      	push	{lr}
    14e0:	4906      	ldr	r1, [pc, #24]	; (14fc <printf+0x20>)
    14e2:	b083      	sub	sp, #12
    14e4:	ab04      	add	r3, sp, #16
    14e6:	6808      	ldr	r0, [r1, #0]
    14e8:	cb04      	ldmia	r3!, {r2}
    14ea:	6881      	ldr	r1, [r0, #8]
    14ec:	9301      	str	r3, [sp, #4]
    14ee:	f000 f88f 	bl	1610 <_vfprintf_r>
    14f2:	b003      	add	sp, #12
    14f4:	bc08      	pop	{r3}
    14f6:	b004      	add	sp, #16
    14f8:	4718      	bx	r3
    14fa:	46c0      	nop			; (mov r8, r8)
    14fc:	10010d40 	.word	0x10010d40

00001500 <_puts_r>:
    1500:	b530      	push	{r4, r5, lr}
    1502:	0005      	movs	r5, r0
    1504:	b089      	sub	sp, #36	; 0x24
    1506:	0008      	movs	r0, r1
    1508:	000c      	movs	r4, r1
    150a:	f000 f84d 	bl	15a8 <strlen>
    150e:	ab04      	add	r3, sp, #16
    1510:	4a15      	ldr	r2, [pc, #84]	; (1568 <_puts_r+0x68>)
    1512:	9301      	str	r3, [sp, #4]
    1514:	2302      	movs	r3, #2
    1516:	9206      	str	r2, [sp, #24]
    1518:	2201      	movs	r2, #1
    151a:	9302      	str	r3, [sp, #8]
    151c:	6bab      	ldr	r3, [r5, #56]	; 0x38
    151e:	9005      	str	r0, [sp, #20]
    1520:	3001      	adds	r0, #1
    1522:	9404      	str	r4, [sp, #16]
    1524:	9207      	str	r2, [sp, #28]
    1526:	9003      	str	r0, [sp, #12]
    1528:	68ac      	ldr	r4, [r5, #8]
    152a:	2b00      	cmp	r3, #0
    152c:	d017      	beq.n	155e <_puts_r+0x5e>
    152e:	220c      	movs	r2, #12
    1530:	5ea3      	ldrsh	r3, [r4, r2]
    1532:	2280      	movs	r2, #128	; 0x80
    1534:	0192      	lsls	r2, r2, #6
    1536:	4213      	tst	r3, r2
    1538:	d105      	bne.n	1546 <_puts_r+0x46>
    153a:	4313      	orrs	r3, r2
    153c:	81a3      	strh	r3, [r4, #12]
    153e:	6e62      	ldr	r2, [r4, #100]	; 0x64
    1540:	4b0a      	ldr	r3, [pc, #40]	; (156c <_puts_r+0x6c>)
    1542:	4013      	ands	r3, r2
    1544:	6663      	str	r3, [r4, #100]	; 0x64
    1546:	aa01      	add	r2, sp, #4
    1548:	0021      	movs	r1, r4
    154a:	0028      	movs	r0, r5
    154c:	f003 f892 	bl	4674 <__sfvwrite_r>
    1550:	1e43      	subs	r3, r0, #1
    1552:	4198      	sbcs	r0, r3
    1554:	230a      	movs	r3, #10
    1556:	4240      	negs	r0, r0
    1558:	4318      	orrs	r0, r3
    155a:	b009      	add	sp, #36	; 0x24
    155c:	bd30      	pop	{r4, r5, pc}
    155e:	0028      	movs	r0, r5
    1560:	f002 ff2e 	bl	43c0 <__sinit>
    1564:	e7e3      	b.n	152e <_puts_r+0x2e>
    1566:	46c0      	nop			; (mov r8, r8)
    1568:	00008ff8 	.word	0x00008ff8
    156c:	ffffdfff 	.word	0xffffdfff

00001570 <puts>:
    1570:	b510      	push	{r4, lr}
    1572:	4b03      	ldr	r3, [pc, #12]	; (1580 <puts+0x10>)
    1574:	0001      	movs	r1, r0
    1576:	6818      	ldr	r0, [r3, #0]
    1578:	f7ff ffc2 	bl	1500 <_puts_r>
    157c:	bd10      	pop	{r4, pc}
    157e:	46c0      	nop			; (mov r8, r8)
    1580:	10010d40 	.word	0x10010d40

00001584 <_sbrk_r>:
    1584:	2300      	movs	r3, #0
    1586:	b570      	push	{r4, r5, r6, lr}
    1588:	4c06      	ldr	r4, [pc, #24]	; (15a4 <_sbrk_r+0x20>)
    158a:	0005      	movs	r5, r0
    158c:	0008      	movs	r0, r1
    158e:	6023      	str	r3, [r4, #0]
    1590:	f7ff fbcd 	bl	d2e <_sbrk>
    1594:	1c43      	adds	r3, r0, #1
    1596:	d000      	beq.n	159a <_sbrk_r+0x16>
    1598:	bd70      	pop	{r4, r5, r6, pc}
    159a:	6823      	ldr	r3, [r4, #0]
    159c:	2b00      	cmp	r3, #0
    159e:	d0fb      	beq.n	1598 <_sbrk_r+0x14>
    15a0:	602b      	str	r3, [r5, #0]
    15a2:	e7f9      	b.n	1598 <_sbrk_r+0x14>
    15a4:	10011044 	.word	0x10011044

000015a8 <strlen>:
    15a8:	b510      	push	{r4, lr}
    15aa:	0783      	lsls	r3, r0, #30
    15ac:	d027      	beq.n	15fe <strlen+0x56>
    15ae:	7803      	ldrb	r3, [r0, #0]
    15b0:	2b00      	cmp	r3, #0
    15b2:	d026      	beq.n	1602 <strlen+0x5a>
    15b4:	0003      	movs	r3, r0
    15b6:	2103      	movs	r1, #3
    15b8:	e002      	b.n	15c0 <strlen+0x18>
    15ba:	781a      	ldrb	r2, [r3, #0]
    15bc:	2a00      	cmp	r2, #0
    15be:	d01c      	beq.n	15fa <strlen+0x52>
    15c0:	3301      	adds	r3, #1
    15c2:	420b      	tst	r3, r1
    15c4:	d1f9      	bne.n	15ba <strlen+0x12>
    15c6:	6819      	ldr	r1, [r3, #0]
    15c8:	4a0f      	ldr	r2, [pc, #60]	; (1608 <strlen+0x60>)
    15ca:	4c10      	ldr	r4, [pc, #64]	; (160c <strlen+0x64>)
    15cc:	188a      	adds	r2, r1, r2
    15ce:	438a      	bics	r2, r1
    15d0:	4222      	tst	r2, r4
    15d2:	d10f      	bne.n	15f4 <strlen+0x4c>
    15d4:	3304      	adds	r3, #4
    15d6:	6819      	ldr	r1, [r3, #0]
    15d8:	4a0b      	ldr	r2, [pc, #44]	; (1608 <strlen+0x60>)
    15da:	188a      	adds	r2, r1, r2
    15dc:	438a      	bics	r2, r1
    15de:	4222      	tst	r2, r4
    15e0:	d108      	bne.n	15f4 <strlen+0x4c>
    15e2:	3304      	adds	r3, #4
    15e4:	6819      	ldr	r1, [r3, #0]
    15e6:	4a08      	ldr	r2, [pc, #32]	; (1608 <strlen+0x60>)
    15e8:	188a      	adds	r2, r1, r2
    15ea:	438a      	bics	r2, r1
    15ec:	4222      	tst	r2, r4
    15ee:	d0f1      	beq.n	15d4 <strlen+0x2c>
    15f0:	e000      	b.n	15f4 <strlen+0x4c>
    15f2:	3301      	adds	r3, #1
    15f4:	781a      	ldrb	r2, [r3, #0]
    15f6:	2a00      	cmp	r2, #0
    15f8:	d1fb      	bne.n	15f2 <strlen+0x4a>
    15fa:	1a18      	subs	r0, r3, r0
    15fc:	bd10      	pop	{r4, pc}
    15fe:	0003      	movs	r3, r0
    1600:	e7e1      	b.n	15c6 <strlen+0x1e>
    1602:	2000      	movs	r0, #0
    1604:	e7fa      	b.n	15fc <strlen+0x54>
    1606:	46c0      	nop			; (mov r8, r8)
    1608:	fefefeff 	.word	0xfefefeff
    160c:	80808080 	.word	0x80808080

00001610 <_vfprintf_r>:
    1610:	b5f0      	push	{r4, r5, r6, r7, lr}
    1612:	4644      	mov	r4, r8
    1614:	465f      	mov	r7, fp
    1616:	4656      	mov	r6, sl
    1618:	464d      	mov	r5, r9
    161a:	b4f0      	push	{r4, r5, r6, r7}
    161c:	b0c3      	sub	sp, #268	; 0x10c
    161e:	001c      	movs	r4, r3
    1620:	9311      	str	r3, [sp, #68]	; 0x44
    1622:	4683      	mov	fp, r0
    1624:	4688      	mov	r8, r1
    1626:	920a      	str	r2, [sp, #40]	; 0x28
    1628:	f003 f9fc 	bl	4a24 <_localeconv_r>
    162c:	6800      	ldr	r0, [r0, #0]
    162e:	9019      	str	r0, [sp, #100]	; 0x64
    1630:	f7ff ffba 	bl	15a8 <strlen>
    1634:	465b      	mov	r3, fp
    1636:	9018      	str	r0, [sp, #96]	; 0x60
    1638:	2b00      	cmp	r3, #0
    163a:	d003      	beq.n	1644 <_vfprintf_r+0x34>
    163c:	6b9b      	ldr	r3, [r3, #56]	; 0x38
    163e:	2b00      	cmp	r3, #0
    1640:	d100      	bne.n	1644 <_vfprintf_r+0x34>
    1642:	e0d9      	b.n	17f8 <_vfprintf_r+0x1e8>
    1644:	4643      	mov	r3, r8
    1646:	2180      	movs	r1, #128	; 0x80
    1648:	220c      	movs	r2, #12
    164a:	5e9a      	ldrsh	r2, [r3, r2]
    164c:	0189      	lsls	r1, r1, #6
    164e:	b293      	uxth	r3, r2
    1650:	420b      	tst	r3, r1
    1652:	d109      	bne.n	1668 <_vfprintf_r+0x58>
    1654:	430a      	orrs	r2, r1
    1656:	4643      	mov	r3, r8
    1658:	4641      	mov	r1, r8
    165a:	819a      	strh	r2, [r3, #12]
    165c:	6e49      	ldr	r1, [r1, #100]	; 0x64
    165e:	4bbc      	ldr	r3, [pc, #752]	; (1950 <_vfprintf_r+0x340>)
    1660:	400b      	ands	r3, r1
    1662:	4641      	mov	r1, r8
    1664:	664b      	str	r3, [r1, #100]	; 0x64
    1666:	b293      	uxth	r3, r2
    1668:	071a      	lsls	r2, r3, #28
    166a:	d400      	bmi.n	166e <_vfprintf_r+0x5e>
    166c:	e097      	b.n	179e <_vfprintf_r+0x18e>
    166e:	4642      	mov	r2, r8
    1670:	6912      	ldr	r2, [r2, #16]
    1672:	2a00      	cmp	r2, #0
    1674:	d100      	bne.n	1678 <_vfprintf_r+0x68>
    1676:	e092      	b.n	179e <_vfprintf_r+0x18e>
    1678:	221a      	movs	r2, #26
    167a:	4013      	ands	r3, r2
    167c:	2b0a      	cmp	r3, #10
    167e:	d100      	bne.n	1682 <_vfprintf_r+0x72>
    1680:	e09c      	b.n	17bc <_vfprintf_r+0x1ac>
    1682:	ab32      	add	r3, sp, #200	; 0xc8
    1684:	9325      	str	r3, [sp, #148]	; 0x94
    1686:	2300      	movs	r3, #0
    1688:	af25      	add	r7, sp, #148	; 0x94
    168a:	60bb      	str	r3, [r7, #8]
    168c:	607b      	str	r3, [r7, #4]
    168e:	9314      	str	r3, [sp, #80]	; 0x50
    1690:	9316      	str	r3, [sp, #88]	; 0x58
    1692:	9317      	str	r3, [sp, #92]	; 0x5c
    1694:	931a      	str	r3, [sp, #104]	; 0x68
    1696:	930c      	str	r3, [sp, #48]	; 0x30
    1698:	465b      	mov	r3, fp
    169a:	46c3      	mov	fp, r8
    169c:	ae32      	add	r6, sp, #200	; 0xc8
    169e:	9307      	str	r3, [sp, #28]
    16a0:	9c0a      	ldr	r4, [sp, #40]	; 0x28
    16a2:	7823      	ldrb	r3, [r4, #0]
    16a4:	2b00      	cmp	r3, #0
    16a6:	d100      	bne.n	16aa <_vfprintf_r+0x9a>
    16a8:	e0aa      	b.n	1800 <_vfprintf_r+0x1f0>
    16aa:	2b25      	cmp	r3, #37	; 0x25
    16ac:	d102      	bne.n	16b4 <_vfprintf_r+0xa4>
    16ae:	e0a7      	b.n	1800 <_vfprintf_r+0x1f0>
    16b0:	2b25      	cmp	r3, #37	; 0x25
    16b2:	d003      	beq.n	16bc <_vfprintf_r+0xac>
    16b4:	3401      	adds	r4, #1
    16b6:	7823      	ldrb	r3, [r4, #0]
    16b8:	2b00      	cmp	r3, #0
    16ba:	d1f9      	bne.n	16b0 <_vfprintf_r+0xa0>
    16bc:	9b0a      	ldr	r3, [sp, #40]	; 0x28
    16be:	1ae5      	subs	r5, r4, r3
    16c0:	d011      	beq.n	16e6 <_vfprintf_r+0xd6>
    16c2:	9b0a      	ldr	r3, [sp, #40]	; 0x28
    16c4:	6075      	str	r5, [r6, #4]
    16c6:	6033      	str	r3, [r6, #0]
    16c8:	68bb      	ldr	r3, [r7, #8]
    16ca:	195b      	adds	r3, r3, r5
    16cc:	60bb      	str	r3, [r7, #8]
    16ce:	687b      	ldr	r3, [r7, #4]
    16d0:	3301      	adds	r3, #1
    16d2:	607b      	str	r3, [r7, #4]
    16d4:	2b07      	cmp	r3, #7
    16d6:	dd00      	ble.n	16da <_vfprintf_r+0xca>
    16d8:	e083      	b.n	17e2 <_vfprintf_r+0x1d2>
    16da:	3608      	adds	r6, #8
    16dc:	9b0c      	ldr	r3, [sp, #48]	; 0x30
    16de:	469c      	mov	ip, r3
    16e0:	44ac      	add	ip, r5
    16e2:	4663      	mov	r3, ip
    16e4:	930c      	str	r3, [sp, #48]	; 0x30
    16e6:	7823      	ldrb	r3, [r4, #0]
    16e8:	2b00      	cmp	r3, #0
    16ea:	d101      	bne.n	16f0 <_vfprintf_r+0xe0>
    16ec:	f001 f8da 	bl	28a4 <_vfprintf_r+0x1294>
    16f0:	2300      	movs	r3, #0
    16f2:	aa16      	add	r2, sp, #88	; 0x58
    16f4:	77d3      	strb	r3, [r2, #31]
    16f6:	2201      	movs	r2, #1
    16f8:	4252      	negs	r2, r2
    16fa:	920b      	str	r2, [sp, #44]	; 0x2c
    16fc:	2200      	movs	r2, #0
    16fe:	920d      	str	r2, [sp, #52]	; 0x34
    1700:	9208      	str	r2, [sp, #32]
    1702:	3240      	adds	r2, #64	; 0x40
    1704:	4692      	mov	sl, r2
    1706:	3a38      	subs	r2, #56	; 0x38
    1708:	4691      	mov	r9, r2
    170a:	3278      	adds	r2, #120	; 0x78
    170c:	1c61      	adds	r1, r4, #1
    170e:	7863      	ldrb	r3, [r4, #1]
    1710:	2000      	movs	r0, #0
    1712:	2400      	movs	r4, #0
    1714:	4694      	mov	ip, r2
    1716:	3101      	adds	r1, #1
    1718:	001a      	movs	r2, r3
    171a:	3a20      	subs	r2, #32
    171c:	2a58      	cmp	r2, #88	; 0x58
    171e:	d900      	bls.n	1722 <_vfprintf_r+0x112>
    1720:	e38d      	b.n	1e3e <_vfprintf_r+0x82e>
    1722:	4d8c      	ldr	r5, [pc, #560]	; (1954 <_vfprintf_r+0x344>)
    1724:	0092      	lsls	r2, r2, #2
    1726:	58aa      	ldr	r2, [r5, r2]
    1728:	4697      	mov	pc, r2
    172a:	9b0d      	ldr	r3, [sp, #52]	; 0x34
    172c:	9211      	str	r2, [sp, #68]	; 0x44
    172e:	425b      	negs	r3, r3
    1730:	930d      	str	r3, [sp, #52]	; 0x34
    1732:	2304      	movs	r3, #4
    1734:	9a08      	ldr	r2, [sp, #32]
    1736:	431a      	orrs	r2, r3
    1738:	9208      	str	r2, [sp, #32]
    173a:	780b      	ldrb	r3, [r1, #0]
    173c:	e7eb      	b.n	1716 <_vfprintf_r+0x106>
    173e:	2430      	movs	r4, #48	; 0x30
    1740:	9b11      	ldr	r3, [sp, #68]	; 0x44
    1742:	aa1e      	add	r2, sp, #120	; 0x78
    1744:	7014      	strb	r4, [r2, #0]
    1746:	1d18      	adds	r0, r3, #4
    1748:	3448      	adds	r4, #72	; 0x48
    174a:	681b      	ldr	r3, [r3, #0]
    174c:	7054      	strb	r4, [r2, #1]
    174e:	9d08      	ldr	r5, [sp, #32]
    1750:	2200      	movs	r2, #0
    1752:	930e      	str	r3, [sp, #56]	; 0x38
    1754:	2300      	movs	r3, #0
    1756:	910a      	str	r1, [sp, #40]	; 0x28
    1758:	0029      	movs	r1, r5
    175a:	ac16      	add	r4, sp, #88	; 0x58
    175c:	77e2      	strb	r2, [r4, #31]
    175e:	9a0b      	ldr	r2, [sp, #44]	; 0x2c
    1760:	930f      	str	r3, [sp, #60]	; 0x3c
    1762:	3302      	adds	r3, #2
    1764:	4319      	orrs	r1, r3
    1766:	2a00      	cmp	r2, #0
    1768:	da00      	bge.n	176c <_vfprintf_r+0x15c>
    176a:	e379      	b.n	1e60 <_vfprintf_r+0x850>
    176c:	2280      	movs	r2, #128	; 0x80
    176e:	4395      	bics	r5, r2
    1770:	002a      	movs	r2, r5
    1772:	431a      	orrs	r2, r3
    1774:	9b0e      	ldr	r3, [sp, #56]	; 0x38
    1776:	9208      	str	r2, [sp, #32]
    1778:	9011      	str	r0, [sp, #68]	; 0x44
    177a:	2b00      	cmp	r3, #0
    177c:	d000      	beq.n	1780 <_vfprintf_r+0x170>
    177e:	e358      	b.n	1e32 <_vfprintf_r+0x822>
    1780:	3378      	adds	r3, #120	; 0x78
    1782:	4975      	ldr	r1, [pc, #468]	; (1958 <_vfprintf_r+0x348>)
    1784:	9313      	str	r3, [sp, #76]	; 0x4c
    1786:	9b0b      	ldr	r3, [sp, #44]	; 0x2c
    1788:	4698      	mov	r8, r3
    178a:	2b00      	cmp	r3, #0
    178c:	d100      	bne.n	1790 <_vfprintf_r+0x180>
    178e:	e31e      	b.n	1dce <_vfprintf_r+0x7be>
    1790:	2300      	movs	r3, #0
    1792:	4698      	mov	r8, r3
    1794:	2400      	movs	r4, #0
    1796:	2300      	movs	r3, #0
    1798:	930e      	str	r3, [sp, #56]	; 0x38
    179a:	940f      	str	r4, [sp, #60]	; 0x3c
    179c:	e2c0      	b.n	1d20 <_vfprintf_r+0x710>
    179e:	4641      	mov	r1, r8
    17a0:	4658      	mov	r0, fp
    17a2:	f001 fb8f 	bl	2ec4 <__swsetup_r>
    17a6:	2800      	cmp	r0, #0
    17a8:	d001      	beq.n	17ae <_vfprintf_r+0x19e>
    17aa:	f001 f873 	bl	2894 <_vfprintf_r+0x1284>
    17ae:	4643      	mov	r3, r8
    17b0:	221a      	movs	r2, #26
    17b2:	899b      	ldrh	r3, [r3, #12]
    17b4:	4013      	ands	r3, r2
    17b6:	2b0a      	cmp	r3, #10
    17b8:	d000      	beq.n	17bc <_vfprintf_r+0x1ac>
    17ba:	e762      	b.n	1682 <_vfprintf_r+0x72>
    17bc:	4643      	mov	r3, r8
    17be:	220e      	movs	r2, #14
    17c0:	5e9b      	ldrsh	r3, [r3, r2]
    17c2:	2b00      	cmp	r3, #0
    17c4:	da00      	bge.n	17c8 <_vfprintf_r+0x1b8>
    17c6:	e75c      	b.n	1682 <_vfprintf_r+0x72>
    17c8:	0023      	movs	r3, r4
    17ca:	9a0a      	ldr	r2, [sp, #40]	; 0x28
    17cc:	4641      	mov	r1, r8
    17ce:	4658      	mov	r0, fp
    17d0:	f001 fb3e 	bl	2e50 <__sbprintf>
    17d4:	b043      	add	sp, #268	; 0x10c
    17d6:	bc3c      	pop	{r2, r3, r4, r5}
    17d8:	4690      	mov	r8, r2
    17da:	4699      	mov	r9, r3
    17dc:	46a2      	mov	sl, r4
    17de:	46ab      	mov	fp, r5
    17e0:	bdf0      	pop	{r4, r5, r6, r7, pc}
    17e2:	003a      	movs	r2, r7
    17e4:	4659      	mov	r1, fp
    17e6:	9807      	ldr	r0, [sp, #28]
    17e8:	f004 f9d4 	bl	5b94 <__sprint_r>
    17ec:	2800      	cmp	r0, #0
    17ee:	d001      	beq.n	17f4 <_vfprintf_r+0x1e4>
    17f0:	f000 fd27 	bl	2242 <_vfprintf_r+0xc32>
    17f4:	ae32      	add	r6, sp, #200	; 0xc8
    17f6:	e771      	b.n	16dc <_vfprintf_r+0xcc>
    17f8:	4658      	mov	r0, fp
    17fa:	f002 fde1 	bl	43c0 <__sinit>
    17fe:	e721      	b.n	1644 <_vfprintf_r+0x34>
    1800:	9c0a      	ldr	r4, [sp, #40]	; 0x28
    1802:	e770      	b.n	16e6 <_vfprintf_r+0xd6>
    1804:	9b11      	ldr	r3, [sp, #68]	; 0x44
    1806:	1d1a      	adds	r2, r3, #4
    1808:	681b      	ldr	r3, [r3, #0]
    180a:	930d      	str	r3, [sp, #52]	; 0x34
    180c:	2b00      	cmp	r3, #0
    180e:	da00      	bge.n	1812 <_vfprintf_r+0x202>
    1810:	e78b      	b.n	172a <_vfprintf_r+0x11a>
    1812:	780b      	ldrb	r3, [r1, #0]
    1814:	9211      	str	r2, [sp, #68]	; 0x44
    1816:	e77e      	b.n	1716 <_vfprintf_r+0x106>
    1818:	1c4b      	adds	r3, r1, #1
    181a:	4698      	mov	r8, r3
    181c:	780b      	ldrb	r3, [r1, #0]
    181e:	2b2a      	cmp	r3, #42	; 0x2a
    1820:	d101      	bne.n	1826 <_vfprintf_r+0x216>
    1822:	f001 fabb 	bl	2d9c <_vfprintf_r+0x178c>
    1826:	001a      	movs	r2, r3
    1828:	3a30      	subs	r2, #48	; 0x30
    182a:	2100      	movs	r1, #0
    182c:	2a09      	cmp	r2, #9
    182e:	d901      	bls.n	1834 <_vfprintf_r+0x224>
    1830:	f001 fa60 	bl	2cf4 <_vfprintf_r+0x16e4>
    1834:	4643      	mov	r3, r8
    1836:	4680      	mov	r8, r0
    1838:	0008      	movs	r0, r1
    183a:	0081      	lsls	r1, r0, #2
    183c:	1809      	adds	r1, r1, r0
    183e:	0049      	lsls	r1, r1, #1
    1840:	3301      	adds	r3, #1
    1842:	1888      	adds	r0, r1, r2
    1844:	1e5a      	subs	r2, r3, #1
    1846:	7811      	ldrb	r1, [r2, #0]
    1848:	000a      	movs	r2, r1
    184a:	3a30      	subs	r2, #48	; 0x30
    184c:	2a09      	cmp	r2, #9
    184e:	d9f4      	bls.n	183a <_vfprintf_r+0x22a>
    1850:	4642      	mov	r2, r8
    1852:	4698      	mov	r8, r3
    1854:	000b      	movs	r3, r1
    1856:	0001      	movs	r1, r0
    1858:	0010      	movs	r0, r2
    185a:	2900      	cmp	r1, #0
    185c:	da01      	bge.n	1862 <_vfprintf_r+0x252>
    185e:	f001 f8fd 	bl	2a5c <_vfprintf_r+0x144c>
    1862:	910b      	str	r1, [sp, #44]	; 0x2c
    1864:	4641      	mov	r1, r8
    1866:	e757      	b.n	1718 <_vfprintf_r+0x108>
    1868:	4662      	mov	r2, ip
    186a:	9b08      	ldr	r3, [sp, #32]
    186c:	4313      	orrs	r3, r2
    186e:	9308      	str	r3, [sp, #32]
    1870:	780b      	ldrb	r3, [r1, #0]
    1872:	e750      	b.n	1716 <_vfprintf_r+0x106>
    1874:	2200      	movs	r2, #0
    1876:	0015      	movs	r5, r2
    1878:	3b30      	subs	r3, #48	; 0x30
    187a:	4680      	mov	r8, r0
    187c:	001a      	movs	r2, r3
    187e:	0028      	movs	r0, r5
    1880:	0083      	lsls	r3, r0, #2
    1882:	181b      	adds	r3, r3, r0
    1884:	005b      	lsls	r3, r3, #1
    1886:	3101      	adds	r1, #1
    1888:	18d0      	adds	r0, r2, r3
    188a:	1e4b      	subs	r3, r1, #1
    188c:	781b      	ldrb	r3, [r3, #0]
    188e:	001a      	movs	r2, r3
    1890:	3a30      	subs	r2, #48	; 0x30
    1892:	2a09      	cmp	r2, #9
    1894:	d9f4      	bls.n	1880 <_vfprintf_r+0x270>
    1896:	900d      	str	r0, [sp, #52]	; 0x34
    1898:	4640      	mov	r0, r8
    189a:	e73d      	b.n	1718 <_vfprintf_r+0x108>
    189c:	9313      	str	r3, [sp, #76]	; 0x4c
    189e:	910a      	str	r1, [sp, #40]	; 0x28
    18a0:	2800      	cmp	r0, #0
    18a2:	d001      	beq.n	18a8 <_vfprintf_r+0x298>
    18a4:	f001 faa7 	bl	2df6 <_vfprintf_r+0x17e6>
    18a8:	2310      	movs	r3, #16
    18aa:	9a08      	ldr	r2, [sp, #32]
    18ac:	431a      	orrs	r2, r3
    18ae:	9208      	str	r2, [sp, #32]
    18b0:	9b08      	ldr	r3, [sp, #32]
    18b2:	069b      	lsls	r3, r3, #26
    18b4:	d401      	bmi.n	18ba <_vfprintf_r+0x2aa>
    18b6:	f000 fd9c 	bl	23f2 <_vfprintf_r+0xde2>
    18ba:	2307      	movs	r3, #7
    18bc:	9a11      	ldr	r2, [sp, #68]	; 0x44
    18be:	3207      	adds	r2, #7
    18c0:	439a      	bics	r2, r3
    18c2:	3301      	adds	r3, #1
    18c4:	469c      	mov	ip, r3
    18c6:	4494      	add	ip, r2
    18c8:	4663      	mov	r3, ip
    18ca:	9311      	str	r3, [sp, #68]	; 0x44
    18cc:	6853      	ldr	r3, [r2, #4]
    18ce:	6812      	ldr	r2, [r2, #0]
    18d0:	930f      	str	r3, [sp, #60]	; 0x3c
    18d2:	920e      	str	r2, [sp, #56]	; 0x38
    18d4:	2b00      	cmp	r3, #0
    18d6:	da01      	bge.n	18dc <_vfprintf_r+0x2cc>
    18d8:	f000 fe8e 	bl	25f8 <_vfprintf_r+0xfe8>
    18dc:	ab16      	add	r3, sp, #88	; 0x58
    18de:	7fdb      	ldrb	r3, [r3, #31]
    18e0:	4698      	mov	r8, r3
    18e2:	9b0b      	ldr	r3, [sp, #44]	; 0x2c
    18e4:	2b00      	cmp	r3, #0
    18e6:	da01      	bge.n	18ec <_vfprintf_r+0x2dc>
    18e8:	f000 fde3 	bl	24b2 <_vfprintf_r+0xea2>
    18ec:	2380      	movs	r3, #128	; 0x80
    18ee:	9a08      	ldr	r2, [sp, #32]
    18f0:	439a      	bics	r2, r3
    18f2:	9208      	str	r2, [sp, #32]
    18f4:	9a0e      	ldr	r2, [sp, #56]	; 0x38
    18f6:	9b0f      	ldr	r3, [sp, #60]	; 0x3c
    18f8:	0011      	movs	r1, r2
    18fa:	4319      	orrs	r1, r3
    18fc:	d101      	bne.n	1902 <_vfprintf_r+0x2f2>
    18fe:	f000 fcbd 	bl	227c <_vfprintf_r+0xc6c>
    1902:	9b0f      	ldr	r3, [sp, #60]	; 0x3c
    1904:	2b00      	cmp	r3, #0
    1906:	d101      	bne.n	190c <_vfprintf_r+0x2fc>
    1908:	f001 f8a2 	bl	2a50 <_vfprintf_r+0x1440>
    190c:	9c0e      	ldr	r4, [sp, #56]	; 0x38
    190e:	9d0f      	ldr	r5, [sp, #60]	; 0x3c
    1910:	ab32      	add	r3, sp, #200	; 0xc8
    1912:	46b1      	mov	r9, r6
    1914:	001e      	movs	r6, r3
    1916:	0020      	movs	r0, r4
    1918:	0029      	movs	r1, r5
    191a:	220a      	movs	r2, #10
    191c:	2300      	movs	r3, #0
    191e:	f005 fbed 	bl	70fc <__aeabi_uldivmod>
    1922:	3e01      	subs	r6, #1
    1924:	3230      	adds	r2, #48	; 0x30
    1926:	7032      	strb	r2, [r6, #0]
    1928:	2300      	movs	r3, #0
    192a:	0020      	movs	r0, r4
    192c:	0029      	movs	r1, r5
    192e:	220a      	movs	r2, #10
    1930:	f005 fbe4 	bl	70fc <__aeabi_uldivmod>
    1934:	0003      	movs	r3, r0
    1936:	0004      	movs	r4, r0
    1938:	000d      	movs	r5, r1
    193a:	430b      	orrs	r3, r1
    193c:	d1eb      	bne.n	1916 <_vfprintf_r+0x306>
    193e:	0032      	movs	r2, r6
    1940:	ab32      	add	r3, sp, #200	; 0xc8
    1942:	1a9b      	subs	r3, r3, r2
    1944:	9612      	str	r6, [sp, #72]	; 0x48
    1946:	940e      	str	r4, [sp, #56]	; 0x38
    1948:	950f      	str	r5, [sp, #60]	; 0x3c
    194a:	464e      	mov	r6, r9
    194c:	9310      	str	r3, [sp, #64]	; 0x40
    194e:	e0b1      	b.n	1ab4 <_vfprintf_r+0x4a4>
    1950:	ffffdfff 	.word	0xffffdfff
    1954:	00008ffc 	.word	0x00008ffc
    1958:	00009194 	.word	0x00009194
    195c:	9313      	str	r3, [sp, #76]	; 0x4c
    195e:	910a      	str	r1, [sp, #40]	; 0x28
    1960:	2800      	cmp	r0, #0
    1962:	d001      	beq.n	1968 <_vfprintf_r+0x358>
    1964:	f001 fa32 	bl	2dcc <_vfprintf_r+0x17bc>
    1968:	2207      	movs	r2, #7
    196a:	9b11      	ldr	r3, [sp, #68]	; 0x44
    196c:	3307      	adds	r3, #7
    196e:	4393      	bics	r3, r2
    1970:	3201      	adds	r2, #1
    1972:	4694      	mov	ip, r2
    1974:	449c      	add	ip, r3
    1976:	4662      	mov	r2, ip
    1978:	9211      	str	r2, [sp, #68]	; 0x44
    197a:	681a      	ldr	r2, [r3, #0]
    197c:	9216      	str	r2, [sp, #88]	; 0x58
    197e:	2201      	movs	r2, #1
    1980:	685b      	ldr	r3, [r3, #4]
    1982:	9d16      	ldr	r5, [sp, #88]	; 0x58
    1984:	9317      	str	r3, [sp, #92]	; 0x5c
    1986:	9b17      	ldr	r3, [sp, #92]	; 0x5c
    1988:	4252      	negs	r2, r2
    198a:	005c      	lsls	r4, r3, #1
    198c:	0864      	lsrs	r4, r4, #1
    198e:	4bc2      	ldr	r3, [pc, #776]	; (1c98 <_vfprintf_r+0x688>)
    1990:	0028      	movs	r0, r5
    1992:	0021      	movs	r1, r4
    1994:	f007 f9b0 	bl	8cf8 <__aeabi_dcmpun>
    1998:	2800      	cmp	r0, #0
    199a:	d001      	beq.n	19a0 <_vfprintf_r+0x390>
    199c:	f000 fe6c 	bl	2678 <_vfprintf_r+0x1068>
    19a0:	2201      	movs	r2, #1
    19a2:	4bbd      	ldr	r3, [pc, #756]	; (1c98 <_vfprintf_r+0x688>)
    19a4:	4252      	negs	r2, r2
    19a6:	0028      	movs	r0, r5
    19a8:	0021      	movs	r1, r4
    19aa:	f005 fb89 	bl	70c0 <__aeabi_dcmple>
    19ae:	2800      	cmp	r0, #0
    19b0:	d001      	beq.n	19b6 <_vfprintf_r+0x3a6>
    19b2:	f000 fe61 	bl	2678 <_vfprintf_r+0x1068>
    19b6:	2200      	movs	r2, #0
    19b8:	2300      	movs	r3, #0
    19ba:	9816      	ldr	r0, [sp, #88]	; 0x58
    19bc:	9917      	ldr	r1, [sp, #92]	; 0x5c
    19be:	f005 fb75 	bl	70ac <__aeabi_dcmplt>
    19c2:	2800      	cmp	r0, #0
    19c4:	d001      	beq.n	19ca <_vfprintf_r+0x3ba>
    19c6:	f001 f91f 	bl	2c08 <_vfprintf_r+0x15f8>
    19ca:	ab16      	add	r3, sp, #88	; 0x58
    19cc:	7fdb      	ldrb	r3, [r3, #31]
    19ce:	4698      	mov	r8, r3
    19d0:	9b13      	ldr	r3, [sp, #76]	; 0x4c
    19d2:	2b47      	cmp	r3, #71	; 0x47
    19d4:	dc01      	bgt.n	19da <_vfprintf_r+0x3ca>
    19d6:	f000 ff72 	bl	28be <_vfprintf_r+0x12ae>
    19da:	4bb0      	ldr	r3, [pc, #704]	; (1c9c <_vfprintf_r+0x68c>)
    19dc:	9312      	str	r3, [sp, #72]	; 0x48
    19de:	2380      	movs	r3, #128	; 0x80
    19e0:	9a08      	ldr	r2, [sp, #32]
    19e2:	439a      	bics	r2, r3
    19e4:	9208      	str	r2, [sp, #32]
    19e6:	3b7d      	subs	r3, #125	; 0x7d
    19e8:	9309      	str	r3, [sp, #36]	; 0x24
    19ea:	9310      	str	r3, [sp, #64]	; 0x40
    19ec:	2300      	movs	r3, #0
    19ee:	930b      	str	r3, [sp, #44]	; 0x2c
    19f0:	9315      	str	r3, [sp, #84]	; 0x54
    19f2:	e068      	b.n	1ac6 <_vfprintf_r+0x4b6>
    19f4:	464a      	mov	r2, r9
    19f6:	9b08      	ldr	r3, [sp, #32]
    19f8:	4313      	orrs	r3, r2
    19fa:	9308      	str	r3, [sp, #32]
    19fc:	780b      	ldrb	r3, [r1, #0]
    19fe:	e68a      	b.n	1716 <_vfprintf_r+0x106>
    1a00:	9313      	str	r3, [sp, #76]	; 0x4c
    1a02:	910a      	str	r1, [sp, #40]	; 0x28
    1a04:	2800      	cmp	r0, #0
    1a06:	d001      	beq.n	1a0c <_vfprintf_r+0x3fc>
    1a08:	f001 f9e4 	bl	2dd4 <_vfprintf_r+0x17c4>
    1a0c:	2310      	movs	r3, #16
    1a0e:	9a08      	ldr	r2, [sp, #32]
    1a10:	431a      	orrs	r2, r3
    1a12:	9208      	str	r2, [sp, #32]
    1a14:	2320      	movs	r3, #32
    1a16:	9908      	ldr	r1, [sp, #32]
    1a18:	400b      	ands	r3, r1
    1a1a:	d101      	bne.n	1a20 <_vfprintf_r+0x410>
    1a1c:	f000 fcc1 	bl	23a2 <_vfprintf_r+0xd92>
    1a20:	2207      	movs	r2, #7
    1a22:	9b11      	ldr	r3, [sp, #68]	; 0x44
    1a24:	3307      	adds	r3, #7
    1a26:	4393      	bics	r3, r2
    1a28:	3201      	adds	r2, #1
    1a2a:	4694      	mov	ip, r2
    1a2c:	449c      	add	ip, r3
    1a2e:	4662      	mov	r2, ip
    1a30:	685c      	ldr	r4, [r3, #4]
    1a32:	681b      	ldr	r3, [r3, #0]
    1a34:	0025      	movs	r5, r4
    1a36:	001c      	movs	r4, r3
    1a38:	2300      	movs	r3, #0
    1a3a:	9211      	str	r2, [sp, #68]	; 0x44
    1a3c:	aa16      	add	r2, sp, #88	; 0x58
    1a3e:	77d3      	strb	r3, [r2, #31]
    1a40:	9b0b      	ldr	r3, [sp, #44]	; 0x2c
    1a42:	940e      	str	r4, [sp, #56]	; 0x38
    1a44:	950f      	str	r5, [sp, #60]	; 0x3c
    1a46:	2b00      	cmp	r3, #0
    1a48:	da01      	bge.n	1a4e <_vfprintf_r+0x43e>
    1a4a:	f000 fdfd 	bl	2648 <_vfprintf_r+0x1038>
    1a4e:	2380      	movs	r3, #128	; 0x80
    1a50:	4399      	bics	r1, r3
    1a52:	9108      	str	r1, [sp, #32]
    1a54:	0021      	movs	r1, r4
    1a56:	4329      	orrs	r1, r5
    1a58:	d101      	bne.n	1a5e <_vfprintf_r+0x44e>
    1a5a:	f000 fcbd 	bl	23d8 <_vfprintf_r+0xdc8>
    1a5e:	2300      	movs	r3, #0
    1a60:	4698      	mov	r8, r3
    1a62:	2207      	movs	r2, #7
    1a64:	46b4      	mov	ip, r6
    1a66:	ab32      	add	r3, sp, #200	; 0xc8
    1a68:	4692      	mov	sl, r2
    1a6a:	001c      	movs	r4, r3
    1a6c:	9a0e      	ldr	r2, [sp, #56]	; 0x38
    1a6e:	9b0f      	ldr	r3, [sp, #60]	; 0x3c
    1a70:	0758      	lsls	r0, r3, #29
    1a72:	08d6      	lsrs	r6, r2, #3
    1a74:	4651      	mov	r1, sl
    1a76:	08dd      	lsrs	r5, r3, #3
    1a78:	4330      	orrs	r0, r6
    1a7a:	002b      	movs	r3, r5
    1a7c:	0005      	movs	r5, r0
    1a7e:	4011      	ands	r1, r2
    1a80:	3c01      	subs	r4, #1
    1a82:	3130      	adds	r1, #48	; 0x30
    1a84:	7021      	strb	r1, [r4, #0]
    1a86:	0002      	movs	r2, r0
    1a88:	431d      	orrs	r5, r3
    1a8a:	d1f1      	bne.n	1a70 <_vfprintf_r+0x460>
    1a8c:	920e      	str	r2, [sp, #56]	; 0x38
    1a8e:	930f      	str	r3, [sp, #60]	; 0x3c
    1a90:	9a08      	ldr	r2, [sp, #32]
    1a92:	9412      	str	r4, [sp, #72]	; 0x48
    1a94:	4666      	mov	r6, ip
    1a96:	07d2      	lsls	r2, r2, #31
    1a98:	d400      	bmi.n	1a9c <_vfprintf_r+0x48c>
    1a9a:	e15b      	b.n	1d54 <_vfprintf_r+0x744>
    1a9c:	2930      	cmp	r1, #48	; 0x30
    1a9e:	d101      	bne.n	1aa4 <_vfprintf_r+0x494>
    1aa0:	f000 ff99 	bl	29d6 <_vfprintf_r+0x13c6>
    1aa4:	2330      	movs	r3, #48	; 0x30
    1aa6:	9d12      	ldr	r5, [sp, #72]	; 0x48
    1aa8:	3d01      	subs	r5, #1
    1aaa:	702b      	strb	r3, [r5, #0]
    1aac:	ab32      	add	r3, sp, #200	; 0xc8
    1aae:	1b5b      	subs	r3, r3, r5
    1ab0:	9310      	str	r3, [sp, #64]	; 0x40
    1ab2:	9512      	str	r5, [sp, #72]	; 0x48
    1ab4:	9a10      	ldr	r2, [sp, #64]	; 0x40
    1ab6:	0013      	movs	r3, r2
    1ab8:	9a0b      	ldr	r2, [sp, #44]	; 0x2c
    1aba:	4293      	cmp	r3, r2
    1abc:	da00      	bge.n	1ac0 <_vfprintf_r+0x4b0>
    1abe:	0013      	movs	r3, r2
    1ac0:	9309      	str	r3, [sp, #36]	; 0x24
    1ac2:	2300      	movs	r3, #0
    1ac4:	9315      	str	r3, [sp, #84]	; 0x54
    1ac6:	4643      	mov	r3, r8
    1ac8:	2b00      	cmp	r3, #0
    1aca:	d002      	beq.n	1ad2 <_vfprintf_r+0x4c2>
    1acc:	9b09      	ldr	r3, [sp, #36]	; 0x24
    1ace:	3301      	adds	r3, #1
    1ad0:	9309      	str	r3, [sp, #36]	; 0x24
    1ad2:	2302      	movs	r3, #2
    1ad4:	9a08      	ldr	r2, [sp, #32]
    1ad6:	401a      	ands	r2, r3
    1ad8:	4692      	mov	sl, r2
    1ada:	d002      	beq.n	1ae2 <_vfprintf_r+0x4d2>
    1adc:	9b09      	ldr	r3, [sp, #36]	; 0x24
    1ade:	3302      	adds	r3, #2
    1ae0:	9309      	str	r3, [sp, #36]	; 0x24
    1ae2:	2384      	movs	r3, #132	; 0x84
    1ae4:	9a08      	ldr	r2, [sp, #32]
    1ae6:	401a      	ands	r2, r3
    1ae8:	4691      	mov	r9, r2
    1aea:	d000      	beq.n	1aee <_vfprintf_r+0x4de>
    1aec:	e1c7      	b.n	1e7e <_vfprintf_r+0x86e>
    1aee:	9b0d      	ldr	r3, [sp, #52]	; 0x34
    1af0:	9a09      	ldr	r2, [sp, #36]	; 0x24
    1af2:	1a9c      	subs	r4, r3, r2
    1af4:	2c00      	cmp	r4, #0
    1af6:	dc00      	bgt.n	1afa <_vfprintf_r+0x4ea>
    1af8:	e1c1      	b.n	1e7e <_vfprintf_r+0x86e>
    1afa:	4969      	ldr	r1, [pc, #420]	; (1ca0 <_vfprintf_r+0x690>)
    1afc:	68ba      	ldr	r2, [r7, #8]
    1afe:	687b      	ldr	r3, [r7, #4]
    1b00:	4688      	mov	r8, r1
    1b02:	2c10      	cmp	r4, #16
    1b04:	dd21      	ble.n	1b4a <_vfprintf_r+0x53a>
    1b06:	0031      	movs	r1, r6
    1b08:	2510      	movs	r5, #16
    1b0a:	465e      	mov	r6, fp
    1b0c:	e003      	b.n	1b16 <_vfprintf_r+0x506>
    1b0e:	3c10      	subs	r4, #16
    1b10:	3108      	adds	r1, #8
    1b12:	2c10      	cmp	r4, #16
    1b14:	dd17      	ble.n	1b46 <_vfprintf_r+0x536>
    1b16:	4640      	mov	r0, r8
    1b18:	3210      	adds	r2, #16
    1b1a:	3301      	adds	r3, #1
    1b1c:	6008      	str	r0, [r1, #0]
    1b1e:	604d      	str	r5, [r1, #4]
    1b20:	60ba      	str	r2, [r7, #8]
    1b22:	607b      	str	r3, [r7, #4]
    1b24:	2b07      	cmp	r3, #7
    1b26:	ddf2      	ble.n	1b0e <_vfprintf_r+0x4fe>
    1b28:	003a      	movs	r2, r7
    1b2a:	0031      	movs	r1, r6
    1b2c:	9807      	ldr	r0, [sp, #28]
    1b2e:	f004 f831 	bl	5b94 <__sprint_r>
    1b32:	2800      	cmp	r0, #0
    1b34:	d001      	beq.n	1b3a <_vfprintf_r+0x52a>
    1b36:	f000 fc32 	bl	239e <_vfprintf_r+0xd8e>
    1b3a:	3c10      	subs	r4, #16
    1b3c:	68ba      	ldr	r2, [r7, #8]
    1b3e:	687b      	ldr	r3, [r7, #4]
    1b40:	a932      	add	r1, sp, #200	; 0xc8
    1b42:	2c10      	cmp	r4, #16
    1b44:	dce7      	bgt.n	1b16 <_vfprintf_r+0x506>
    1b46:	46b3      	mov	fp, r6
    1b48:	000e      	movs	r6, r1
    1b4a:	4641      	mov	r1, r8
    1b4c:	6074      	str	r4, [r6, #4]
    1b4e:	3301      	adds	r3, #1
    1b50:	18a4      	adds	r4, r4, r2
    1b52:	6031      	str	r1, [r6, #0]
    1b54:	60bc      	str	r4, [r7, #8]
    1b56:	607b      	str	r3, [r7, #4]
    1b58:	2b07      	cmp	r3, #7
    1b5a:	dd01      	ble.n	1b60 <_vfprintf_r+0x550>
    1b5c:	f000 fc11 	bl	2382 <_vfprintf_r+0xd72>
    1b60:	ab16      	add	r3, sp, #88	; 0x58
    1b62:	7fdb      	ldrb	r3, [r3, #31]
    1b64:	3608      	adds	r6, #8
    1b66:	4698      	mov	r8, r3
    1b68:	e18a      	b.n	1e80 <_vfprintf_r+0x870>
    1b6a:	9313      	str	r3, [sp, #76]	; 0x4c
    1b6c:	910a      	str	r1, [sp, #40]	; 0x28
    1b6e:	2800      	cmp	r0, #0
    1b70:	d001      	beq.n	1b76 <_vfprintf_r+0x566>
    1b72:	f001 f938 	bl	2de6 <_vfprintf_r+0x17d6>
    1b76:	2310      	movs	r3, #16
    1b78:	9a08      	ldr	r2, [sp, #32]
    1b7a:	431a      	orrs	r2, r3
    1b7c:	9208      	str	r2, [sp, #32]
    1b7e:	2320      	movs	r3, #32
    1b80:	9908      	ldr	r1, [sp, #32]
    1b82:	400b      	ands	r3, r1
    1b84:	d100      	bne.n	1b88 <_vfprintf_r+0x578>
    1b86:	e35e      	b.n	2246 <_vfprintf_r+0xc36>
    1b88:	2207      	movs	r2, #7
    1b8a:	9b11      	ldr	r3, [sp, #68]	; 0x44
    1b8c:	3307      	adds	r3, #7
    1b8e:	4393      	bics	r3, r2
    1b90:	3201      	adds	r2, #1
    1b92:	4694      	mov	ip, r2
    1b94:	449c      	add	ip, r3
    1b96:	4662      	mov	r2, ip
    1b98:	685c      	ldr	r4, [r3, #4]
    1b9a:	681b      	ldr	r3, [r3, #0]
    1b9c:	0025      	movs	r5, r4
    1b9e:	001c      	movs	r4, r3
    1ba0:	2300      	movs	r3, #0
    1ba2:	9211      	str	r2, [sp, #68]	; 0x44
    1ba4:	aa16      	add	r2, sp, #88	; 0x58
    1ba6:	77d3      	strb	r3, [r2, #31]
    1ba8:	9b0b      	ldr	r3, [sp, #44]	; 0x2c
    1baa:	940e      	str	r4, [sp, #56]	; 0x38
    1bac:	950f      	str	r5, [sp, #60]	; 0x3c
    1bae:	2b00      	cmp	r3, #0
    1bb0:	da01      	bge.n	1bb6 <_vfprintf_r+0x5a6>
    1bb2:	f000 fc7c 	bl	24ae <_vfprintf_r+0xe9e>
    1bb6:	2380      	movs	r3, #128	; 0x80
    1bb8:	4399      	bics	r1, r3
    1bba:	9108      	str	r1, [sp, #32]
    1bbc:	0021      	movs	r1, r4
    1bbe:	4329      	orrs	r1, r5
    1bc0:	1e0b      	subs	r3, r1, #0
    1bc2:	d100      	bne.n	1bc6 <_vfprintf_r+0x5b6>
    1bc4:	e359      	b.n	227a <_vfprintf_r+0xc6a>
    1bc6:	2300      	movs	r3, #0
    1bc8:	4698      	mov	r8, r3
    1bca:	e69a      	b.n	1902 <_vfprintf_r+0x2f2>
    1bcc:	9313      	str	r3, [sp, #76]	; 0x4c
    1bce:	910a      	str	r1, [sp, #40]	; 0x28
    1bd0:	2800      	cmp	r0, #0
    1bd2:	d100      	bne.n	1bd6 <_vfprintf_r+0x5c6>
    1bd4:	e71e      	b.n	1a14 <_vfprintf_r+0x404>
    1bd6:	ab16      	add	r3, sp, #88	; 0x58
    1bd8:	77dc      	strb	r4, [r3, #31]
    1bda:	e71b      	b.n	1a14 <_vfprintf_r+0x404>
    1bdc:	2220      	movs	r2, #32
    1bde:	9b08      	ldr	r3, [sp, #32]
    1be0:	4313      	orrs	r3, r2
    1be2:	9308      	str	r3, [sp, #32]
    1be4:	780b      	ldrb	r3, [r1, #0]
    1be6:	e596      	b.n	1716 <_vfprintf_r+0x106>
    1be8:	9313      	str	r3, [sp, #76]	; 0x4c
    1bea:	9b11      	ldr	r3, [sp, #68]	; 0x44
    1bec:	910a      	str	r1, [sp, #40]	; 0x28
    1bee:	1d1c      	adds	r4, r3, #4
    1bf0:	681b      	ldr	r3, [r3, #0]
    1bf2:	a916      	add	r1, sp, #88	; 0x58
    1bf4:	001a      	movs	r2, r3
    1bf6:	9312      	str	r3, [sp, #72]	; 0x48
    1bf8:	2300      	movs	r3, #0
    1bfa:	77cb      	strb	r3, [r1, #31]
    1bfc:	2a00      	cmp	r2, #0
    1bfe:	d101      	bne.n	1c04 <_vfprintf_r+0x5f4>
    1c00:	f000 ffc6 	bl	2b90 <_vfprintf_r+0x1580>
    1c04:	9b0b      	ldr	r3, [sp, #44]	; 0x2c
    1c06:	2b00      	cmp	r3, #0
    1c08:	da01      	bge.n	1c0e <_vfprintf_r+0x5fe>
    1c0a:	f000 feea 	bl	29e2 <_vfprintf_r+0x13d2>
    1c0e:	001a      	movs	r2, r3
    1c10:	2100      	movs	r1, #0
    1c12:	9812      	ldr	r0, [sp, #72]	; 0x48
    1c14:	f002 ff96 	bl	4b44 <memchr>
    1c18:	2800      	cmp	r0, #0
    1c1a:	d101      	bne.n	1c20 <_vfprintf_r+0x610>
    1c1c:	f001 f840 	bl	2ca0 <_vfprintf_r+0x1690>
    1c20:	9b12      	ldr	r3, [sp, #72]	; 0x48
    1c22:	1ac3      	subs	r3, r0, r3
    1c24:	001a      	movs	r2, r3
    1c26:	9310      	str	r3, [sp, #64]	; 0x40
    1c28:	43db      	mvns	r3, r3
    1c2a:	17db      	asrs	r3, r3, #31
    1c2c:	401a      	ands	r2, r3
    1c2e:	2300      	movs	r3, #0
    1c30:	a916      	add	r1, sp, #88	; 0x58
    1c32:	7fc9      	ldrb	r1, [r1, #31]
    1c34:	9209      	str	r2, [sp, #36]	; 0x24
    1c36:	4688      	mov	r8, r1
    1c38:	9411      	str	r4, [sp, #68]	; 0x44
    1c3a:	930b      	str	r3, [sp, #44]	; 0x2c
    1c3c:	9315      	str	r3, [sp, #84]	; 0x54
    1c3e:	e742      	b.n	1ac6 <_vfprintf_r+0x4b6>
    1c40:	9313      	str	r3, [sp, #76]	; 0x4c
    1c42:	910a      	str	r1, [sp, #40]	; 0x28
    1c44:	2800      	cmp	r0, #0
    1c46:	d100      	bne.n	1c4a <_vfprintf_r+0x63a>
    1c48:	e632      	b.n	18b0 <_vfprintf_r+0x2a0>
    1c4a:	ab16      	add	r3, sp, #88	; 0x58
    1c4c:	77dc      	strb	r4, [r3, #31]
    1c4e:	e62f      	b.n	18b0 <_vfprintf_r+0x2a0>
    1c50:	4652      	mov	r2, sl
    1c52:	9b08      	ldr	r3, [sp, #32]
    1c54:	4313      	orrs	r3, r2
    1c56:	9308      	str	r3, [sp, #32]
    1c58:	780b      	ldrb	r3, [r1, #0]
    1c5a:	e55c      	b.n	1716 <_vfprintf_r+0x106>
    1c5c:	780b      	ldrb	r3, [r1, #0]
    1c5e:	2b6c      	cmp	r3, #108	; 0x6c
    1c60:	d101      	bne.n	1c66 <_vfprintf_r+0x656>
    1c62:	f000 fea4 	bl	29ae <_vfprintf_r+0x139e>
    1c66:	2510      	movs	r5, #16
    1c68:	9a08      	ldr	r2, [sp, #32]
    1c6a:	432a      	orrs	r2, r5
    1c6c:	9208      	str	r2, [sp, #32]
    1c6e:	e552      	b.n	1716 <_vfprintf_r+0x106>
    1c70:	910a      	str	r1, [sp, #40]	; 0x28
    1c72:	2800      	cmp	r0, #0
    1c74:	d001      	beq.n	1c7a <_vfprintf_r+0x66a>
    1c76:	f001 f8cb 	bl	2e10 <_vfprintf_r+0x1800>
    1c7a:	9b08      	ldr	r3, [sp, #32]
    1c7c:	069b      	lsls	r3, r3, #26
    1c7e:	d401      	bmi.n	1c84 <_vfprintf_r+0x674>
    1c80:	f000 fd85 	bl	278e <_vfprintf_r+0x117e>
    1c84:	9911      	ldr	r1, [sp, #68]	; 0x44
    1c86:	9a0c      	ldr	r2, [sp, #48]	; 0x30
    1c88:	680b      	ldr	r3, [r1, #0]
    1c8a:	601a      	str	r2, [r3, #0]
    1c8c:	17d2      	asrs	r2, r2, #31
    1c8e:	605a      	str	r2, [r3, #4]
    1c90:	000b      	movs	r3, r1
    1c92:	3304      	adds	r3, #4
    1c94:	9311      	str	r3, [sp, #68]	; 0x44
    1c96:	e503      	b.n	16a0 <_vfprintf_r+0x90>
    1c98:	7fefffff 	.word	0x7fefffff
    1c9c:	00009174 	.word	0x00009174
    1ca0:	000091b4 	.word	0x000091b4
    1ca4:	9313      	str	r3, [sp, #76]	; 0x4c
    1ca6:	910a      	str	r1, [sp, #40]	; 0x28
    1ca8:	2800      	cmp	r0, #0
    1caa:	d001      	beq.n	1cb0 <_vfprintf_r+0x6a0>
    1cac:	f001 f89f 	bl	2dee <_vfprintf_r+0x17de>
    1cb0:	9b08      	ldr	r3, [sp, #32]
    1cb2:	49b5      	ldr	r1, [pc, #724]	; (1f88 <_vfprintf_r+0x978>)
    1cb4:	069b      	lsls	r3, r3, #26
    1cb6:	d563      	bpl.n	1d80 <_vfprintf_r+0x770>
    1cb8:	2207      	movs	r2, #7
    1cba:	9b11      	ldr	r3, [sp, #68]	; 0x44
    1cbc:	3307      	adds	r3, #7
    1cbe:	4393      	bics	r3, r2
    1cc0:	3201      	adds	r2, #1
    1cc2:	4694      	mov	ip, r2
    1cc4:	449c      	add	ip, r3
    1cc6:	4662      	mov	r2, ip
    1cc8:	685c      	ldr	r4, [r3, #4]
    1cca:	681b      	ldr	r3, [r3, #0]
    1ccc:	930e      	str	r3, [sp, #56]	; 0x38
    1cce:	940f      	str	r4, [sp, #60]	; 0x3c
    1cd0:	2301      	movs	r3, #1
    1cd2:	9211      	str	r2, [sp, #68]	; 0x44
    1cd4:	9a08      	ldr	r2, [sp, #32]
    1cd6:	4013      	ands	r3, r2
    1cd8:	d065      	beq.n	1da6 <_vfprintf_r+0x796>
    1cda:	9a0e      	ldr	r2, [sp, #56]	; 0x38
    1cdc:	9b0f      	ldr	r3, [sp, #60]	; 0x3c
    1cde:	0010      	movs	r0, r2
    1ce0:	4318      	orrs	r0, r3
    1ce2:	d101      	bne.n	1ce8 <_vfprintf_r+0x6d8>
    1ce4:	f000 fd6c 	bl	27c0 <_vfprintf_r+0x11b0>
    1ce8:	2230      	movs	r2, #48	; 0x30
    1cea:	ab1e      	add	r3, sp, #120	; 0x78
    1cec:	701a      	strb	r2, [r3, #0]
    1cee:	204c      	movs	r0, #76	; 0x4c
    1cf0:	466a      	mov	r2, sp
    1cf2:	1812      	adds	r2, r2, r0
    1cf4:	7812      	ldrb	r2, [r2, #0]
    1cf6:	9c08      	ldr	r4, [sp, #32]
    1cf8:	705a      	strb	r2, [r3, #1]
    1cfa:	2200      	movs	r2, #0
    1cfc:	2302      	movs	r3, #2
    1cfe:	0020      	movs	r0, r4
    1d00:	ad16      	add	r5, sp, #88	; 0x58
    1d02:	77ea      	strb	r2, [r5, #31]
    1d04:	9a0b      	ldr	r2, [sp, #44]	; 0x2c
    1d06:	4318      	orrs	r0, r3
    1d08:	2a00      	cmp	r2, #0
    1d0a:	da01      	bge.n	1d10 <_vfprintf_r+0x700>
    1d0c:	f000 ff82 	bl	2c14 <_vfprintf_r+0x1604>
    1d10:	2280      	movs	r2, #128	; 0x80
    1d12:	0020      	movs	r0, r4
    1d14:	4390      	bics	r0, r2
    1d16:	0002      	movs	r2, r0
    1d18:	431a      	orrs	r2, r3
    1d1a:	2300      	movs	r3, #0
    1d1c:	4698      	mov	r8, r3
    1d1e:	9208      	str	r2, [sp, #32]
    1d20:	200f      	movs	r0, #15
    1d22:	468c      	mov	ip, r1
    1d24:	46b1      	mov	r9, r6
    1d26:	ab32      	add	r3, sp, #200	; 0xc8
    1d28:	001c      	movs	r4, r3
    1d2a:	9a0e      	ldr	r2, [sp, #56]	; 0x38
    1d2c:	9b0f      	ldr	r3, [sp, #60]	; 0x3c
    1d2e:	0001      	movs	r1, r0
    1d30:	4665      	mov	r5, ip
    1d32:	4011      	ands	r1, r2
    1d34:	5c69      	ldrb	r1, [r5, r1]
    1d36:	3c01      	subs	r4, #1
    1d38:	071e      	lsls	r6, r3, #28
    1d3a:	7021      	strb	r1, [r4, #0]
    1d3c:	0911      	lsrs	r1, r2, #4
    1d3e:	091d      	lsrs	r5, r3, #4
    1d40:	430e      	orrs	r6, r1
    1d42:	002b      	movs	r3, r5
    1d44:	0035      	movs	r5, r6
    1d46:	0032      	movs	r2, r6
    1d48:	431d      	orrs	r5, r3
    1d4a:	d1f0      	bne.n	1d2e <_vfprintf_r+0x71e>
    1d4c:	464e      	mov	r6, r9
    1d4e:	920e      	str	r2, [sp, #56]	; 0x38
    1d50:	930f      	str	r3, [sp, #60]	; 0x3c
    1d52:	9412      	str	r4, [sp, #72]	; 0x48
    1d54:	ab32      	add	r3, sp, #200	; 0xc8
    1d56:	1b1b      	subs	r3, r3, r4
    1d58:	9310      	str	r3, [sp, #64]	; 0x40
    1d5a:	e6ab      	b.n	1ab4 <_vfprintf_r+0x4a4>
    1d5c:	9313      	str	r3, [sp, #76]	; 0x4c
    1d5e:	910a      	str	r1, [sp, #40]	; 0x28
    1d60:	2800      	cmp	r0, #0
    1d62:	d100      	bne.n	1d66 <_vfprintf_r+0x756>
    1d64:	e70b      	b.n	1b7e <_vfprintf_r+0x56e>
    1d66:	ab16      	add	r3, sp, #88	; 0x58
    1d68:	77dc      	strb	r4, [r3, #31]
    1d6a:	e708      	b.n	1b7e <_vfprintf_r+0x56e>
    1d6c:	9313      	str	r3, [sp, #76]	; 0x4c
    1d6e:	910a      	str	r1, [sp, #40]	; 0x28
    1d70:	2800      	cmp	r0, #0
    1d72:	d001      	beq.n	1d78 <_vfprintf_r+0x768>
    1d74:	f001 f843 	bl	2dfe <_vfprintf_r+0x17ee>
    1d78:	4984      	ldr	r1, [pc, #528]	; (1f8c <_vfprintf_r+0x97c>)
    1d7a:	9b08      	ldr	r3, [sp, #32]
    1d7c:	069b      	lsls	r3, r3, #26
    1d7e:	d49b      	bmi.n	1cb8 <_vfprintf_r+0x6a8>
    1d80:	9b08      	ldr	r3, [sp, #32]
    1d82:	06db      	lsls	r3, r3, #27
    1d84:	d404      	bmi.n	1d90 <_vfprintf_r+0x780>
    1d86:	9b08      	ldr	r3, [sp, #32]
    1d88:	065b      	lsls	r3, r3, #25
    1d8a:	d501      	bpl.n	1d90 <_vfprintf_r+0x780>
    1d8c:	f000 fdcb 	bl	2926 <_vfprintf_r+0x1316>
    1d90:	9b11      	ldr	r3, [sp, #68]	; 0x44
    1d92:	681a      	ldr	r2, [r3, #0]
    1d94:	920e      	str	r2, [sp, #56]	; 0x38
    1d96:	2200      	movs	r2, #0
    1d98:	3304      	adds	r3, #4
    1d9a:	9311      	str	r3, [sp, #68]	; 0x44
    1d9c:	2301      	movs	r3, #1
    1d9e:	920f      	str	r2, [sp, #60]	; 0x3c
    1da0:	9a08      	ldr	r2, [sp, #32]
    1da2:	4013      	ands	r3, r2
    1da4:	d199      	bne.n	1cda <_vfprintf_r+0x6ca>
    1da6:	a816      	add	r0, sp, #88	; 0x58
    1da8:	77c3      	strb	r3, [r0, #31]
    1daa:	9b0b      	ldr	r3, [sp, #44]	; 0x2c
    1dac:	2b00      	cmp	r3, #0
    1dae:	da01      	bge.n	1db4 <_vfprintf_r+0x7a4>
    1db0:	f000 fd6d 	bl	288e <_vfprintf_r+0x127e>
    1db4:	2380      	movs	r3, #128	; 0x80
    1db6:	439a      	bics	r2, r3
    1db8:	9208      	str	r2, [sp, #32]
    1dba:	9a0e      	ldr	r2, [sp, #56]	; 0x38
    1dbc:	9b0f      	ldr	r3, [sp, #60]	; 0x3c
    1dbe:	0010      	movs	r0, r2
    1dc0:	4318      	orrs	r0, r3
    1dc2:	d159      	bne.n	1e78 <_vfprintf_r+0x868>
    1dc4:	9b0b      	ldr	r3, [sp, #44]	; 0x2c
    1dc6:	4698      	mov	r8, r3
    1dc8:	2b00      	cmp	r3, #0
    1dca:	d000      	beq.n	1dce <_vfprintf_r+0x7be>
    1dcc:	e4e0      	b.n	1790 <_vfprintf_r+0x180>
    1dce:	2300      	movs	r3, #0
    1dd0:	930b      	str	r3, [sp, #44]	; 0x2c
    1dd2:	9310      	str	r3, [sp, #64]	; 0x40
    1dd4:	ab32      	add	r3, sp, #200	; 0xc8
    1dd6:	9312      	str	r3, [sp, #72]	; 0x48
    1dd8:	e66c      	b.n	1ab4 <_vfprintf_r+0x4a4>
    1dda:	780b      	ldrb	r3, [r1, #0]
    1ddc:	2c00      	cmp	r4, #0
    1dde:	d000      	beq.n	1de2 <_vfprintf_r+0x7d2>
    1de0:	e499      	b.n	1716 <_vfprintf_r+0x106>
    1de2:	2001      	movs	r0, #1
    1de4:	3420      	adds	r4, #32
    1de6:	e496      	b.n	1716 <_vfprintf_r+0x106>
    1de8:	2301      	movs	r3, #1
    1dea:	9a08      	ldr	r2, [sp, #32]
    1dec:	431a      	orrs	r2, r3
    1dee:	9208      	str	r2, [sp, #32]
    1df0:	780b      	ldrb	r3, [r1, #0]
    1df2:	e490      	b.n	1716 <_vfprintf_r+0x106>
    1df4:	780b      	ldrb	r3, [r1, #0]
    1df6:	2001      	movs	r0, #1
    1df8:	242b      	movs	r4, #43	; 0x2b
    1dfa:	e48c      	b.n	1716 <_vfprintf_r+0x106>
    1dfc:	9a11      	ldr	r2, [sp, #68]	; 0x44
    1dfe:	9313      	str	r3, [sp, #76]	; 0x4c
    1e00:	6813      	ldr	r3, [r2, #0]
    1e02:	910a      	str	r1, [sp, #40]	; 0x28
    1e04:	9309      	str	r3, [sp, #36]	; 0x24
    1e06:	2124      	movs	r1, #36	; 0x24
    1e08:	466b      	mov	r3, sp
    1e0a:	185b      	adds	r3, r3, r1
    1e0c:	781b      	ldrb	r3, [r3, #0]
    1e0e:	ad28      	add	r5, sp, #160	; 0xa0
    1e10:	702b      	strb	r3, [r5, #0]
    1e12:	2300      	movs	r3, #0
    1e14:	a916      	add	r1, sp, #88	; 0x58
    1e16:	77cb      	strb	r3, [r1, #31]
    1e18:	0013      	movs	r3, r2
    1e1a:	3304      	adds	r3, #4
    1e1c:	9311      	str	r3, [sp, #68]	; 0x44
    1e1e:	2300      	movs	r3, #0
    1e20:	4698      	mov	r8, r3
    1e22:	3301      	adds	r3, #1
    1e24:	9309      	str	r3, [sp, #36]	; 0x24
    1e26:	9310      	str	r3, [sp, #64]	; 0x40
    1e28:	2300      	movs	r3, #0
    1e2a:	9512      	str	r5, [sp, #72]	; 0x48
    1e2c:	930b      	str	r3, [sp, #44]	; 0x2c
    1e2e:	9315      	str	r3, [sp, #84]	; 0x54
    1e30:	e64f      	b.n	1ad2 <_vfprintf_r+0x4c2>
    1e32:	2300      	movs	r3, #0
    1e34:	4698      	mov	r8, r3
    1e36:	3378      	adds	r3, #120	; 0x78
    1e38:	4954      	ldr	r1, [pc, #336]	; (1f8c <_vfprintf_r+0x97c>)
    1e3a:	9313      	str	r3, [sp, #76]	; 0x4c
    1e3c:	e770      	b.n	1d20 <_vfprintf_r+0x710>
    1e3e:	9313      	str	r3, [sp, #76]	; 0x4c
    1e40:	910a      	str	r1, [sp, #40]	; 0x28
    1e42:	2800      	cmp	r0, #0
    1e44:	d001      	beq.n	1e4a <_vfprintf_r+0x83a>
    1e46:	f000 ffdf 	bl	2e08 <_vfprintf_r+0x17f8>
    1e4a:	9b13      	ldr	r3, [sp, #76]	; 0x4c
    1e4c:	2b00      	cmp	r3, #0
    1e4e:	d101      	bne.n	1e54 <_vfprintf_r+0x844>
    1e50:	f000 fd28 	bl	28a4 <_vfprintf_r+0x1294>
    1e54:	ad28      	add	r5, sp, #160	; 0xa0
    1e56:	702b      	strb	r3, [r5, #0]
    1e58:	2300      	movs	r3, #0
    1e5a:	aa16      	add	r2, sp, #88	; 0x58
    1e5c:	77d3      	strb	r3, [r2, #31]
    1e5e:	e7df      	b.n	1e20 <_vfprintf_r+0x810>
    1e60:	2378      	movs	r3, #120	; 0x78
    1e62:	9108      	str	r1, [sp, #32]
    1e64:	4949      	ldr	r1, [pc, #292]	; (1f8c <_vfprintf_r+0x97c>)
    1e66:	9313      	str	r3, [sp, #76]	; 0x4c
    1e68:	9a0e      	ldr	r2, [sp, #56]	; 0x38
    1e6a:	9b0f      	ldr	r3, [sp, #60]	; 0x3c
    1e6c:	0014      	movs	r4, r2
    1e6e:	431c      	orrs	r4, r3
    1e70:	1e23      	subs	r3, r4, #0
    1e72:	9011      	str	r0, [sp, #68]	; 0x44
    1e74:	d100      	bne.n	1e78 <_vfprintf_r+0x868>
    1e76:	e48c      	b.n	1792 <_vfprintf_r+0x182>
    1e78:	2300      	movs	r3, #0
    1e7a:	4698      	mov	r8, r3
    1e7c:	e750      	b.n	1d20 <_vfprintf_r+0x710>
    1e7e:	68bc      	ldr	r4, [r7, #8]
    1e80:	4643      	mov	r3, r8
    1e82:	2b00      	cmp	r3, #0
    1e84:	d00f      	beq.n	1ea6 <_vfprintf_r+0x896>
    1e86:	aa16      	add	r2, sp, #88	; 0x58
    1e88:	231f      	movs	r3, #31
    1e8a:	4694      	mov	ip, r2
    1e8c:	4463      	add	r3, ip
    1e8e:	6033      	str	r3, [r6, #0]
    1e90:	2301      	movs	r3, #1
    1e92:	6073      	str	r3, [r6, #4]
    1e94:	687b      	ldr	r3, [r7, #4]
    1e96:	3401      	adds	r4, #1
    1e98:	3301      	adds	r3, #1
    1e9a:	60bc      	str	r4, [r7, #8]
    1e9c:	607b      	str	r3, [r7, #4]
    1e9e:	2b07      	cmp	r3, #7
    1ea0:	dd00      	ble.n	1ea4 <_vfprintf_r+0x894>
    1ea2:	e20c      	b.n	22be <_vfprintf_r+0xcae>
    1ea4:	3608      	adds	r6, #8
    1ea6:	4653      	mov	r3, sl
    1ea8:	2b00      	cmp	r3, #0
    1eaa:	d00c      	beq.n	1ec6 <_vfprintf_r+0x8b6>
    1eac:	ab1e      	add	r3, sp, #120	; 0x78
    1eae:	6033      	str	r3, [r6, #0]
    1eb0:	2302      	movs	r3, #2
    1eb2:	6073      	str	r3, [r6, #4]
    1eb4:	687b      	ldr	r3, [r7, #4]
    1eb6:	3402      	adds	r4, #2
    1eb8:	3301      	adds	r3, #1
    1eba:	60bc      	str	r4, [r7, #8]
    1ebc:	607b      	str	r3, [r7, #4]
    1ebe:	2b07      	cmp	r3, #7
    1ec0:	dd00      	ble.n	1ec4 <_vfprintf_r+0x8b4>
    1ec2:	e206      	b.n	22d2 <_vfprintf_r+0xcc2>
    1ec4:	3608      	adds	r6, #8
    1ec6:	464b      	mov	r3, r9
    1ec8:	2b80      	cmp	r3, #128	; 0x80
    1eca:	d100      	bne.n	1ece <_vfprintf_r+0x8be>
    1ecc:	e152      	b.n	2174 <_vfprintf_r+0xb64>
    1ece:	9b0b      	ldr	r3, [sp, #44]	; 0x2c
    1ed0:	9a10      	ldr	r2, [sp, #64]	; 0x40
    1ed2:	1a9d      	subs	r5, r3, r2
    1ed4:	2d00      	cmp	r5, #0
    1ed6:	dd32      	ble.n	1f3e <_vfprintf_r+0x92e>
    1ed8:	4a2d      	ldr	r2, [pc, #180]	; (1f90 <_vfprintf_r+0x980>)
    1eda:	687b      	ldr	r3, [r7, #4]
    1edc:	4691      	mov	r9, r2
    1ede:	2d10      	cmp	r5, #16
    1ee0:	dd22      	ble.n	1f28 <_vfprintf_r+0x918>
    1ee2:	2210      	movs	r2, #16
    1ee4:	4692      	mov	sl, r2
    1ee6:	0022      	movs	r2, r4
    1ee8:	465c      	mov	r4, fp
    1eea:	e003      	b.n	1ef4 <_vfprintf_r+0x8e4>
    1eec:	3d10      	subs	r5, #16
    1eee:	3608      	adds	r6, #8
    1ef0:	2d10      	cmp	r5, #16
    1ef2:	dd17      	ble.n	1f24 <_vfprintf_r+0x914>
    1ef4:	4649      	mov	r1, r9
    1ef6:	6031      	str	r1, [r6, #0]
    1ef8:	4651      	mov	r1, sl
    1efa:	3210      	adds	r2, #16
    1efc:	3301      	adds	r3, #1
    1efe:	6071      	str	r1, [r6, #4]
    1f00:	60ba      	str	r2, [r7, #8]
    1f02:	607b      	str	r3, [r7, #4]
    1f04:	2b07      	cmp	r3, #7
    1f06:	ddf1      	ble.n	1eec <_vfprintf_r+0x8dc>
    1f08:	003a      	movs	r2, r7
    1f0a:	0021      	movs	r1, r4
    1f0c:	9807      	ldr	r0, [sp, #28]
    1f0e:	f003 fe41 	bl	5b94 <__sprint_r>
    1f12:	2800      	cmp	r0, #0
    1f14:	d000      	beq.n	1f18 <_vfprintf_r+0x908>
    1f16:	e166      	b.n	21e6 <_vfprintf_r+0xbd6>
    1f18:	3d10      	subs	r5, #16
    1f1a:	68ba      	ldr	r2, [r7, #8]
    1f1c:	687b      	ldr	r3, [r7, #4]
    1f1e:	ae32      	add	r6, sp, #200	; 0xc8
    1f20:	2d10      	cmp	r5, #16
    1f22:	dce7      	bgt.n	1ef4 <_vfprintf_r+0x8e4>
    1f24:	46a3      	mov	fp, r4
    1f26:	0014      	movs	r4, r2
    1f28:	464a      	mov	r2, r9
    1f2a:	1964      	adds	r4, r4, r5
    1f2c:	3301      	adds	r3, #1
    1f2e:	6032      	str	r2, [r6, #0]
    1f30:	6075      	str	r5, [r6, #4]
    1f32:	60bc      	str	r4, [r7, #8]
    1f34:	607b      	str	r3, [r7, #4]
    1f36:	2b07      	cmp	r3, #7
    1f38:	dd00      	ble.n	1f3c <_vfprintf_r+0x92c>
    1f3a:	e1b6      	b.n	22aa <_vfprintf_r+0xc9a>
    1f3c:	3608      	adds	r6, #8
    1f3e:	9b08      	ldr	r3, [sp, #32]
    1f40:	05db      	lsls	r3, r3, #23
    1f42:	d500      	bpl.n	1f46 <_vfprintf_r+0x936>
    1f44:	e0ba      	b.n	20bc <_vfprintf_r+0xaac>
    1f46:	9b12      	ldr	r3, [sp, #72]	; 0x48
    1f48:	6033      	str	r3, [r6, #0]
    1f4a:	9b10      	ldr	r3, [sp, #64]	; 0x40
    1f4c:	469c      	mov	ip, r3
    1f4e:	6073      	str	r3, [r6, #4]
    1f50:	687b      	ldr	r3, [r7, #4]
    1f52:	4464      	add	r4, ip
    1f54:	3301      	adds	r3, #1
    1f56:	60bc      	str	r4, [r7, #8]
    1f58:	607b      	str	r3, [r7, #4]
    1f5a:	2b07      	cmp	r3, #7
    1f5c:	dd00      	ble.n	1f60 <_vfprintf_r+0x950>
    1f5e:	e0a2      	b.n	20a6 <_vfprintf_r+0xa96>
    1f60:	3608      	adds	r6, #8
    1f62:	9b08      	ldr	r3, [sp, #32]
    1f64:	075b      	lsls	r3, r3, #29
    1f66:	d546      	bpl.n	1ff6 <_vfprintf_r+0x9e6>
    1f68:	9b0d      	ldr	r3, [sp, #52]	; 0x34
    1f6a:	9a09      	ldr	r2, [sp, #36]	; 0x24
    1f6c:	1a9d      	subs	r5, r3, r2
    1f6e:	2d00      	cmp	r5, #0
    1f70:	dd41      	ble.n	1ff6 <_vfprintf_r+0x9e6>
    1f72:	4a08      	ldr	r2, [pc, #32]	; (1f94 <_vfprintf_r+0x984>)
    1f74:	687b      	ldr	r3, [r7, #4]
    1f76:	4690      	mov	r8, r2
    1f78:	2d10      	cmp	r5, #16
    1f7a:	dd2b      	ble.n	1fd4 <_vfprintf_r+0x9c4>
    1f7c:	2210      	movs	r2, #16
    1f7e:	4691      	mov	r9, r2
    1f80:	0022      	movs	r2, r4
    1f82:	465c      	mov	r4, fp
    1f84:	e00c      	b.n	1fa0 <_vfprintf_r+0x990>
    1f86:	46c0      	nop			; (mov r8, r8)
    1f88:	00009180 	.word	0x00009180
    1f8c:	00009194 	.word	0x00009194
    1f90:	00009160 	.word	0x00009160
    1f94:	000091b4 	.word	0x000091b4
    1f98:	3d10      	subs	r5, #16
    1f9a:	3608      	adds	r6, #8
    1f9c:	2d10      	cmp	r5, #16
    1f9e:	dd17      	ble.n	1fd0 <_vfprintf_r+0x9c0>
    1fa0:	4641      	mov	r1, r8
    1fa2:	6031      	str	r1, [r6, #0]
    1fa4:	4649      	mov	r1, r9
    1fa6:	3210      	adds	r2, #16
    1fa8:	3301      	adds	r3, #1
    1faa:	6071      	str	r1, [r6, #4]
    1fac:	60ba      	str	r2, [r7, #8]
    1fae:	607b      	str	r3, [r7, #4]
    1fb0:	2b07      	cmp	r3, #7
    1fb2:	ddf1      	ble.n	1f98 <_vfprintf_r+0x988>
    1fb4:	003a      	movs	r2, r7
    1fb6:	0021      	movs	r1, r4
    1fb8:	9807      	ldr	r0, [sp, #28]
    1fba:	f003 fdeb 	bl	5b94 <__sprint_r>
    1fbe:	2800      	cmp	r0, #0
    1fc0:	d000      	beq.n	1fc4 <_vfprintf_r+0x9b4>
    1fc2:	e110      	b.n	21e6 <_vfprintf_r+0xbd6>
    1fc4:	3d10      	subs	r5, #16
    1fc6:	68ba      	ldr	r2, [r7, #8]
    1fc8:	687b      	ldr	r3, [r7, #4]
    1fca:	ae32      	add	r6, sp, #200	; 0xc8
    1fcc:	2d10      	cmp	r5, #16
    1fce:	dce7      	bgt.n	1fa0 <_vfprintf_r+0x990>
    1fd0:	46a3      	mov	fp, r4
    1fd2:	0014      	movs	r4, r2
    1fd4:	4642      	mov	r2, r8
    1fd6:	1964      	adds	r4, r4, r5
    1fd8:	3301      	adds	r3, #1
    1fda:	c624      	stmia	r6!, {r2, r5}
    1fdc:	60bc      	str	r4, [r7, #8]
    1fde:	607b      	str	r3, [r7, #4]
    1fe0:	2b07      	cmp	r3, #7
    1fe2:	dd08      	ble.n	1ff6 <_vfprintf_r+0x9e6>
    1fe4:	003a      	movs	r2, r7
    1fe6:	4659      	mov	r1, fp
    1fe8:	9807      	ldr	r0, [sp, #28]
    1fea:	f003 fdd3 	bl	5b94 <__sprint_r>
    1fee:	2800      	cmp	r0, #0
    1ff0:	d000      	beq.n	1ff4 <_vfprintf_r+0x9e4>
    1ff2:	e126      	b.n	2242 <_vfprintf_r+0xc32>
    1ff4:	68bc      	ldr	r4, [r7, #8]
    1ff6:	9b0d      	ldr	r3, [sp, #52]	; 0x34
    1ff8:	9a09      	ldr	r2, [sp, #36]	; 0x24
    1ffa:	4293      	cmp	r3, r2
    1ffc:	da00      	bge.n	2000 <_vfprintf_r+0x9f0>
    1ffe:	0013      	movs	r3, r2
    2000:	9a0c      	ldr	r2, [sp, #48]	; 0x30
    2002:	4694      	mov	ip, r2
    2004:	449c      	add	ip, r3
    2006:	4663      	mov	r3, ip
    2008:	930c      	str	r3, [sp, #48]	; 0x30
    200a:	2c00      	cmp	r4, #0
    200c:	d000      	beq.n	2010 <_vfprintf_r+0xa00>
    200e:	e110      	b.n	2232 <_vfprintf_r+0xc22>
    2010:	2300      	movs	r3, #0
    2012:	ae32      	add	r6, sp, #200	; 0xc8
    2014:	607b      	str	r3, [r7, #4]
    2016:	f7ff fb43 	bl	16a0 <_vfprintf_r+0x90>
    201a:	9b14      	ldr	r3, [sp, #80]	; 0x50
    201c:	2b01      	cmp	r3, #1
    201e:	dc00      	bgt.n	2022 <_vfprintf_r+0xa12>
    2020:	e0ea      	b.n	21f8 <_vfprintf_r+0xbe8>
    2022:	9b12      	ldr	r3, [sp, #72]	; 0x48
    2024:	3401      	adds	r4, #1
    2026:	6033      	str	r3, [r6, #0]
    2028:	2301      	movs	r3, #1
    202a:	6073      	str	r3, [r6, #4]
    202c:	687b      	ldr	r3, [r7, #4]
    202e:	60bc      	str	r4, [r7, #8]
    2030:	3301      	adds	r3, #1
    2032:	607b      	str	r3, [r7, #4]
    2034:	2b07      	cmp	r3, #7
    2036:	dd00      	ble.n	203a <_vfprintf_r+0xa2a>
    2038:	e2b2      	b.n	25a0 <_vfprintf_r+0xf90>
    203a:	3608      	adds	r6, #8
    203c:	9a19      	ldr	r2, [sp, #100]	; 0x64
    203e:	3301      	adds	r3, #1
    2040:	6032      	str	r2, [r6, #0]
    2042:	9a18      	ldr	r2, [sp, #96]	; 0x60
    2044:	4698      	mov	r8, r3
    2046:	4694      	mov	ip, r2
    2048:	4464      	add	r4, ip
    204a:	6072      	str	r2, [r6, #4]
    204c:	60bc      	str	r4, [r7, #8]
    204e:	607b      	str	r3, [r7, #4]
    2050:	2b07      	cmp	r3, #7
    2052:	dd00      	ble.n	2056 <_vfprintf_r+0xa46>
    2054:	e2b8      	b.n	25c8 <_vfprintf_r+0xfb8>
    2056:	3608      	adds	r6, #8
    2058:	2200      	movs	r2, #0
    205a:	2300      	movs	r3, #0
    205c:	9816      	ldr	r0, [sp, #88]	; 0x58
    205e:	9917      	ldr	r1, [sp, #92]	; 0x5c
    2060:	f005 f81e 	bl	70a0 <__aeabi_dcmpeq>
    2064:	2800      	cmp	r0, #0
    2066:	d000      	beq.n	206a <_vfprintf_r+0xa5a>
    2068:	e1d1      	b.n	240e <_vfprintf_r+0xdfe>
    206a:	9d12      	ldr	r5, [sp, #72]	; 0x48
    206c:	9b14      	ldr	r3, [sp, #80]	; 0x50
    206e:	3501      	adds	r5, #1
    2070:	3b01      	subs	r3, #1
    2072:	6035      	str	r5, [r6, #0]
    2074:	6073      	str	r3, [r6, #4]
    2076:	18e4      	adds	r4, r4, r3
    2078:	2301      	movs	r3, #1
    207a:	469c      	mov	ip, r3
    207c:	44e0      	add	r8, ip
    207e:	4643      	mov	r3, r8
    2080:	60bc      	str	r4, [r7, #8]
    2082:	607b      	str	r3, [r7, #4]
    2084:	2b07      	cmp	r3, #7
    2086:	dd00      	ble.n	208a <_vfprintf_r+0xa7a>
    2088:	e0c7      	b.n	221a <_vfprintf_r+0xc0a>
    208a:	3608      	adds	r6, #8
    208c:	ab21      	add	r3, sp, #132	; 0x84
    208e:	6033      	str	r3, [r6, #0]
    2090:	9b1a      	ldr	r3, [sp, #104]	; 0x68
    2092:	469c      	mov	ip, r3
    2094:	6073      	str	r3, [r6, #4]
    2096:	4643      	mov	r3, r8
    2098:	4464      	add	r4, ip
    209a:	3301      	adds	r3, #1
    209c:	60bc      	str	r4, [r7, #8]
    209e:	607b      	str	r3, [r7, #4]
    20a0:	2b07      	cmp	r3, #7
    20a2:	dc00      	bgt.n	20a6 <_vfprintf_r+0xa96>
    20a4:	e75c      	b.n	1f60 <_vfprintf_r+0x950>
    20a6:	003a      	movs	r2, r7
    20a8:	4659      	mov	r1, fp
    20aa:	9807      	ldr	r0, [sp, #28]
    20ac:	f003 fd72 	bl	5b94 <__sprint_r>
    20b0:	2800      	cmp	r0, #0
    20b2:	d000      	beq.n	20b6 <_vfprintf_r+0xaa6>
    20b4:	e0c5      	b.n	2242 <_vfprintf_r+0xc32>
    20b6:	68bc      	ldr	r4, [r7, #8]
    20b8:	ae32      	add	r6, sp, #200	; 0xc8
    20ba:	e752      	b.n	1f62 <_vfprintf_r+0x952>
    20bc:	9b13      	ldr	r3, [sp, #76]	; 0x4c
    20be:	2b65      	cmp	r3, #101	; 0x65
    20c0:	ddab      	ble.n	201a <_vfprintf_r+0xa0a>
    20c2:	2200      	movs	r2, #0
    20c4:	2300      	movs	r3, #0
    20c6:	9816      	ldr	r0, [sp, #88]	; 0x58
    20c8:	9917      	ldr	r1, [sp, #92]	; 0x5c
    20ca:	f004 ffe9 	bl	70a0 <__aeabi_dcmpeq>
    20ce:	2800      	cmp	r0, #0
    20d0:	d100      	bne.n	20d4 <_vfprintf_r+0xac4>
    20d2:	e108      	b.n	22e6 <_vfprintf_r+0xcd6>
    20d4:	4bd6      	ldr	r3, [pc, #856]	; (2430 <_vfprintf_r+0xe20>)
    20d6:	3401      	adds	r4, #1
    20d8:	6033      	str	r3, [r6, #0]
    20da:	2301      	movs	r3, #1
    20dc:	6073      	str	r3, [r6, #4]
    20de:	687b      	ldr	r3, [r7, #4]
    20e0:	60bc      	str	r4, [r7, #8]
    20e2:	3301      	adds	r3, #1
    20e4:	607b      	str	r3, [r7, #4]
    20e6:	2b07      	cmp	r3, #7
    20e8:	dd00      	ble.n	20ec <_vfprintf_r+0xadc>
    20ea:	e37a      	b.n	27e2 <_vfprintf_r+0x11d2>
    20ec:	3608      	adds	r6, #8
    20ee:	9b1f      	ldr	r3, [sp, #124]	; 0x7c
    20f0:	9a14      	ldr	r2, [sp, #80]	; 0x50
    20f2:	4293      	cmp	r3, r2
    20f4:	db03      	blt.n	20fe <_vfprintf_r+0xaee>
    20f6:	9b08      	ldr	r3, [sp, #32]
    20f8:	07db      	lsls	r3, r3, #31
    20fa:	d400      	bmi.n	20fe <_vfprintf_r+0xaee>
    20fc:	e731      	b.n	1f62 <_vfprintf_r+0x952>
    20fe:	9b19      	ldr	r3, [sp, #100]	; 0x64
    2100:	6033      	str	r3, [r6, #0]
    2102:	9b18      	ldr	r3, [sp, #96]	; 0x60
    2104:	469c      	mov	ip, r3
    2106:	6073      	str	r3, [r6, #4]
    2108:	687b      	ldr	r3, [r7, #4]
    210a:	4464      	add	r4, ip
    210c:	3301      	adds	r3, #1
    210e:	60bc      	str	r4, [r7, #8]
    2110:	607b      	str	r3, [r7, #4]
    2112:	2b07      	cmp	r3, #7
    2114:	dd01      	ble.n	211a <_vfprintf_r+0xb0a>
    2116:	f000 fc52 	bl	29be <_vfprintf_r+0x13ae>
    211a:	3608      	adds	r6, #8
    211c:	9b14      	ldr	r3, [sp, #80]	; 0x50
    211e:	1e5d      	subs	r5, r3, #1
    2120:	2d00      	cmp	r5, #0
    2122:	dc00      	bgt.n	2126 <_vfprintf_r+0xb16>
    2124:	e71d      	b.n	1f62 <_vfprintf_r+0x952>
    2126:	4ac3      	ldr	r2, [pc, #780]	; (2434 <_vfprintf_r+0xe24>)
    2128:	687b      	ldr	r3, [r7, #4]
    212a:	4691      	mov	r9, r2
    212c:	2d10      	cmp	r5, #16
    212e:	dc00      	bgt.n	2132 <_vfprintf_r+0xb22>
    2130:	e19f      	b.n	2472 <_vfprintf_r+0xe62>
    2132:	2210      	movs	r2, #16
    2134:	4690      	mov	r8, r2
    2136:	0022      	movs	r2, r4
    2138:	464c      	mov	r4, r9
    213a:	46d9      	mov	r9, fp
    213c:	e004      	b.n	2148 <_vfprintf_r+0xb38>
    213e:	3608      	adds	r6, #8
    2140:	3d10      	subs	r5, #16
    2142:	2d10      	cmp	r5, #16
    2144:	dc00      	bgt.n	2148 <_vfprintf_r+0xb38>
    2146:	e348      	b.n	27da <_vfprintf_r+0x11ca>
    2148:	4641      	mov	r1, r8
    214a:	3210      	adds	r2, #16
    214c:	3301      	adds	r3, #1
    214e:	6034      	str	r4, [r6, #0]
    2150:	6071      	str	r1, [r6, #4]
    2152:	60ba      	str	r2, [r7, #8]
    2154:	607b      	str	r3, [r7, #4]
    2156:	2b07      	cmp	r3, #7
    2158:	ddf1      	ble.n	213e <_vfprintf_r+0xb2e>
    215a:	003a      	movs	r2, r7
    215c:	4649      	mov	r1, r9
    215e:	9807      	ldr	r0, [sp, #28]
    2160:	f003 fd18 	bl	5b94 <__sprint_r>
    2164:	2800      	cmp	r0, #0
    2166:	d001      	beq.n	216c <_vfprintf_r+0xb5c>
    2168:	f000 fd0f 	bl	2b8a <_vfprintf_r+0x157a>
    216c:	68ba      	ldr	r2, [r7, #8]
    216e:	687b      	ldr	r3, [r7, #4]
    2170:	ae32      	add	r6, sp, #200	; 0xc8
    2172:	e7e5      	b.n	2140 <_vfprintf_r+0xb30>
    2174:	9b0d      	ldr	r3, [sp, #52]	; 0x34
    2176:	9a09      	ldr	r2, [sp, #36]	; 0x24
    2178:	1a9d      	subs	r5, r3, r2
    217a:	2d00      	cmp	r5, #0
    217c:	dc00      	bgt.n	2180 <_vfprintf_r+0xb70>
    217e:	e6a6      	b.n	1ece <_vfprintf_r+0x8be>
    2180:	4aac      	ldr	r2, [pc, #688]	; (2434 <_vfprintf_r+0xe24>)
    2182:	687b      	ldr	r3, [r7, #4]
    2184:	4691      	mov	r9, r2
    2186:	2d10      	cmp	r5, #16
    2188:	dd21      	ble.n	21ce <_vfprintf_r+0xbbe>
    218a:	2210      	movs	r2, #16
    218c:	4692      	mov	sl, r2
    218e:	0022      	movs	r2, r4
    2190:	465c      	mov	r4, fp
    2192:	e003      	b.n	219c <_vfprintf_r+0xb8c>
    2194:	3d10      	subs	r5, #16
    2196:	3608      	adds	r6, #8
    2198:	2d10      	cmp	r5, #16
    219a:	dd16      	ble.n	21ca <_vfprintf_r+0xbba>
    219c:	4649      	mov	r1, r9
    219e:	6031      	str	r1, [r6, #0]
    21a0:	4651      	mov	r1, sl
    21a2:	3210      	adds	r2, #16
    21a4:	3301      	adds	r3, #1
    21a6:	6071      	str	r1, [r6, #4]
    21a8:	60ba      	str	r2, [r7, #8]
    21aa:	607b      	str	r3, [r7, #4]
    21ac:	2b07      	cmp	r3, #7
    21ae:	ddf1      	ble.n	2194 <_vfprintf_r+0xb84>
    21b0:	003a      	movs	r2, r7
    21b2:	0021      	movs	r1, r4
    21b4:	9807      	ldr	r0, [sp, #28]
    21b6:	f003 fced 	bl	5b94 <__sprint_r>
    21ba:	2800      	cmp	r0, #0
    21bc:	d113      	bne.n	21e6 <_vfprintf_r+0xbd6>
    21be:	3d10      	subs	r5, #16
    21c0:	68ba      	ldr	r2, [r7, #8]
    21c2:	687b      	ldr	r3, [r7, #4]
    21c4:	ae32      	add	r6, sp, #200	; 0xc8
    21c6:	2d10      	cmp	r5, #16
    21c8:	dce8      	bgt.n	219c <_vfprintf_r+0xb8c>
    21ca:	46a3      	mov	fp, r4
    21cc:	0014      	movs	r4, r2
    21ce:	464a      	mov	r2, r9
    21d0:	1964      	adds	r4, r4, r5
    21d2:	3301      	adds	r3, #1
    21d4:	6032      	str	r2, [r6, #0]
    21d6:	6075      	str	r5, [r6, #4]
    21d8:	60bc      	str	r4, [r7, #8]
    21da:	607b      	str	r3, [r7, #4]
    21dc:	2b07      	cmp	r3, #7
    21de:	dd00      	ble.n	21e2 <_vfprintf_r+0xbd2>
    21e0:	e1ff      	b.n	25e2 <_vfprintf_r+0xfd2>
    21e2:	3608      	adds	r6, #8
    21e4:	e673      	b.n	1ece <_vfprintf_r+0x8be>
    21e6:	46a0      	mov	r8, r4
    21e8:	4643      	mov	r3, r8
    21ea:	899b      	ldrh	r3, [r3, #12]
    21ec:	065b      	lsls	r3, r3, #25
    21ee:	d500      	bpl.n	21f2 <_vfprintf_r+0xbe2>
    21f0:	e350      	b.n	2894 <_vfprintf_r+0x1284>
    21f2:	980c      	ldr	r0, [sp, #48]	; 0x30
    21f4:	f7ff faee 	bl	17d4 <_vfprintf_r+0x1c4>
    21f8:	2301      	movs	r3, #1
    21fa:	9a08      	ldr	r2, [sp, #32]
    21fc:	4213      	tst	r3, r2
    21fe:	d000      	beq.n	2202 <_vfprintf_r+0xbf2>
    2200:	e70f      	b.n	2022 <_vfprintf_r+0xa12>
    2202:	6073      	str	r3, [r6, #4]
    2204:	687b      	ldr	r3, [r7, #4]
    2206:	9a12      	ldr	r2, [sp, #72]	; 0x48
    2208:	3301      	adds	r3, #1
    220a:	3401      	adds	r4, #1
    220c:	6032      	str	r2, [r6, #0]
    220e:	60bc      	str	r4, [r7, #8]
    2210:	4698      	mov	r8, r3
    2212:	607b      	str	r3, [r7, #4]
    2214:	2b07      	cmp	r3, #7
    2216:	dc00      	bgt.n	221a <_vfprintf_r+0xc0a>
    2218:	e737      	b.n	208a <_vfprintf_r+0xa7a>
    221a:	003a      	movs	r2, r7
    221c:	4659      	mov	r1, fp
    221e:	9807      	ldr	r0, [sp, #28]
    2220:	f003 fcb8 	bl	5b94 <__sprint_r>
    2224:	2800      	cmp	r0, #0
    2226:	d10c      	bne.n	2242 <_vfprintf_r+0xc32>
    2228:	687b      	ldr	r3, [r7, #4]
    222a:	68bc      	ldr	r4, [r7, #8]
    222c:	4698      	mov	r8, r3
    222e:	ae32      	add	r6, sp, #200	; 0xc8
    2230:	e72c      	b.n	208c <_vfprintf_r+0xa7c>
    2232:	003a      	movs	r2, r7
    2234:	4659      	mov	r1, fp
    2236:	9807      	ldr	r0, [sp, #28]
    2238:	f003 fcac 	bl	5b94 <__sprint_r>
    223c:	2800      	cmp	r0, #0
    223e:	d100      	bne.n	2242 <_vfprintf_r+0xc32>
    2240:	e6e6      	b.n	2010 <_vfprintf_r+0xa00>
    2242:	46d8      	mov	r8, fp
    2244:	e7d0      	b.n	21e8 <_vfprintf_r+0xbd8>
    2246:	2210      	movs	r2, #16
    2248:	9908      	ldr	r1, [sp, #32]
    224a:	400a      	ands	r2, r1
    224c:	d100      	bne.n	2250 <_vfprintf_r+0xc40>
    224e:	e11b      	b.n	2488 <_vfprintf_r+0xe78>
    2250:	9811      	ldr	r0, [sp, #68]	; 0x44
    2252:	0002      	movs	r2, r0
    2254:	6800      	ldr	r0, [r0, #0]
    2256:	3204      	adds	r2, #4
    2258:	900e      	str	r0, [sp, #56]	; 0x38
    225a:	2000      	movs	r0, #0
    225c:	900f      	str	r0, [sp, #60]	; 0x3c
    225e:	a816      	add	r0, sp, #88	; 0x58
    2260:	77c3      	strb	r3, [r0, #31]
    2262:	9b0b      	ldr	r3, [sp, #44]	; 0x2c
    2264:	2b00      	cmp	r3, #0
    2266:	da00      	bge.n	226a <_vfprintf_r+0xc5a>
    2268:	e120      	b.n	24ac <_vfprintf_r+0xe9c>
    226a:	2380      	movs	r3, #128	; 0x80
    226c:	4399      	bics	r1, r3
    226e:	9b0e      	ldr	r3, [sp, #56]	; 0x38
    2270:	9108      	str	r1, [sp, #32]
    2272:	9211      	str	r2, [sp, #68]	; 0x44
    2274:	2b00      	cmp	r3, #0
    2276:	d000      	beq.n	227a <_vfprintf_r+0xc6a>
    2278:	e4a5      	b.n	1bc6 <_vfprintf_r+0x5b6>
    227a:	4698      	mov	r8, r3
    227c:	9b0b      	ldr	r3, [sp, #44]	; 0x2c
    227e:	2b00      	cmp	r3, #0
    2280:	d100      	bne.n	2284 <_vfprintf_r+0xc74>
    2282:	e5a4      	b.n	1dce <_vfprintf_r+0x7be>
    2284:	2300      	movs	r3, #0
    2286:	2400      	movs	r4, #0
    2288:	930e      	str	r3, [sp, #56]	; 0x38
    228a:	940f      	str	r4, [sp, #60]	; 0x3c
    228c:	2227      	movs	r2, #39	; 0x27
    228e:	9b0e      	ldr	r3, [sp, #56]	; 0x38
    2290:	a928      	add	r1, sp, #160	; 0xa0
    2292:	3330      	adds	r3, #48	; 0x30
    2294:	548b      	strb	r3, [r1, r2]
    2296:	ab16      	add	r3, sp, #88	; 0x58
    2298:	469c      	mov	ip, r3
    229a:	256f      	movs	r5, #111	; 0x6f
    229c:	ab32      	add	r3, sp, #200	; 0xc8
    229e:	4465      	add	r5, ip
    22a0:	1b5b      	subs	r3, r3, r5
    22a2:	9310      	str	r3, [sp, #64]	; 0x40
    22a4:	9512      	str	r5, [sp, #72]	; 0x48
    22a6:	f7ff fc05 	bl	1ab4 <_vfprintf_r+0x4a4>
    22aa:	003a      	movs	r2, r7
    22ac:	4659      	mov	r1, fp
    22ae:	9807      	ldr	r0, [sp, #28]
    22b0:	f003 fc70 	bl	5b94 <__sprint_r>
    22b4:	2800      	cmp	r0, #0
    22b6:	d1c4      	bne.n	2242 <_vfprintf_r+0xc32>
    22b8:	68bc      	ldr	r4, [r7, #8]
    22ba:	ae32      	add	r6, sp, #200	; 0xc8
    22bc:	e63f      	b.n	1f3e <_vfprintf_r+0x92e>
    22be:	003a      	movs	r2, r7
    22c0:	4659      	mov	r1, fp
    22c2:	9807      	ldr	r0, [sp, #28]
    22c4:	f003 fc66 	bl	5b94 <__sprint_r>
    22c8:	2800      	cmp	r0, #0
    22ca:	d1ba      	bne.n	2242 <_vfprintf_r+0xc32>
    22cc:	68bc      	ldr	r4, [r7, #8]
    22ce:	ae32      	add	r6, sp, #200	; 0xc8
    22d0:	e5e9      	b.n	1ea6 <_vfprintf_r+0x896>
    22d2:	003a      	movs	r2, r7
    22d4:	4659      	mov	r1, fp
    22d6:	9807      	ldr	r0, [sp, #28]
    22d8:	f003 fc5c 	bl	5b94 <__sprint_r>
    22dc:	2800      	cmp	r0, #0
    22de:	d1b0      	bne.n	2242 <_vfprintf_r+0xc32>
    22e0:	68bc      	ldr	r4, [r7, #8]
    22e2:	ae32      	add	r6, sp, #200	; 0xc8
    22e4:	e5ef      	b.n	1ec6 <_vfprintf_r+0x8b6>
    22e6:	981f      	ldr	r0, [sp, #124]	; 0x7c
    22e8:	2800      	cmp	r0, #0
    22ea:	dc00      	bgt.n	22ee <_vfprintf_r+0xcde>
    22ec:	e284      	b.n	27f8 <_vfprintf_r+0x11e8>
    22ee:	9a15      	ldr	r2, [sp, #84]	; 0x54
    22f0:	9914      	ldr	r1, [sp, #80]	; 0x50
    22f2:	0013      	movs	r3, r2
    22f4:	4691      	mov	r9, r2
    22f6:	428b      	cmp	r3, r1
    22f8:	dd00      	ble.n	22fc <_vfprintf_r+0xcec>
    22fa:	4689      	mov	r9, r1
    22fc:	464b      	mov	r3, r9
    22fe:	2b00      	cmp	r3, #0
    2300:	dd0c      	ble.n	231c <_vfprintf_r+0xd0c>
    2302:	9b12      	ldr	r3, [sp, #72]	; 0x48
    2304:	444c      	add	r4, r9
    2306:	6033      	str	r3, [r6, #0]
    2308:	464b      	mov	r3, r9
    230a:	6073      	str	r3, [r6, #4]
    230c:	687b      	ldr	r3, [r7, #4]
    230e:	60bc      	str	r4, [r7, #8]
    2310:	3301      	adds	r3, #1
    2312:	607b      	str	r3, [r7, #4]
    2314:	2b07      	cmp	r3, #7
    2316:	dd00      	ble.n	231a <_vfprintf_r+0xd0a>
    2318:	e3a4      	b.n	2a64 <_vfprintf_r+0x1454>
    231a:	3608      	adds	r6, #8
    231c:	464b      	mov	r3, r9
    231e:	43db      	mvns	r3, r3
    2320:	464a      	mov	r2, r9
    2322:	17db      	asrs	r3, r3, #31
    2324:	4013      	ands	r3, r2
    2326:	9a15      	ldr	r2, [sp, #84]	; 0x54
    2328:	1ad3      	subs	r3, r2, r3
    232a:	4698      	mov	r8, r3
    232c:	2b00      	cmp	r3, #0
    232e:	dc00      	bgt.n	2332 <_vfprintf_r+0xd22>
    2330:	e0d7      	b.n	24e2 <_vfprintf_r+0xed2>
    2332:	2b10      	cmp	r3, #16
    2334:	dc01      	bgt.n	233a <_vfprintf_r+0xd2a>
    2336:	f000 fd19 	bl	2d6c <_vfprintf_r+0x175c>
    233a:	4a3e      	ldr	r2, [pc, #248]	; (2434 <_vfprintf_r+0xe24>)
    233c:	687b      	ldr	r3, [r7, #4]
    233e:	4691      	mov	r9, r2
    2340:	2210      	movs	r2, #16
    2342:	464d      	mov	r5, r9
    2344:	4692      	mov	sl, r2
    2346:	0022      	movs	r2, r4
    2348:	4644      	mov	r4, r8
    234a:	46d8      	mov	r8, fp
    234c:	e004      	b.n	2358 <_vfprintf_r+0xd48>
    234e:	3608      	adds	r6, #8
    2350:	3c10      	subs	r4, #16
    2352:	2c10      	cmp	r4, #16
    2354:	dc00      	bgt.n	2358 <_vfprintf_r+0xd48>
    2356:	e0b4      	b.n	24c2 <_vfprintf_r+0xeb2>
    2358:	4651      	mov	r1, sl
    235a:	3210      	adds	r2, #16
    235c:	3301      	adds	r3, #1
    235e:	6035      	str	r5, [r6, #0]
    2360:	6071      	str	r1, [r6, #4]
    2362:	60ba      	str	r2, [r7, #8]
    2364:	607b      	str	r3, [r7, #4]
    2366:	2b07      	cmp	r3, #7
    2368:	ddf1      	ble.n	234e <_vfprintf_r+0xd3e>
    236a:	003a      	movs	r2, r7
    236c:	4641      	mov	r1, r8
    236e:	9807      	ldr	r0, [sp, #28]
    2370:	f003 fc10 	bl	5b94 <__sprint_r>
    2374:	2800      	cmp	r0, #0
    2376:	d000      	beq.n	237a <_vfprintf_r+0xd6a>
    2378:	e736      	b.n	21e8 <_vfprintf_r+0xbd8>
    237a:	68ba      	ldr	r2, [r7, #8]
    237c:	687b      	ldr	r3, [r7, #4]
    237e:	ae32      	add	r6, sp, #200	; 0xc8
    2380:	e7e6      	b.n	2350 <_vfprintf_r+0xd40>
    2382:	003a      	movs	r2, r7
    2384:	4659      	mov	r1, fp
    2386:	9807      	ldr	r0, [sp, #28]
    2388:	f003 fc04 	bl	5b94 <__sprint_r>
    238c:	2800      	cmp	r0, #0
    238e:	d000      	beq.n	2392 <_vfprintf_r+0xd82>
    2390:	e757      	b.n	2242 <_vfprintf_r+0xc32>
    2392:	ab16      	add	r3, sp, #88	; 0x58
    2394:	7fdb      	ldrb	r3, [r3, #31]
    2396:	68bc      	ldr	r4, [r7, #8]
    2398:	4698      	mov	r8, r3
    239a:	ae32      	add	r6, sp, #200	; 0xc8
    239c:	e570      	b.n	1e80 <_vfprintf_r+0x870>
    239e:	46b0      	mov	r8, r6
    23a0:	e722      	b.n	21e8 <_vfprintf_r+0xbd8>
    23a2:	2210      	movs	r2, #16
    23a4:	9908      	ldr	r1, [sp, #32]
    23a6:	400a      	ands	r2, r1
    23a8:	d100      	bne.n	23ac <_vfprintf_r+0xd9c>
    23aa:	e13b      	b.n	2624 <_vfprintf_r+0x1014>
    23ac:	9811      	ldr	r0, [sp, #68]	; 0x44
    23ae:	0002      	movs	r2, r0
    23b0:	6800      	ldr	r0, [r0, #0]
    23b2:	3204      	adds	r2, #4
    23b4:	900e      	str	r0, [sp, #56]	; 0x38
    23b6:	2000      	movs	r0, #0
    23b8:	900f      	str	r0, [sp, #60]	; 0x3c
    23ba:	a816      	add	r0, sp, #88	; 0x58
    23bc:	77c3      	strb	r3, [r0, #31]
    23be:	9b0b      	ldr	r3, [sp, #44]	; 0x2c
    23c0:	2b00      	cmp	r3, #0
    23c2:	da00      	bge.n	23c6 <_vfprintf_r+0xdb6>
    23c4:	e13f      	b.n	2646 <_vfprintf_r+0x1036>
    23c6:	2380      	movs	r3, #128	; 0x80
    23c8:	4399      	bics	r1, r3
    23ca:	9b0e      	ldr	r3, [sp, #56]	; 0x38
    23cc:	9108      	str	r1, [sp, #32]
    23ce:	9211      	str	r2, [sp, #68]	; 0x44
    23d0:	2b00      	cmp	r3, #0
    23d2:	d001      	beq.n	23d8 <_vfprintf_r+0xdc8>
    23d4:	f7ff fb43 	bl	1a5e <_vfprintf_r+0x44e>
    23d8:	9b0b      	ldr	r3, [sp, #44]	; 0x2c
    23da:	2b00      	cmp	r3, #0
    23dc:	d101      	bne.n	23e2 <_vfprintf_r+0xdd2>
    23de:	f000 fc6b 	bl	2cb8 <_vfprintf_r+0x16a8>
    23e2:	2300      	movs	r3, #0
    23e4:	4698      	mov	r8, r3
    23e6:	2300      	movs	r3, #0
    23e8:	2400      	movs	r4, #0
    23ea:	930e      	str	r3, [sp, #56]	; 0x38
    23ec:	940f      	str	r4, [sp, #60]	; 0x3c
    23ee:	f7ff fb38 	bl	1a62 <_vfprintf_r+0x452>
    23f2:	9b08      	ldr	r3, [sp, #32]
    23f4:	06db      	lsls	r3, r3, #27
    23f6:	d400      	bmi.n	23fa <_vfprintf_r+0xdea>
    23f8:	e130      	b.n	265c <_vfprintf_r+0x104c>
    23fa:	9a11      	ldr	r2, [sp, #68]	; 0x44
    23fc:	6813      	ldr	r3, [r2, #0]
    23fe:	9309      	str	r3, [sp, #36]	; 0x24
    2400:	930e      	str	r3, [sp, #56]	; 0x38
    2402:	3204      	adds	r2, #4
    2404:	17db      	asrs	r3, r3, #31
    2406:	930f      	str	r3, [sp, #60]	; 0x3c
    2408:	9211      	str	r2, [sp, #68]	; 0x44
    240a:	f7ff fa63 	bl	18d4 <_vfprintf_r+0x2c4>
    240e:	9b14      	ldr	r3, [sp, #80]	; 0x50
    2410:	1e5d      	subs	r5, r3, #1
    2412:	2d00      	cmp	r5, #0
    2414:	dc00      	bgt.n	2418 <_vfprintf_r+0xe08>
    2416:	e639      	b.n	208c <_vfprintf_r+0xa7c>
    2418:	4b06      	ldr	r3, [pc, #24]	; (2434 <_vfprintf_r+0xe24>)
    241a:	4699      	mov	r9, r3
    241c:	2d10      	cmp	r5, #16
    241e:	dc00      	bgt.n	2422 <_vfprintf_r+0xe12>
    2420:	e0cd      	b.n	25be <_vfprintf_r+0xfae>
    2422:	2310      	movs	r3, #16
    2424:	0022      	movs	r2, r4
    2426:	469a      	mov	sl, r3
    2428:	465c      	mov	r4, fp
    242a:	4643      	mov	r3, r8
    242c:	e009      	b.n	2442 <_vfprintf_r+0xe32>
    242e:	46c0      	nop			; (mov r8, r8)
    2430:	000091b0 	.word	0x000091b0
    2434:	00009160 	.word	0x00009160
    2438:	3608      	adds	r6, #8
    243a:	3d10      	subs	r5, #16
    243c:	2d10      	cmp	r5, #16
    243e:	dc00      	bgt.n	2442 <_vfprintf_r+0xe32>
    2440:	e0ba      	b.n	25b8 <_vfprintf_r+0xfa8>
    2442:	4649      	mov	r1, r9
    2444:	6031      	str	r1, [r6, #0]
    2446:	4651      	mov	r1, sl
    2448:	3210      	adds	r2, #16
    244a:	3301      	adds	r3, #1
    244c:	6071      	str	r1, [r6, #4]
    244e:	60ba      	str	r2, [r7, #8]
    2450:	607b      	str	r3, [r7, #4]
    2452:	2b07      	cmp	r3, #7
    2454:	ddf0      	ble.n	2438 <_vfprintf_r+0xe28>
    2456:	003a      	movs	r2, r7
    2458:	0021      	movs	r1, r4
    245a:	9807      	ldr	r0, [sp, #28]
    245c:	f003 fb9a 	bl	5b94 <__sprint_r>
    2460:	2800      	cmp	r0, #0
    2462:	d000      	beq.n	2466 <_vfprintf_r+0xe56>
    2464:	e6bf      	b.n	21e6 <_vfprintf_r+0xbd6>
    2466:	68ba      	ldr	r2, [r7, #8]
    2468:	687b      	ldr	r3, [r7, #4]
    246a:	ae32      	add	r6, sp, #200	; 0xc8
    246c:	e7e5      	b.n	243a <_vfprintf_r+0xe2a>
    246e:	46a3      	mov	fp, r4
    2470:	0014      	movs	r4, r2
    2472:	464a      	mov	r2, r9
    2474:	1964      	adds	r4, r4, r5
    2476:	3301      	adds	r3, #1
    2478:	6032      	str	r2, [r6, #0]
    247a:	6075      	str	r5, [r6, #4]
    247c:	60bc      	str	r4, [r7, #8]
    247e:	607b      	str	r3, [r7, #4]
    2480:	2b07      	cmp	r3, #7
    2482:	dc00      	bgt.n	2486 <_vfprintf_r+0xe76>
    2484:	e56c      	b.n	1f60 <_vfprintf_r+0x950>
    2486:	e60e      	b.n	20a6 <_vfprintf_r+0xa96>
    2488:	2340      	movs	r3, #64	; 0x40
    248a:	9908      	ldr	r1, [sp, #32]
    248c:	400b      	ands	r3, r1
    248e:	d000      	beq.n	2492 <_vfprintf_r+0xe82>
    2490:	e230      	b.n	28f4 <_vfprintf_r+0x12e4>
    2492:	9911      	ldr	r1, [sp, #68]	; 0x44
    2494:	000a      	movs	r2, r1
    2496:	6809      	ldr	r1, [r1, #0]
    2498:	3204      	adds	r2, #4
    249a:	910e      	str	r1, [sp, #56]	; 0x38
    249c:	2100      	movs	r1, #0
    249e:	910f      	str	r1, [sp, #60]	; 0x3c
    24a0:	a916      	add	r1, sp, #88	; 0x58
    24a2:	77cb      	strb	r3, [r1, #31]
    24a4:	9b0b      	ldr	r3, [sp, #44]	; 0x2c
    24a6:	2b00      	cmp	r3, #0
    24a8:	db00      	blt.n	24ac <_vfprintf_r+0xe9c>
    24aa:	e0df      	b.n	266c <_vfprintf_r+0x105c>
    24ac:	9211      	str	r2, [sp, #68]	; 0x44
    24ae:	2300      	movs	r3, #0
    24b0:	4698      	mov	r8, r3
    24b2:	9a0e      	ldr	r2, [sp, #56]	; 0x38
    24b4:	9b0f      	ldr	r3, [sp, #60]	; 0x3c
    24b6:	0011      	movs	r1, r2
    24b8:	4319      	orrs	r1, r3
    24ba:	d001      	beq.n	24c0 <_vfprintf_r+0xeb0>
    24bc:	f7ff fa21 	bl	1902 <_vfprintf_r+0x2f2>
    24c0:	e6e0      	b.n	2284 <_vfprintf_r+0xc74>
    24c2:	46c3      	mov	fp, r8
    24c4:	46a9      	mov	r9, r5
    24c6:	46a0      	mov	r8, r4
    24c8:	0014      	movs	r4, r2
    24ca:	464a      	mov	r2, r9
    24cc:	6032      	str	r2, [r6, #0]
    24ce:	4642      	mov	r2, r8
    24d0:	4444      	add	r4, r8
    24d2:	3301      	adds	r3, #1
    24d4:	6072      	str	r2, [r6, #4]
    24d6:	60bc      	str	r4, [r7, #8]
    24d8:	607b      	str	r3, [r7, #4]
    24da:	2b07      	cmp	r3, #7
    24dc:	dd00      	ble.n	24e0 <_vfprintf_r+0xed0>
    24de:	e36a      	b.n	2bb6 <_vfprintf_r+0x15a6>
    24e0:	3608      	adds	r6, #8
    24e2:	9a12      	ldr	r2, [sp, #72]	; 0x48
    24e4:	9b15      	ldr	r3, [sp, #84]	; 0x54
    24e6:	4694      	mov	ip, r2
    24e8:	4463      	add	r3, ip
    24ea:	4698      	mov	r8, r3
    24ec:	9a14      	ldr	r2, [sp, #80]	; 0x50
    24ee:	9b1f      	ldr	r3, [sp, #124]	; 0x7c
    24f0:	4293      	cmp	r3, r2
    24f2:	db46      	blt.n	2582 <_vfprintf_r+0xf72>
    24f4:	9a08      	ldr	r2, [sp, #32]
    24f6:	07d2      	lsls	r2, r2, #31
    24f8:	d443      	bmi.n	2582 <_vfprintf_r+0xf72>
    24fa:	9a12      	ldr	r2, [sp, #72]	; 0x48
    24fc:	9914      	ldr	r1, [sp, #80]	; 0x50
    24fe:	0015      	movs	r5, r2
    2500:	468c      	mov	ip, r1
    2502:	4642      	mov	r2, r8
    2504:	4465      	add	r5, ip
    2506:	1acb      	subs	r3, r1, r3
    2508:	1aad      	subs	r5, r5, r2
    250a:	429d      	cmp	r5, r3
    250c:	dd00      	ble.n	2510 <_vfprintf_r+0xf00>
    250e:	001d      	movs	r5, r3
    2510:	2d00      	cmp	r5, #0
    2512:	dd0b      	ble.n	252c <_vfprintf_r+0xf1c>
    2514:	4642      	mov	r2, r8
    2516:	6032      	str	r2, [r6, #0]
    2518:	687a      	ldr	r2, [r7, #4]
    251a:	1964      	adds	r4, r4, r5
    251c:	3201      	adds	r2, #1
    251e:	6075      	str	r5, [r6, #4]
    2520:	60bc      	str	r4, [r7, #8]
    2522:	607a      	str	r2, [r7, #4]
    2524:	2a07      	cmp	r2, #7
    2526:	dd00      	ble.n	252a <_vfprintf_r+0xf1a>
    2528:	e31c      	b.n	2b64 <_vfprintf_r+0x1554>
    252a:	3608      	adds	r6, #8
    252c:	43ea      	mvns	r2, r5
    252e:	17d2      	asrs	r2, r2, #31
    2530:	4015      	ands	r5, r2
    2532:	1b5d      	subs	r5, r3, r5
    2534:	2d00      	cmp	r5, #0
    2536:	dc00      	bgt.n	253a <_vfprintf_r+0xf2a>
    2538:	e513      	b.n	1f62 <_vfprintf_r+0x952>
    253a:	4ad8      	ldr	r2, [pc, #864]	; (289c <_vfprintf_r+0x128c>)
    253c:	687b      	ldr	r3, [r7, #4]
    253e:	4691      	mov	r9, r2
    2540:	2d10      	cmp	r5, #16
    2542:	dd96      	ble.n	2472 <_vfprintf_r+0xe62>
    2544:	2210      	movs	r2, #16
    2546:	4690      	mov	r8, r2
    2548:	0022      	movs	r2, r4
    254a:	465c      	mov	r4, fp
    254c:	e003      	b.n	2556 <_vfprintf_r+0xf46>
    254e:	3608      	adds	r6, #8
    2550:	3d10      	subs	r5, #16
    2552:	2d10      	cmp	r5, #16
    2554:	dd8b      	ble.n	246e <_vfprintf_r+0xe5e>
    2556:	4649      	mov	r1, r9
    2558:	6031      	str	r1, [r6, #0]
    255a:	4641      	mov	r1, r8
    255c:	3210      	adds	r2, #16
    255e:	3301      	adds	r3, #1
    2560:	6071      	str	r1, [r6, #4]
    2562:	60ba      	str	r2, [r7, #8]
    2564:	607b      	str	r3, [r7, #4]
    2566:	2b07      	cmp	r3, #7
    2568:	ddf1      	ble.n	254e <_vfprintf_r+0xf3e>
    256a:	003a      	movs	r2, r7
    256c:	0021      	movs	r1, r4
    256e:	9807      	ldr	r0, [sp, #28]
    2570:	f003 fb10 	bl	5b94 <__sprint_r>
    2574:	2800      	cmp	r0, #0
    2576:	d000      	beq.n	257a <_vfprintf_r+0xf6a>
    2578:	e635      	b.n	21e6 <_vfprintf_r+0xbd6>
    257a:	68ba      	ldr	r2, [r7, #8]
    257c:	687b      	ldr	r3, [r7, #4]
    257e:	ae32      	add	r6, sp, #200	; 0xc8
    2580:	e7e6      	b.n	2550 <_vfprintf_r+0xf40>
    2582:	9a19      	ldr	r2, [sp, #100]	; 0x64
    2584:	6032      	str	r2, [r6, #0]
    2586:	9a18      	ldr	r2, [sp, #96]	; 0x60
    2588:	4694      	mov	ip, r2
    258a:	6072      	str	r2, [r6, #4]
    258c:	687a      	ldr	r2, [r7, #4]
    258e:	4464      	add	r4, ip
    2590:	3201      	adds	r2, #1
    2592:	60bc      	str	r4, [r7, #8]
    2594:	607a      	str	r2, [r7, #4]
    2596:	2a07      	cmp	r2, #7
    2598:	dd00      	ble.n	259c <_vfprintf_r+0xf8c>
    259a:	e26f      	b.n	2a7c <_vfprintf_r+0x146c>
    259c:	3608      	adds	r6, #8
    259e:	e7ac      	b.n	24fa <_vfprintf_r+0xeea>
    25a0:	003a      	movs	r2, r7
    25a2:	4659      	mov	r1, fp
    25a4:	9807      	ldr	r0, [sp, #28]
    25a6:	f003 faf5 	bl	5b94 <__sprint_r>
    25aa:	2800      	cmp	r0, #0
    25ac:	d000      	beq.n	25b0 <_vfprintf_r+0xfa0>
    25ae:	e648      	b.n	2242 <_vfprintf_r+0xc32>
    25b0:	68bc      	ldr	r4, [r7, #8]
    25b2:	687b      	ldr	r3, [r7, #4]
    25b4:	ae32      	add	r6, sp, #200	; 0xc8
    25b6:	e541      	b.n	203c <_vfprintf_r+0xa2c>
    25b8:	46a3      	mov	fp, r4
    25ba:	4698      	mov	r8, r3
    25bc:	0014      	movs	r4, r2
    25be:	464b      	mov	r3, r9
    25c0:	6075      	str	r5, [r6, #4]
    25c2:	6033      	str	r3, [r6, #0]
    25c4:	1964      	adds	r4, r4, r5
    25c6:	e557      	b.n	2078 <_vfprintf_r+0xa68>
    25c8:	003a      	movs	r2, r7
    25ca:	4659      	mov	r1, fp
    25cc:	9807      	ldr	r0, [sp, #28]
    25ce:	f003 fae1 	bl	5b94 <__sprint_r>
    25d2:	2800      	cmp	r0, #0
    25d4:	d000      	beq.n	25d8 <_vfprintf_r+0xfc8>
    25d6:	e634      	b.n	2242 <_vfprintf_r+0xc32>
    25d8:	687b      	ldr	r3, [r7, #4]
    25da:	68bc      	ldr	r4, [r7, #8]
    25dc:	4698      	mov	r8, r3
    25de:	ae32      	add	r6, sp, #200	; 0xc8
    25e0:	e53a      	b.n	2058 <_vfprintf_r+0xa48>
    25e2:	003a      	movs	r2, r7
    25e4:	4659      	mov	r1, fp
    25e6:	9807      	ldr	r0, [sp, #28]
    25e8:	f003 fad4 	bl	5b94 <__sprint_r>
    25ec:	2800      	cmp	r0, #0
    25ee:	d000      	beq.n	25f2 <_vfprintf_r+0xfe2>
    25f0:	e627      	b.n	2242 <_vfprintf_r+0xc32>
    25f2:	68bc      	ldr	r4, [r7, #8]
    25f4:	ae32      	add	r6, sp, #200	; 0xc8
    25f6:	e46a      	b.n	1ece <_vfprintf_r+0x8be>
    25f8:	990e      	ldr	r1, [sp, #56]	; 0x38
    25fa:	9a0f      	ldr	r2, [sp, #60]	; 0x3c
    25fc:	2400      	movs	r4, #0
    25fe:	424b      	negs	r3, r1
    2600:	4194      	sbcs	r4, r2
    2602:	930e      	str	r3, [sp, #56]	; 0x38
    2604:	940f      	str	r4, [sp, #60]	; 0x3c
    2606:	232d      	movs	r3, #45	; 0x2d
    2608:	aa16      	add	r2, sp, #88	; 0x58
    260a:	77d3      	strb	r3, [r2, #31]
    260c:	9b0b      	ldr	r3, [sp, #44]	; 0x2c
    260e:	2b00      	cmp	r3, #0
    2610:	da00      	bge.n	2614 <_vfprintf_r+0x1004>
    2612:	e2b6      	b.n	2b82 <_vfprintf_r+0x1572>
    2614:	2380      	movs	r3, #128	; 0x80
    2616:	9a08      	ldr	r2, [sp, #32]
    2618:	439a      	bics	r2, r3
    261a:	3b53      	subs	r3, #83	; 0x53
    261c:	9208      	str	r2, [sp, #32]
    261e:	4698      	mov	r8, r3
    2620:	f7ff f96f 	bl	1902 <_vfprintf_r+0x2f2>
    2624:	2340      	movs	r3, #64	; 0x40
    2626:	9908      	ldr	r1, [sp, #32]
    2628:	400b      	ands	r3, r1
    262a:	d000      	beq.n	262e <_vfprintf_r+0x101e>
    262c:	e14b      	b.n	28c6 <_vfprintf_r+0x12b6>
    262e:	9911      	ldr	r1, [sp, #68]	; 0x44
    2630:	000a      	movs	r2, r1
    2632:	6809      	ldr	r1, [r1, #0]
    2634:	3204      	adds	r2, #4
    2636:	910e      	str	r1, [sp, #56]	; 0x38
    2638:	2100      	movs	r1, #0
    263a:	910f      	str	r1, [sp, #60]	; 0x3c
    263c:	a916      	add	r1, sp, #88	; 0x58
    263e:	77cb      	strb	r3, [r1, #31]
    2640:	9b0b      	ldr	r3, [sp, #44]	; 0x2c
    2642:	2b00      	cmp	r3, #0
    2644:	da15      	bge.n	2672 <_vfprintf_r+0x1062>
    2646:	9211      	str	r2, [sp, #68]	; 0x44
    2648:	2300      	movs	r3, #0
    264a:	4698      	mov	r8, r3
    264c:	9a0e      	ldr	r2, [sp, #56]	; 0x38
    264e:	9b0f      	ldr	r3, [sp, #60]	; 0x3c
    2650:	0011      	movs	r1, r2
    2652:	4319      	orrs	r1, r3
    2654:	d001      	beq.n	265a <_vfprintf_r+0x104a>
    2656:	f7ff fa04 	bl	1a62 <_vfprintf_r+0x452>
    265a:	e6c4      	b.n	23e6 <_vfprintf_r+0xdd6>
    265c:	9b08      	ldr	r3, [sp, #32]
    265e:	9a11      	ldr	r2, [sp, #68]	; 0x44
    2660:	065b      	lsls	r3, r3, #25
    2662:	d400      	bmi.n	2666 <_vfprintf_r+0x1056>
    2664:	e6ca      	b.n	23fc <_vfprintf_r+0xdec>
    2666:	2100      	movs	r1, #0
    2668:	5e53      	ldrsh	r3, [r2, r1]
    266a:	e6c9      	b.n	2400 <_vfprintf_r+0xdf0>
    266c:	2380      	movs	r3, #128	; 0x80
    266e:	9908      	ldr	r1, [sp, #32]
    2670:	e5fc      	b.n	226c <_vfprintf_r+0xc5c>
    2672:	2380      	movs	r3, #128	; 0x80
    2674:	9908      	ldr	r1, [sp, #32]
    2676:	e6a7      	b.n	23c8 <_vfprintf_r+0xdb8>
    2678:	9d16      	ldr	r5, [sp, #88]	; 0x58
    267a:	9c17      	ldr	r4, [sp, #92]	; 0x5c
    267c:	002a      	movs	r2, r5
    267e:	0023      	movs	r3, r4
    2680:	0028      	movs	r0, r5
    2682:	0021      	movs	r1, r4
    2684:	f006 fb38 	bl	8cf8 <__aeabi_dcmpun>
    2688:	2800      	cmp	r0, #0
    268a:	d000      	beq.n	268e <_vfprintf_r+0x107e>
    268c:	e35f      	b.n	2d4e <_vfprintf_r+0x173e>
    268e:	9b0b      	ldr	r3, [sp, #44]	; 0x2c
    2690:	3301      	adds	r3, #1
    2692:	d100      	bne.n	2696 <_vfprintf_r+0x1086>
    2694:	e29b      	b.n	2bce <_vfprintf_r+0x15be>
    2696:	2320      	movs	r3, #32
    2698:	9d13      	ldr	r5, [sp, #76]	; 0x4c
    269a:	439d      	bics	r5, r3
    269c:	2d47      	cmp	r5, #71	; 0x47
    269e:	d100      	bne.n	26a2 <_vfprintf_r+0x1092>
    26a0:	e170      	b.n	2984 <_vfprintf_r+0x1374>
    26a2:	2380      	movs	r3, #128	; 0x80
    26a4:	9a08      	ldr	r2, [sp, #32]
    26a6:	005b      	lsls	r3, r3, #1
    26a8:	431a      	orrs	r2, r3
    26aa:	9b17      	ldr	r3, [sp, #92]	; 0x5c
    26ac:	921b      	str	r2, [sp, #108]	; 0x6c
    26ae:	2b00      	cmp	r3, #0
    26b0:	da00      	bge.n	26b4 <_vfprintf_r+0x10a4>
    26b2:	e2c9      	b.n	2c48 <_vfprintf_r+0x1638>
    26b4:	9a16      	ldr	r2, [sp, #88]	; 0x58
    26b6:	4698      	mov	r8, r3
    26b8:	2300      	movs	r3, #0
    26ba:	4691      	mov	r9, r2
    26bc:	9309      	str	r3, [sp, #36]	; 0x24
    26be:	9c13      	ldr	r4, [sp, #76]	; 0x4c
    26c0:	2c66      	cmp	r4, #102	; 0x66
    26c2:	d100      	bne.n	26c6 <_vfprintf_r+0x10b6>
    26c4:	e289      	b.n	2bda <_vfprintf_r+0x15ca>
    26c6:	2c46      	cmp	r4, #70	; 0x46
    26c8:	d100      	bne.n	26cc <_vfprintf_r+0x10bc>
    26ca:	e130      	b.n	292e <_vfprintf_r+0x131e>
    26cc:	002b      	movs	r3, r5
    26ce:	3b45      	subs	r3, #69	; 0x45
    26d0:	4259      	negs	r1, r3
    26d2:	4159      	adcs	r1, r3
    26d4:	9b0b      	ldr	r3, [sp, #44]	; 0x2c
    26d6:	464a      	mov	r2, r9
    26d8:	469a      	mov	sl, r3
    26da:	ab23      	add	r3, sp, #140	; 0x8c
    26dc:	9304      	str	r3, [sp, #16]
    26de:	ab20      	add	r3, sp, #128	; 0x80
    26e0:	448a      	add	sl, r1
    26e2:	9303      	str	r3, [sp, #12]
    26e4:	ab1f      	add	r3, sp, #124	; 0x7c
    26e6:	9302      	str	r3, [sp, #8]
    26e8:	4653      	mov	r3, sl
    26ea:	9301      	str	r3, [sp, #4]
    26ec:	2302      	movs	r3, #2
    26ee:	9807      	ldr	r0, [sp, #28]
    26f0:	9300      	str	r3, [sp, #0]
    26f2:	4643      	mov	r3, r8
    26f4:	f000 fcf8 	bl	30e8 <_dtoa_r>
    26f8:	9012      	str	r0, [sp, #72]	; 0x48
    26fa:	2c67      	cmp	r4, #103	; 0x67
    26fc:	d000      	beq.n	2700 <_vfprintf_r+0x10f0>
    26fe:	e2bb      	b.n	2c78 <_vfprintf_r+0x1668>
    2700:	9b12      	ldr	r3, [sp, #72]	; 0x48
    2702:	4453      	add	r3, sl
    2704:	001c      	movs	r4, r3
    2706:	9b08      	ldr	r3, [sp, #32]
    2708:	07db      	lsls	r3, r3, #31
    270a:	d400      	bmi.n	270e <_vfprintf_r+0x10fe>
    270c:	e306      	b.n	2d1c <_vfprintf_r+0x170c>
    270e:	2300      	movs	r3, #0
    2710:	2200      	movs	r2, #0
    2712:	4648      	mov	r0, r9
    2714:	4641      	mov	r1, r8
    2716:	f004 fcc3 	bl	70a0 <__aeabi_dcmpeq>
    271a:	0023      	movs	r3, r4
    271c:	2800      	cmp	r0, #0
    271e:	d109      	bne.n	2734 <_vfprintf_r+0x1124>
    2720:	9b23      	ldr	r3, [sp, #140]	; 0x8c
    2722:	429c      	cmp	r4, r3
    2724:	d906      	bls.n	2734 <_vfprintf_r+0x1124>
    2726:	2130      	movs	r1, #48	; 0x30
    2728:	1c5a      	adds	r2, r3, #1
    272a:	9223      	str	r2, [sp, #140]	; 0x8c
    272c:	7019      	strb	r1, [r3, #0]
    272e:	9b23      	ldr	r3, [sp, #140]	; 0x8c
    2730:	429c      	cmp	r4, r3
    2732:	d8f9      	bhi.n	2728 <_vfprintf_r+0x1118>
    2734:	9a12      	ldr	r2, [sp, #72]	; 0x48
    2736:	1a9b      	subs	r3, r3, r2
    2738:	9314      	str	r3, [sp, #80]	; 0x50
    273a:	2d47      	cmp	r5, #71	; 0x47
    273c:	d100      	bne.n	2740 <_vfprintf_r+0x1130>
    273e:	e17f      	b.n	2a40 <_vfprintf_r+0x1430>
    2740:	9b13      	ldr	r3, [sp, #76]	; 0x4c
    2742:	2b65      	cmp	r3, #101	; 0x65
    2744:	dc00      	bgt.n	2748 <_vfprintf_r+0x1138>
    2746:	e2a9      	b.n	2c9c <_vfprintf_r+0x168c>
    2748:	9b13      	ldr	r3, [sp, #76]	; 0x4c
    274a:	2b66      	cmp	r3, #102	; 0x66
    274c:	d100      	bne.n	2750 <_vfprintf_r+0x1140>
    274e:	e286      	b.n	2c5e <_vfprintf_r+0x164e>
    2750:	9b1f      	ldr	r3, [sp, #124]	; 0x7c
    2752:	9315      	str	r3, [sp, #84]	; 0x54
    2754:	9a15      	ldr	r2, [sp, #84]	; 0x54
    2756:	9914      	ldr	r1, [sp, #80]	; 0x50
    2758:	428a      	cmp	r2, r1
    275a:	da00      	bge.n	275e <_vfprintf_r+0x114e>
    275c:	e25f      	b.n	2c1e <_vfprintf_r+0x160e>
    275e:	9b08      	ldr	r3, [sp, #32]
    2760:	07db      	lsls	r3, r3, #31
    2762:	d500      	bpl.n	2766 <_vfprintf_r+0x1156>
    2764:	e2cb      	b.n	2cfe <_vfprintf_r+0x16ee>
    2766:	43d3      	mvns	r3, r2
    2768:	17db      	asrs	r3, r3, #31
    276a:	4013      	ands	r3, r2
    276c:	9210      	str	r2, [sp, #64]	; 0x40
    276e:	2267      	movs	r2, #103	; 0x67
    2770:	9213      	str	r2, [sp, #76]	; 0x4c
    2772:	9a09      	ldr	r2, [sp, #36]	; 0x24
    2774:	2a00      	cmp	r2, #0
    2776:	d000      	beq.n	277a <_vfprintf_r+0x116a>
    2778:	e156      	b.n	2a28 <_vfprintf_r+0x1418>
    277a:	9309      	str	r3, [sp, #36]	; 0x24
    277c:	9b1b      	ldr	r3, [sp, #108]	; 0x6c
    277e:	aa16      	add	r2, sp, #88	; 0x58
    2780:	9308      	str	r3, [sp, #32]
    2782:	2300      	movs	r3, #0
    2784:	7fd2      	ldrb	r2, [r2, #31]
    2786:	930b      	str	r3, [sp, #44]	; 0x2c
    2788:	4690      	mov	r8, r2
    278a:	f7ff f99c 	bl	1ac6 <_vfprintf_r+0x4b6>
    278e:	9b08      	ldr	r3, [sp, #32]
    2790:	06db      	lsls	r3, r3, #27
    2792:	d40c      	bmi.n	27ae <_vfprintf_r+0x119e>
    2794:	9b08      	ldr	r3, [sp, #32]
    2796:	065b      	lsls	r3, r3, #25
    2798:	d509      	bpl.n	27ae <_vfprintf_r+0x119e>
    279a:	4669      	mov	r1, sp
    279c:	9b11      	ldr	r3, [sp, #68]	; 0x44
    279e:	8e09      	ldrh	r1, [r1, #48]	; 0x30
    27a0:	681a      	ldr	r2, [r3, #0]
    27a2:	3304      	adds	r3, #4
    27a4:	9208      	str	r2, [sp, #32]
    27a6:	8011      	strh	r1, [r2, #0]
    27a8:	9311      	str	r3, [sp, #68]	; 0x44
    27aa:	f7fe ff79 	bl	16a0 <_vfprintf_r+0x90>
    27ae:	9a11      	ldr	r2, [sp, #68]	; 0x44
    27b0:	990c      	ldr	r1, [sp, #48]	; 0x30
    27b2:	6813      	ldr	r3, [r2, #0]
    27b4:	6019      	str	r1, [r3, #0]
    27b6:	0013      	movs	r3, r2
    27b8:	3304      	adds	r3, #4
    27ba:	9311      	str	r3, [sp, #68]	; 0x44
    27bc:	f7fe ff70 	bl	16a0 <_vfprintf_r+0x90>
    27c0:	9b0b      	ldr	r3, [sp, #44]	; 0x2c
    27c2:	aa16      	add	r2, sp, #88	; 0x58
    27c4:	77d0      	strb	r0, [r2, #31]
    27c6:	2b00      	cmp	r3, #0
    27c8:	da01      	bge.n	27ce <_vfprintf_r+0x11be>
    27ca:	f7fe ffe1 	bl	1790 <_vfprintf_r+0x180>
    27ce:	2380      	movs	r3, #128	; 0x80
    27d0:	9a08      	ldr	r2, [sp, #32]
    27d2:	439a      	bics	r2, r3
    27d4:	9208      	str	r2, [sp, #32]
    27d6:	f7fe ffd6 	bl	1786 <_vfprintf_r+0x176>
    27da:	46cb      	mov	fp, r9
    27dc:	46a1      	mov	r9, r4
    27de:	0014      	movs	r4, r2
    27e0:	e647      	b.n	2472 <_vfprintf_r+0xe62>
    27e2:	003a      	movs	r2, r7
    27e4:	4659      	mov	r1, fp
    27e6:	9807      	ldr	r0, [sp, #28]
    27e8:	f003 f9d4 	bl	5b94 <__sprint_r>
    27ec:	2800      	cmp	r0, #0
    27ee:	d000      	beq.n	27f2 <_vfprintf_r+0x11e2>
    27f0:	e527      	b.n	2242 <_vfprintf_r+0xc32>
    27f2:	68bc      	ldr	r4, [r7, #8]
    27f4:	ae32      	add	r6, sp, #200	; 0xc8
    27f6:	e47a      	b.n	20ee <_vfprintf_r+0xade>
    27f8:	4b29      	ldr	r3, [pc, #164]	; (28a0 <_vfprintf_r+0x1290>)
    27fa:	3401      	adds	r4, #1
    27fc:	6033      	str	r3, [r6, #0]
    27fe:	2301      	movs	r3, #1
    2800:	6073      	str	r3, [r6, #4]
    2802:	687b      	ldr	r3, [r7, #4]
    2804:	60bc      	str	r4, [r7, #8]
    2806:	3301      	adds	r3, #1
    2808:	607b      	str	r3, [r7, #4]
    280a:	2b07      	cmp	r3, #7
    280c:	dd00      	ble.n	2810 <_vfprintf_r+0x1200>
    280e:	e0ad      	b.n	296c <_vfprintf_r+0x135c>
    2810:	3608      	adds	r6, #8
    2812:	2800      	cmp	r0, #0
    2814:	d107      	bne.n	2826 <_vfprintf_r+0x1216>
    2816:	9b14      	ldr	r3, [sp, #80]	; 0x50
    2818:	2b00      	cmp	r3, #0
    281a:	d104      	bne.n	2826 <_vfprintf_r+0x1216>
    281c:	9b08      	ldr	r3, [sp, #32]
    281e:	07db      	lsls	r3, r3, #31
    2820:	d401      	bmi.n	2826 <_vfprintf_r+0x1216>
    2822:	f7ff fb9e 	bl	1f62 <_vfprintf_r+0x952>
    2826:	9b19      	ldr	r3, [sp, #100]	; 0x64
    2828:	6033      	str	r3, [r6, #0]
    282a:	9b18      	ldr	r3, [sp, #96]	; 0x60
    282c:	1919      	adds	r1, r3, r4
    282e:	6073      	str	r3, [r6, #4]
    2830:	687b      	ldr	r3, [r7, #4]
    2832:	60b9      	str	r1, [r7, #8]
    2834:	3301      	adds	r3, #1
    2836:	607b      	str	r3, [r7, #4]
    2838:	2b07      	cmp	r3, #7
    283a:	dd00      	ble.n	283e <_vfprintf_r+0x122e>
    283c:	e24c      	b.n	2cd8 <_vfprintf_r+0x16c8>
    283e:	0032      	movs	r2, r6
    2840:	3208      	adds	r2, #8
    2842:	4244      	negs	r4, r0
    2844:	2c00      	cmp	r4, #0
    2846:	dc00      	bgt.n	284a <_vfprintf_r+0x123a>
    2848:	e0de      	b.n	2a08 <_vfprintf_r+0x13f8>
    284a:	4814      	ldr	r0, [pc, #80]	; (289c <_vfprintf_r+0x128c>)
    284c:	4681      	mov	r9, r0
    284e:	2c10      	cmp	r4, #16
    2850:	dc00      	bgt.n	2854 <_vfprintf_r+0x1244>
    2852:	e121      	b.n	2a98 <_vfprintf_r+0x1488>
    2854:	2610      	movs	r6, #16
    2856:	465d      	mov	r5, fp
    2858:	e004      	b.n	2864 <_vfprintf_r+0x1254>
    285a:	3208      	adds	r2, #8
    285c:	3c10      	subs	r4, #16
    285e:	2c10      	cmp	r4, #16
    2860:	dc00      	bgt.n	2864 <_vfprintf_r+0x1254>
    2862:	e118      	b.n	2a96 <_vfprintf_r+0x1486>
    2864:	4648      	mov	r0, r9
    2866:	3110      	adds	r1, #16
    2868:	3301      	adds	r3, #1
    286a:	6010      	str	r0, [r2, #0]
    286c:	6056      	str	r6, [r2, #4]
    286e:	60b9      	str	r1, [r7, #8]
    2870:	607b      	str	r3, [r7, #4]
    2872:	2b07      	cmp	r3, #7
    2874:	ddf1      	ble.n	285a <_vfprintf_r+0x124a>
    2876:	003a      	movs	r2, r7
    2878:	0029      	movs	r1, r5
    287a:	9807      	ldr	r0, [sp, #28]
    287c:	f003 f98a 	bl	5b94 <__sprint_r>
    2880:	2800      	cmp	r0, #0
    2882:	d000      	beq.n	2886 <_vfprintf_r+0x1276>
    2884:	e260      	b.n	2d48 <_vfprintf_r+0x1738>
    2886:	68b9      	ldr	r1, [r7, #8]
    2888:	687b      	ldr	r3, [r7, #4]
    288a:	aa32      	add	r2, sp, #200	; 0xc8
    288c:	e7e6      	b.n	285c <_vfprintf_r+0x124c>
    288e:	9811      	ldr	r0, [sp, #68]	; 0x44
    2890:	f7ff faea 	bl	1e68 <_vfprintf_r+0x858>
    2894:	2001      	movs	r0, #1
    2896:	4240      	negs	r0, r0
    2898:	f7fe ff9c 	bl	17d4 <_vfprintf_r+0x1c4>
    289c:	00009160 	.word	0x00009160
    28a0:	000091b0 	.word	0x000091b0
    28a4:	9b07      	ldr	r3, [sp, #28]
    28a6:	46d8      	mov	r8, fp
    28a8:	469b      	mov	fp, r3
    28aa:	68bb      	ldr	r3, [r7, #8]
    28ac:	2b00      	cmp	r3, #0
    28ae:	d100      	bne.n	28b2 <_vfprintf_r+0x12a2>
    28b0:	e49a      	b.n	21e8 <_vfprintf_r+0xbd8>
    28b2:	003a      	movs	r2, r7
    28b4:	4641      	mov	r1, r8
    28b6:	4658      	mov	r0, fp
    28b8:	f003 f96c 	bl	5b94 <__sprint_r>
    28bc:	e494      	b.n	21e8 <_vfprintf_r+0xbd8>
    28be:	4be0      	ldr	r3, [pc, #896]	; (2c40 <_vfprintf_r+0x1630>)
    28c0:	9312      	str	r3, [sp, #72]	; 0x48
    28c2:	f7ff f88c 	bl	19de <_vfprintf_r+0x3ce>
    28c6:	9811      	ldr	r0, [sp, #68]	; 0x44
    28c8:	0003      	movs	r3, r0
    28ca:	8800      	ldrh	r0, [r0, #0]
    28cc:	3304      	adds	r3, #4
    28ce:	900e      	str	r0, [sp, #56]	; 0x38
    28d0:	2000      	movs	r0, #0
    28d2:	900f      	str	r0, [sp, #60]	; 0x3c
    28d4:	a816      	add	r0, sp, #88	; 0x58
    28d6:	77c2      	strb	r2, [r0, #31]
    28d8:	9a0b      	ldr	r2, [sp, #44]	; 0x2c
    28da:	2a00      	cmp	r2, #0
    28dc:	da00      	bge.n	28e0 <_vfprintf_r+0x12d0>
    28de:	e215      	b.n	2d0c <_vfprintf_r+0x16fc>
    28e0:	2280      	movs	r2, #128	; 0x80
    28e2:	4391      	bics	r1, r2
    28e4:	9a0e      	ldr	r2, [sp, #56]	; 0x38
    28e6:	9108      	str	r1, [sp, #32]
    28e8:	9311      	str	r3, [sp, #68]	; 0x44
    28ea:	2a00      	cmp	r2, #0
    28ec:	d001      	beq.n	28f2 <_vfprintf_r+0x12e2>
    28ee:	f7ff f8b6 	bl	1a5e <_vfprintf_r+0x44e>
    28f2:	e571      	b.n	23d8 <_vfprintf_r+0xdc8>
    28f4:	9811      	ldr	r0, [sp, #68]	; 0x44
    28f6:	0003      	movs	r3, r0
    28f8:	8800      	ldrh	r0, [r0, #0]
    28fa:	3304      	adds	r3, #4
    28fc:	900e      	str	r0, [sp, #56]	; 0x38
    28fe:	2000      	movs	r0, #0
    2900:	900f      	str	r0, [sp, #60]	; 0x3c
    2902:	a816      	add	r0, sp, #88	; 0x58
    2904:	77c2      	strb	r2, [r0, #31]
    2906:	9a0b      	ldr	r2, [sp, #44]	; 0x2c
    2908:	2a00      	cmp	r2, #0
    290a:	da00      	bge.n	290e <_vfprintf_r+0x12fe>
    290c:	e208      	b.n	2d20 <_vfprintf_r+0x1710>
    290e:	2280      	movs	r2, #128	; 0x80
    2910:	9311      	str	r3, [sp, #68]	; 0x44
    2912:	2300      	movs	r3, #0
    2914:	4391      	bics	r1, r2
    2916:	9a0e      	ldr	r2, [sp, #56]	; 0x38
    2918:	9108      	str	r1, [sp, #32]
    291a:	4698      	mov	r8, r3
    291c:	2a00      	cmp	r2, #0
    291e:	d001      	beq.n	2924 <_vfprintf_r+0x1314>
    2920:	f7fe ffef 	bl	1902 <_vfprintf_r+0x2f2>
    2924:	e4aa      	b.n	227c <_vfprintf_r+0xc6c>
    2926:	9b11      	ldr	r3, [sp, #68]	; 0x44
    2928:	881a      	ldrh	r2, [r3, #0]
    292a:	f7ff fa33 	bl	1d94 <_vfprintf_r+0x784>
    292e:	ab23      	add	r3, sp, #140	; 0x8c
    2930:	9304      	str	r3, [sp, #16]
    2932:	ab20      	add	r3, sp, #128	; 0x80
    2934:	9303      	str	r3, [sp, #12]
    2936:	ab1f      	add	r3, sp, #124	; 0x7c
    2938:	9302      	str	r3, [sp, #8]
    293a:	2303      	movs	r3, #3
    293c:	9c0b      	ldr	r4, [sp, #44]	; 0x2c
    293e:	9300      	str	r3, [sp, #0]
    2940:	9401      	str	r4, [sp, #4]
    2942:	464a      	mov	r2, r9
    2944:	4643      	mov	r3, r8
    2946:	9807      	ldr	r0, [sp, #28]
    2948:	f000 fbce 	bl	30e8 <_dtoa_r>
    294c:	46a2      	mov	sl, r4
    294e:	9012      	str	r0, [sp, #72]	; 0x48
    2950:	9b12      	ldr	r3, [sp, #72]	; 0x48
    2952:	4453      	add	r3, sl
    2954:	001c      	movs	r4, r3
    2956:	9b13      	ldr	r3, [sp, #76]	; 0x4c
    2958:	2b46      	cmp	r3, #70	; 0x46
    295a:	d000      	beq.n	295e <_vfprintf_r+0x134e>
    295c:	e6d7      	b.n	270e <_vfprintf_r+0x10fe>
    295e:	9b12      	ldr	r3, [sp, #72]	; 0x48
    2960:	781b      	ldrb	r3, [r3, #0]
    2962:	2b30      	cmp	r3, #48	; 0x30
    2964:	d015      	beq.n	2992 <_vfprintf_r+0x1382>
    2966:	9b1f      	ldr	r3, [sp, #124]	; 0x7c
    2968:	18e4      	adds	r4, r4, r3
    296a:	e6d0      	b.n	270e <_vfprintf_r+0x10fe>
    296c:	003a      	movs	r2, r7
    296e:	4659      	mov	r1, fp
    2970:	9807      	ldr	r0, [sp, #28]
    2972:	f003 f90f 	bl	5b94 <__sprint_r>
    2976:	2800      	cmp	r0, #0
    2978:	d000      	beq.n	297c <_vfprintf_r+0x136c>
    297a:	e462      	b.n	2242 <_vfprintf_r+0xc32>
    297c:	981f      	ldr	r0, [sp, #124]	; 0x7c
    297e:	68bc      	ldr	r4, [r7, #8]
    2980:	ae32      	add	r6, sp, #200	; 0xc8
    2982:	e746      	b.n	2812 <_vfprintf_r+0x1202>
    2984:	9b0b      	ldr	r3, [sp, #44]	; 0x2c
    2986:	2b00      	cmp	r3, #0
    2988:	d000      	beq.n	298c <_vfprintf_r+0x137c>
    298a:	e68a      	b.n	26a2 <_vfprintf_r+0x1092>
    298c:	3301      	adds	r3, #1
    298e:	930b      	str	r3, [sp, #44]	; 0x2c
    2990:	e687      	b.n	26a2 <_vfprintf_r+0x1092>
    2992:	2200      	movs	r2, #0
    2994:	2300      	movs	r3, #0
    2996:	4648      	mov	r0, r9
    2998:	4641      	mov	r1, r8
    299a:	f004 fb81 	bl	70a0 <__aeabi_dcmpeq>
    299e:	2800      	cmp	r0, #0
    29a0:	d1e1      	bne.n	2966 <_vfprintf_r+0x1356>
    29a2:	2301      	movs	r3, #1
    29a4:	4652      	mov	r2, sl
    29a6:	1a9b      	subs	r3, r3, r2
    29a8:	931f      	str	r3, [sp, #124]	; 0x7c
    29aa:	18e4      	adds	r4, r4, r3
    29ac:	e6af      	b.n	270e <_vfprintf_r+0x10fe>
    29ae:	2220      	movs	r2, #32
    29b0:	9b08      	ldr	r3, [sp, #32]
    29b2:	3101      	adds	r1, #1
    29b4:	4313      	orrs	r3, r2
    29b6:	9308      	str	r3, [sp, #32]
    29b8:	780b      	ldrb	r3, [r1, #0]
    29ba:	f7fe feac 	bl	1716 <_vfprintf_r+0x106>
    29be:	003a      	movs	r2, r7
    29c0:	4659      	mov	r1, fp
    29c2:	9807      	ldr	r0, [sp, #28]
    29c4:	f003 f8e6 	bl	5b94 <__sprint_r>
    29c8:	2800      	cmp	r0, #0
    29ca:	d000      	beq.n	29ce <_vfprintf_r+0x13be>
    29cc:	e439      	b.n	2242 <_vfprintf_r+0xc32>
    29ce:	68bc      	ldr	r4, [r7, #8]
    29d0:	ae32      	add	r6, sp, #200	; 0xc8
    29d2:	f7ff fba3 	bl	211c <_vfprintf_r+0xb0c>
    29d6:	9a12      	ldr	r2, [sp, #72]	; 0x48
    29d8:	ab32      	add	r3, sp, #200	; 0xc8
    29da:	1a9b      	subs	r3, r3, r2
    29dc:	9310      	str	r3, [sp, #64]	; 0x40
    29de:	f7ff f869 	bl	1ab4 <_vfprintf_r+0x4a4>
    29e2:	9812      	ldr	r0, [sp, #72]	; 0x48
    29e4:	f7fe fde0 	bl	15a8 <strlen>
    29e8:	0002      	movs	r2, r0
    29ea:	9010      	str	r0, [sp, #64]	; 0x40
    29ec:	0003      	movs	r3, r0
    29ee:	f7ff f91b 	bl	1c28 <_vfprintf_r+0x618>
    29f2:	003a      	movs	r2, r7
    29f4:	4659      	mov	r1, fp
    29f6:	9807      	ldr	r0, [sp, #28]
    29f8:	f003 f8cc 	bl	5b94 <__sprint_r>
    29fc:	2800      	cmp	r0, #0
    29fe:	d000      	beq.n	2a02 <_vfprintf_r+0x13f2>
    2a00:	e41f      	b.n	2242 <_vfprintf_r+0xc32>
    2a02:	68b9      	ldr	r1, [r7, #8]
    2a04:	687b      	ldr	r3, [r7, #4]
    2a06:	aa32      	add	r2, sp, #200	; 0xc8
    2a08:	9812      	ldr	r0, [sp, #72]	; 0x48
    2a0a:	3301      	adds	r3, #1
    2a0c:	6010      	str	r0, [r2, #0]
    2a0e:	9814      	ldr	r0, [sp, #80]	; 0x50
    2a10:	607b      	str	r3, [r7, #4]
    2a12:	1844      	adds	r4, r0, r1
    2a14:	6050      	str	r0, [r2, #4]
    2a16:	60bc      	str	r4, [r7, #8]
    2a18:	2b07      	cmp	r3, #7
    2a1a:	dd01      	ble.n	2a20 <_vfprintf_r+0x1410>
    2a1c:	f7ff fb43 	bl	20a6 <_vfprintf_r+0xa96>
    2a20:	3208      	adds	r2, #8
    2a22:	0016      	movs	r6, r2
    2a24:	f7ff fa9d 	bl	1f62 <_vfprintf_r+0x952>
    2a28:	9309      	str	r3, [sp, #36]	; 0x24
    2a2a:	9b1b      	ldr	r3, [sp, #108]	; 0x6c
    2a2c:	222d      	movs	r2, #45	; 0x2d
    2a2e:	9308      	str	r3, [sp, #32]
    2a30:	232d      	movs	r3, #45	; 0x2d
    2a32:	4698      	mov	r8, r3
    2a34:	2300      	movs	r3, #0
    2a36:	a916      	add	r1, sp, #88	; 0x58
    2a38:	77ca      	strb	r2, [r1, #31]
    2a3a:	930b      	str	r3, [sp, #44]	; 0x2c
    2a3c:	f7ff f846 	bl	1acc <_vfprintf_r+0x4bc>
    2a40:	9c1f      	ldr	r4, [sp, #124]	; 0x7c
    2a42:	1ce3      	adds	r3, r4, #3
    2a44:	db33      	blt.n	2aae <_vfprintf_r+0x149e>
    2a46:	9b0b      	ldr	r3, [sp, #44]	; 0x2c
    2a48:	42a3      	cmp	r3, r4
    2a4a:	db30      	blt.n	2aae <_vfprintf_r+0x149e>
    2a4c:	9415      	str	r4, [sp, #84]	; 0x54
    2a4e:	e681      	b.n	2754 <_vfprintf_r+0x1144>
    2a50:	9b0e      	ldr	r3, [sp, #56]	; 0x38
    2a52:	2b09      	cmp	r3, #9
    2a54:	d901      	bls.n	2a5a <_vfprintf_r+0x144a>
    2a56:	f7fe ff59 	bl	190c <_vfprintf_r+0x2fc>
    2a5a:	e417      	b.n	228c <_vfprintf_r+0xc7c>
    2a5c:	2101      	movs	r1, #1
    2a5e:	4249      	negs	r1, r1
    2a60:	f7fe feff 	bl	1862 <_vfprintf_r+0x252>
    2a64:	003a      	movs	r2, r7
    2a66:	4659      	mov	r1, fp
    2a68:	9807      	ldr	r0, [sp, #28]
    2a6a:	f003 f893 	bl	5b94 <__sprint_r>
    2a6e:	2800      	cmp	r0, #0
    2a70:	d001      	beq.n	2a76 <_vfprintf_r+0x1466>
    2a72:	f7ff fbe6 	bl	2242 <_vfprintf_r+0xc32>
    2a76:	68bc      	ldr	r4, [r7, #8]
    2a78:	ae32      	add	r6, sp, #200	; 0xc8
    2a7a:	e44f      	b.n	231c <_vfprintf_r+0xd0c>
    2a7c:	003a      	movs	r2, r7
    2a7e:	4659      	mov	r1, fp
    2a80:	9807      	ldr	r0, [sp, #28]
    2a82:	f003 f887 	bl	5b94 <__sprint_r>
    2a86:	2800      	cmp	r0, #0
    2a88:	d001      	beq.n	2a8e <_vfprintf_r+0x147e>
    2a8a:	f7ff fbda 	bl	2242 <_vfprintf_r+0xc32>
    2a8e:	9b1f      	ldr	r3, [sp, #124]	; 0x7c
    2a90:	68bc      	ldr	r4, [r7, #8]
    2a92:	ae32      	add	r6, sp, #200	; 0xc8
    2a94:	e531      	b.n	24fa <_vfprintf_r+0xeea>
    2a96:	46ab      	mov	fp, r5
    2a98:	4648      	mov	r0, r9
    2a9a:	1909      	adds	r1, r1, r4
    2a9c:	3301      	adds	r3, #1
    2a9e:	6010      	str	r0, [r2, #0]
    2aa0:	6054      	str	r4, [r2, #4]
    2aa2:	60b9      	str	r1, [r7, #8]
    2aa4:	607b      	str	r3, [r7, #4]
    2aa6:	2b07      	cmp	r3, #7
    2aa8:	dca3      	bgt.n	29f2 <_vfprintf_r+0x13e2>
    2aaa:	3208      	adds	r2, #8
    2aac:	e7ac      	b.n	2a08 <_vfprintf_r+0x13f8>
    2aae:	9b13      	ldr	r3, [sp, #76]	; 0x4c
    2ab0:	3b02      	subs	r3, #2
    2ab2:	9313      	str	r3, [sp, #76]	; 0x4c
    2ab4:	466b      	mov	r3, sp
    2ab6:	224c      	movs	r2, #76	; 0x4c
    2ab8:	189b      	adds	r3, r3, r2
    2aba:	781b      	ldrb	r3, [r3, #0]
    2abc:	3c01      	subs	r4, #1
    2abe:	ad21      	add	r5, sp, #132	; 0x84
    2ac0:	941f      	str	r4, [sp, #124]	; 0x7c
    2ac2:	702b      	strb	r3, [r5, #0]
    2ac4:	2c00      	cmp	r4, #0
    2ac6:	da00      	bge.n	2aca <_vfprintf_r+0x14ba>
    2ac8:	e155      	b.n	2d76 <_vfprintf_r+0x1766>
    2aca:	232b      	movs	r3, #43	; 0x2b
    2acc:	706b      	strb	r3, [r5, #1]
    2ace:	2c09      	cmp	r4, #9
    2ad0:	dc00      	bgt.n	2ad4 <_vfprintf_r+0x14c4>
    2ad2:	e11d      	b.n	2d10 <_vfprintf_r+0x1700>
    2ad4:	aa16      	add	r2, sp, #88	; 0x58
    2ad6:	233b      	movs	r3, #59	; 0x3b
    2ad8:	4694      	mov	ip, r2
    2ada:	4463      	add	r3, ip
    2adc:	46b0      	mov	r8, r6
    2ade:	469a      	mov	sl, r3
    2ae0:	001e      	movs	r6, r3
    2ae2:	0020      	movs	r0, r4
    2ae4:	210a      	movs	r1, #10
    2ae6:	f7fe f973 	bl	dd0 <__aeabi_idivmod>
    2aea:	3e01      	subs	r6, #1
    2aec:	3130      	adds	r1, #48	; 0x30
    2aee:	7031      	strb	r1, [r6, #0]
    2af0:	0020      	movs	r0, r4
    2af2:	210a      	movs	r1, #10
    2af4:	f7fe f95d 	bl	db2 <__aeabi_idiv>
    2af8:	0004      	movs	r4, r0
    2afa:	2809      	cmp	r0, #9
    2afc:	dcf1      	bgt.n	2ae2 <_vfprintf_r+0x14d2>
    2afe:	0033      	movs	r3, r6
    2b00:	3430      	adds	r4, #48	; 0x30
    2b02:	1e5a      	subs	r2, r3, #1
    2b04:	b2e4      	uxtb	r4, r4
    2b06:	4646      	mov	r6, r8
    2b08:	7014      	strb	r4, [r2, #0]
    2b0a:	4698      	mov	r8, r3
    2b0c:	4552      	cmp	r2, sl
    2b0e:	d300      	bcc.n	2b12 <_vfprintf_r+0x1502>
    2b10:	e164      	b.n	2ddc <_vfprintf_r+0x17cc>
    2b12:	4641      	mov	r1, r8
    2b14:	1a79      	subs	r1, r7, r1
    2b16:	002b      	movs	r3, r5
    2b18:	1869      	adds	r1, r5, r1
    2b1a:	e000      	b.n	2b1e <_vfprintf_r+0x150e>
    2b1c:	7814      	ldrb	r4, [r2, #0]
    2b1e:	709c      	strb	r4, [r3, #2]
    2b20:	3301      	adds	r3, #1
    2b22:	3201      	adds	r2, #1
    2b24:	428b      	cmp	r3, r1
    2b26:	d1f9      	bne.n	2b1c <_vfprintf_r+0x150c>
    2b28:	a916      	add	r1, sp, #88	; 0x58
    2b2a:	468c      	mov	ip, r1
    2b2c:	222e      	movs	r2, #46	; 0x2e
    2b2e:	4643      	mov	r3, r8
    2b30:	4462      	add	r2, ip
    2b32:	4694      	mov	ip, r2
    2b34:	1afb      	subs	r3, r7, r3
    2b36:	4463      	add	r3, ip
    2b38:	9914      	ldr	r1, [sp, #80]	; 0x50
    2b3a:	1b5b      	subs	r3, r3, r5
    2b3c:	000a      	movs	r2, r1
    2b3e:	469c      	mov	ip, r3
    2b40:	4462      	add	r2, ip
    2b42:	931a      	str	r3, [sp, #104]	; 0x68
    2b44:	9210      	str	r2, [sp, #64]	; 0x40
    2b46:	2901      	cmp	r1, #1
    2b48:	dc00      	bgt.n	2b4c <_vfprintf_r+0x153c>
    2b4a:	e11d      	b.n	2d88 <_vfprintf_r+0x1778>
    2b4c:	9a18      	ldr	r2, [sp, #96]	; 0x60
    2b4e:	9b10      	ldr	r3, [sp, #64]	; 0x40
    2b50:	4694      	mov	ip, r2
    2b52:	4463      	add	r3, ip
    2b54:	001a      	movs	r2, r3
    2b56:	9310      	str	r3, [sp, #64]	; 0x40
    2b58:	43db      	mvns	r3, r3
    2b5a:	17db      	asrs	r3, r3, #31
    2b5c:	4013      	ands	r3, r2
    2b5e:	2200      	movs	r2, #0
    2b60:	9215      	str	r2, [sp, #84]	; 0x54
    2b62:	e606      	b.n	2772 <_vfprintf_r+0x1162>
    2b64:	003a      	movs	r2, r7
    2b66:	4659      	mov	r1, fp
    2b68:	9807      	ldr	r0, [sp, #28]
    2b6a:	f003 f813 	bl	5b94 <__sprint_r>
    2b6e:	2800      	cmp	r0, #0
    2b70:	d001      	beq.n	2b76 <_vfprintf_r+0x1566>
    2b72:	f7ff fb66 	bl	2242 <_vfprintf_r+0xc32>
    2b76:	9b14      	ldr	r3, [sp, #80]	; 0x50
    2b78:	9a1f      	ldr	r2, [sp, #124]	; 0x7c
    2b7a:	68bc      	ldr	r4, [r7, #8]
    2b7c:	1a9b      	subs	r3, r3, r2
    2b7e:	ae32      	add	r6, sp, #200	; 0xc8
    2b80:	e4d4      	b.n	252c <_vfprintf_r+0xf1c>
    2b82:	232d      	movs	r3, #45	; 0x2d
    2b84:	4698      	mov	r8, r3
    2b86:	f7fe febc 	bl	1902 <_vfprintf_r+0x2f2>
    2b8a:	46c8      	mov	r8, r9
    2b8c:	f7ff fb2c 	bl	21e8 <_vfprintf_r+0xbd8>
    2b90:	9b0b      	ldr	r3, [sp, #44]	; 0x2c
    2b92:	2b06      	cmp	r3, #6
    2b94:	d900      	bls.n	2b98 <_vfprintf_r+0x1588>
    2b96:	2306      	movs	r3, #6
    2b98:	001a      	movs	r2, r3
    2b9a:	9310      	str	r3, [sp, #64]	; 0x40
    2b9c:	43db      	mvns	r3, r3
    2b9e:	17db      	asrs	r3, r3, #31
    2ba0:	401a      	ands	r2, r3
    2ba2:	2300      	movs	r3, #0
    2ba4:	4698      	mov	r8, r3
    2ba6:	930b      	str	r3, [sp, #44]	; 0x2c
    2ba8:	9315      	str	r3, [sp, #84]	; 0x54
    2baa:	4b26      	ldr	r3, [pc, #152]	; (2c44 <_vfprintf_r+0x1634>)
    2bac:	9209      	str	r2, [sp, #36]	; 0x24
    2bae:	9411      	str	r4, [sp, #68]	; 0x44
    2bb0:	9312      	str	r3, [sp, #72]	; 0x48
    2bb2:	f7fe ff8e 	bl	1ad2 <_vfprintf_r+0x4c2>
    2bb6:	003a      	movs	r2, r7
    2bb8:	4659      	mov	r1, fp
    2bba:	9807      	ldr	r0, [sp, #28]
    2bbc:	f002 ffea 	bl	5b94 <__sprint_r>
    2bc0:	2800      	cmp	r0, #0
    2bc2:	d001      	beq.n	2bc8 <_vfprintf_r+0x15b8>
    2bc4:	f7ff fb3d 	bl	2242 <_vfprintf_r+0xc32>
    2bc8:	68bc      	ldr	r4, [r7, #8]
    2bca:	ae32      	add	r6, sp, #200	; 0xc8
    2bcc:	e489      	b.n	24e2 <_vfprintf_r+0xed2>
    2bce:	2320      	movs	r3, #32
    2bd0:	9d13      	ldr	r5, [sp, #76]	; 0x4c
    2bd2:	439d      	bics	r5, r3
    2bd4:	3b1a      	subs	r3, #26
    2bd6:	930b      	str	r3, [sp, #44]	; 0x2c
    2bd8:	e563      	b.n	26a2 <_vfprintf_r+0x1092>
    2bda:	ab23      	add	r3, sp, #140	; 0x8c
    2bdc:	9304      	str	r3, [sp, #16]
    2bde:	ab20      	add	r3, sp, #128	; 0x80
    2be0:	9303      	str	r3, [sp, #12]
    2be2:	ab1f      	add	r3, sp, #124	; 0x7c
    2be4:	9302      	str	r3, [sp, #8]
    2be6:	2303      	movs	r3, #3
    2be8:	9c0b      	ldr	r4, [sp, #44]	; 0x2c
    2bea:	9300      	str	r3, [sp, #0]
    2bec:	9401      	str	r4, [sp, #4]
    2bee:	464a      	mov	r2, r9
    2bf0:	4643      	mov	r3, r8
    2bf2:	9807      	ldr	r0, [sp, #28]
    2bf4:	f000 fa78 	bl	30e8 <_dtoa_r>
    2bf8:	46a4      	mov	ip, r4
    2bfa:	0001      	movs	r1, r0
    2bfc:	0022      	movs	r2, r4
    2bfe:	4461      	add	r1, ip
    2c00:	9012      	str	r0, [sp, #72]	; 0x48
    2c02:	000c      	movs	r4, r1
    2c04:	4692      	mov	sl, r2
    2c06:	e6aa      	b.n	295e <_vfprintf_r+0x134e>
