Archive member included to satisfy reference by file (symbol)

..\..\..\tools\gcc-arm-none-eabi-5_4-2016q3-20160926-win32\arm-none-eabi\lib\armv6-m\libc.a(lib_a-malloc.o)
                              ..\..\../drivers/hal/bc62xx_uart.o (malloc)
..\..\..\tools\gcc-arm-none-eabi-5_4-2016q3-20160926-win32\arm-none-eabi\lib\armv6-m\libc.a(lib_a-mallocr.o)
                              ..\..\..\tools\gcc-arm-none-eabi-5_4-2016q3-20160926-win32\arm-none-eabi\lib\armv6-m\libc.a(lib_a-malloc.o) (_malloc_r)
..\..\..\tools\gcc-arm-none-eabi-5_4-2016q3-20160926-win32\arm-none-eabi\lib\armv6-m\libc.a(lib_a-mlock.o)
                              ..\..\..\tools\gcc-arm-none-eabi-5_4-2016q3-20160926-win32\arm-none-eabi\lib\armv6-m\libc.a(lib_a-mallocr.o) (__malloc_lock)
..\..\..\tools\gcc-arm-none-eabi-5_4-2016q3-20160926-win32\arm-none-eabi\lib\armv6-m\libc.a(lib_a-puts.o)
                              ..\..\../device/system.o (puts)
..\..\..\tools\gcc-arm-none-eabi-5_4-2016q3-20160926-win32\arm-none-eabi\lib\armv6-m\libc.a(lib_a-sbrkr.o)
                              ..\..\..\tools\gcc-arm-none-eabi-5_4-2016q3-20160926-win32\arm-none-eabi\lib\armv6-m\libc.a(lib_a-mallocr.o) (_sbrk_r)
..\..\..\tools\gcc-arm-none-eabi-5_4-2016q3-20160926-win32\arm-none-eabi\lib\armv6-m\libc.a(lib_a-strlen-stub.o)
                              ..\..\..\tools\gcc-arm-none-eabi-5_4-2016q3-20160926-win32\arm-none-eabi\lib\armv6-m\libc.a(lib_a-puts.o) (strlen)
..\..\..\tools\gcc-arm-none-eabi-5_4-2016q3-20160926-win32\arm-none-eabi\lib\armv6-m\libc.a(lib_a-findfp.o)
                              ..\..\..\tools\gcc-arm-none-eabi-5_4-2016q3-20160926-win32\arm-none-eabi\lib\armv6-m\libc.a(lib_a-puts.o) (__sinit)
..\..\..\tools\gcc-arm-none-eabi-5_4-2016q3-20160926-win32\arm-none-eabi\lib\armv6-m\libc.a(lib_a-freer.o)
                              ..\..\..\tools\gcc-arm-none-eabi-5_4-2016q3-20160926-win32\arm-none-eabi\lib\armv6-m\libc.a(lib_a-malloc.o) (_free_r)
..\..\..\tools\gcc-arm-none-eabi-5_4-2016q3-20160926-win32\arm-none-eabi\lib\armv6-m\libc.a(lib_a-fvwrite.o)
                              ..\..\..\tools\gcc-arm-none-eabi-5_4-2016q3-20160926-win32\arm-none-eabi\lib\armv6-m\libc.a(lib_a-puts.o) (__sfvwrite_r)
..\..\..\tools\gcc-arm-none-eabi-5_4-2016q3-20160926-win32\arm-none-eabi\lib\armv6-m\libc.a(lib_a-fwalk.o)
                              ..\..\..\tools\gcc-arm-none-eabi-5_4-2016q3-20160926-win32\arm-none-eabi\lib\armv6-m\libc.a(lib_a-findfp.o) (_fwalk)
..\..\..\tools\gcc-arm-none-eabi-5_4-2016q3-20160926-win32\arm-none-eabi\lib\armv6-m\libc.a(lib_a-impure.o)
                              ..\..\..\tools\gcc-arm-none-eabi-5_4-2016q3-20160926-win32\arm-none-eabi\lib\armv6-m\libc.a(lib_a-findfp.o) (_global_impure_ptr)
..\..\..\tools\gcc-arm-none-eabi-5_4-2016q3-20160926-win32\arm-none-eabi\lib\armv6-m\libc.a(lib_a-memchr-stub.o)
                              ..\..\..\tools\gcc-arm-none-eabi-5_4-2016q3-20160926-win32\arm-none-eabi\lib\armv6-m\libc.a(lib_a-fvwrite.o) (memchr)
..\..\..\tools\gcc-arm-none-eabi-5_4-2016q3-20160926-win32\arm-none-eabi\lib\armv6-m\libc.a(lib_a-memcpy-stub.o)
                              ..\..\..\tools\gcc-arm-none-eabi-5_4-2016q3-20160926-win32\arm-none-eabi\lib\armv6-m\libc.a(lib_a-fvwrite.o) (memcpy)
..\..\..\tools\gcc-arm-none-eabi-5_4-2016q3-20160926-win32\arm-none-eabi\lib\armv6-m\libc.a(lib_a-memmove.o)
                              ..\..\..\tools\gcc-arm-none-eabi-5_4-2016q3-20160926-win32\arm-none-eabi\lib\armv6-m\libc.a(lib_a-fvwrite.o) (memmove)
..\..\..\tools\gcc-arm-none-eabi-5_4-2016q3-20160926-win32\arm-none-eabi\lib\armv6-m\libc.a(lib_a-memset.o)
                              ..\..\..\tools\gcc-arm-none-eabi-5_4-2016q3-20160926-win32\arm-none-eabi\lib\armv6-m\libc.a(lib_a-findfp.o) (memset)
..\..\..\tools\gcc-arm-none-eabi-5_4-2016q3-20160926-win32\arm-none-eabi\lib\armv6-m\libc.a(lib_a-reallocr.o)
                              ..\..\..\tools\gcc-arm-none-eabi-5_4-2016q3-20160926-win32\arm-none-eabi\lib\armv6-m\libc.a(lib_a-fvwrite.o) (_realloc_r)
..\..\..\tools\gcc-arm-none-eabi-5_4-2016q3-20160926-win32\arm-none-eabi\lib\armv6-m\libc.a(lib_a-reent.o)
                              ..\..\..\tools\gcc-arm-none-eabi-5_4-2016q3-20160926-win32\arm-none-eabi\lib\armv6-m\libc.a(lib_a-sbrkr.o) (errno)
..\..\..\tools\gcc-arm-none-eabi-5_4-2016q3-20160926-win32\arm-none-eabi\lib\armv6-m\libc.a(lib_a-stdio.o)
                              ..\..\..\tools\gcc-arm-none-eabi-5_4-2016q3-20160926-win32\arm-none-eabi\lib\armv6-m\libc.a(lib_a-findfp.o) (__sread)
..\..\..\tools\gcc-arm-none-eabi-5_4-2016q3-20160926-win32\arm-none-eabi\lib\armv6-m\libc.a(lib_a-writer.o)
                              ..\..\..\tools\gcc-arm-none-eabi-5_4-2016q3-20160926-win32\arm-none-eabi\lib\armv6-m\libc.a(lib_a-stdio.o) (_write_r)
..\..\..\tools\gcc-arm-none-eabi-5_4-2016q3-20160926-win32\arm-none-eabi\lib\armv6-m\libc.a(lib_a-wsetup.o)
                              ..\..\..\tools\gcc-arm-none-eabi-5_4-2016q3-20160926-win32\arm-none-eabi\lib\armv6-m\libc.a(lib_a-fvwrite.o) (__swsetup_r)
..\..\..\tools\gcc-arm-none-eabi-5_4-2016q3-20160926-win32\arm-none-eabi\lib\armv6-m\libc.a(lib_a-closer.o)
                              ..\..\..\tools\gcc-arm-none-eabi-5_4-2016q3-20160926-win32\arm-none-eabi\lib\armv6-m\libc.a(lib_a-stdio.o) (_close_r)
..\..\..\tools\gcc-arm-none-eabi-5_4-2016q3-20160926-win32\arm-none-eabi\lib\armv6-m\libc.a(lib_a-fclose.o)
                              ..\..\..\tools\gcc-arm-none-eabi-5_4-2016q3-20160926-win32\arm-none-eabi\lib\armv6-m\libc.a(lib_a-findfp.o) (_fclose_r)
..\..\..\tools\gcc-arm-none-eabi-5_4-2016q3-20160926-win32\arm-none-eabi\lib\armv6-m\libc.a(lib_a-fflush.o)
                              ..\..\..\tools\gcc-arm-none-eabi-5_4-2016q3-20160926-win32\arm-none-eabi\lib\armv6-m\libc.a(lib_a-fclose.o) (__sflush_r)
..\..\..\tools\gcc-arm-none-eabi-5_4-2016q3-20160926-win32\arm-none-eabi\lib\armv6-m\libc.a(lib_a-lseekr.o)
                              ..\..\..\tools\gcc-arm-none-eabi-5_4-2016q3-20160926-win32\arm-none-eabi\lib\armv6-m\libc.a(lib_a-stdio.o) (_lseek_r)
..\..\..\tools\gcc-arm-none-eabi-5_4-2016q3-20160926-win32\arm-none-eabi\lib\armv6-m\libc.a(lib_a-makebuf.o)
                              ..\..\..\tools\gcc-arm-none-eabi-5_4-2016q3-20160926-win32\arm-none-eabi\lib\armv6-m\libc.a(lib_a-wsetup.o) (__smakebuf_r)
..\..\..\tools\gcc-arm-none-eabi-5_4-2016q3-20160926-win32\arm-none-eabi\lib\armv6-m\libc.a(lib_a-readr.o)
                              ..\..\..\tools\gcc-arm-none-eabi-5_4-2016q3-20160926-win32\arm-none-eabi\lib\armv6-m\libc.a(lib_a-stdio.o) (_read_r)
..\..\..\tools\gcc-arm-none-eabi-5_4-2016q3-20160926-win32\arm-none-eabi\lib\armv6-m\libc.a(lib_a-fstatr.o)
                              ..\..\..\tools\gcc-arm-none-eabi-5_4-2016q3-20160926-win32\arm-none-eabi\lib\armv6-m\libc.a(lib_a-makebuf.o) (_fstat_r)
..\..\..\tools\gcc-arm-none-eabi-5_4-2016q3-20160926-win32\arm-none-eabi\lib\armv6-m\libc.a(lib_a-isattyr.o)
                              ..\..\..\tools\gcc-arm-none-eabi-5_4-2016q3-20160926-win32\arm-none-eabi\lib\armv6-m\libc.a(lib_a-makebuf.o) (_isatty_r)

Allocating common symbols
Common symbol       size              file

errno               0x4               ..\..\..\tools\gcc-arm-none-eabi-5_4-2016q3-20160926-win32\arm-none-eabi\lib\armv6-m\libc.a(lib_a-reent.o)
GPIO_FUNC           0x1               ../src/main.o
regBeck             0x20              ..\..\../drivers/hal/bc62xx_uart.o

Memory Configuration

Name             Origin             Length             Attributes
FLASH            0x00000000         0x00040000         xr
RAM              0x10010500         0x00003b00         xrw
*default*        0x00000000         0xffffffff

Linker script and memory map

LOAD ../src/main.o
LOAD ..\..\../drivers/hal/bc62xx_gpio.o
LOAD ..\..\../drivers/hal/bc62xx_uart.o
LOAD ..\..\../device/system.o
LOAD ..\..\../startup_m0.o
LOAD ..\..\..\tools\gcc-arm-none-eabi-5_4-2016q3-20160926-win32\arm-none-eabi\lib\armv6-m\libc.a

.text           0x00000000     0x2334
 *(.isr_vector)
 .isr_vector    0x00000000       0x98 ..\..\../startup_m0.o
                0x00000000                __isr_vector
 *(.text*)
 .text          0x00000098        0x0 ../src/main.o
 .text.startup  0x00000098       0x7c ../src/main.o
                0x00000098                main
 .text          0x00000114       0xec ..\..\../drivers/hal/bc62xx_gpio.o
                0x00000120                bc_gpio_init
                0x00000154                bc_gpio_deinit
                0x00000174                bc_gpio_set
                0x000001b8                bc_gpio_get
 .text          0x00000200      0x480 ..\..\../drivers/hal/bc62xx_uart.o
                0x000002c4                USART_Init
                0x000003b8                USART_DeInit
                0x00000404                USART_SendData
                0x0000047c                USART_ReceiveData
                0x000004cc                USART_GetRxCount
                0x000004f0                USART_ReadDatatoBuff
                0x00000584                USART_SendDataFromBuff
                0x000005fc                UART_RemapToPrintf
                0x00000668                UART_PutChar
 .text          0x00000680       0x80 ..\..\../device/system.o
                0x00000680                _fstat
                0x0000068a                _close
                0x00000690                _write
                0x000006ba                _isatty
                0x000006be                _lseek
                0x000006c2                _read
                0x000006c6                _sbrk
                0x000006f0                _exit
                0x000006f2                Default_Handler
 .text          0x00000700       0xcc ..\..\../startup_m0.o
                0x00000700                Reset_Handler
                0x00000748                adcd_handler
                0x00000748                gpio12_handler
                0x00000748                HardFault_Handler
                0x00000748                SysTick_Handler
                0x00000748                spid_handler
                0x00000748                PendSV_Handler
                0x00000748                NMI_Handler
                0x00000748                i2s_handler
                0x00000748                gpio4_handler
                0x00000748                gpio5_handler
                0x00000748                uartb_handler
                0x00000748                qspi_handler
                0x00000748                usb_handler
                0x00000748                gpio3_handler
                0x00000748                gpio10_handler
                0x00000748                gpio1_handler
                0x00000748                iicd_handler
                0x00000748                bt_handler
                0x00000748                gpio0_handler
                0x00000748                SVC_Handler
                0x00000748                gpio8_handler
                0x00000748                gpio6_handler
                0x00000748                gpio9_handler
                0x00000748                gpi02_handler
                0x00000748                DEF_IRQHandler
                0x00000748                gpio11_handler
                0x00000748                uart_handler
                0x00000748                gpio7_handler
                0x0000074a                __aeabi_idiv
                0x00000768                __aeabi_idivmod
                0x0000079a                __aeabi_uidiv
                0x0000079a                __aeabi_uidivmod
 .text          0x000007cc        0x0 ..\..\..\tools\gcc-arm-none-eabi-5_4-2016q3-20160926-win32\arm-none-eabi\lib\armv6-m\libc.a(lib_a-malloc.o)
 .text.malloc   0x000007cc       0x14 ..\..\..\tools\gcc-arm-none-eabi-5_4-2016q3-20160926-win32\arm-none-eabi\lib\armv6-m\libc.a(lib_a-malloc.o)
                0x000007cc                malloc
 .text.free     0x000007e0       0x14 ..\..\..\tools\gcc-arm-none-eabi-5_4-2016q3-20160926-win32\arm-none-eabi\lib\armv6-m\libc.a(lib_a-malloc.o)
                0x000007e0                free
 .text          0x000007f4        0x0 ..\..\..\tools\gcc-arm-none-eabi-5_4-2016q3-20160926-win32\arm-none-eabi\lib\armv6-m\libc.a(lib_a-mallocr.o)
 .text._malloc_r
                0x000007f4      0x554 ..\..\..\tools\gcc-arm-none-eabi-5_4-2016q3-20160926-win32\arm-none-eabi\lib\armv6-m\libc.a(lib_a-mallocr.o)
                0x000007f4                _malloc_r
 .text          0x00000d48        0x0 ..\..\..\tools\gcc-arm-none-eabi-5_4-2016q3-20160926-win32\arm-none-eabi\lib\armv6-m\libc.a(lib_a-mlock.o)
 .text.__malloc_lock
                0x00000d48        0x4 ..\..\..\tools\gcc-arm-none-eabi-5_4-2016q3-20160926-win32\arm-none-eabi\lib\armv6-m\libc.a(lib_a-mlock.o)
                0x00000d48                __malloc_lock
 .text.__malloc_unlock
                0x00000d4c        0x4 ..\..\..\tools\gcc-arm-none-eabi-5_4-2016q3-20160926-win32\arm-none-eabi\lib\armv6-m\libc.a(lib_a-mlock.o)
                0x00000d4c                __malloc_unlock
 .text          0x00000d50        0x0 ..\..\..\tools\gcc-arm-none-eabi-5_4-2016q3-20160926-win32\arm-none-eabi\lib\armv6-m\libc.a(lib_a-puts.o)
 .text._puts_r  0x00000d50       0x70 ..\..\..\tools\gcc-arm-none-eabi-5_4-2016q3-20160926-win32\arm-none-eabi\lib\armv6-m\libc.a(lib_a-puts.o)
                0x00000d50                _puts_r
 .text.puts     0x00000dc0       0x14 ..\..\..\tools\gcc-arm-none-eabi-5_4-2016q3-20160926-win32\arm-none-eabi\lib\armv6-m\libc.a(lib_a-puts.o)
                0x00000dc0                puts
 .text          0x00000dd4        0x0 ..\..\..\tools\gcc-arm-none-eabi-5_4-2016q3-20160926-win32\arm-none-eabi\lib\armv6-m\libc.a(lib_a-sbrkr.o)
 .text._sbrk_r  0x00000dd4       0x24 ..\..\..\tools\gcc-arm-none-eabi-5_4-2016q3-20160926-win32\arm-none-eabi\lib\armv6-m\libc.a(lib_a-sbrkr.o)
                0x00000dd4                _sbrk_r
 .text          0x00000df8        0x0 ..\..\..\tools\gcc-arm-none-eabi-5_4-2016q3-20160926-win32\arm-none-eabi\lib\armv6-m\libc.a(lib_a-strlen-stub.o)
 .text.strlen   0x00000df8       0x68 ..\..\..\tools\gcc-arm-none-eabi-5_4-2016q3-20160926-win32\arm-none-eabi\lib\armv6-m\libc.a(lib_a-strlen-stub.o)
                0x00000df8                strlen
 .text          0x00000e60        0x0 ..\..\..\tools\gcc-arm-none-eabi-5_4-2016q3-20160926-win32\arm-none-eabi\lib\armv6-m\libc.a(lib_a-findfp.o)
 .text.__fp_unlock
                0x00000e60        0x4 ..\..\..\tools\gcc-arm-none-eabi-5_4-2016q3-20160926-win32\arm-none-eabi\lib\armv6-m\libc.a(lib_a-findfp.o)
 .text._cleanup_r
                0x00000e64       0x10 ..\..\..\tools\gcc-arm-none-eabi-5_4-2016q3-20160926-win32\arm-none-eabi\lib\armv6-m\libc.a(lib_a-findfp.o)
                0x00000e64                _cleanup_r
 .text.__sinit.part.1
                0x00000e74       0xf0 ..\..\..\tools\gcc-arm-none-eabi-5_4-2016q3-20160926-win32\arm-none-eabi\lib\armv6-m\libc.a(lib_a-findfp.o)
 .text.__fp_lock
                0x00000f64        0x4 ..\..\..\tools\gcc-arm-none-eabi-5_4-2016q3-20160926-win32\arm-none-eabi\lib\armv6-m\libc.a(lib_a-findfp.o)
 .text.__sfmoreglue
                0x00000f68       0x30 ..\..\..\tools\gcc-arm-none-eabi-5_4-2016q3-20160926-win32\arm-none-eabi\lib\armv6-m\libc.a(lib_a-findfp.o)
                0x00000f68                __sfmoreglue
 .text.__sfp    0x00000f98       0x90 ..\..\..\tools\gcc-arm-none-eabi-5_4-2016q3-20160926-win32\arm-none-eabi\lib\armv6-m\libc.a(lib_a-findfp.o)
                0x00000f98                __sfp
 .text._cleanup
                0x00001028       0x18 ..\..\..\tools\gcc-arm-none-eabi-5_4-2016q3-20160926-win32\arm-none-eabi\lib\armv6-m\libc.a(lib_a-findfp.o)
                0x00001028                _cleanup
 .text.__sinit  0x00001040       0x10 ..\..\..\tools\gcc-arm-none-eabi-5_4-2016q3-20160926-win32\arm-none-eabi\lib\armv6-m\libc.a(lib_a-findfp.o)
                0x00001040                __sinit
 .text.__sfp_lock_acquire
                0x00001050        0x4 ..\..\..\tools\gcc-arm-none-eabi-5_4-2016q3-20160926-win32\arm-none-eabi\lib\armv6-m\libc.a(lib_a-findfp.o)
                0x00001050                __sfp_lock_acquire
 .text.__sfp_lock_release
                0x00001054        0x4 ..\..\..\tools\gcc-arm-none-eabi-5_4-2016q3-20160926-win32\arm-none-eabi\lib\armv6-m\libc.a(lib_a-findfp.o)
                0x00001054                __sfp_lock_release
 .text.__sinit_lock_acquire
                0x00001058        0x4 ..\..\..\tools\gcc-arm-none-eabi-5_4-2016q3-20160926-win32\arm-none-eabi\lib\armv6-m\libc.a(lib_a-findfp.o)
                0x00001058                __sinit_lock_acquire
 .text.__sinit_lock_release
                0x0000105c        0x4 ..\..\..\tools\gcc-arm-none-eabi-5_4-2016q3-20160926-win32\arm-none-eabi\lib\armv6-m\libc.a(lib_a-findfp.o)
                0x0000105c                __sinit_lock_release
 .text.__fp_lock_all
                0x00001060       0x18 ..\..\..\tools\gcc-arm-none-eabi-5_4-2016q3-20160926-win32\arm-none-eabi\lib\armv6-m\libc.a(lib_a-findfp.o)
                0x00001060                __fp_lock_all
 .text.__fp_unlock_all
                0x00001078       0x18 ..\..\..\tools\gcc-arm-none-eabi-5_4-2016q3-20160926-win32\arm-none-eabi\lib\armv6-m\libc.a(lib_a-findfp.o)
                0x00001078                __fp_unlock_all
 .text          0x00001090        0x0 ..\..\..\tools\gcc-arm-none-eabi-5_4-2016q3-20160926-win32\arm-none-eabi\lib\armv6-m\libc.a(lib_a-freer.o)
 .text._malloc_trim_r
                0x00001090       0xa0 ..\..\..\tools\gcc-arm-none-eabi-5_4-2016q3-20160926-win32\arm-none-eabi\lib\armv6-m\libc.a(lib_a-freer.o)
                0x00001090                _malloc_trim_r
 .text._free_r  0x00001130      0x1c4 ..\..\..\tools\gcc-arm-none-eabi-5_4-2016q3-20160926-win32\arm-none-eabi\lib\armv6-m\libc.a(lib_a-freer.o)
                0x00001130                _free_r
 .text          0x000012f4        0x0 ..\..\..\tools\gcc-arm-none-eabi-5_4-2016q3-20160926-win32\arm-none-eabi\lib\armv6-m\libc.a(lib_a-fvwrite.o)
 .text.__sfvwrite_r
                0x000012f4      0x31c ..\..\..\tools\gcc-arm-none-eabi-5_4-2016q3-20160926-win32\arm-none-eabi\lib\armv6-m\libc.a(lib_a-fvwrite.o)
                0x000012f4                __sfvwrite_r
 .text          0x00001610        0x0 ..\..\..\tools\gcc-arm-none-eabi-5_4-2016q3-20160926-win32\arm-none-eabi\lib\armv6-m\libc.a(lib_a-fwalk.o)
 .text._fwalk   0x00001610       0x44 ..\..\..\tools\gcc-arm-none-eabi-5_4-2016q3-20160926-win32\arm-none-eabi\lib\armv6-m\libc.a(lib_a-fwalk.o)
                0x00001610                _fwalk
 .text._fwalk_reent
                0x00001654       0x4c ..\..\..\tools\gcc-arm-none-eabi-5_4-2016q3-20160926-win32\arm-none-eabi\lib\armv6-m\libc.a(lib_a-fwalk.o)
                0x00001654                _fwalk_reent
 .text          0x000016a0        0x0 ..\..\..\tools\gcc-arm-none-eabi-5_4-2016q3-20160926-win32\arm-none-eabi\lib\armv6-m\libc.a(lib_a-impure.o)
 .text          0x000016a0        0x0 ..\..\..\tools\gcc-arm-none-eabi-5_4-2016q3-20160926-win32\arm-none-eabi\lib\armv6-m\libc.a(lib_a-memchr-stub.o)
 .text.memchr   0x000016a0       0x90 ..\..\..\tools\gcc-arm-none-eabi-5_4-2016q3-20160926-win32\arm-none-eabi\lib\armv6-m\libc.a(lib_a-memchr-stub.o)
                0x000016a0                memchr
 .text          0x00001730        0x0 ..\..\..\tools\gcc-arm-none-eabi-5_4-2016q3-20160926-win32\arm-none-eabi\lib\armv6-m\libc.a(lib_a-memcpy-stub.o)
 .text.memcpy   0x00001730       0x7c ..\..\..\tools\gcc-arm-none-eabi-5_4-2016q3-20160926-win32\arm-none-eabi\lib\armv6-m\libc.a(lib_a-memcpy-stub.o)
                0x00001730                memcpy
 .text          0x000017ac        0x0 ..\..\..\tools\gcc-arm-none-eabi-5_4-2016q3-20160926-win32\arm-none-eabi\lib\armv6-m\libc.a(lib_a-memmove.o)
 .text.memmove  0x000017ac       0x98 ..\..\..\tools\gcc-arm-none-eabi-5_4-2016q3-20160926-win32\arm-none-eabi\lib\armv6-m\libc.a(lib_a-memmove.o)
                0x000017ac                memmove
 .text          0x00001844        0x0 ..\..\..\tools\gcc-arm-none-eabi-5_4-2016q3-20160926-win32\arm-none-eabi\lib\armv6-m\libc.a(lib_a-memset.o)
 .text.memset   0x00001844       0x8c ..\..\..\tools\gcc-arm-none-eabi-5_4-2016q3-20160926-win32\arm-none-eabi\lib\armv6-m\libc.a(lib_a-memset.o)
                0x00001844                memset
 .text          0x000018d0        0x0 ..\..\..\tools\gcc-arm-none-eabi-5_4-2016q3-20160926-win32\arm-none-eabi\lib\armv6-m\libc.a(lib_a-reallocr.o)
 .text._realloc_r
                0x000018d0      0x3dc ..\..\..\tools\gcc-arm-none-eabi-5_4-2016q3-20160926-win32\arm-none-eabi\lib\armv6-m\libc.a(lib_a-reallocr.o)
                0x000018d0                _realloc_r
 .text          0x00001cac        0x0 ..\..\..\tools\gcc-arm-none-eabi-5_4-2016q3-20160926-win32\arm-none-eabi\lib\armv6-m\libc.a(lib_a-reent.o)
 .text.cleanup_glue
                0x00001cac       0x1c ..\..\..\tools\gcc-arm-none-eabi-5_4-2016q3-20160926-win32\arm-none-eabi\lib\armv6-m\libc.a(lib_a-reent.o)
                0x00001cac                cleanup_glue
 .text._reclaim_reent
                0x00001cc8       0x94 ..\..\..\tools\gcc-arm-none-eabi-5_4-2016q3-20160926-win32\arm-none-eabi\lib\armv6-m\libc.a(lib_a-reent.o)
                0x00001cc8                _reclaim_reent
 .text          0x00001d5c        0x0 ..\..\..\tools\gcc-arm-none-eabi-5_4-2016q3-20160926-win32\arm-none-eabi\lib\armv6-m\libc.a(lib_a-stdio.o)
 .text.__sread  0x00001d5c       0x28 ..\..\..\tools\gcc-arm-none-eabi-5_4-2016q3-20160926-win32\arm-none-eabi\lib\armv6-m\libc.a(lib_a-stdio.o)
                0x00001d5c                __sread
 .text.__seofread
                0x00001d84        0x4 ..\..\..\tools\gcc-arm-none-eabi-5_4-2016q3-20160926-win32\arm-none-eabi\lib\armv6-m\libc.a(lib_a-stdio.o)
                0x00001d84                __seofread
 .text.__swrite
                0x00001d88       0x3c ..\..\..\tools\gcc-arm-none-eabi-5_4-2016q3-20160926-win32\arm-none-eabi\lib\armv6-m\libc.a(lib_a-stdio.o)
                0x00001d88                __swrite
 .text.__sseek  0x00001dc4       0x2c ..\..\..\tools\gcc-arm-none-eabi-5_4-2016q3-20160926-win32\arm-none-eabi\lib\armv6-m\libc.a(lib_a-stdio.o)
                0x00001dc4                __sseek
 .text.__sclose
                0x00001df0        0xc ..\..\..\tools\gcc-arm-none-eabi-5_4-2016q3-20160926-win32\arm-none-eabi\lib\armv6-m\libc.a(lib_a-stdio.o)
                0x00001df0                __sclose
 .text          0x00001dfc        0x0 ..\..\..\tools\gcc-arm-none-eabi-5_4-2016q3-20160926-win32\arm-none-eabi\lib\armv6-m\libc.a(lib_a-writer.o)
 .text._write_r
                0x00001dfc       0x28 ..\..\..\tools\gcc-arm-none-eabi-5_4-2016q3-20160926-win32\arm-none-eabi\lib\armv6-m\libc.a(lib_a-writer.o)
                0x00001dfc                _write_r
 .text          0x00001e24        0x0 ..\..\..\tools\gcc-arm-none-eabi-5_4-2016q3-20160926-win32\arm-none-eabi\lib\armv6-m\libc.a(lib_a-wsetup.o)
 .text.__swsetup_r
                0x00001e24       0xd4 ..\..\..\tools\gcc-arm-none-eabi-5_4-2016q3-20160926-win32\arm-none-eabi\lib\armv6-m\libc.a(lib_a-wsetup.o)
                0x00001e24                __swsetup_r
 .text          0x00001ef8        0x0 ..\..\..\tools\gcc-arm-none-eabi-5_4-2016q3-20160926-win32\arm-none-eabi\lib\armv6-m\libc.a(lib_a-closer.o)
 .text._close_r
                0x00001ef8       0x24 ..\..\..\tools\gcc-arm-none-eabi-5_4-2016q3-20160926-win32\arm-none-eabi\lib\armv6-m\libc.a(lib_a-closer.o)
                0x00001ef8                _close_r
 .text          0x00001f1c        0x0 ..\..\..\tools\gcc-arm-none-eabi-5_4-2016q3-20160926-win32\arm-none-eabi\lib\armv6-m\libc.a(lib_a-fclose.o)
 .text._fclose_r
                0x00001f1c       0x8c ..\..\..\tools\gcc-arm-none-eabi-5_4-2016q3-20160926-win32\arm-none-eabi\lib\armv6-m\libc.a(lib_a-fclose.o)
                0x00001f1c                _fclose_r
 .text.fclose   0x00001fa8       0x14 ..\..\..\tools\gcc-arm-none-eabi-5_4-2016q3-20160926-win32\arm-none-eabi\lib\armv6-m\libc.a(lib_a-fclose.o)
                0x00001fa8                fclose
 .text          0x00001fbc        0x0 ..\..\..\tools\gcc-arm-none-eabi-5_4-2016q3-20160926-win32\arm-none-eabi\lib\armv6-m\libc.a(lib_a-fflush.o)
 .text.__sflush_r
                0x00001fbc      0x150 ..\..\..\tools\gcc-arm-none-eabi-5_4-2016q3-20160926-win32\arm-none-eabi\lib\armv6-m\libc.a(lib_a-fflush.o)
                0x00001fbc                __sflush_r
 .text._fflush_r
                0x0000210c       0x2c ..\..\..\tools\gcc-arm-none-eabi-5_4-2016q3-20160926-win32\arm-none-eabi\lib\armv6-m\libc.a(lib_a-fflush.o)
                0x0000210c                _fflush_r
 .text.fflush   0x00002138       0x28 ..\..\..\tools\gcc-arm-none-eabi-5_4-2016q3-20160926-win32\arm-none-eabi\lib\armv6-m\libc.a(lib_a-fflush.o)
                0x00002138                fflush
 .text          0x00002160        0x0 ..\..\..\tools\gcc-arm-none-eabi-5_4-2016q3-20160926-win32\arm-none-eabi\lib\armv6-m\libc.a(lib_a-lseekr.o)
 .text._lseek_r
                0x00002160       0x28 ..\..\..\tools\gcc-arm-none-eabi-5_4-2016q3-20160926-win32\arm-none-eabi\lib\armv6-m\libc.a(lib_a-lseekr.o)
                0x00002160                _lseek_r
 .text          0x00002188        0x0 ..\..\..\tools\gcc-arm-none-eabi-5_4-2016q3-20160926-win32\arm-none-eabi\lib\armv6-m\libc.a(lib_a-makebuf.o)
 .text.__swhatbuf_r
                0x00002188       0x60 ..\..\..\tools\gcc-arm-none-eabi-5_4-2016q3-20160926-win32\arm-none-eabi\lib\armv6-m\libc.a(lib_a-makebuf.o)
                0x00002188                __swhatbuf_r
 .text.__smakebuf_r
                0x000021e8       0x88 ..\..\..\tools\gcc-arm-none-eabi-5_4-2016q3-20160926-win32\arm-none-eabi\lib\armv6-m\libc.a(lib_a-makebuf.o)
                0x000021e8                __smakebuf_r
 .text          0x00002270        0x0 ..\..\..\tools\gcc-arm-none-eabi-5_4-2016q3-20160926-win32\arm-none-eabi\lib\armv6-m\libc.a(lib_a-readr.o)
 .text._read_r  0x00002270       0x28 ..\..\..\tools\gcc-arm-none-eabi-5_4-2016q3-20160926-win32\arm-none-eabi\lib\armv6-m\libc.a(lib_a-readr.o)
                0x00002270                _read_r
 .text          0x00002298        0x0 ..\..\..\tools\gcc-arm-none-eabi-5_4-2016q3-20160926-win32\arm-none-eabi\lib\armv6-m\libc.a(lib_a-fstatr.o)
 .text._fstat_r
                0x00002298       0x28 ..\..\..\tools\gcc-arm-none-eabi-5_4-2016q3-20160926-win32\arm-none-eabi\lib\armv6-m\libc.a(lib_a-fstatr.o)
                0x00002298                _fstat_r
 .text          0x000022c0        0x0 ..\..\..\tools\gcc-arm-none-eabi-5_4-2016q3-20160926-win32\arm-none-eabi\lib\armv6-m\libc.a(lib_a-isattyr.o)
 .text._isatty_r
                0x000022c0       0x24 ..\..\..\tools\gcc-arm-none-eabi-5_4-2016q3-20160926-win32\arm-none-eabi\lib\armv6-m\libc.a(lib_a-isattyr.o)
                0x000022c0                _isatty_r
 *(.init)
 *(.fini)
 *crtbegin.o(.ctors)
 *crtbegin?.o(.ctors)
 *(EXCLUDE_FILE(*crtend.o *crtend?.o) .ctors)
 *(SORT(.ctors.*))
 *(.ctors)
 *crtbegin.o(.dtors)
 *crtbegin?.o(.dtors)
 *(EXCLUDE_FILE(*crtend.o *crtend?.o) .dtors)
 *(SORT(.dtors.*))
 *(.dtors)
 *(.rodata*)
 .rodata        0x000022e4       0x18 ../src/main.o
 .rodata        0x000022fc       0x18 ..\..\../drivers/hal/bc62xx_uart.o
 .rodata        0x00002314       0x17 ..\..\../device/system.o
 *fill*         0x0000232b        0x1 
 .rodata.str1.4
                0x0000232c        0x4 ..\..\..\tools\gcc-arm-none-eabi-5_4-2016q3-20160926-win32\arm-none-eabi\lib\armv6-m\libc.a(lib_a-puts.o)
                                  0x2 (size before relaxing)
 .rodata._global_impure_ptr
                0x00002330        0x4 ..\..\..\tools\gcc-arm-none-eabi-5_4-2016q3-20160926-win32\arm-none-eabi\lib\armv6-m\libc.a(lib_a-impure.o)
                0x00002330                _global_impure_ptr
 *(.eh_frame*)

.glue_7         0x00002334        0x0
 .glue_7        0x00002334        0x0 linker stubs

.glue_7t        0x00002334        0x0
 .glue_7t       0x00002334        0x0 linker stubs

.vfp11_veneer   0x00002334        0x0
 .vfp11_veneer  0x00002334        0x0 linker stubs

.v4_bx          0x00002334        0x0
 .v4_bx         0x00002334        0x0 linker stubs

.iplt           0x00002334        0x0
 .iplt          0x00002334        0x0 ../src/main.o

.rel.dyn        0x00002334        0x0
 .rel.iplt      0x00002334        0x0 ../src/main.o

.ARM.extab
 *(.ARM.extab* .gnu.linkonce.armextab.*)
                0x00002334                __exidx_start = .

.ARM.exidx
 *(.ARM.exidx* .gnu.linkonce.armexidx.*)
                0x00002334                __exidx_end = .
                0x00002334                __etext = .

.data           0x10010500      0x844 load address 0x00002334
                0x10010500                __data_start__ = .
 *(vtable)
 *(.data*)
 .data          0x10010500        0x0 ../src/main.o
 .data          0x10010500        0x0 ..\..\../drivers/hal/bc62xx_gpio.o
 .data          0x10010500        0x1 ..\..\../drivers/hal/bc62xx_uart.o
 .data          0x10010501        0x0 ..\..\../device/system.o
 .data          0x10010501        0x0 ..\..\../startup_m0.o
 .data          0x10010501        0x0 ..\..\..\tools\gcc-arm-none-eabi-5_4-2016q3-20160926-win32\arm-none-eabi\lib\armv6-m\libc.a(lib_a-malloc.o)
 .data          0x10010501        0x0 ..\..\..\tools\gcc-arm-none-eabi-5_4-2016q3-20160926-win32\arm-none-eabi\lib\armv6-m\libc.a(lib_a-mallocr.o)
 *fill*         0x10010501        0x3 
 .data.__malloc_av_
                0x10010504      0x408 ..\..\..\tools\gcc-arm-none-eabi-5_4-2016q3-20160926-win32\arm-none-eabi\lib\armv6-m\libc.a(lib_a-mallocr.o)
                0x10010504                __malloc_av_
 .data.__malloc_trim_threshold
                0x1001090c        0x4 ..\..\..\tools\gcc-arm-none-eabi-5_4-2016q3-20160926-win32\arm-none-eabi\lib\armv6-m\libc.a(lib_a-mallocr.o)
                0x1001090c                __malloc_trim_threshold
 .data.__malloc_sbrk_base
                0x10010910        0x4 ..\..\..\tools\gcc-arm-none-eabi-5_4-2016q3-20160926-win32\arm-none-eabi\lib\armv6-m\libc.a(lib_a-mallocr.o)
                0x10010910                __malloc_sbrk_base
 .data          0x10010914        0x0 ..\..\..\tools\gcc-arm-none-eabi-5_4-2016q3-20160926-win32\arm-none-eabi\lib\armv6-m\libc.a(lib_a-mlock.o)
 .data          0x10010914        0x0 ..\..\..\tools\gcc-arm-none-eabi-5_4-2016q3-20160926-win32\arm-none-eabi\lib\armv6-m\libc.a(lib_a-puts.o)
 .data          0x10010914        0x0 ..\..\..\tools\gcc-arm-none-eabi-5_4-2016q3-20160926-win32\arm-none-eabi\lib\armv6-m\libc.a(lib_a-sbrkr.o)
 .data          0x10010914        0x0 ..\..\..\tools\gcc-arm-none-eabi-5_4-2016q3-20160926-win32\arm-none-eabi\lib\armv6-m\libc.a(lib_a-strlen-stub.o)
 .data          0x10010914        0x0 ..\..\..\tools\gcc-arm-none-eabi-5_4-2016q3-20160926-win32\arm-none-eabi\lib\armv6-m\libc.a(lib_a-findfp.o)
 .data          0x10010914        0x0 ..\..\..\tools\gcc-arm-none-eabi-5_4-2016q3-20160926-win32\arm-none-eabi\lib\armv6-m\libc.a(lib_a-freer.o)
 .data          0x10010914        0x0 ..\..\..\tools\gcc-arm-none-eabi-5_4-2016q3-20160926-win32\arm-none-eabi\lib\armv6-m\libc.a(lib_a-fvwrite.o)
 .data          0x10010914        0x0 ..\..\..\tools\gcc-arm-none-eabi-5_4-2016q3-20160926-win32\arm-none-eabi\lib\armv6-m\libc.a(lib_a-fwalk.o)
 .data          0x10010914        0x0 ..\..\..\tools\gcc-arm-none-eabi-5_4-2016q3-20160926-win32\arm-none-eabi\lib\armv6-m\libc.a(lib_a-impure.o)
 *fill*         0x10010914        0x4 
 .data.impure_data
                0x10010918      0x428 ..\..\..\tools\gcc-arm-none-eabi-5_4-2016q3-20160926-win32\arm-none-eabi\lib\armv6-m\libc.a(lib_a-impure.o)
 .data._impure_ptr
                0x10010d40        0x4 ..\..\..\tools\gcc-arm-none-eabi-5_4-2016q3-20160926-win32\arm-none-eabi\lib\armv6-m\libc.a(lib_a-impure.o)
                0x10010d40                _impure_ptr
 .data          0x10010d44        0x0 ..\..\..\tools\gcc-arm-none-eabi-5_4-2016q3-20160926-win32\arm-none-eabi\lib\armv6-m\libc.a(lib_a-memchr-stub.o)
 .data          0x10010d44        0x0 ..\..\..\tools\gcc-arm-none-eabi-5_4-2016q3-20160926-win32\arm-none-eabi\lib\armv6-m\libc.a(lib_a-memcpy-stub.o)
 .data          0x10010d44        0x0 ..\..\..\tools\gcc-arm-none-eabi-5_4-2016q3-20160926-win32\arm-none-eabi\lib\armv6-m\libc.a(lib_a-memmove.o)
 .data          0x10010d44        0x0 ..\..\..\tools\gcc-arm-none-eabi-5_4-2016q3-20160926-win32\arm-none-eabi\lib\armv6-m\libc.a(lib_a-memset.o)
 .data          0x10010d44        0x0 ..\..\..\tools\gcc-arm-none-eabi-5_4-2016q3-20160926-win32\arm-none-eabi\lib\armv6-m\libc.a(lib_a-reallocr.o)
 .data          0x10010d44        0x0 ..\..\..\tools\gcc-arm-none-eabi-5_4-2016q3-20160926-win32\arm-none-eabi\lib\armv6-m\libc.a(lib_a-reent.o)
 .data          0x10010d44        0x0 ..\..\..\tools\gcc-arm-none-eabi-5_4-2016q3-20160926-win32\arm-none-eabi\lib\armv6-m\libc.a(lib_a-stdio.o)
 .data          0x10010d44        0x0 ..\..\..\tools\gcc-arm-none-eabi-5_4-2016q3-20160926-win32\arm-none-eabi\lib\armv6-m\libc.a(lib_a-writer.o)
 .data          0x10010d44        0x0 ..\..\..\tools\gcc-arm-none-eabi-5_4-2016q3-20160926-win32\arm-none-eabi\lib\armv6-m\libc.a(lib_a-wsetup.o)
 .data          0x10010d44        0x0 ..\..\..\tools\gcc-arm-none-eabi-5_4-2016q3-20160926-win32\arm-none-eabi\lib\armv6-m\libc.a(lib_a-closer.o)
 .data          0x10010d44        0x0 ..\..\..\tools\gcc-arm-none-eabi-5_4-2016q3-20160926-win32\arm-none-eabi\lib\armv6-m\libc.a(lib_a-fclose.o)
 .data          0x10010d44        0x0 ..\..\..\tools\gcc-arm-none-eabi-5_4-2016q3-20160926-win32\arm-none-eabi\lib\armv6-m\libc.a(lib_a-fflush.o)
 .data          0x10010d44        0x0 ..\..\..\tools\gcc-arm-none-eabi-5_4-2016q3-20160926-win32\arm-none-eabi\lib\armv6-m\libc.a(lib_a-lseekr.o)
 .data          0x10010d44        0x0 ..\..\..\tools\gcc-arm-none-eabi-5_4-2016q3-20160926-win32\arm-none-eabi\lib\armv6-m\libc.a(lib_a-makebuf.o)
 .data          0x10010d44        0x0 ..\..\..\tools\gcc-arm-none-eabi-5_4-2016q3-20160926-win32\arm-none-eabi\lib\armv6-m\libc.a(lib_a-readr.o)
 .data          0x10010d44        0x0 ..\..\..\tools\gcc-arm-none-eabi-5_4-2016q3-20160926-win32\arm-none-eabi\lib\armv6-m\libc.a(lib_a-fstatr.o)
 .data          0x10010d44        0x0 ..\..\..\tools\gcc-arm-none-eabi-5_4-2016q3-20160926-win32\arm-none-eabi\lib\armv6-m\libc.a(lib_a-isattyr.o)
                0x10010d44                . = ALIGN (0x4)
                [!provide]                PROVIDE (__preinit_array_start, .)
 *(.preinit_array)
                [!provide]                PROVIDE (__preinit_array_end, .)
                0x10010d44                . = ALIGN (0x4)
                [!provide]                PROVIDE (__init_array_start, .)
 *(SORT(.init_array.*))
 *(.init_array)
                [!provide]                PROVIDE (__init_array_end, .)
                0x10010d44                . = ALIGN (0x4)
                [!provide]                PROVIDE (__fini_array_start, .)
 *(SORT(.fini_array.*))
 *(.fini_array)
                [!provide]                PROVIDE (__fini_array_end, .)
 *(.jcr*)
                0x10010d44                . = ALIGN (0x4)
                0x10010d44                __data_end__ = .

.igot.plt       0x10010d44        0x0 load address 0x00002b78
 .igot.plt      0x10010d44        0x0 ../src/main.o

.bss            0x10010d44       0x60 load address 0x00002b78
                0x10010d44                . = ALIGN (0x4)
                0x10010d44                __bss_start__ = .
 *(.bss*)
 .bss           0x10010d44        0x0 ../src/main.o
 .bss           0x10010d44        0x0 ..\..\../drivers/hal/bc62xx_gpio.o
 .bss           0x10010d44        0x0 ..\..\../drivers/hal/bc62xx_uart.o
 .bss           0x10010d44        0x4 ..\..\../device/system.o
 .bss           0x10010d48        0x0 ..\..\../startup_m0.o
 .bss           0x10010d48        0x0 ..\..\..\tools\gcc-arm-none-eabi-5_4-2016q3-20160926-win32\arm-none-eabi\lib\armv6-m\libc.a(lib_a-malloc.o)
 .bss           0x10010d48        0x0 ..\..\..\tools\gcc-arm-none-eabi-5_4-2016q3-20160926-win32\arm-none-eabi\lib\armv6-m\libc.a(lib_a-mallocr.o)
 .bss.__malloc_max_total_mem
                0x10010d48        0x4 ..\..\..\tools\gcc-arm-none-eabi-5_4-2016q3-20160926-win32\arm-none-eabi\lib\armv6-m\libc.a(lib_a-mallocr.o)
                0x10010d48                __malloc_max_total_mem
 .bss.__malloc_max_sbrked_mem
                0x10010d4c        0x4 ..\..\..\tools\gcc-arm-none-eabi-5_4-2016q3-20160926-win32\arm-none-eabi\lib\armv6-m\libc.a(lib_a-mallocr.o)
                0x10010d4c                __malloc_max_sbrked_mem
 .bss.__malloc_top_pad
                0x10010d50        0x4 ..\..\..\tools\gcc-arm-none-eabi-5_4-2016q3-20160926-win32\arm-none-eabi\lib\armv6-m\libc.a(lib_a-mallocr.o)
                0x10010d50                __malloc_top_pad
 .bss.__malloc_current_mallinfo
                0x10010d54       0x28 ..\..\..\tools\gcc-arm-none-eabi-5_4-2016q3-20160926-win32\arm-none-eabi\lib\armv6-m\libc.a(lib_a-mallocr.o)
                0x10010d54                __malloc_current_mallinfo
 .bss           0x10010d7c        0x0 ..\..\..\tools\gcc-arm-none-eabi-5_4-2016q3-20160926-win32\arm-none-eabi\lib\armv6-m\libc.a(lib_a-mlock.o)
 .bss           0x10010d7c        0x0 ..\..\..\tools\gcc-arm-none-eabi-5_4-2016q3-20160926-win32\arm-none-eabi\lib\armv6-m\libc.a(lib_a-puts.o)
 .bss           0x10010d7c        0x0 ..\..\..\tools\gcc-arm-none-eabi-5_4-2016q3-20160926-win32\arm-none-eabi\lib\armv6-m\libc.a(lib_a-sbrkr.o)
 .bss           0x10010d7c        0x0 ..\..\..\tools\gcc-arm-none-eabi-5_4-2016q3-20160926-win32\arm-none-eabi\lib\armv6-m\libc.a(lib_a-strlen-stub.o)
 .bss           0x10010d7c        0x0 ..\..\..\tools\gcc-arm-none-eabi-5_4-2016q3-20160926-win32\arm-none-eabi\lib\armv6-m\libc.a(lib_a-findfp.o)
 .bss           0x10010d7c        0x0 ..\..\..\tools\gcc-arm-none-eabi-5_4-2016q3-20160926-win32\arm-none-eabi\lib\armv6-m\libc.a(lib_a-freer.o)
 .bss           0x10010d7c        0x0 ..\..\..\tools\gcc-arm-none-eabi-5_4-2016q3-20160926-win32\arm-none-eabi\lib\armv6-m\libc.a(lib_a-fvwrite.o)
 .bss           0x10010d7c        0x0 ..\..\..\tools\gcc-arm-none-eabi-5_4-2016q3-20160926-win32\arm-none-eabi\lib\armv6-m\libc.a(lib_a-fwalk.o)
 .bss           0x10010d7c        0x0 ..\..\..\tools\gcc-arm-none-eabi-5_4-2016q3-20160926-win32\arm-none-eabi\lib\armv6-m\libc.a(lib_a-impure.o)
 .bss           0x10010d7c        0x0 ..\..\..\tools\gcc-arm-none-eabi-5_4-2016q3-20160926-win32\arm-none-eabi\lib\armv6-m\libc.a(lib_a-memchr-stub.o)
 .bss           0x10010d7c        0x0 ..\..\..\tools\gcc-arm-none-eabi-5_4-2016q3-20160926-win32\arm-none-eabi\lib\armv6-m\libc.a(lib_a-memcpy-stub.o)
 .bss           0x10010d7c        0x0 ..\..\..\tools\gcc-arm-none-eabi-5_4-2016q3-20160926-win32\arm-none-eabi\lib\armv6-m\libc.a(lib_a-memmove.o)
 .bss           0x10010d7c        0x0 ..\..\..\tools\gcc-arm-none-eabi-5_4-2016q3-20160926-win32\arm-none-eabi\lib\armv6-m\libc.a(lib_a-memset.o)
 .bss           0x10010d7c        0x0 ..\..\..\tools\gcc-arm-none-eabi-5_4-2016q3-20160926-win32\arm-none-eabi\lib\armv6-m\libc.a(lib_a-reallocr.o)
 .bss           0x10010d7c        0x0 ..\..\..\tools\gcc-arm-none-eabi-5_4-2016q3-20160926-win32\arm-none-eabi\lib\armv6-m\libc.a(lib_a-reent.o)
 .bss           0x10010d7c        0x0 ..\..\..\tools\gcc-arm-none-eabi-5_4-2016q3-20160926-win32\arm-none-eabi\lib\armv6-m\libc.a(lib_a-stdio.o)
 .bss           0x10010d7c        0x0 ..\..\..\tools\gcc-arm-none-eabi-5_4-2016q3-20160926-win32\arm-none-eabi\lib\armv6-m\libc.a(lib_a-writer.o)
 .bss           0x10010d7c        0x0 ..\..\..\tools\gcc-arm-none-eabi-5_4-2016q3-20160926-win32\arm-none-eabi\lib\armv6-m\libc.a(lib_a-wsetup.o)
 .bss           0x10010d7c        0x0 ..\..\..\tools\gcc-arm-none-eabi-5_4-2016q3-20160926-win32\arm-none-eabi\lib\armv6-m\libc.a(lib_a-closer.o)
 .bss           0x10010d7c        0x0 ..\..\..\tools\gcc-arm-none-eabi-5_4-2016q3-20160926-win32\arm-none-eabi\lib\armv6-m\libc.a(lib_a-fclose.o)
 .bss           0x10010d7c        0x0 ..\..\..\tools\gcc-arm-none-eabi-5_4-2016q3-20160926-win32\arm-none-eabi\lib\armv6-m\libc.a(lib_a-fflush.o)
 .bss           0x10010d7c        0x0 ..\..\..\tools\gcc-arm-none-eabi-5_4-2016q3-20160926-win32\arm-none-eabi\lib\armv6-m\libc.a(lib_a-lseekr.o)
 .bss           0x10010d7c        0x0 ..\..\..\tools\gcc-arm-none-eabi-5_4-2016q3-20160926-win32\arm-none-eabi\lib\armv6-m\libc.a(lib_a-makebuf.o)
 .bss           0x10010d7c        0x0 ..\..\..\tools\gcc-arm-none-eabi-5_4-2016q3-20160926-win32\arm-none-eabi\lib\armv6-m\libc.a(lib_a-readr.o)
 .bss           0x10010d7c        0x0 ..\..\..\tools\gcc-arm-none-eabi-5_4-2016q3-20160926-win32\arm-none-eabi\lib\armv6-m\libc.a(lib_a-fstatr.o)
 .bss           0x10010d7c        0x0 ..\..\..\tools\gcc-arm-none-eabi-5_4-2016q3-20160926-win32\arm-none-eabi\lib\armv6-m\libc.a(lib_a-isattyr.o)
 *(COMMON)
 COMMON         0x10010d7c        0x1 ../src/main.o
                0x10010d7c                GPIO_FUNC
 *fill*         0x10010d7d        0x1 
 COMMON         0x10010d7e       0x20 ..\..\../drivers/hal/bc62xx_uart.o
                0x10010d7e                regBeck
 *fill*         0x10010d9e        0x2 
 COMMON         0x10010da0        0x4 ..\..\..\tools\gcc-arm-none-eabi-5_4-2016q3-20160926-win32\arm-none-eabi\lib\armv6-m\libc.a(lib_a-reent.o)
                0x10010da0                errno
                0x10010da4                . = ALIGN (0x4)
                0x10010da4                __bss_end__ = .

.heap           0x10010da8        0x0
                0x10010da8                __end__ = .
                0x10010da8                PROVIDE (end, .)
 *(.heap*)
 .heap          0x10010da8        0x0 ..\..\../startup_m0.o
                0x10010da8                __HeapLimit = .

.stack_dummy    0x10010da8     0x1000
 *(.stack*)
 .stack         0x10010da8     0x1000 ..\..\../startup_m0.o
                0x10014000                __StackTop = (ORIGIN (RAM) + LENGTH (RAM))
                0x10013000                __StackLimit = (__StackTop - SIZEOF (.stack_dummy))
                [!provide]                PROVIDE (__stack, __StackTop)
                0x00000001                ASSERT ((__StackLimit >= __HeapLimit), region RAM overflowed with stack)
LOAD ..\..\..\tools\gcc-arm-none-eabi-5_4-2016q3-20160926-win32\lib\gcc\arm-none-eabi\5.4.1\armv6-m\libgcc.a
OUTPUT(output\a.out elf32-littlearm)

.debug_info     0x00000000     0x1717
 .debug_info    0x00000000      0x480 ../src/main.o
 .debug_info    0x00000480      0x340 ..\..\../drivers/hal/bc62xx_gpio.o
 .debug_info    0x000007c0      0xab0 ..\..\../drivers/hal/bc62xx_uart.o
 .debug_info    0x00001270      0x4a7 ..\..\../device/system.o

.debug_abbrev   0x00000000      0x60c
 .debug_abbrev  0x00000000      0x143 ../src/main.o
 .debug_abbrev  0x00000143      0x129 ..\..\../drivers/hal/bc62xx_gpio.o
 .debug_abbrev  0x0000026c      0x244 ..\..\../drivers/hal/bc62xx_uart.o
 .debug_abbrev  0x000004b0      0x15c ..\..\../device/system.o

.debug_loc      0x00000000      0xa4a
 .debug_loc     0x00000000       0x6d ../src/main.o
 .debug_loc     0x0000006d       0xd3 ..\..\../drivers/hal/bc62xx_gpio.o
 .debug_loc     0x00000140      0x6f9 ..\..\../drivers/hal/bc62xx_uart.o
 .debug_loc     0x00000839      0x211 ..\..\../device/system.o

.debug_aranges  0x00000000       0x80
 .debug_aranges
                0x00000000       0x20 ../src/main.o
 .debug_aranges
                0x00000020       0x20 ..\..\../drivers/hal/bc62xx_gpio.o
 .debug_aranges
                0x00000040       0x20 ..\..\../drivers/hal/bc62xx_uart.o
 .debug_aranges
                0x00000060       0x20 ..\..\../device/system.o

.debug_ranges   0x00000000       0x30
 .debug_ranges  0x00000000       0x30 ../src/main.o

.debug_line     0x00000000      0x887
 .debug_line    0x00000000      0x1b7 ../src/main.o
 .debug_line    0x000001b7      0x1c5 ..\..\../drivers/hal/bc62xx_gpio.o
 .debug_line    0x0000037c      0x379 ..\..\../drivers/hal/bc62xx_uart.o
 .debug_line    0x000006f5      0x192 ..\..\../device/system.o

.debug_str      0x00000000      0x938
 .debug_str     0x00000000      0x556 ../src/main.o
                                0x5a9 (size before relaxing)
 .debug_str     0x00000556       0x61 ..\..\../drivers/hal/bc62xx_gpio.o
                                0x4b0 (size before relaxing)
 .debug_str     0x000005b7      0x1cf ..\..\../drivers/hal/bc62xx_uart.o
                                0x76a (size before relaxing)
 .debug_str     0x00000786      0x1b2 ..\..\../device/system.o
                                0x361 (size before relaxing)

.comment        0x00000000       0x6e
 .comment       0x00000000       0x6e ../src/main.o
                                 0x6f (size before relaxing)
 .comment       0x0000006e       0x6f ..\..\../drivers/hal/bc62xx_gpio.o
 .comment       0x0000006e       0x6f ..\..\../drivers/hal/bc62xx_uart.o
 .comment       0x0000006e       0x6f ..\..\../device/system.o

.ARM.attributes
                0x00000000       0x2f
 .ARM.attributes
                0x00000000       0x31 ../src/main.o
 .ARM.attributes
                0x00000031       0x31 ..\..\../drivers/hal/bc62xx_gpio.o
 .ARM.attributes
                0x00000062       0x31 ..\..\../drivers/hal/bc62xx_uart.o
 .ARM.attributes
                0x00000093       0x31 ..\..\../device/system.o
 .ARM.attributes
                0x000000c4       0x1b ..\..\../startup_m0.o
 .ARM.attributes
                0x000000df       0x2c ..\..\..\tools\gcc-arm-none-eabi-5_4-2016q3-20160926-win32\arm-none-eabi\lib\armv6-m\libc.a(lib_a-malloc.o)
 .ARM.attributes
                0x0000010b       0x2c ..\..\..\tools\gcc-arm-none-eabi-5_4-2016q3-20160926-win32\arm-none-eabi\lib\armv6-m\libc.a(lib_a-mallocr.o)
 .ARM.attributes
                0x00000137       0x2c ..\..\..\tools\gcc-arm-none-eabi-5_4-2016q3-20160926-win32\arm-none-eabi\lib\armv6-m\libc.a(lib_a-mlock.o)
 .ARM.attributes
                0x00000163       0x2c ..\..\..\tools\gcc-arm-none-eabi-5_4-2016q3-20160926-win32\arm-none-eabi\lib\armv6-m\libc.a(lib_a-puts.o)
 .ARM.attributes
                0x0000018f       0x2c ..\..\..\tools\gcc-arm-none-eabi-5_4-2016q3-20160926-win32\arm-none-eabi\lib\armv6-m\libc.a(lib_a-sbrkr.o)
 .ARM.attributes
                0x000001bb       0x2c ..\..\..\tools\gcc-arm-none-eabi-5_4-2016q3-20160926-win32\arm-none-eabi\lib\armv6-m\libc.a(lib_a-strlen-stub.o)
 .ARM.attributes
                0x000001e7       0x2c ..\..\..\tools\gcc-arm-none-eabi-5_4-2016q3-20160926-win32\arm-none-eabi\lib\armv6-m\libc.a(lib_a-findfp.o)
 .ARM.attributes
                0x00000213       0x2c ..\..\..\tools\gcc-arm-none-eabi-5_4-2016q3-20160926-win32\arm-none-eabi\lib\armv6-m\libc.a(lib_a-freer.o)
 .ARM.attributes
                0x0000023f       0x2c ..\..\..\tools\gcc-arm-none-eabi-5_4-2016q3-20160926-win32\arm-none-eabi\lib\armv6-m\libc.a(lib_a-fvwrite.o)
 .ARM.attributes
                0x0000026b       0x2c ..\..\..\tools\gcc-arm-none-eabi-5_4-2016q3-20160926-win32\arm-none-eabi\lib\armv6-m\libc.a(lib_a-fwalk.o)
 .ARM.attributes
                0x00000297       0x2c ..\..\..\tools\gcc-arm-none-eabi-5_4-2016q3-20160926-win32\arm-none-eabi\lib\armv6-m\libc.a(lib_a-impure.o)
 .ARM.attributes
                0x000002c3       0x2c ..\..\..\tools\gcc-arm-none-eabi-5_4-2016q3-20160926-win32\arm-none-eabi\lib\armv6-m\libc.a(lib_a-memchr-stub.o)
 .ARM.attributes
                0x000002ef       0x2c ..\..\..\tools\gcc-arm-none-eabi-5_4-2016q3-20160926-win32\arm-none-eabi\lib\armv6-m\libc.a(lib_a-memcpy-stub.o)
 .ARM.attributes
                0x0000031b       0x2c ..\..\..\tools\gcc-arm-none-eabi-5_4-2016q3-20160926-win32\arm-none-eabi\lib\armv6-m\libc.a(lib_a-memmove.o)
 .ARM.attributes
                0x00000347       0x2c ..\..\..\tools\gcc-arm-none-eabi-5_4-2016q3-20160926-win32\arm-none-eabi\lib\armv6-m\libc.a(lib_a-memset.o)
 .ARM.attributes
                0x00000373       0x2c ..\..\..\tools\gcc-arm-none-eabi-5_4-2016q3-20160926-win32\arm-none-eabi\lib\armv6-m\libc.a(lib_a-reallocr.o)
 .ARM.attributes
                0x0000039f       0x2c ..\..\..\tools\gcc-arm-none-eabi-5_4-2016q3-20160926-win32\arm-none-eabi\lib\armv6-m\libc.a(lib_a-reent.o)
 .ARM.attributes
                0x000003cb       0x2c ..\..\..\tools\gcc-arm-none-eabi-5_4-2016q3-20160926-win32\arm-none-eabi\lib\armv6-m\libc.a(lib_a-stdio.o)
 .ARM.attributes
                0x000003f7       0x2c ..\..\..\tools\gcc-arm-none-eabi-5_4-2016q3-20160926-win32\arm-none-eabi\lib\armv6-m\libc.a(lib_a-writer.o)
 .ARM.attributes
                0x00000423       0x2c ..\..\..\tools\gcc-arm-none-eabi-5_4-2016q3-20160926-win32\arm-none-eabi\lib\armv6-m\libc.a(lib_a-wsetup.o)
 .ARM.attributes
                0x0000044f       0x2c ..\..\..\tools\gcc-arm-none-eabi-5_4-2016q3-20160926-win32\arm-none-eabi\lib\armv6-m\libc.a(lib_a-closer.o)
 .ARM.attributes
                0x0000047b       0x2c ..\..\..\tools\gcc-arm-none-eabi-5_4-2016q3-20160926-win32\arm-none-eabi\lib\armv6-m\libc.a(lib_a-fclose.o)
 .ARM.attributes
                0x000004a7       0x2c ..\..\..\tools\gcc-arm-none-eabi-5_4-2016q3-20160926-win32\arm-none-eabi\lib\armv6-m\libc.a(lib_a-fflush.o)
 .ARM.attributes
                0x000004d3       0x2c ..\..\..\tools\gcc-arm-none-eabi-5_4-2016q3-20160926-win32\arm-none-eabi\lib\armv6-m\libc.a(lib_a-lseekr.o)
 .ARM.attributes
                0x000004ff       0x2c ..\..\..\tools\gcc-arm-none-eabi-5_4-2016q3-20160926-win32\arm-none-eabi\lib\armv6-m\libc.a(lib_a-makebuf.o)
 .ARM.attributes
                0x0000052b       0x2c ..\..\..\tools\gcc-arm-none-eabi-5_4-2016q3-20160926-win32\arm-none-eabi\lib\armv6-m\libc.a(lib_a-readr.o)
 .ARM.attributes
                0x00000557       0x2c ..\..\..\tools\gcc-arm-none-eabi-5_4-2016q3-20160926-win32\arm-none-eabi\lib\armv6-m\libc.a(lib_a-fstatr.o)
 .ARM.attributes
                0x00000583       0x2c ..\..\..\tools\gcc-arm-none-eabi-5_4-2016q3-20160926-win32\arm-none-eabi\lib\armv6-m\libc.a(lib_a-isattyr.o)

.debug_frame    0x00000000      0xa58
 .debug_frame   0x00000000       0x30 ../src/main.o
 .debug_frame   0x00000030       0x74 ..\..\../drivers/hal/bc62xx_gpio.o
 .debug_frame   0x000000a4      0x190 ..\..\../drivers/hal/bc62xx_uart.o
 .debug_frame   0x00000234       0xb4 ..\..\../device/system.o
 .debug_frame   0x000002e8       0x40 ..\..\..\tools\gcc-arm-none-eabi-5_4-2016q3-20160926-win32\arm-none-eabi\lib\armv6-m\libc.a(lib_a-malloc.o)
 .debug_frame   0x00000328       0x3c ..\..\..\tools\gcc-arm-none-eabi-5_4-2016q3-20160926-win32\arm-none-eabi\lib\armv6-m\libc.a(lib_a-mallocr.o)
 .debug_frame   0x00000364       0x30 ..\..\..\tools\gcc-arm-none-eabi-5_4-2016q3-20160926-win32\arm-none-eabi\lib\armv6-m\libc.a(lib_a-mlock.o)
 .debug_frame   0x00000394       0x44 ..\..\..\tools\gcc-arm-none-eabi-5_4-2016q3-20160926-win32\arm-none-eabi\lib\armv6-m\libc.a(lib_a-puts.o)
 .debug_frame   0x000003d8       0x2c ..\..\..\tools\gcc-arm-none-eabi-5_4-2016q3-20160926-win32\arm-none-eabi\lib\armv6-m\libc.a(lib_a-sbrkr.o)
 .debug_frame   0x00000404       0x28 ..\..\..\tools\gcc-arm-none-eabi-5_4-2016q3-20160926-win32\arm-none-eabi\lib\armv6-m\libc.a(lib_a-strlen-stub.o)
 .debug_frame   0x0000042c      0x14c ..\..\..\tools\gcc-arm-none-eabi-5_4-2016q3-20160926-win32\arm-none-eabi\lib\armv6-m\libc.a(lib_a-findfp.o)
 .debug_frame   0x00000578       0x54 ..\..\..\tools\gcc-arm-none-eabi-5_4-2016q3-20160926-win32\arm-none-eabi\lib\armv6-m\libc.a(lib_a-freer.o)
 .debug_frame   0x000005cc       0x3c ..\..\..\tools\gcc-arm-none-eabi-5_4-2016q3-20160926-win32\arm-none-eabi\lib\armv6-m\libc.a(lib_a-fvwrite.o)
 .debug_frame   0x00000608       0x5c ..\..\..\tools\gcc-arm-none-eabi-5_4-2016q3-20160926-win32\arm-none-eabi\lib\armv6-m\libc.a(lib_a-fwalk.o)
 .debug_frame   0x00000664       0x2c ..\..\..\tools\gcc-arm-none-eabi-5_4-2016q3-20160926-win32\arm-none-eabi\lib\armv6-m\libc.a(lib_a-memchr-stub.o)
 .debug_frame   0x00000690       0x2c ..\..\..\tools\gcc-arm-none-eabi-5_4-2016q3-20160926-win32\arm-none-eabi\lib\armv6-m\libc.a(lib_a-memcpy-stub.o)
 .debug_frame   0x000006bc       0x2c ..\..\..\tools\gcc-arm-none-eabi-5_4-2016q3-20160926-win32\arm-none-eabi\lib\armv6-m\libc.a(lib_a-memmove.o)
 .debug_frame   0x000006e8       0x2c ..\..\..\tools\gcc-arm-none-eabi-5_4-2016q3-20160926-win32\arm-none-eabi\lib\armv6-m\libc.a(lib_a-memset.o)
 .debug_frame   0x00000714       0x3c ..\..\..\tools\gcc-arm-none-eabi-5_4-2016q3-20160926-win32\arm-none-eabi\lib\armv6-m\libc.a(lib_a-reallocr.o)
 .debug_frame   0x00000750       0x48 ..\..\..\tools\gcc-arm-none-eabi-5_4-2016q3-20160926-win32\arm-none-eabi\lib\armv6-m\libc.a(lib_a-reent.o)
 .debug_frame   0x00000798       0x90 ..\..\..\tools\gcc-arm-none-eabi-5_4-2016q3-20160926-win32\arm-none-eabi\lib\armv6-m\libc.a(lib_a-stdio.o)
 .debug_frame   0x00000828       0x2c ..\..\..\tools\gcc-arm-none-eabi-5_4-2016q3-20160926-win32\arm-none-eabi\lib\armv6-m\libc.a(lib_a-writer.o)
 .debug_frame   0x00000854       0x2c ..\..\..\tools\gcc-arm-none-eabi-5_4-2016q3-20160926-win32\arm-none-eabi\lib\armv6-m\libc.a(lib_a-wsetup.o)
 .debug_frame   0x00000880       0x2c ..\..\..\tools\gcc-arm-none-eabi-5_4-2016q3-20160926-win32\arm-none-eabi\lib\armv6-m\libc.a(lib_a-closer.o)
 .debug_frame   0x000008ac       0x44 ..\..\..\tools\gcc-arm-none-eabi-5_4-2016q3-20160926-win32\arm-none-eabi\lib\armv6-m\libc.a(lib_a-fclose.o)
 .debug_frame   0x000008f0       0x68 ..\..\..\tools\gcc-arm-none-eabi-5_4-2016q3-20160926-win32\arm-none-eabi\lib\armv6-m\libc.a(lib_a-fflush.o)
 .debug_frame   0x00000958       0x2c ..\..\..\tools\gcc-arm-none-eabi-5_4-2016q3-20160926-win32\arm-none-eabi\lib\armv6-m\libc.a(lib_a-lseekr.o)
 .debug_frame   0x00000984       0x50 ..\..\..\tools\gcc-arm-none-eabi-5_4-2016q3-20160926-win32\arm-none-eabi\lib\armv6-m\libc.a(lib_a-makebuf.o)
 .debug_frame   0x000009d4       0x2c ..\..\..\tools\gcc-arm-none-eabi-5_4-2016q3-20160926-win32\arm-none-eabi\lib\armv6-m\libc.a(lib_a-readr.o)
 .debug_frame   0x00000a00       0x2c ..\..\..\tools\gcc-arm-none-eabi-5_4-2016q3-20160926-win32\arm-none-eabi\lib\armv6-m\libc.a(lib_a-fstatr.o)
 .debug_frame   0x00000a2c       0x2c ..\..\..\tools\gcc-arm-none-eabi-5_4-2016q3-20160926-win32\arm-none-eabi\lib\armv6-m\libc.a(lib_a-isattyr.o)
