
output\a.out:     file format elf32-littlearm


Disassembly of section .text:

00000000 <__isr_vector>:
       0:	10014000 	.word	0x10014000
       4:	00004255 	.word	0x00004255
       8:	0000429d 	.word	0x0000429d
       c:	0000429d 	.word	0x0000429d
	...
      3c:	000025e9 	.word	0x000025e9
      40:	0000429d 	.word	0x0000429d
      44:	0000429d 	.word	0x0000429d
      48:	0000429d 	.word	0x0000429d
      4c:	0000429d 	.word	0x0000429d
      50:	0000429d 	.word	0x0000429d
      54:	0000429d 	.word	0x0000429d
      58:	0000429d 	.word	0x0000429d
      5c:	0000429d 	.word	0x0000429d
      60:	0000429d 	.word	0x0000429d
      64:	0000429d 	.word	0x0000429d
      68:	0000429d 	.word	0x0000429d
      6c:	0000429d 	.word	0x0000429d
      70:	0000429d 	.word	0x0000429d
      74:	0000429d 	.word	0x0000429d
      78:	0000429d 	.word	0x0000429d
      7c:	0000429d 	.word	0x0000429d
      80:	0000429d 	.word	0x0000429d
      84:	0000429d 	.word	0x0000429d
      88:	0000429d 	.word	0x0000429d
      8c:	0000429d 	.word	0x0000429d
      90:	0000429d 	.word	0x0000429d
      94:	0000429d 	.word	0x0000429d

00000098 <Bt_BleCallBack>:
#include "m_api.h"
#include "app_mesh.h"


void Bt_BleCallBack(uint8_t *buf, uint16_t len)
{
      98:	b57f      	push	{r0, r1, r2, r3, r4, r5, r6, lr}
	uint16_t att_hdl = (uint16_t)*buf;
      9a:	7806      	ldrb	r6, [r0, #0]
#include "m_api.h"
#include "app_mesh.h"


void Bt_BleCallBack(uint8_t *buf, uint16_t len)
{
      9c:	0004      	movs	r4, r0
      9e:	000d      	movs	r5, r1
	uint16_t att_hdl = (uint16_t)*buf;
	switch(att_hdl){
      a0:	2e15      	cmp	r6, #21
      a2:	d020      	beq.n	e6 <Bt_BleCallBack+0x4e>
      a4:	d802      	bhi.n	ac <Bt_BleCallBack+0x14>
      a6:	2e09      	cmp	r6, #9
      a8:	d005      	beq.n	b6 <Bt_BleCallBack+0x1e>
      aa:	e021      	b.n	f0 <Bt_BleCallBack+0x58>
      ac:	2e1d      	cmp	r6, #29
      ae:	d00a      	beq.n	c6 <Bt_BleCallBack+0x2e>
      b0:	2e23      	cmp	r6, #35	; 0x23
      b2:	d008      	beq.n	c6 <Bt_BleCallBack+0x2e>
      b4:	e01c      	b.n	f0 <Bt_BleCallBack+0x58>
		case 0x0009:{
			uint8_t val = (uint16_t)*(buf+2);
			if(val){
      b6:	7883      	ldrb	r3, [r0, #2]
      b8:	2b00      	cmp	r3, #0
      ba:	d019      	beq.n	f0 <Bt_BleCallBack+0x58>
				printf("NOTIFY:\r\n");
      bc:	480d      	ldr	r0, [pc, #52]	; (f4 <Bt_BleCallBack+0x5c>)
      be:	3009      	adds	r0, #9
      c0:	f015 fd66 	bl	15b90 <puts>
      c4:	e014      	b.n	f0 <Bt_BleCallBack+0x58>
			}
		}break;
		case GATT_PROV_WRITE_HANDLE:
		case GATT_PROXY_WRITE_HANDLE:{
			#if (BLE_MESH)
			if(OTANONE != gatt_ota_state_get())
      c6:	f000 f937 	bl	338 <gatt_ota_state_get>
      ca:	2800      	cmp	r0, #0
      cc:	d110      	bne.n	f0 <Bt_BleCallBack+0x58>
				break;
			struct mesh_write_req_param para;
			para.con = 0;
      ce:	a901      	add	r1, sp, #4
      d0:	8008      	strh	r0, [r1, #0]
			para.handle = att_hdl;
			para.offset = 0;
      d2:	8088      	strh	r0, [r1, #4]
			para.length = len-2;
      d4:	3d02      	subs	r5, #2
			para.value = buf+2;
      d6:	3402      	adds	r4, #2
			mesh_ble_event_set(MESH_BLE_CON_WRITE_REQ,&para);
      d8:	3008      	adds	r0, #8
			#if (BLE_MESH)
			if(OTANONE != gatt_ota_state_get())
				break;
			struct mesh_write_req_param para;
			para.con = 0;
			para.handle = att_hdl;
      da:	804e      	strh	r6, [r1, #2]
			para.offset = 0;
			para.length = len-2;
      dc:	80cd      	strh	r5, [r1, #6]
			para.value = buf+2;
      de:	608c      	str	r4, [r1, #8]
			mesh_ble_event_set(MESH_BLE_CON_WRITE_REQ,&para);
      e0:	f007 fa14 	bl	750c <mesh_ble_event_set>
			#endif
		}break;
      e4:	e004      	b.n	f0 <Bt_BleCallBack+0x58>
		case OTA_WRITE_HANDLE:{
			gatt_ota_data_deal(buf+2, len - 2);
      e6:	3d02      	subs	r5, #2
      e8:	b2e9      	uxtb	r1, r5
      ea:	3002      	adds	r0, #2
      ec:	f000 fb05 	bl	6fa <gatt_ota_data_deal>
		}break;
		default:{
			
		}break;
	}
}
      f0:	bd7f      	pop	{r0, r1, r2, r3, r4, r5, r6, pc}
      f2:	46c0      	nop			; (mov r8, r8)
      f4:	0001fc9c 	.word	0x0001fc9c

000000f8 <Event_call_back>:

void Event_call_back(uint8_t da)
{
      f8:	b507      	push	{r0, r1, r2, lr}
      fa:	4b18      	ldr	r3, [pc, #96]	; (15c <Event_call_back+0x64>)
      fc:	0001      	movs	r1, r0
	switch(da){
      fe:	2815      	cmp	r0, #21
     100:	d015      	beq.n	12e <Event_call_back+0x36>
     102:	2865      	cmp	r0, #101	; 0x65
     104:	d00e      	beq.n	124 <Event_call_back+0x2c>
     106:	2814      	cmp	r0, #20
     108:	d122      	bne.n	150 <Event_call_back+0x58>
		case 0x65:
			printf("BLE 0x65\r\n");
			break;
		case IPC_EVT_LE_CONNECTED:{
			printf("BLE connect\r\n");
     10a:	331c      	adds	r3, #28
     10c:	0018      	movs	r0, r3
     10e:	f015 fd3f 	bl	15b90 <puts>
			gatt_ota_start();
     112:	f000 f8ed 	bl	2f0 <gatt_ota_start>
			#if (BLE_MESH)
			struct mesh_connected_param para;
			para.con = 0;
     116:	2300      	movs	r3, #0
     118:	a901      	add	r1, sp, #4
			mesh_ble_event_set(MESH_BLE_CON_CONNECTED,&para);
     11a:	2005      	movs	r0, #5
		case IPC_EVT_LE_CONNECTED:{
			printf("BLE connect\r\n");
			gatt_ota_start();
			#if (BLE_MESH)
			struct mesh_connected_param para;
			para.con = 0;
     11c:	800b      	strh	r3, [r1, #0]
			mesh_ble_event_set(MESH_BLE_CON_CONNECTED,&para);
     11e:	f007 f9f5 	bl	750c <mesh_ble_event_set>
			#endif
		}break;
     122:	e019      	b.n	158 <Event_call_back+0x60>

void Event_call_back(uint8_t da)
{
	switch(da){
		case 0x65:
			printf("BLE 0x65\r\n");
     124:	3312      	adds	r3, #18
     126:	0018      	movs	r0, r3
     128:	f015 fd32 	bl	15b90 <puts>
			break;
     12c:	e014      	b.n	158 <Event_call_back+0x60>
			mesh_ble_event_set(MESH_BLE_CON_CONNECTED,&para);
			#endif
		}break;
			
		case IPC_EVT_LE_DISCONNECTED:{
			printf("BLE disconnect\r\n");
     12e:	3329      	adds	r3, #41	; 0x29
     130:	0018      	movs	r0, r3
     132:	f015 fd2d 	bl	15b90 <puts>
			gatt_ota_stop();
     136:	f000 f8f1 	bl	31c <gatt_ota_stop>
			HWRITE(mem_le_adv_enable, 0x01);
     13a:	2201      	movs	r2, #1
     13c:	4b08      	ldr	r3, [pc, #32]	; (160 <Event_call_back+0x68>)
			#if (BLE_MESH)	
			struct mesh_disconnected_param para;
			para.con = 0;
     13e:	a901      	add	r1, sp, #4
		}break;
			
		case IPC_EVT_LE_DISCONNECTED:{
			printf("BLE disconnect\r\n");
			gatt_ota_stop();
			HWRITE(mem_le_adv_enable, 0x01);
     140:	701a      	strb	r2, [r3, #0]
			#if (BLE_MESH)	
			struct mesh_disconnected_param para;
			para.con = 0;
     142:	2300      	movs	r3, #0
			para.reason = 0;
			mesh_ble_event_set(MESH_BLE_CON_DISCONNECTED,&para);
     144:	2006      	movs	r0, #6
			printf("BLE disconnect\r\n");
			gatt_ota_stop();
			HWRITE(mem_le_adv_enable, 0x01);
			#if (BLE_MESH)	
			struct mesh_disconnected_param para;
			para.con = 0;
     146:	800b      	strh	r3, [r1, #0]
			para.reason = 0;
     148:	708b      	strb	r3, [r1, #2]
			mesh_ble_event_set(MESH_BLE_CON_DISCONNECTED,&para);
     14a:	f007 f9df 	bl	750c <mesh_ble_event_set>
     14e:	e003      	b.n	158 <Event_call_back+0x60>
			#endif
		}break;
		default:
			printf("enter event [%d]\r\n", da);
     150:	3339      	adds	r3, #57	; 0x39
     152:	0018      	movs	r0, r3
     154:	f015 fcd2 	bl	15afc <printf>
			break;
	}
}
     158:	bd07      	pop	{r0, r1, r2, pc}
     15a:	46c0      	nop			; (mov r8, r8)
     15c:	0001fc9c 	.word	0x0001fc9c
     160:	100043b1 	.word	0x100043b1

00000164 <Mesh_Adv_Cb>:
void Mesh_Adv_Cb(uint8_t* sour, uint16_t len)
{
     164:	b537      	push	{r0, r1, r2, r4, r5, lr}
     166:	0004      	movs	r4, r0
     168:	000d      	movs	r5, r1
#if (BLE_MESH)	
	if(OTANONE != gatt_ota_state_get())
     16a:	f000 f8e5 	bl	338 <gatt_ota_state_get>
     16e:	2800      	cmp	r0, #0
     170:	d10c      	bne.n	18c <Mesh_Adv_Cb+0x28>
		return;

	struct mesh_adv_report_param para;
	para.info = sour[0];
     172:	466a      	mov	r2, sp
     174:	7823      	ldrb	r3, [r4, #0]
	para.rssi = sour[1];
	para.length = len-8;
     176:	3d08      	subs	r5, #8
#if (BLE_MESH)	
	if(OTANONE != gatt_ota_state_get())
		return;

	struct mesh_adv_report_param para;
	para.info = sour[0];
     178:	7013      	strb	r3, [r2, #0]
	para.rssi = sour[1];
     17a:	7863      	ldrb	r3, [r4, #1]
	para.length = len-8;
	para.data = &sour[8];
	mesh_ble_event_set(MESH_BLE_SCAN_RX_CB,&para);
     17c:	4669      	mov	r1, sp

	struct mesh_adv_report_param para;
	para.info = sour[0];
	para.rssi = sour[1];
	para.length = len-8;
	para.data = &sour[8];
     17e:	3408      	adds	r4, #8
	mesh_ble_event_set(MESH_BLE_SCAN_RX_CB,&para);
     180:	3003      	adds	r0, #3
	if(OTANONE != gatt_ota_state_get())
		return;

	struct mesh_adv_report_param para;
	para.info = sour[0];
	para.rssi = sour[1];
     182:	7053      	strb	r3, [r2, #1]
	para.length = len-8;
     184:	8055      	strh	r5, [r2, #2]
	para.data = &sour[8];
     186:	9401      	str	r4, [sp, #4]
	mesh_ble_event_set(MESH_BLE_SCAN_RX_CB,&para);
     188:	f007 f9c0 	bl	750c <mesh_ble_event_set>
#endif
}
     18c:	bd37      	pop	{r0, r1, r2, r4, r5, pc}

0000018e <ble_read_req_cb>:

void ble_read_req_cb(uint8_t* buf, uint16_t len)
{
     18e:	b570      	push	{r4, r5, r6, lr}
	printf("%s:", __FUNCTION__);
     190:	4c06      	ldr	r4, [pc, #24]	; (1ac <ble_read_req_cb+0x1e>)
	mesh_ble_event_set(MESH_BLE_SCAN_RX_CB,&para);
#endif
}

void ble_read_req_cb(uint8_t* buf, uint16_t len)
{
     192:	0005      	movs	r5, r0
	printf("%s:", __FUNCTION__);
     194:	0021      	movs	r1, r4
     196:	0020      	movs	r0, r4
     198:	314c      	adds	r1, #76	; 0x4c
     19a:	305c      	adds	r0, #92	; 0x5c
     19c:	f015 fcae 	bl	15afc <printf>
	printf("hadler[%x]\r\n", (uint16_t)*buf);
     1a0:	0020      	movs	r0, r4
     1a2:	7829      	ldrb	r1, [r5, #0]
     1a4:	3060      	adds	r0, #96	; 0x60
     1a6:	f015 fca9 	bl	15afc <printf>
}
     1aa:	bd70      	pop	{r4, r5, r6, pc}
     1ac:	0001fc9c 	.word	0x0001fc9c

000001b0 <ble_read_conn_param>:

void ble_read_conn_param(uint8_t* buf, uint16_t len)
{
     1b0:	b5f8      	push	{r3, r4, r5, r6, r7, lr}
     1b2:	0006      	movs	r6, r0
	printf("%s:", __FUNCTION__);
     1b4:	480a      	ldr	r0, [pc, #40]	; (1e0 <ble_read_conn_param+0x30>)
	printf("%s:", __FUNCTION__);
	printf("hadler[%x]\r\n", (uint16_t)*buf);
}

void ble_read_conn_param(uint8_t* buf, uint16_t len)
{
     1b6:	000f      	movs	r7, r1
	printf("%s:", __FUNCTION__);
     1b8:	0001      	movs	r1, r0
	for(int i = 0; i < len; ++i){
     1ba:	0035      	movs	r5, r6
	printf("hadler[%x]\r\n", (uint16_t)*buf);
}

void ble_read_conn_param(uint8_t* buf, uint16_t len)
{
	printf("%s:", __FUNCTION__);
     1bc:	316d      	adds	r1, #109	; 0x6d
     1be:	305c      	adds	r0, #92	; 0x5c
     1c0:	f015 fc9c 	bl	15afc <printf>
     1c4:	4c07      	ldr	r4, [pc, #28]	; (1e4 <ble_read_conn_param+0x34>)
	for(int i = 0; i < len; ++i){
     1c6:	1bab      	subs	r3, r5, r6
     1c8:	429f      	cmp	r7, r3
     1ca:	dd05      	ble.n	1d8 <ble_read_conn_param+0x28>
		printf("%02x ", buf[i]);
     1cc:	7829      	ldrb	r1, [r5, #0]
     1ce:	4806      	ldr	r0, [pc, #24]	; (1e8 <ble_read_conn_param+0x38>)
     1d0:	f015 fc94 	bl	15afc <printf>
     1d4:	3501      	adds	r5, #1
     1d6:	e7f6      	b.n	1c6 <ble_read_conn_param+0x16>
	}
	printf("\r\n");
     1d8:	1de0      	adds	r0, r4, #7
     1da:	f015 fcd9 	bl	15b90 <puts>
}
     1de:	bdf8      	pop	{r3, r4, r5, r6, r7, pc}
     1e0:	0001fc9c 	.word	0x0001fc9c
     1e4:	0001fd1c 	.word	0x0001fd1c
     1e8:	0001fd1d 	.word	0x0001fd1d

000001ec <main>:

int main()
{	
     1ec:	b570      	push	{r4, r5, r6, lr}
	UART_RemapToPrintf(UARTB, GPIO_UART_TX, GPIO_UART_RX);
     1ee:	221c      	movs	r2, #28
	}
	printf("\r\n");
}

int main()
{	
     1f0:	b08e      	sub	sp, #56	; 0x38
	UART_RemapToPrintf(UARTB, GPIO_UART_TX, GPIO_UART_RX);
     1f2:	211b      	movs	r1, #27
     1f4:	2001      	movs	r0, #1
     1f6:	f001 fbc7 	bl	1988 <UART_RemapToPrintf>
	m_print("-----------%s[%s]-----------\r\n", MESH_VER, MESH_LVER);
     1fa:	4c35      	ldr	r4, [pc, #212]	; (2d0 <main+0xe4>)
     1fc:	0022      	movs	r2, r4
     1fe:	0021      	movs	r1, r4
     200:	0020      	movs	r0, r4
     202:	3209      	adds	r2, #9
     204:	310b      	adds	r1, #11
     206:	3011      	adds	r0, #17
     208:	f004 fbd0 	bl	49ac <m_print>
	M_PRINTF(L_APP,"mesh stack init start");
     20c:	4b31      	ldr	r3, [pc, #196]	; (2d4 <main+0xe8>)
     20e:	681a      	ldr	r2, [r3, #0]
     210:	001e      	movs	r6, r3
     212:	0493      	lsls	r3, r2, #18
     214:	d514      	bpl.n	240 <main+0x54>
     216:	0023      	movs	r3, r4
     218:	0022      	movs	r2, r4
     21a:	0020      	movs	r0, r4
     21c:	4d2e      	ldr	r5, [pc, #184]	; (2d8 <main+0xec>)
     21e:	334d      	adds	r3, #77	; 0x4d
     220:	0029      	movs	r1, r5
     222:	3237      	adds	r2, #55	; 0x37
     224:	9300      	str	r3, [sp, #0]
     226:	303e      	adds	r0, #62	; 0x3e
     228:	2378      	movs	r3, #120	; 0x78
     22a:	f004 fbbf 	bl	49ac <m_print>
     22e:	0020      	movs	r0, r4
     230:	3052      	adds	r0, #82	; 0x52
     232:	f004 fbbb 	bl	49ac <m_print>
     236:	0020      	movs	r0, r4
     238:	1da9      	adds	r1, r5, #6
     23a:	3068      	adds	r0, #104	; 0x68
     23c:	f004 fbb6 	bl	49ac <m_print>

	bool aliStatus = ali_config_data_init();
     240:	f003 ffc8 	bl	41d4 <ali_config_data_init>
	if(!aliStatus){
     244:	2800      	cmp	r0, #0
     246:	d118      	bne.n	27a <main+0x8e>
		M_PRINTF(L_APP,"ali parameter error!");
     248:	6833      	ldr	r3, [r6, #0]
     24a:	049b      	lsls	r3, r3, #18
     24c:	d514      	bpl.n	278 <main+0x8c>
     24e:	0023      	movs	r3, r4
     250:	0022      	movs	r2, r4
     252:	0020      	movs	r0, r4
     254:	4d20      	ldr	r5, [pc, #128]	; (2d8 <main+0xec>)
     256:	334d      	adds	r3, #77	; 0x4d
     258:	0029      	movs	r1, r5
     25a:	3237      	adds	r2, #55	; 0x37
     25c:	9300      	str	r3, [sp, #0]
     25e:	303e      	adds	r0, #62	; 0x3e
     260:	237c      	movs	r3, #124	; 0x7c
     262:	f004 fba3 	bl	49ac <m_print>
     266:	0020      	movs	r0, r4
     268:	306b      	adds	r0, #107	; 0x6b
     26a:	f004 fb9f 	bl	49ac <m_print>
     26e:	0020      	movs	r0, r4
     270:	1da9      	adds	r1, r5, #6
     272:	3068      	adds	r0, #104	; 0x68
     274:	f004 fb9a 	bl	49ac <m_print>
     278:	e7fe      	b.n	278 <main+0x8c>
		while(1);
	}
		
	uint8_t bt_addr[6];
	ali_config_mac_read(bt_addr, 0);
     27a:	2100      	movs	r1, #0
     27c:	a802      	add	r0, sp, #8
     27e:	f003 ff8b 	bl	4198 <ali_config_mac_read>
	mesh_mac_set(true, bt_addr);
     282:	a902      	add	r1, sp, #8
     284:	2001      	movs	r0, #1
     286:	f007 fc59 	bl	7b3c <mesh_mac_set>
	HWRITE(mem_tx_power,0x02);
     28a:	2202      	movs	r2, #2
     28c:	4b13      	ldr	r3, [pc, #76]	; (2dc <main+0xf0>)
	
	tIPCControlBlock cb;
	memset(&cb, 0, sizeof(tIPCControlBlock));
     28e:	2100      	movs	r1, #0
	}
		
	uint8_t bt_addr[6];
	ali_config_mac_read(bt_addr, 0);
	mesh_mac_set(true, bt_addr);
	HWRITE(mem_tx_power,0x02);
     290:	701a      	strb	r2, [r3, #0]
	
	tIPCControlBlock cb;
	memset(&cb, 0, sizeof(tIPCControlBlock));
     292:	a804      	add	r0, sp, #16
     294:	3226      	adds	r2, #38	; 0x26
     296:	f015 fbd9 	bl	15a4c <memset>
	cb.blecb = Bt_BleCallBack;
     29a:	4b11      	ldr	r3, [pc, #68]	; (2e0 <main+0xf4>)
	cb.evtcb = Event_call_back;
	cb.advcb = Mesh_Adv_Cb;
	//cb.readreqcb = ble_read_req_cb;
	cb.readconnparamcb = ble_read_conn_param;
	
	IPC_Initialize(&cb);	//Register callback function.
     29c:	a804      	add	r0, sp, #16
	mesh_mac_set(true, bt_addr);
	HWRITE(mem_tx_power,0x02);
	
	tIPCControlBlock cb;
	memset(&cb, 0, sizeof(tIPCControlBlock));
	cb.blecb = Bt_BleCallBack;
     29e:	9308      	str	r3, [sp, #32]
	cb.evtcb = Event_call_back;
     2a0:	4b10      	ldr	r3, [pc, #64]	; (2e4 <main+0xf8>)
     2a2:	9304      	str	r3, [sp, #16]
	cb.advcb = Mesh_Adv_Cb;
     2a4:	4b10      	ldr	r3, [pc, #64]	; (2e8 <main+0xfc>)
     2a6:	9309      	str	r3, [sp, #36]	; 0x24
	//cb.readreqcb = ble_read_req_cb;
	cb.readconnparamcb = ble_read_conn_param;
     2a8:	4b10      	ldr	r3, [pc, #64]	; (2ec <main+0x100>)
     2aa:	930d      	str	r3, [sp, #52]	; 0x34
	
	IPC_Initialize(&cb);	//Register callback function.
     2ac:	f000 fb88 	bl	9c0 <IPC_Initialize>

#if (BLE_MESH)	
	if(aliStatus){
		app_mesh_init();
     2b0:	f002 fb94 	bl	29dc <app_mesh_init>
		app_mesh_start();
     2b4:	f002 fbec 	bl	2a90 <app_mesh_start>
	}
#endif/*BLE_MESH*/
	//WDT_Enable();

	gatt_ota_init();
     2b8:	f000 fb26 	bl	908 <gatt_ota_init>

	while(1){
		#if (BLE_MESH)
		if(OTANONE == gatt_ota_state_get())
     2bc:	f000 f83c 	bl	338 <gatt_ota_state_get>
     2c0:	2800      	cmp	r0, #0
     2c2:	d101      	bne.n	2c8 <main+0xdc>
			bc_m_mesh_loop();
     2c4:	f008 fffc 	bl	92c0 <bc_m_mesh_loop>
		#endif/*BLE_MESH*/
		//WDT_Kick();

		//ble process
		mesh_ble_process();	
     2c8:	f007 f8fc 	bl	74c4 <mesh_ble_process>
	}
     2cc:	e7f6      	b.n	2bc <main+0xd0>
     2ce:	46c0      	nop			; (mov r8, r8)
     2d0:	0001fd1c 	.word	0x0001fd1c
     2d4:	10010514 	.word	0x10010514
     2d8:	0001fc9c 	.word	0x0001fc9c
     2dc:	10004291 	.word	0x10004291
     2e0:	00000099 	.word	0x00000099
     2e4:	000000f9 	.word	0x000000f9
     2e8:	00000165 	.word	0x00000165
     2ec:	000001b1 	.word	0x000001b1

000002f0 <gatt_ota_start>:
void gatt_ota_start(void)
{
	//stop adv timer
//	SYS_ReleaseTimer(&stGattOtaAdvTimer);
	
	StartOtaFlag = NOSTART;
     2f0:	2201      	movs	r2, #1
     2f2:	4b07      	ldr	r3, [pc, #28]	; (310 <gatt_ota_start+0x20>)

/*used to period set Gatt Ota adv data*/
//static SYS_TIMER_TYPE stGattOtaAdvTimer;//peroid timer	

void gatt_ota_start(void)
{
     2f4:	b510      	push	{r4, lr}
	//stop adv timer
//	SYS_ReleaseTimer(&stGattOtaAdvTimer);
	
	StartOtaFlag = NOSTART;
	IPC_TxControlCmd(IPC_CMD_MTU_EXCHANGE);
     2f6:	2021      	movs	r0, #33	; 0x21
void gatt_ota_start(void)
{
	//stop adv timer
//	SYS_ReleaseTimer(&stGattOtaAdvTimer);
	
	StartOtaFlag = NOSTART;
     2f8:	701a      	strb	r2, [r3, #0]
	IPC_TxControlCmd(IPC_CMD_MTU_EXCHANGE);
     2fa:	f000 fc18 	bl	b2e <IPC_TxControlCmd>
	HWRITE(mem_le_scan_enable,0x00);//stop scan
     2fe:	2300      	movs	r3, #0
     300:	4a04      	ldr	r2, [pc, #16]	; (314 <gatt_ota_start+0x24>)
	HWRITE(mem_le_adv_enable,0x00);//stop adv

	IPC_TxControlCmd(IPC_CMD_UPDATA_CONN);
     302:	2012      	movs	r0, #18
	//stop adv timer
//	SYS_ReleaseTimer(&stGattOtaAdvTimer);
	
	StartOtaFlag = NOSTART;
	IPC_TxControlCmd(IPC_CMD_MTU_EXCHANGE);
	HWRITE(mem_le_scan_enable,0x00);//stop scan
     304:	7013      	strb	r3, [r2, #0]
	HWRITE(mem_le_adv_enable,0x00);//stop adv
     306:	4a04      	ldr	r2, [pc, #16]	; (318 <gatt_ota_start+0x28>)
     308:	7013      	strb	r3, [r2, #0]

	IPC_TxControlCmd(IPC_CMD_UPDATA_CONN);
     30a:	f000 fc10 	bl	b2e <IPC_TxControlCmd>
}
     30e:	bd10      	pop	{r4, pc}
     310:	10010f60 	.word	0x10010f60
     314:	100043ab 	.word	0x100043ab
     318:	100043b1 	.word	0x100043b1

0000031c <gatt_ota_stop>:

void gatt_ota_stop(void)
{
	StartOtaFlag = OTANONE;
     31c:	2200      	movs	r2, #0

	IPC_TxControlCmd(IPC_CMD_UPDATA_CONN);
}

void gatt_ota_stop(void)
{
     31e:	b510      	push	{r4, lr}
	StartOtaFlag = OTANONE;
     320:	4b03      	ldr	r3, [pc, #12]	; (330 <gatt_ota_stop+0x14>)
     322:	701a      	strb	r2, [r3, #0]
	HWRITE(mem_le_scan_enable,0x01);//enable scan
     324:	4b03      	ldr	r3, [pc, #12]	; (334 <gatt_ota_stop+0x18>)
     326:	3201      	adds	r2, #1
     328:	701a      	strb	r2, [r3, #0]
	//start adv timer
	gatt_ota_init();
     32a:	f000 faed 	bl	908 <gatt_ota_init>
}
     32e:	bd10      	pop	{r4, pc}
     330:	10010f60 	.word	0x10010f60
     334:	100043ab 	.word	0x100043ab

00000338 <gatt_ota_state_get>:

uint8_t gatt_ota_state_get(void)
{
	return StartOtaFlag;
     338:	4b01      	ldr	r3, [pc, #4]	; (340 <gatt_ota_state_get+0x8>)
     33a:	7818      	ldrb	r0, [r3, #0]
}
     33c:	4770      	bx	lr
     33e:	46c0      	nop			; (mov r8, r8)
     340:	10010f60 	.word	0x10010f60

00000344 <ota_prog_addr>:
  *@param None.
  *@@return 1:running app one
			2:running app two
  */
uint8_t ota_prog_addr()
{
     344:	b513      	push	{r0, r1, r4, lr}
	uint8_t saddr[3]; 
	uint32_t uintStart;
	QSPI_Init();
	QSPI_ReadFlashData(0,3,saddr);//从flash的特定地址读出数据
     346:	ac01      	add	r4, sp, #4
  */
uint8_t ota_prog_addr()
{
	uint8_t saddr[3]; 
	uint32_t uintStart;
	QSPI_Init();
     348:	f001 f8a4 	bl	1494 <QSPI_Init>
	QSPI_ReadFlashData(0,3,saddr);//从flash的特定地址读出数据
     34c:	0022      	movs	r2, r4
     34e:	2103      	movs	r1, #3
     350:	2000      	movs	r0, #0
     352:	f000 fda5 	bl	ea0 <QSPI_ReadFlashData>
	uintStart = ((saddr[0] << 16) + (saddr[1] << 8) + saddr[2]);
	//M_PRINTF(L_APP, "uintStart[%x]", uintStart);
	if(uintStart == CODE_UPGRADE_START_ADDR+PAGE_SIZE+3){
     356:	7820      	ldrb	r0, [r4, #0]
     358:	7863      	ldrb	r3, [r4, #1]
     35a:	0400      	lsls	r0, r0, #16
     35c:	021b      	lsls	r3, r3, #8
     35e:	18c0      	adds	r0, r0, r3
     360:	78a3      	ldrb	r3, [r4, #2]
     362:	18c0      	adds	r0, r0, r3
		return APP_TWO;
	}
	return APP_ONE;
     364:	4b02      	ldr	r3, [pc, #8]	; (370 <ota_prog_addr+0x2c>)
     366:	18c0      	adds	r0, r0, r3
     368:	4243      	negs	r3, r0
     36a:	4158      	adcs	r0, r3
     36c:	3001      	adds	r0, #1
}
     36e:	bd16      	pop	{r1, r2, r4, pc}
     370:	fffc1efd 	.word	0xfffc1efd

00000374 <ota_crc16_ccitt>:

int ota_crc16_ccitt(int crc, int c)
{
	crc  = (crc >> 8) | (crc << 8);
     374:	1203      	asrs	r3, r0, #8
     376:	0200      	lsls	r0, r0, #8
     378:	4318      	orrs	r0, r3
	crc ^= c & 0xff;	
	crc ^= (crc & 0xff) >> 4;	
	crc ^= crc << 12;	
	crc ^= (crc & 0xff) << 5;	
     37a:	23ff      	movs	r3, #255	; 0xff
}

int ota_crc16_ccitt(int crc, int c)
{
	crc  = (crc >> 8) | (crc << 8);
	crc ^= c & 0xff;	
     37c:	b2c9      	uxtb	r1, r1
     37e:	4048      	eors	r0, r1
	crc ^= (crc & 0xff) >> 4;	
     380:	0601      	lsls	r1, r0, #24
     382:	0f09      	lsrs	r1, r1, #28
     384:	4048      	eors	r0, r1
	crc ^= crc << 12;	
     386:	0301      	lsls	r1, r0, #12
     388:	4048      	eors	r0, r1
	crc ^= (crc & 0xff) << 5;	
     38a:	0142      	lsls	r2, r0, #5
     38c:	015b      	lsls	r3, r3, #5
     38e:	4013      	ands	r3, r2
     390:	4058      	eors	r0, r3
	crc &= 0xffff;	
	return crc;
     392:	b280      	uxth	r0, r0
}
     394:	4770      	bx	lr

00000396 <ota_calc_crc>:

uint16_t ota_calc_crc(uint32_t flashaddr,uint32_t len)
{
     396:	000b      	movs	r3, r1
     398:	b5f0      	push	{r4, r5, r6, r7, lr}
     39a:	33ff      	adds	r3, #255	; 0xff
     39c:	b0c5      	sub	sp, #276	; 0x114
     39e:	0a1b      	lsrs	r3, r3, #8
     3a0:	9303      	str	r3, [sp, #12]
	int i,j,crc;
	uint8_t readbyte[256];
	uint32_t readlen = 0;
	uint32_t readtimes = (len+READ_UINT-1)/READ_UINT;
	crc=0xffff;
	for(i=0;i< readtimes; i++){
     3a2:	2300      	movs	r3, #0
	crc &= 0xffff;	
	return crc;
}

uint16_t ota_calc_crc(uint32_t flashaddr,uint32_t len)
{
     3a4:	000e      	movs	r6, r1
	int i,j,crc;
	uint8_t readbyte[256];
	uint32_t readlen = 0;
	uint32_t readtimes = (len+READ_UINT-1)/READ_UINT;
	crc=0xffff;
     3a6:	4f15      	ldr	r7, [pc, #84]	; (3fc <ota_calc_crc+0x66>)
	crc &= 0xffff;	
	return crc;
}

uint16_t ota_calc_crc(uint32_t flashaddr,uint32_t len)
{
     3a8:	9002      	str	r0, [sp, #8]
	int i,j,crc;
	uint8_t readbyte[256];
	uint32_t readlen = 0;
	uint32_t readtimes = (len+READ_UINT-1)/READ_UINT;
	crc=0xffff;
	for(i=0;i< readtimes; i++){
     3aa:	9301      	str	r3, [sp, #4]
     3ac:	9b01      	ldr	r3, [sp, #4]
     3ae:	9a03      	ldr	r2, [sp, #12]
     3b0:	4293      	cmp	r3, r2
     3b2:	d01f      	beq.n	3f4 <ota_calc_crc+0x5e>
		readlen = len > READ_UINT ? READ_UINT : len;
     3b4:	2380      	movs	r3, #128	; 0x80
     3b6:	0034      	movs	r4, r6
     3b8:	005b      	lsls	r3, r3, #1
     3ba:	429e      	cmp	r6, r3
     3bc:	d900      	bls.n	3c0 <ota_calc_crc+0x2a>
     3be:	001c      	movs	r4, r3

		QSPI_Init();
		QSPI_ReadFlashData(flashaddr,readlen,readbyte);
		flashaddr += readlen;
		len -= readlen;
		for(j=0;j<readlen;j++) {
     3c0:	2500      	movs	r5, #0
	uint32_t readtimes = (len+READ_UINT-1)/READ_UINT;
	crc=0xffff;
	for(i=0;i< readtimes; i++){
		readlen = len > READ_UINT ? READ_UINT : len;

		QSPI_Init();
     3c2:	f001 f867 	bl	1494 <QSPI_Init>
		QSPI_ReadFlashData(flashaddr,readlen,readbyte);
     3c6:	aa04      	add	r2, sp, #16
     3c8:	0021      	movs	r1, r4
     3ca:	9802      	ldr	r0, [sp, #8]
     3cc:	f000 fd68 	bl	ea0 <QSPI_ReadFlashData>
		flashaddr += readlen;
     3d0:	9b02      	ldr	r3, [sp, #8]
		len -= readlen;
     3d2:	1b36      	subs	r6, r6, r4
	for(i=0;i< readtimes; i++){
		readlen = len > READ_UINT ? READ_UINT : len;

		QSPI_Init();
		QSPI_ReadFlashData(flashaddr,readlen,readbyte);
		flashaddr += readlen;
     3d4:	191b      	adds	r3, r3, r4
     3d6:	9302      	str	r3, [sp, #8]
		len -= readlen;
		for(j=0;j<readlen;j++) {
     3d8:	42a5      	cmp	r5, r4
     3da:	d007      	beq.n	3ec <ota_calc_crc+0x56>
			crc = ota_crc16_ccitt(crc,*(readbyte+j));
     3dc:	ab04      	add	r3, sp, #16
     3de:	5d59      	ldrb	r1, [r3, r5]
     3e0:	0038      	movs	r0, r7
     3e2:	f7ff ffc7 	bl	374 <ota_crc16_ccitt>

		QSPI_Init();
		QSPI_ReadFlashData(flashaddr,readlen,readbyte);
		flashaddr += readlen;
		len -= readlen;
		for(j=0;j<readlen;j++) {
     3e6:	3501      	adds	r5, #1
			crc = ota_crc16_ccitt(crc,*(readbyte+j));
     3e8:	0007      	movs	r7, r0
     3ea:	e7f5      	b.n	3d8 <ota_calc_crc+0x42>
	int i,j,crc;
	uint8_t readbyte[256];
	uint32_t readlen = 0;
	uint32_t readtimes = (len+READ_UINT-1)/READ_UINT;
	crc=0xffff;
	for(i=0;i< readtimes; i++){
     3ec:	9b01      	ldr	r3, [sp, #4]
     3ee:	3301      	adds	r3, #1
     3f0:	9301      	str	r3, [sp, #4]
     3f2:	e7db      	b.n	3ac <ota_calc_crc+0x16>
		len -= readlen;
		for(j=0;j<readlen;j++) {
			crc = ota_crc16_ccitt(crc,*(readbyte+j));
		}
	}
	return crc;
     3f4:	b2b8      	uxth	r0, r7
}
     3f6:	b045      	add	sp, #276	; 0x114
     3f8:	bdf0      	pop	{r4, r5, r6, r7, pc}
     3fa:	46c0      	nop			; (mov r8, r8)
     3fc:	0000ffff 	.word	0x0000ffff

00000400 <ota_prog_switch>:

void ota_prog_switch()
{
     400:	b537      	push	{r0, r1, r2, r4, r5, lr}
	uint8_t bootaddr[3]; 
	uint32_t startAddr;
	if(ota_prog_addr()==APP_TWO){
     402:	f7ff ff9f 	bl	344 <ota_prog_addr>
     406:	2802      	cmp	r0, #2
     408:	d001      	beq.n	40e <ota_prog_switch+0xe>
		startAddr = CODE_START_ADDR+PAGE_SIZE+3;
		
	}else{
		startAddr = CODE_UPGRADE_START_ADDR+PAGE_SIZE+3;
     40a:	4b0c      	ldr	r3, [pc, #48]	; (43c <ota_prog_switch+0x3c>)
     40c:	e001      	b.n	412 <ota_prog_switch+0x12>
void ota_prog_switch()
{
	uint8_t bootaddr[3]; 
	uint32_t startAddr;
	if(ota_prog_addr()==APP_TWO){
		startAddr = CODE_START_ADDR+PAGE_SIZE+3;
     40e:	2304      	movs	r3, #4
     410:	33ff      	adds	r3, #255	; 0xff
	}else{
		startAddr = CODE_UPGRADE_START_ADDR+PAGE_SIZE+3;
	}
	bootaddr[0] = (startAddr>>16)&0xff;
	bootaddr[1] = (startAddr>> 8)&0xff;
	bootaddr[2] = (startAddr>> 0)&0xff;
     412:	2503      	movs	r5, #3
		startAddr = CODE_START_ADDR+PAGE_SIZE+3;
		
	}else{
		startAddr = CODE_UPGRADE_START_ADDR+PAGE_SIZE+3;
	}
	bootaddr[0] = (startAddr>>16)&0xff;
     414:	ac01      	add	r4, sp, #4
     416:	0c1a      	lsrs	r2, r3, #16
	bootaddr[1] = (startAddr>> 8)&0xff;
     418:	0a1b      	lsrs	r3, r3, #8
     41a:	7063      	strb	r3, [r4, #1]
		startAddr = CODE_START_ADDR+PAGE_SIZE+3;
		
	}else{
		startAddr = CODE_UPGRADE_START_ADDR+PAGE_SIZE+3;
	}
	bootaddr[0] = (startAddr>>16)&0xff;
     41c:	7022      	strb	r2, [r4, #0]
	bootaddr[1] = (startAddr>> 8)&0xff;
	bootaddr[2] = (startAddr>> 0)&0xff;
     41e:	70a5      	strb	r5, [r4, #2]
	//m_printf_hex(L_APP, "ota_prog_switch", bootaddr, 3);
	QSPI_Init();
     420:	f001 f838 	bl	1494 <QSPI_Init>
	QSPI_PageEraseFlash(0x00);
     424:	2000      	movs	r0, #0
     426:	f000 ffbb 	bl	13a0 <QSPI_PageEraseFlash>
	//QSPI_SectorEraseFlash(0x00);
	QSPI_WriteFlashData(0x00,3,bootaddr);
     42a:	0029      	movs	r1, r5
     42c:	0022      	movs	r2, r4
     42e:	2000      	movs	r0, #0
     430:	f000 fe76 	bl	1120 <QSPI_WriteFlashData>
	HW_REG_8BIT(reg_map(CORE_RESET),0x03);
     434:	4b02      	ldr	r3, [pc, #8]	; (440 <ota_prog_switch+0x40>)
     436:	701d      	strb	r5, [r3, #0]
}
     438:	bd37      	pop	{r0, r1, r2, r4, r5, pc}
     43a:	46c0      	nop			; (mov r8, r8)
     43c:	0003e103 	.word	0x0003e103
     440:	10008010 	.word	0x10008010

00000444 <ota_code_crc>:
  *@param None.
  *@return !0: fail.
			0: pass.
*/
int8_t ota_code_crc(uint32_t len)
{
     444:	b5f0      	push	{r4, r5, r6, r7, lr}
     446:	b087      	sub	sp, #28
     448:	9003      	str	r0, [sp, #12]
	uint32_t flashaddr,flashaddrS,varaddr;
	uint8_t readbuf[4];
	uint32_t length = 0;
	uint16_t crc;
	//step1:get app flashaddr	
	if(ota_prog_addr() == APP_TWO){ //check out addr 0x1000 code
     44a:	f7ff ff7b 	bl	344 <ota_prog_addr>
     44e:	2802      	cmp	r0, #2
     450:	d102      	bne.n	458 <ota_code_crc+0x14>
		flashaddrS = CODE_START_ADDR+PAGE_SIZE+3;//0x2003;
     452:	2704      	movs	r7, #4
     454:	37ff      	adds	r7, #255	; 0xff
     456:	e000      	b.n	45a <ota_code_crc+0x16>
	}
	else{
		flashaddrS = CODE_UPGRADE_START_ADDR+PAGE_SIZE+3;//0x40003;
     458:	4f5a      	ldr	r7, [pc, #360]	; (5c4 <ota_code_crc+0x180>)
	}
	flashaddr = flashaddrS;

	//step2:get 0xaa55 and length	
	QSPI_Init();
	QSPI_ReadFlashData(flashaddr,4,readbuf);
     45a:	ac05      	add	r4, sp, #20
		flashaddrS = CODE_UPGRADE_START_ADDR+PAGE_SIZE+3;//0x40003;
	}
	flashaddr = flashaddrS;

	//step2:get 0xaa55 and length	
	QSPI_Init();
     45c:	f001 f81a 	bl	1494 <QSPI_Init>
	QSPI_ReadFlashData(flashaddr,4,readbuf);
     460:	0022      	movs	r2, r4
     462:	2104      	movs	r1, #4
     464:	0038      	movs	r0, r7
     466:	f000 fd1b 	bl	ea0 <QSPI_ReadFlashData>
	if(!(*readbuf == 0xaa && *(readbuf+1) == 0x55))
     46a:	7823      	ldrb	r3, [r4, #0]
     46c:	2baa      	cmp	r3, #170	; 0xaa
     46e:	d000      	beq.n	472 <ota_code_crc+0x2e>
     470:	e091      	b.n	596 <ota_code_crc+0x152>
     472:	7863      	ldrb	r3, [r4, #1]
     474:	2b55      	cmp	r3, #85	; 0x55
     476:	d000      	beq.n	47a <ota_code_crc+0x36>
     478:	e08d      	b.n	596 <ota_code_crc+0x152>
		return -1;
	length |= *(readbuf+2);
	length |= *(readbuf+3)<<8;
     47a:	8863      	ldrh	r3, [r4, #2]
	flashaddr += 4;
     47c:	1d3d      	adds	r5, r7, #4

	//step3:get bt code
	crc = ota_calc_crc(flashaddr,length-2);	
     47e:	1e99      	subs	r1, r3, #2
     480:	0028      	movs	r0, r5
	QSPI_Init();
	QSPI_ReadFlashData(flashaddr,4,readbuf);
	if(!(*readbuf == 0xaa && *(readbuf+1) == 0x55))
		return -1;
	length |= *(readbuf+2);
	length |= *(readbuf+3)<<8;
     482:	9301      	str	r3, [sp, #4]
	flashaddr += 4;

	//step3:get bt code
	crc = ota_calc_crc(flashaddr,length-2);	
     484:	f7ff ff87 	bl	396 <ota_calc_crc>
     488:	0006      	movs	r6, r0
	flashaddr += length;
     48a:	9b01      	ldr	r3, [sp, #4]
     48c:	195d      	adds	r5, r3, r5

	//step4:compare to bt code crc
	QSPI_Init();
     48e:	f001 f801 	bl	1494 <QSPI_Init>
	QSPI_ReadFlashData(flashaddr-2,2,readbuf);
     492:	0022      	movs	r2, r4
     494:	1ea8      	subs	r0, r5, #2
     496:	2102      	movs	r1, #2
     498:	f000 fd02 	bl	ea0 <QSPI_ReadFlashData>

	if(!(*(readbuf+1) == (crc&0xff) && *readbuf == ((crc>>8)&0xff)))
     49c:	7862      	ldrb	r2, [r4, #1]
     49e:	b2f3      	uxtb	r3, r6
     4a0:	429a      	cmp	r2, r3
     4a2:	d17b      	bne.n	59c <ota_code_crc+0x158>
     4a4:	0a36      	lsrs	r6, r6, #8
     4a6:	7823      	ldrb	r3, [r4, #0]
     4a8:	b2b6      	uxth	r6, r6
     4aa:	42b3      	cmp	r3, r6
     4ac:	d176      	bne.n	59c <ota_code_crc+0x158>
		return -2;

	//step5:skip variable data
	while(1){
		length = 0;
		QSPI_Init();
     4ae:	f000 fff1 	bl	1494 <QSPI_Init>
		QSPI_ReadFlashData(flashaddr,4,readbuf);
     4b2:	0022      	movs	r2, r4
     4b4:	2104      	movs	r1, #4
     4b6:	0028      	movs	r0, r5
     4b8:	f000 fcf2 	bl	ea0 <QSPI_ReadFlashData>
		if(!(*readbuf == 0xaa && *(readbuf+1) == 0x55))
     4bc:	7823      	ldrb	r3, [r4, #0]
     4be:	2baa      	cmp	r3, #170	; 0xaa
     4c0:	d16f      	bne.n	5a2 <ota_code_crc+0x15e>
     4c2:	7863      	ldrb	r3, [r4, #1]
     4c4:	2b55      	cmp	r3, #85	; 0x55
     4c6:	d16c      	bne.n	5a2 <ota_code_crc+0x15e>
			return -3;
		length |= *(readbuf+2);
		length |= *(readbuf+3)<<8;

		flashaddr = flashaddr+length+6;
     4c8:	8866      	ldrh	r6, [r4, #2]
		QSPI_Init();
     4ca:	f000 ffe3 	bl	1494 <QSPI_Init>
		if(!(*readbuf == 0xaa && *(readbuf+1) == 0x55))
			return -3;
		length |= *(readbuf+2);
		length |= *(readbuf+3)<<8;

		flashaddr = flashaddr+length+6;
     4ce:	1976      	adds	r6, r6, r5
     4d0:	1db5      	adds	r5, r6, #6
		QSPI_Init();
		QSPI_ReadFlashData(flashaddr,1,readbuf);
     4d2:	0022      	movs	r2, r4
     4d4:	2101      	movs	r1, #1
     4d6:	0028      	movs	r0, r5
     4d8:	f000 fce2 	bl	ea0 <QSPI_ReadFlashData>
		if(*readbuf == 0xff)
     4dc:	7823      	ldrb	r3, [r4, #0]
     4de:	9301      	str	r3, [sp, #4]
     4e0:	2bff      	cmp	r3, #255	; 0xff
     4e2:	d1e4      	bne.n	4ae <ota_code_crc+0x6a>
		{	
			QSPI_ReadFlashData(flashaddr-3,3,readbuf);
     4e4:	1cf0      	adds	r0, r6, #3
     4e6:	2103      	movs	r1, #3
     4e8:	0022      	movs	r2, r4
     4ea:	f000 fcd9 	bl	ea0 <QSPI_ReadFlashData>
			varaddr  = *(readbuf);
			varaddr |= *(readbuf+1) << 8;
			varaddr |= *(readbuf+2) << 24;
     4ee:	7865      	ldrb	r5, [r4, #1]
     4f0:	78a3      	ldrb	r3, [r4, #2]
		QSPI_Init();
		QSPI_ReadFlashData(flashaddr,1,readbuf);
		if(*readbuf == 0xff)
		{	
			QSPI_ReadFlashData(flashaddr-3,3,readbuf);
			varaddr  = *(readbuf);
     4f2:	7822      	ldrb	r2, [r4, #0]
			varaddr |= *(readbuf+1) << 8;
			varaddr |= *(readbuf+2) << 24;
     4f4:	061b      	lsls	r3, r3, #24
     4f6:	022d      	lsls	r5, r5, #8
     4f8:	431d      	orrs	r5, r3
     4fa:	4315      	orrs	r5, r2
			break;	
		}
	}
	flashaddr++;
	//step6:get m0 code
	QSPI_Init();
     4fc:	f000 ffca 	bl	1494 <QSPI_Init>
	QSPI_ReadFlashData(flashaddr,4,readbuf);
     500:	1df0      	adds	r0, r6, #7
     502:	0022      	movs	r2, r4
     504:	2104      	movs	r1, #4
     506:	f000 fccb 	bl	ea0 <QSPI_ReadFlashData>
	if(!(*readbuf == 0xaa && *(readbuf+1) == 0x55))
     50a:	7823      	ldrb	r3, [r4, #0]
     50c:	2baa      	cmp	r3, #170	; 0xaa
     50e:	d14b      	bne.n	5a8 <ota_code_crc+0x164>
     510:	7863      	ldrb	r3, [r4, #1]
     512:	2b55      	cmp	r3, #85	; 0x55
     514:	d148      	bne.n	5a8 <ota_code_crc+0x164>
	length = 0;
	length |= *(readbuf+2);
	length |= *(readbuf+3)<<8;
	flashaddr += 4;
	
	if(((len - varaddr - 2)&0x00ffff) != length){
     516:	9b03      	ldr	r3, [sp, #12]
     518:	8862      	ldrh	r2, [r4, #2]
     51a:	1b5d      	subs	r5, r3, r5
     51c:	1eab      	subs	r3, r5, #2
	if(!(*readbuf == 0xaa && *(readbuf+1) == 0x55))
		return -5;
	length = 0;
	length |= *(readbuf+2);
	length |= *(readbuf+3)<<8;
	flashaddr += 4;
     51e:	360b      	adds	r6, #11
	
	if(((len - varaddr - 2)&0x00ffff) != length){
     520:	b29b      	uxth	r3, r3
	if(!(*readbuf == 0xaa && *(readbuf+1) == 0x55))
		return -5;
	length = 0;
	length |= *(readbuf+2);
	length |= *(readbuf+3)<<8;
	flashaddr += 4;
     522:	9602      	str	r6, [sp, #8]
	
	if(((len - varaddr - 2)&0x00ffff) != length){
     524:	429a      	cmp	r2, r3
     526:	d142      	bne.n	5ae <ota_code_crc+0x16a>
		return -6;
	}
	crc = ota_calc_crc(flashaddr,(len-varaddr-4));
     528:	1f29      	subs	r1, r5, #4
     52a:	0030      	movs	r0, r6
     52c:	f7ff ff33 	bl	396 <ota_calc_crc>
     530:	0006      	movs	r6, r0
	//flashaddr += length;
	flashaddr += (len-varaddr-2);
     532:	9b02      	ldr	r3, [sp, #8]
     534:	195d      	adds	r5, r3, r5
	//step7: compare m0 code crc
	QSPI_Init();
     536:	f000 ffad 	bl	1494 <QSPI_Init>
	QSPI_ReadFlashData(flashaddr-2,2,readbuf);
     53a:	0022      	movs	r2, r4
     53c:	1f28      	subs	r0, r5, #4
     53e:	2102      	movs	r1, #2
     540:	f000 fcae 	bl	ea0 <QSPI_ReadFlashData>

	if(!(*(readbuf+1) == (crc&0xff) && *readbuf == ((crc>>8)&0xff)))
     544:	9b01      	ldr	r3, [sp, #4]
     546:	7862      	ldrb	r2, [r4, #1]
     548:	4033      	ands	r3, r6
     54a:	429a      	cmp	r2, r3
     54c:	d132      	bne.n	5b4 <ota_code_crc+0x170>
     54e:	0a36      	lsrs	r6, r6, #8
     550:	7823      	ldrb	r3, [r4, #0]
     552:	b2b6      	uxth	r6, r6
     554:	42b3      	cmp	r3, r6
     556:	d12d      	bne.n	5b4 <ota_code_crc+0x170>
	if(((len - varaddr - 2)&0x00ffff) != length){
		return -6;
	}
	crc = ota_calc_crc(flashaddr,(len-varaddr-4));
	//flashaddr += length;
	flashaddr += (len-varaddr-2);
     558:	3d02      	subs	r5, #2

	//step8: calc all crc
	length = flashaddr - flashaddrS; 
	flashaddr = flashaddrS;

	crc = ota_calc_crc( flashaddr, length);
     55a:	1be9      	subs	r1, r5, r7
     55c:	0038      	movs	r0, r7
     55e:	f7ff ff1a 	bl	396 <ota_calc_crc>
     562:	0006      	movs	r6, r0
	flashaddr += length;
	
	//step9: compare all code crc
	printf("last crc addr= %lx\n",flashaddr);
     564:	4818      	ldr	r0, [pc, #96]	; (5c8 <ota_code_crc+0x184>)
     566:	0029      	movs	r1, r5
     568:	3009      	adds	r0, #9
     56a:	f015 fac7 	bl	15afc <printf>
	QSPI_Init();
     56e:	f000 ff91 	bl	1494 <QSPI_Init>
	QSPI_ReadFlashData(flashaddr,2,readbuf);
     572:	0022      	movs	r2, r4
     574:	2102      	movs	r1, #2
     576:	0028      	movs	r0, r5
     578:	f000 fc92 	bl	ea0 <QSPI_ReadFlashData>
	
	if(!(*(readbuf+1) == (crc&0xff) && *readbuf == ((crc>>8)&0xff)))
     57c:	9b01      	ldr	r3, [sp, #4]
     57e:	7862      	ldrb	r2, [r4, #1]
     580:	4033      	ands	r3, r6
     582:	429a      	cmp	r2, r3
     584:	d119      	bne.n	5ba <ota_code_crc+0x176>
     586:	0a36      	lsrs	r6, r6, #8
     588:	7823      	ldrb	r3, [r4, #0]
     58a:	b2b6      	uxth	r6, r6
		return -8;

	return 0;
     58c:	2000      	movs	r0, #0
	//step9: compare all code crc
	printf("last crc addr= %lx\n",flashaddr);
	QSPI_Init();
	QSPI_ReadFlashData(flashaddr,2,readbuf);
	
	if(!(*(readbuf+1) == (crc&0xff) && *readbuf == ((crc>>8)&0xff)))
     58e:	42b3      	cmp	r3, r6
     590:	d015      	beq.n	5be <ota_code_crc+0x17a>
		return -8;
     592:	3808      	subs	r0, #8
     594:	e013      	b.n	5be <ota_code_crc+0x17a>

	//step2:get 0xaa55 and length	
	QSPI_Init();
	QSPI_ReadFlashData(flashaddr,4,readbuf);
	if(!(*readbuf == 0xaa && *(readbuf+1) == 0x55))
		return -1;
     596:	2001      	movs	r0, #1
     598:	4240      	negs	r0, r0
     59a:	e010      	b.n	5be <ota_code_crc+0x17a>
	//step4:compare to bt code crc
	QSPI_Init();
	QSPI_ReadFlashData(flashaddr-2,2,readbuf);

	if(!(*(readbuf+1) == (crc&0xff) && *readbuf == ((crc>>8)&0xff)))
		return -2;
     59c:	2002      	movs	r0, #2
     59e:	4240      	negs	r0, r0
     5a0:	e00d      	b.n	5be <ota_code_crc+0x17a>
	while(1){
		length = 0;
		QSPI_Init();
		QSPI_ReadFlashData(flashaddr,4,readbuf);
		if(!(*readbuf == 0xaa && *(readbuf+1) == 0x55))
			return -3;
     5a2:	2003      	movs	r0, #3
     5a4:	4240      	negs	r0, r0
     5a6:	e00a      	b.n	5be <ota_code_crc+0x17a>
	flashaddr++;
	//step6:get m0 code
	QSPI_Init();
	QSPI_ReadFlashData(flashaddr,4,readbuf);
	if(!(*readbuf == 0xaa && *(readbuf+1) == 0x55))
		return -5;
     5a8:	2005      	movs	r0, #5
     5aa:	4240      	negs	r0, r0
     5ac:	e007      	b.n	5be <ota_code_crc+0x17a>
	length |= *(readbuf+2);
	length |= *(readbuf+3)<<8;
	flashaddr += 4;
	
	if(((len - varaddr - 2)&0x00ffff) != length){
		return -6;
     5ae:	2006      	movs	r0, #6
     5b0:	4240      	negs	r0, r0
     5b2:	e004      	b.n	5be <ota_code_crc+0x17a>
	//step7: compare m0 code crc
	QSPI_Init();
	QSPI_ReadFlashData(flashaddr-2,2,readbuf);

	if(!(*(readbuf+1) == (crc&0xff) && *readbuf == ((crc>>8)&0xff)))
		return -7;
     5b4:	2007      	movs	r0, #7
     5b6:	4240      	negs	r0, r0
     5b8:	e001      	b.n	5be <ota_code_crc+0x17a>
	printf("last crc addr= %lx\n",flashaddr);
	QSPI_Init();
	QSPI_ReadFlashData(flashaddr,2,readbuf);
	
	if(!(*(readbuf+1) == (crc&0xff) && *readbuf == ((crc>>8)&0xff)))
		return -8;
     5ba:	2008      	movs	r0, #8
     5bc:	4240      	negs	r0, r0

	return 0;
}
     5be:	b007      	add	sp, #28
     5c0:	bdf0      	pop	{r4, r5, r6, r7, pc}
     5c2:	46c0      	nop			; (mov r8, r8)
     5c4:	0003e103 	.word	0x0003e103
     5c8:	0001fd9c 	.word	0x0001fd9c

000005cc <Ble_SendDataSimple>:


void Ble_SendDataSimple(uint16_t handle, uint8_t* data, uint16_t len)//eg handle = 0x0008
{	
     5cc:	b510      	push	{r4, lr}
	int cnt;
	if(len<0 || len>20)
     5ce:	2a14      	cmp	r2, #20
     5d0:	d801      	bhi.n	5d6 <Ble_SendDataSimple+0xa>
     5d2:	f000 f9b5 	bl	940 <Ble_SendDataSimple.part.0>
	//	memcpy(dataAy,data,len);
	for(cnt=0; cnt<len+2; cnt++)
		*(dataAy+cnt) = *(data+cnt);
		
	IPC_TxPacket(temp);
}
     5d6:	bd10      	pop	{r4, pc}

000005d8 <OTA_flash_init>:
**/
static uint32_t otaErasePage;
static uint32_t writeAddr;
uint8_t OTA_flash_init(uint32_t startAdd)
{
	otaErasePage = startAdd&PAGE_MASK;
     5d8:	23ff      	movs	r3, #255	; 0xff
     5da:	0002      	movs	r2, r0
 ** return !0:write failed.
**/
static uint32_t otaErasePage;
static uint32_t writeAddr;
uint8_t OTA_flash_init(uint32_t startAdd)
{
     5dc:	b510      	push	{r4, lr}
	otaErasePage = startAdd&PAGE_MASK;
     5de:	4c05      	ldr	r4, [pc, #20]	; (5f4 <OTA_flash_init+0x1c>)
     5e0:	439a      	bics	r2, r3
     5e2:	60a2      	str	r2, [r4, #8]
	writeAddr = startAdd;
     5e4:	60e0      	str	r0, [r4, #12]
	QSPI_Init();
     5e6:	f000 ff55 	bl	1494 <QSPI_Init>
	QSPI_PageEraseFlash(otaErasePage);
     5ea:	68a0      	ldr	r0, [r4, #8]
     5ec:	f000 fed8 	bl	13a0 <QSPI_PageEraseFlash>
	return 0;
}
     5f0:	2000      	movs	r0, #0
     5f2:	bd10      	pop	{r4, pc}
     5f4:	10010f60 	.word	0x10010f60

000005f8 <OTA_WriteFlash>:

uint8_t OTA_WriteFlash(uint32_t flashaddr, uint32_t len, uint8_t* data)
{
     5f8:	b5f0      	push	{r4, r5, r6, r7, lr}
	//	if(data[i]!=tbuf[i])
	//		return -1;
	//}
	//erase reserve byte of page
	//M_PRINTF(L_APP, "flashaddr[%x] otaErasePage[%x] writeAddr[%x]", flashaddr, otaErasePage, writeAddr);
	if(writeAddr > flashaddr){//write back
     5fa:	4d2c      	ldr	r5, [pc, #176]	; (6ac <OTA_WriteFlash+0xb4>)
	QSPI_PageEraseFlash(otaErasePage);
	return 0;
}

uint8_t OTA_WriteFlash(uint32_t flashaddr, uint32_t len, uint8_t* data)
{
     5fc:	4c2c      	ldr	r4, [pc, #176]	; (6b0 <OTA_WriteFlash+0xb8>)
	//	if(data[i]!=tbuf[i])
	//		return -1;
	//}
	//erase reserve byte of page
	//M_PRINTF(L_APP, "flashaddr[%x] otaErasePage[%x] writeAddr[%x]", flashaddr, otaErasePage, writeAddr);
	if(writeAddr > flashaddr){//write back
     5fe:	68eb      	ldr	r3, [r5, #12]
	QSPI_PageEraseFlash(otaErasePage);
	return 0;
}

uint8_t OTA_WriteFlash(uint32_t flashaddr, uint32_t len, uint8_t* data)
{
     600:	44a5      	add	sp, r4
     602:	000f      	movs	r7, r1
     604:	0004      	movs	r4, r0
     606:	9203      	str	r2, [sp, #12]
	//	if(data[i]!=tbuf[i])
	//		return -1;
	//}
	//erase reserve byte of page
	//M_PRINTF(L_APP, "flashaddr[%x] otaErasePage[%x] writeAddr[%x]", flashaddr, otaErasePage, writeAddr);
	if(writeAddr > flashaddr){//write back
     608:	4283      	cmp	r3, r0
     60a:	d91c      	bls.n	646 <OTA_WriteFlash+0x4e>
		otaErasePage = flashaddr&PAGE_MASK;
     60c:	0003      	movs	r3, r0
     60e:	26ff      	movs	r6, #255	; 0xff
     610:	43b3      	bics	r3, r6
		int tlen = flashaddr&(PAGE_SIZE-1);
     612:	4006      	ands	r6, r0
	//		return -1;
	//}
	//erase reserve byte of page
	//M_PRINTF(L_APP, "flashaddr[%x] otaErasePage[%x] writeAddr[%x]", flashaddr, otaErasePage, writeAddr);
	if(writeAddr > flashaddr){//write back
		otaErasePage = flashaddr&PAGE_MASK;
     614:	60ab      	str	r3, [r5, #8]
		int tlen = flashaddr&(PAGE_SIZE-1);
		QSPI_Init();
     616:	f000 ff3d 	bl	1494 <QSPI_Init>
		QSPI_ReadFlashData(otaErasePage, tlen,tbuf);
     61a:	aa05      	add	r2, sp, #20
     61c:	0031      	movs	r1, r6
     61e:	68a8      	ldr	r0, [r5, #8]
     620:	f000 fc3e 	bl	ea0 <QSPI_ReadFlashData>
		QSPI_PageEraseFlash(otaErasePage);
     624:	68a8      	ldr	r0, [r5, #8]
     626:	f000 febb 	bl	13a0 <QSPI_PageEraseFlash>
		QSPI_WriteFlashData(otaErasePage,tlen,tbuf);
     62a:	aa05      	add	r2, sp, #20
     62c:	0031      	movs	r1, r6
     62e:	68a8      	ldr	r0, [r5, #8]
     630:	f000 fd76 	bl	1120 <QSPI_WriteFlashData>
		m_printf(L_APP, "flashaddr[%x] otaErasePage[%x] tlen[%x]", flashaddr, otaErasePage, tlen);
     634:	2080      	movs	r0, #128	; 0x80
     636:	491f      	ldr	r1, [pc, #124]	; (6b4 <OTA_WriteFlash+0xbc>)
     638:	9600      	str	r6, [sp, #0]
     63a:	68ab      	ldr	r3, [r5, #8]
     63c:	0022      	movs	r2, r4
     63e:	311d      	adds	r1, #29
     640:	0180      	lsls	r0, r0, #6
     642:	f004 f9d5 	bl	49f0 <m_printf>
	}
	if(otaErasePage+PAGE_SIZE < flashaddr+len){//forward
     646:	4d19      	ldr	r5, [pc, #100]	; (6ac <OTA_WriteFlash+0xb4>)
     648:	19e6      	adds	r6, r4, r7
     64a:	68ab      	ldr	r3, [r5, #8]
     64c:	3301      	adds	r3, #1
     64e:	33ff      	adds	r3, #255	; 0xff
     650:	42b3      	cmp	r3, r6
     652:	d209      	bcs.n	668 <OTA_WriteFlash+0x70>
		//erase new page
		otaErasePage = (flashaddr+len)&PAGE_MASK;
     654:	23ff      	movs	r3, #255	; 0xff
     656:	0032      	movs	r2, r6
     658:	439a      	bics	r2, r3
     65a:	60aa      	str	r2, [r5, #8]
		QSPI_Init();
     65c:	f000 ff1a 	bl	1494 <QSPI_Init>
		QSPI_PageEraseFlash(otaErasePage);
     660:	68a8      	ldr	r0, [r5, #8]
     662:	f000 fe9d 	bl	13a0 <QSPI_PageEraseFlash>
     666:	e001      	b.n	66c <OTA_WriteFlash+0x74>
		//M_PRINTF(L_APP, "2");
	}else 
	//M_PRINTF(L_APP, "3");

	QSPI_Init();
     668:	f000 ff14 	bl	1494 <QSPI_Init>
	//write data
	QSPI_WriteFlashData(flashaddr,len,data);
     66c:	9a03      	ldr	r2, [sp, #12]
     66e:	0039      	movs	r1, r7
     670:	0020      	movs	r0, r4
     672:	f000 fd55 	bl	1120 <QSPI_WriteFlashData>
	//read and compare
	QSPI_ReadFlashData(flashaddr,len,tbuf);
     676:	aa05      	add	r2, sp, #20
     678:	0039      	movs	r1, r7
     67a:	0020      	movs	r0, r4
     67c:	f000 fc10 	bl	ea0 <QSPI_ReadFlashData>
	writeAddr = flashaddr+len;
	for(int i=0; i<len; i++){														//将需要修改数据copy到pagebuf中
     680:	2300      	movs	r3, #0
	QSPI_Init();
	//write data
	QSPI_WriteFlashData(flashaddr,len,data);
	//read and compare
	QSPI_ReadFlashData(flashaddr,len,tbuf);
	writeAddr = flashaddr+len;
     682:	60ee      	str	r6, [r5, #12]
	for(int i=0; i<len; i++){														//将需要修改数据copy到pagebuf中
     684:	42bb      	cmp	r3, r7
     686:	d009      	beq.n	69c <OTA_WriteFlash+0xa4>
		if(data[i] != tbuf[i])
     688:	200c      	movs	r0, #12
     68a:	9a03      	ldr	r2, [sp, #12]
     68c:	5cd1      	ldrb	r1, [r2, r3]
     68e:	aa02      	add	r2, sp, #8
     690:	1812      	adds	r2, r2, r0
     692:	5cd2      	ldrb	r2, [r2, r3]
     694:	4291      	cmp	r1, r2
     696:	d103      	bne.n	6a0 <OTA_WriteFlash+0xa8>
	//write data
	QSPI_WriteFlashData(flashaddr,len,data);
	//read and compare
	QSPI_ReadFlashData(flashaddr,len,tbuf);
	writeAddr = flashaddr+len;
	for(int i=0; i<len; i++){														//将需要修改数据copy到pagebuf中
     698:	3301      	adds	r3, #1
     69a:	e7f3      	b.n	684 <OTA_WriteFlash+0x8c>
		if(data[i] != tbuf[i])
			return 1;
	}
	
	return 0;
     69c:	2000      	movs	r0, #0
     69e:	e000      	b.n	6a2 <OTA_WriteFlash+0xaa>
	//read and compare
	QSPI_ReadFlashData(flashaddr,len,tbuf);
	writeAddr = flashaddr+len;
	for(int i=0; i<len; i++){														//将需要修改数据copy到pagebuf中
		if(data[i] != tbuf[i])
			return 1;
     6a0:	2001      	movs	r0, #1
	}
	
	return 0;
}
     6a2:	238d      	movs	r3, #141	; 0x8d
     6a4:	009b      	lsls	r3, r3, #2
     6a6:	449d      	add	sp, r3
     6a8:	bdf0      	pop	{r4, r5, r6, r7, pc}
     6aa:	46c0      	nop			; (mov r8, r8)
     6ac:	10010f60 	.word	0x10010f60
     6b0:	fffffdcc 	.word	0xfffffdcc
     6b4:	0001fd9c 	.word	0x0001fd9c

000006b8 <ota_cmd_to_app>:

void ota_cmd_to_app(uint8_t cType, uint16_t pTemp, uint8_t CheckResult)
{
     6b8:	b513      	push	{r0, r1, r4, lr}
	uint8_t cbuf[5];
	cbuf[0] = 0xab;
     6ba:	466c      	mov	r4, sp
     6bc:	23ab      	movs	r3, #171	; 0xab
	cbuf[1] = cType;
	cbuf[2] = pTemp & 0xff; 	//pTemp:00 01-->01 00
     6be:	70a1      	strb	r1, [r4, #2]
	cbuf[3] = (pTemp>>8) & 0xff;
     6c0:	0a09      	lsrs	r1, r1, #8
}

void ota_cmd_to_app(uint8_t cType, uint16_t pTemp, uint8_t CheckResult)
{
	uint8_t cbuf[5];
	cbuf[0] = 0xab;
     6c2:	7023      	strb	r3, [r4, #0]
	cbuf[1] = cType;
     6c4:	7060      	strb	r0, [r4, #1]
	cbuf[2] = pTemp & 0xff; 	//pTemp:00 01-->01 00
	cbuf[3] = (pTemp>>8) & 0xff;
     6c6:	70e1      	strb	r1, [r4, #3]
	switch(cType){
     6c8:	28c1      	cmp	r0, #193	; 0xc1
     6ca:	d009      	beq.n	6e0 <ota_cmd_to_app+0x28>
     6cc:	28c2      	cmp	r0, #194	; 0xc2
     6ce:	d00d      	beq.n	6ec <ota_cmd_to_app+0x34>
     6d0:	28c0      	cmp	r0, #192	; 0xc0
     6d2:	d111      	bne.n	6f8 <ota_cmd_to_app+0x40>
     6d4:	2204      	movs	r2, #4
     6d6:	4669      	mov	r1, sp
     6d8:	38a7      	subs	r0, #167	; 0xa7
     6da:	f000 f931 	bl	940 <Ble_SendDataSimple.part.0>
     6de:	e00b      	b.n	6f8 <ota_cmd_to_app+0x40>
     6e0:	2204      	movs	r2, #4
     6e2:	4669      	mov	r1, sp
     6e4:	2019      	movs	r0, #25
     6e6:	f000 f92b 	bl	940 <Ble_SendDataSimple.part.0>
     6ea:	e005      	b.n	6f8 <ota_cmd_to_app+0x40>
			break;
		case CMD_OTA_DATA:
			Ble_SendDataSimple(OTA_INDICATE_HANDLE,cbuf,4);
			break;
		case CMD_OTA_END:
			cbuf[4] = CheckResult;
     6ec:	7122      	strb	r2, [r4, #4]
     6ee:	4669      	mov	r1, sp
     6f0:	2205      	movs	r2, #5
     6f2:	2019      	movs	r0, #25
     6f4:	f000 f924 	bl	940 <Ble_SendDataSimple.part.0>
			Ble_SendDataSimple(OTA_INDICATE_HANDLE,cbuf,5);
			break;
	}
}
     6f8:	bd13      	pop	{r0, r1, r4, pc}

000006fa <gatt_ota_data_deal>:

void gatt_ota_data_deal(uint8_t* dat, uint8_t length)
{
     6fa:	b5f0      	push	{r4, r5, r6, r7, lr}
	static uint32_t packetSum=0;
	static uint16_t PacketLength = 0;
	static uint16_t CurPacketLen = 0;
	uint8_t* dataTmp = dat;
	//m_printf_hex(L_APP, "ota data recv", dat, length);
	if(dat[0] == 0xba && dat[1] == CMD_OTA_DATA 
     6fc:	7803      	ldrb	r3, [r0, #0]
			break;
	}
}

void gatt_ota_data_deal(uint8_t* dat, uint8_t length)
{
     6fe:	b085      	sub	sp, #20
     700:	0006      	movs	r6, r0
     702:	9101      	str	r1, [sp, #4]
	static uint32_t packetSum=0;
	static uint16_t PacketLength = 0;
	static uint16_t CurPacketLen = 0;
	uint8_t* dataTmp = dat;
	//m_printf_hex(L_APP, "ota data recv", dat, length);
	if(dat[0] == 0xba && dat[1] == CMD_OTA_DATA 
     704:	2bba      	cmp	r3, #186	; 0xba
     706:	d11d      	bne.n	744 <gatt_ota_data_deal+0x4a>
     708:	7847      	ldrb	r7, [r0, #1]
     70a:	4c7a      	ldr	r4, [pc, #488]	; (8f4 <gatt_ota_data_deal+0x1fa>)
     70c:	2fc1      	cmp	r7, #193	; 0xc1
     70e:	d10e      	bne.n	72e <gatt_ota_data_deal+0x34>
		&& dat[2] == (cur_packet_id&0xFF) 
     710:	4979      	ldr	r1, [pc, #484]	; (8f8 <gatt_ota_data_deal+0x1fe>)
     712:	7880      	ldrb	r0, [r0, #2]
     714:	880a      	ldrh	r2, [r1, #0]
     716:	b2d3      	uxtb	r3, r2
     718:	4298      	cmp	r0, r3
     71a:	d000      	beq.n	71e <gatt_ota_data_deal+0x24>
     71c:	e0ba      	b.n	894 <gatt_ota_data_deal+0x19a>
		&& dat[3] == (cur_packet_id >> 8&0xFF)){
     71e:	78f3      	ldrb	r3, [r6, #3]
     720:	0a12      	lsrs	r2, r2, #8
     722:	4293      	cmp	r3, r2
     724:	d000      	beq.n	728 <gatt_ota_data_deal+0x2e>
     726:	e0b5      	b.n	894 <gatt_ota_data_deal+0x19a>
		data_retransmit_flag = 1;		
     728:	2301      	movs	r3, #1
     72a:	80a3      	strh	r3, [r4, #4]
     72c:	e0b2      	b.n	894 <gatt_ota_data_deal+0x19a>
	}
	
	if(*dat++ == 0xba){
		switch(*(dat++)){
     72e:	2fc2      	cmp	r7, #194	; 0xc2
     730:	d03b      	beq.n	7aa <gatt_ota_data_deal+0xb0>
     732:	2fff      	cmp	r7, #255	; 0xff
     734:	d100      	bne.n	738 <gatt_ota_data_deal+0x3e>
     736:	e087      	b.n	848 <gatt_ota_data_deal+0x14e>
     738:	2fc0      	cmp	r7, #192	; 0xc0
     73a:	d103      	bne.n	744 <gatt_ota_data_deal+0x4a>
			case CMD_OTA_START://oxba,oxc0
				if(StartOtaFlag == NOSTART){	//收到start的包后，确定OTA地址和置标志位。				
     73c:	7823      	ldrb	r3, [r4, #0]
     73e:	2b01      	cmp	r3, #1
     740:	d100      	bne.n	744 <gatt_ota_data_deal+0x4a>
     742:	e089      	b.n	858 <gatt_ota_data_deal+0x15e>
			default:
				break;
		
		}
	}
	if(data_start_flag == 1 && StartOtaFlag == OTAPROCESSING){
     744:	4c6b      	ldr	r4, [pc, #428]	; (8f4 <gatt_ota_data_deal+0x1fa>)
     746:	8863      	ldrh	r3, [r4, #2]
     748:	2b01      	cmp	r3, #1
     74a:	d000      	beq.n	74e <gatt_ota_data_deal+0x54>
     74c:	e0cf      	b.n	8ee <gatt_ota_data_deal+0x1f4>
     74e:	7823      	ldrb	r3, [r4, #0]
     750:	2b03      	cmp	r3, #3
     752:	d000      	beq.n	756 <gatt_ota_data_deal+0x5c>
     754:	e0cb      	b.n	8ee <gatt_ota_data_deal+0x1f4>
     756:	0033      	movs	r3, r6
     758:	2100      	movs	r1, #0
     75a:	69e2      	ldr	r2, [r4, #28]
		//calc check sum
		for(int i = 0; i < length;  i++){	
     75c:	9d01      	ldr	r5, [sp, #4]
     75e:	1b98      	subs	r0, r3, r6
     760:	4285      	cmp	r5, r0
     762:	dd04      	ble.n	76e <gatt_ota_data_deal+0x74>
			packetSum += dataTmp[i];
     764:	7819      	ldrb	r1, [r3, #0]
     766:	3301      	adds	r3, #1
     768:	1852      	adds	r2, r2, r1
     76a:	2101      	movs	r1, #1
     76c:	e7f6      	b.n	75c <gatt_ota_data_deal+0x62>
     76e:	2900      	cmp	r1, #0
     770:	d000      	beq.n	774 <gatt_ota_data_deal+0x7a>
     772:	61e2      	str	r2, [r4, #28]
		}
		//write flash data
		uint8_t writeStatus = 0;
		writeStatus = OTA_WriteFlash(cflashaddr,(uint32_t)length, dataTmp);
     774:	0032      	movs	r2, r6
     776:	9901      	ldr	r1, [sp, #4]
     778:	6960      	ldr	r0, [r4, #20]
     77a:	f7ff ff3d 	bl	5f8 <OTA_WriteFlash>
		//m_printf_hex(L_APP, "ota data crc", dataTmp, length);
		//M_PRINTF(L_APP, "writeStatus[%x]", writeStatus);
		cflashaddr += length;
     77e:	6963      	ldr	r3, [r4, #20]
     780:	9901      	ldr	r1, [sp, #4]
		for(int i = 0; i < length;  i++){	
			packetSum += dataTmp[i];
		}
		//write flash data
		uint8_t writeStatus = 0;
		writeStatus = OTA_WriteFlash(cflashaddr,(uint32_t)length, dataTmp);
     782:	0002      	movs	r2, r0
		//m_printf_hex(L_APP, "ota data crc", dataTmp, length);
		//M_PRINTF(L_APP, "writeStatus[%x]", writeStatus);
		cflashaddr += length;
     784:	185b      	adds	r3, r3, r1
     786:	6163      	str	r3, [r4, #20]
		CurPacketLen += length;
     788:	8d23      	ldrh	r3, [r4, #40]	; 0x28
     78a:	185b      	adds	r3, r3, r1
     78c:	b29b      	uxth	r3, r3
     78e:	8523      	strh	r3, [r4, #40]	; 0x28
		if(writeStatus == 0){
     790:	2800      	cmp	r0, #0
     792:	d000      	beq.n	796 <gatt_ota_data_deal+0x9c>
     794:	e0ab      	b.n	8ee <gatt_ota_data_deal+0x1f4>
			if(CurPacketLen == PacketLength){
     796:	8c61      	ldrh	r1, [r4, #34]	; 0x22
     798:	4299      	cmp	r1, r3
     79a:	d000      	beq.n	79e <gatt_ota_data_deal+0xa4>
     79c:	e0a7      	b.n	8ee <gatt_ota_data_deal+0x1f4>
				data_start_flag = 0;
     79e:	8060      	strh	r0, [r4, #2]
				ota_cmd_to_app(CMD_OTA_DATA,PacketId,0);//CMD_OTA_DATA_H
     7a0:	8c21      	ldrh	r1, [r4, #32]
     7a2:	20c1      	movs	r0, #193	; 0xc1
     7a4:	f7ff ff88 	bl	6b8 <ota_cmd_to_app>
     7a8:	e0a1      	b.n	8ee <gatt_ota_data_deal+0x1f4>
				dataTmp = dat;
				length = length - 6;
				packetSum = 0;
				break;
			case CMD_OTA_END:
				cSum += packetSum;
     7aa:	69a3      	ldr	r3, [r4, #24]
     7ac:	69e2      	ldr	r2, [r4, #28]
     7ae:	189b      	adds	r3, r3, r2
				if(StartOtaFlag != OTAPROCESSING)
     7b0:	7822      	ldrb	r2, [r4, #0]
				dataTmp = dat;
				length = length - 6;
				packetSum = 0;
				break;
			case CMD_OTA_END:
				cSum += packetSum;
     7b2:	61a3      	str	r3, [r4, #24]
				if(StartOtaFlag != OTAPROCESSING)
     7b4:	2a03      	cmp	r2, #3
     7b6:	d000      	beq.n	7ba <gatt_ota_data_deal+0xc0>
     7b8:	e099      	b.n	8ee <gatt_ota_data_deal+0x1f4>
				CheckSum = *(dat++);
				CheckSum |= *(dat++)<<8;
				CheckSum |= *(dat++)<<16;
				mCheckSum = cflashaddr - OTAStartAddr;
				
				m_printf(L_APP, "CheckSum[%x] cSum[%x]", CheckSum, cSum);
     7ba:	2080      	movs	r0, #128	; 0x80
				if(StartOtaFlag != OTAPROCESSING)
					return;
				uint32_t mCheckSum;
				uint32_t CheckSum;
				PacketId = *(dat++);
				PacketId |= *(dat++)<<8;
     7bc:	78f2      	ldrb	r2, [r6, #3]
     7be:	78b1      	ldrb	r1, [r6, #2]
     7c0:	0212      	lsls	r2, r2, #8
     7c2:	430a      	orrs	r2, r1
     7c4:	8422      	strh	r2, [r4, #32]
				CheckSum = *(dat++);
				CheckSum |= *(dat++)<<8;
				CheckSum |= *(dat++)<<16;
     7c6:	7975      	ldrb	r5, [r6, #5]
     7c8:	79b2      	ldrb	r2, [r6, #6]
     7ca:	022d      	lsls	r5, r5, #8
     7cc:	0412      	lsls	r2, r2, #16
					return;
				uint32_t mCheckSum;
				uint32_t CheckSum;
				PacketId = *(dat++);
				PacketId |= *(dat++)<<8;
				CheckSum = *(dat++);
     7ce:	7931      	ldrb	r1, [r6, #4]
				CheckSum |= *(dat++)<<8;
				CheckSum |= *(dat++)<<16;
     7d0:	4315      	orrs	r5, r2
				mCheckSum = cflashaddr - OTAStartAddr;
     7d2:	6962      	ldr	r2, [r4, #20]
				uint32_t CheckSum;
				PacketId = *(dat++);
				PacketId |= *(dat++)<<8;
				CheckSum = *(dat++);
				CheckSum |= *(dat++)<<8;
				CheckSum |= *(dat++)<<16;
     7d4:	430d      	orrs	r5, r1
				mCheckSum = cflashaddr - OTAStartAddr;
     7d6:	9202      	str	r2, [sp, #8]
				
				m_printf(L_APP, "CheckSum[%x] cSum[%x]", CheckSum, cSum);
     7d8:	4948      	ldr	r1, [pc, #288]	; (8fc <gatt_ota_data_deal+0x202>)
				PacketId = *(dat++);
				PacketId |= *(dat++)<<8;
				CheckSum = *(dat++);
				CheckSum |= *(dat++)<<8;
				CheckSum |= *(dat++)<<16;
				mCheckSum = cflashaddr - OTAStartAddr;
     7da:	6922      	ldr	r2, [r4, #16]
				
				m_printf(L_APP, "CheckSum[%x] cSum[%x]", CheckSum, cSum);
     7dc:	3145      	adds	r1, #69	; 0x45
				PacketId = *(dat++);
				PacketId |= *(dat++)<<8;
				CheckSum = *(dat++);
				CheckSum |= *(dat++)<<8;
				CheckSum |= *(dat++)<<16;
				mCheckSum = cflashaddr - OTAStartAddr;
     7de:	9203      	str	r2, [sp, #12]
				
				m_printf(L_APP, "CheckSum[%x] cSum[%x]", CheckSum, cSum);
     7e0:	0180      	lsls	r0, r0, #6
     7e2:	002a      	movs	r2, r5
     7e4:	f004 f904 	bl	49f0 <m_printf>
				if(CheckSum == cSum){
     7e8:	69a3      	ldr	r3, [r4, #24]
     7ea:	429d      	cmp	r5, r3
     7ec:	d124      	bne.n	838 <gatt_ota_data_deal+0x13e>
					int8_t status = ota_code_crc(mCheckSum);
     7ee:	9b02      	ldr	r3, [sp, #8]
     7f0:	9a03      	ldr	r2, [sp, #12]
     7f2:	1a98      	subs	r0, r3, r2
     7f4:	f7ff fe26 	bl	444 <ota_code_crc>
					m_printf(L_APP, "code crc status[%d]", status);
     7f8:	0002      	movs	r2, r0
				CheckSum |= *(dat++)<<16;
				mCheckSum = cflashaddr - OTAStartAddr;
				
				m_printf(L_APP, "CheckSum[%x] cSum[%x]", CheckSum, cSum);
				if(CheckSum == cSum){
					int8_t status = ota_code_crc(mCheckSum);
     7fa:	0005      	movs	r5, r0
					m_printf(L_APP, "code crc status[%d]", status);
     7fc:	2080      	movs	r0, #128	; 0x80
     7fe:	493f      	ldr	r1, [pc, #252]	; (8fc <gatt_ota_data_deal+0x202>)
     800:	0180      	lsls	r0, r0, #6
     802:	315b      	adds	r1, #91	; 0x5b
     804:	f004 f8f4 	bl	49f0 <m_printf>
     808:	8c21      	ldrh	r1, [r4, #32]
					if(!status){
     80a:	2d00      	cmp	r5, #0
     80c:	d10d      	bne.n	82a <gatt_ota_data_deal+0x130>
						ota_cmd_to_app(CMD_OTA_END,PacketId,0x55);
     80e:	2255      	movs	r2, #85	; 0x55
     810:	0038      	movs	r0, r7
     812:	f7ff ff51 	bl	6b8 <ota_cmd_to_app>
						uint32_t count = 100000;
						while(count--)
     816:	4c3a      	ldr	r4, [pc, #232]	; (900 <gatt_ota_data_deal+0x206>)
     818:	3c01      	subs	r4, #1
     81a:	2c00      	cmp	r4, #0
     81c:	d002      	beq.n	824 <gatt_ota_data_deal+0x12a>
							IPC_DealSingleStep();
     81e:	f000 f9fd 	bl	c1c <IPC_DealSingleStep>
     822:	e7f9      	b.n	818 <gatt_ota_data_deal+0x11e>
						ota_prog_switch();
     824:	f7ff fdec 	bl	400 <ota_prog_switch>
     828:	e78c      	b.n	744 <gatt_ota_data_deal+0x4a>
					}
					else{
						StartOtaFlag = NOSTART;
     82a:	2301      	movs	r3, #1
						ota_cmd_to_app(CMD_OTA_END,PacketId,0);
     82c:	2200      	movs	r2, #0
     82e:	0038      	movs	r0, r7
						while(count--)
							IPC_DealSingleStep();
						ota_prog_switch();
					}
					else{
						StartOtaFlag = NOSTART;
     830:	7023      	strb	r3, [r4, #0]
						ota_cmd_to_app(CMD_OTA_END,PacketId,0);
     832:	f7ff ff41 	bl	6b8 <ota_cmd_to_app>
     836:	e785      	b.n	744 <gatt_ota_data_deal+0x4a>
					}	
				}else{
					StartOtaFlag = NOSTART;
     838:	2301      	movs	r3, #1
					ota_cmd_to_app(CMD_OTA_END,PacketId,0);
     83a:	8c21      	ldrh	r1, [r4, #32]
     83c:	2200      	movs	r2, #0
     83e:	0038      	movs	r0, r7
					else{
						StartOtaFlag = NOSTART;
						ota_cmd_to_app(CMD_OTA_END,PacketId,0);
					}	
				}else{
					StartOtaFlag = NOSTART;
     840:	7023      	strb	r3, [r4, #0]
					ota_cmd_to_app(CMD_OTA_END,PacketId,0);
     842:	f7ff ff39 	bl	6b8 <ota_cmd_to_app>
     846:	e77d      	b.n	744 <gatt_ota_data_deal+0x4a>
				}
		
				break;
			case CMD_OTA_RESET:
				if(StartOtaFlag != OTAPROCESSING)
     848:	7823      	ldrb	r3, [r4, #0]
     84a:	2b03      	cmp	r3, #3
     84c:	d14f      	bne.n	8ee <gatt_ota_data_deal+0x1f4>
					return;
				ota_prog_switch();
     84e:	f7ff fdd7 	bl	400 <ota_prog_switch>
				StartOtaFlag = NOSTART;
     852:	2301      	movs	r3, #1
     854:	7023      	strb	r3, [r4, #0]
				break; 
     856:	e775      	b.n	744 <gatt_ota_data_deal+0x4a>
	
	if(*dat++ == 0xba){
		switch(*(dat++)){
			case CMD_OTA_START://oxba,oxc0
				if(StartOtaFlag == NOSTART){	//收到start的包后，确定OTA地址和置标志位。				
					StartOtaFlag = OTASTART;
     858:	3301      	adds	r3, #1
     85a:	7023      	strb	r3, [r4, #0]
					
					uint8_t sts = ota_prog_addr();
     85c:	f7ff fd72 	bl	344 <ota_prog_addr>
					if(sts == APP_TWO){ //check out addr 0x1000 code
     860:	2802      	cmp	r0, #2
     862:	d103      	bne.n	86c <gatt_ota_data_deal+0x172>
						OTAStartAddr = CODE_START_ADDR+PAGE_SIZE;//0x2000;
     864:	2380      	movs	r3, #128	; 0x80
     866:	005b      	lsls	r3, r3, #1
     868:	6123      	str	r3, [r4, #16]
     86a:	e001      	b.n	870 <gatt_ota_data_deal+0x176>
					}
					else{
						OTAStartAddr = CODE_UPGRADE_START_ADDR+PAGE_SIZE;//0x40000;
     86c:	4b25      	ldr	r3, [pc, #148]	; (904 <gatt_ota_data_deal+0x20a>)
     86e:	6123      	str	r3, [r4, #16]
					}
					cflashaddr = OTAStartAddr;
					cSum = 0;
     870:	2500      	movs	r5, #0
						OTAStartAddr = CODE_START_ADDR+PAGE_SIZE;//0x2000;
					}
					else{
						OTAStartAddr = CODE_UPGRADE_START_ADDR+PAGE_SIZE;//0x40000;
					}
					cflashaddr = OTAStartAddr;
     872:	6923      	ldr	r3, [r4, #16]
					cSum = 0;
					packetSum = 0;
					//M_PRINTF(L_APP, "cflashaddr[%x]", cflashaddr);
					IPC_TxControlCmd(IPC_CMD_UPDATA_CONN);
     874:	2012      	movs	r0, #18
						OTAStartAddr = CODE_START_ADDR+PAGE_SIZE;//0x2000;
					}
					else{
						OTAStartAddr = CODE_UPGRADE_START_ADDR+PAGE_SIZE;//0x40000;
					}
					cflashaddr = OTAStartAddr;
     876:	6163      	str	r3, [r4, #20]
					cSum = 0;
     878:	61a5      	str	r5, [r4, #24]
					packetSum = 0;
     87a:	61e5      	str	r5, [r4, #28]
					//M_PRINTF(L_APP, "cflashaddr[%x]", cflashaddr);
					IPC_TxControlCmd(IPC_CMD_UPDATA_CONN);
     87c:	f000 f957 	bl	b2e <IPC_TxControlCmd>
					ota_cmd_to_app(CMD_OTA_START,PACKETNUM,0);//CMD_OTA_START_H
     880:	2187      	movs	r1, #135	; 0x87
     882:	002a      	movs	r2, r5
     884:	0089      	lsls	r1, r1, #2
     886:	20c0      	movs	r0, #192	; 0xc0
     888:	f7ff ff16 	bl	6b8 <ota_cmd_to_app>
					OTA_flash_init(OTAStartAddr);
     88c:	6920      	ldr	r0, [r4, #16]
     88e:	f7ff fea3 	bl	5d8 <OTA_flash_init>
     892:	e757      	b.n	744 <gatt_ota_data_deal+0x4a>
				} 
				break;
			case CMD_OTA_DATA:
				if(StartOtaFlag == OTASTART){
     894:	7823      	ldrb	r3, [r4, #0]
     896:	2b02      	cmp	r3, #2
     898:	d101      	bne.n	89e <gatt_ota_data_deal+0x1a4>
					StartOtaFlag = OTAPROCESSING;
     89a:	2303      	movs	r3, #3
     89c:	7023      	strb	r3, [r4, #0]
				}
				if(StartOtaFlag != OTAPROCESSING)
     89e:	7823      	ldrb	r3, [r4, #0]
     8a0:	2b03      	cmp	r3, #3
     8a2:	d124      	bne.n	8ee <gatt_ota_data_deal+0x1f4>
					return;
				PacketId = *(dat++);
				PacketId |= *(dat++)<<8;
				PacketLength = *(dat++);
				PacketLength |= *(dat++)<<8;
     8a4:	7972      	ldrb	r2, [r6, #5]
     8a6:	7935      	ldrb	r5, [r6, #4]
					StartOtaFlag = OTAPROCESSING;
				}
				if(StartOtaFlag != OTAPROCESSING)
					return;
				PacketId = *(dat++);
				PacketId |= *(dat++)<<8;
     8a8:	78f3      	ldrb	r3, [r6, #3]
				PacketLength = *(dat++);
				PacketLength |= *(dat++)<<8;
     8aa:	0212      	lsls	r2, r2, #8
     8ac:	432a      	orrs	r2, r5
					StartOtaFlag = OTAPROCESSING;
				}
				if(StartOtaFlag != OTAPROCESSING)
					return;
				PacketId = *(dat++);
				PacketId |= *(dat++)<<8;
     8ae:	021b      	lsls	r3, r3, #8
				PacketLength = *(dat++);
				PacketLength |= *(dat++)<<8;
     8b0:	8462      	strh	r2, [r4, #34]	; 0x22

				if(data_retransmit_flag == 1){
     8b2:	88a2      	ldrh	r2, [r4, #4]
					StartOtaFlag = OTAPROCESSING;
				}
				if(StartOtaFlag != OTAPROCESSING)
					return;
				PacketId = *(dat++);
				PacketId |= *(dat++)<<8;
     8b4:	4303      	orrs	r3, r0
     8b6:	8423      	strh	r3, [r4, #32]
				PacketLength = *(dat++);
				PacketLength |= *(dat++)<<8;
     8b8:	1db0      	adds	r0, r6, #6

				if(data_retransmit_flag == 1){
     8ba:	2a01      	cmp	r2, #1
     8bc:	d105      	bne.n	8ca <gatt_ota_data_deal+0x1d0>
					data_retransmit_flag = 0;
     8be:	2200      	movs	r2, #0
					cflashaddr = flashaddrsaved;
     8c0:	6a65      	ldr	r5, [r4, #36]	; 0x24
				PacketId |= *(dat++)<<8;
				PacketLength = *(dat++);
				PacketLength |= *(dat++)<<8;

				if(data_retransmit_flag == 1){
					data_retransmit_flag = 0;
     8c2:	80a2      	strh	r2, [r4, #4]
					cflashaddr = flashaddrsaved;
     8c4:	6165      	str	r5, [r4, #20]
					packetSum = 0;
     8c6:	61e2      	str	r2, [r4, #28]
     8c8:	e001      	b.n	8ce <gatt_ota_data_deal+0x1d4>
				}
				else{
					flashaddrsaved = cflashaddr;
     8ca:	6962      	ldr	r2, [r4, #20]
     8cc:	6262      	str	r2, [r4, #36]	; 0x24
					
				}
				cSum += packetSum;
     8ce:	69a2      	ldr	r2, [r4, #24]
     8d0:	69e5      	ldr	r5, [r4, #28]
				//M_PRINTF(L_APP, "PacketId[%x] PacketLength[%x] cflashaddr[%x]", PacketId, PacketLength, cflashaddr);
				cur_packet_id = PacketId; 
     8d2:	800b      	strh	r3, [r1, #0]
				}
				else{
					flashaddrsaved = cflashaddr;
					
				}
				cSum += packetSum;
     8d4:	1952      	adds	r2, r2, r5
     8d6:	61a2      	str	r2, [r4, #24]
				//M_PRINTF(L_APP, "PacketId[%x] PacketLength[%x] cflashaddr[%x]", PacketId, PacketLength, cflashaddr);
				cur_packet_id = PacketId; 
				CurPacketLen = 0;
				data_start_flag = 1;
     8d8:	2201      	movs	r2, #1
					
				}
				cSum += packetSum;
				//M_PRINTF(L_APP, "PacketId[%x] PacketLength[%x] cflashaddr[%x]", PacketId, PacketLength, cflashaddr);
				cur_packet_id = PacketId; 
				CurPacketLen = 0;
     8da:	2300      	movs	r3, #0
				data_start_flag = 1;
     8dc:	8062      	strh	r2, [r4, #2]
				dataTmp = dat;
				length = length - 6;
     8de:	9a01      	ldr	r2, [sp, #4]
					
				}
				cSum += packetSum;
				//M_PRINTF(L_APP, "PacketId[%x] PacketLength[%x] cflashaddr[%x]", PacketId, PacketLength, cflashaddr);
				cur_packet_id = PacketId; 
				CurPacketLen = 0;
     8e0:	8523      	strh	r3, [r4, #40]	; 0x28
				data_start_flag = 1;
				dataTmp = dat;
				length = length - 6;
     8e2:	3a06      	subs	r2, #6
     8e4:	b2d2      	uxtb	r2, r2
     8e6:	9201      	str	r2, [sp, #4]
				packetSum = 0;
     8e8:	61e3      	str	r3, [r4, #28]
				cSum += packetSum;
				//M_PRINTF(L_APP, "PacketId[%x] PacketLength[%x] cflashaddr[%x]", PacketId, PacketLength, cflashaddr);
				cur_packet_id = PacketId; 
				CurPacketLen = 0;
				data_start_flag = 1;
				dataTmp = dat;
     8ea:	0006      	movs	r6, r0
				length = length - 6;
				packetSum = 0;
				break;
     8ec:	e72a      	b.n	744 <gatt_ota_data_deal+0x4a>
		}
		
		//M_PRINTF(L_APP, "writeStatus[%d] CurPacketLen[%x] PacketLength[%x]", writeStatus, CurPacketLen, PacketLength);
		return;
	}
}
     8ee:	b005      	add	sp, #20
     8f0:	bdf0      	pop	{r4, r5, r6, r7, pc}
     8f2:	46c0      	nop			; (mov r8, r8)
     8f4:	10010f60 	.word	0x10010f60
     8f8:	10010500 	.word	0x10010500
     8fc:	0001fd9c 	.word	0x0001fd9c
     900:	000186a1 	.word	0x000186a1
     904:	0003e100 	.word	0x0003e100

00000908 <gatt_ota_init>:
//	/*send adv data*/
//	//BLE_SendAdvData(ADV_TYPE_NOMAL, 1600, 4, sizeof(data), data);
//}

void gatt_ota_init(void)
{
     908:	b51f      	push	{r0, r1, r2, r3, r4, lr}
	//set adv resp data
	uint8_t _data[] = {0x07, 0x09, 0x5a, 0x58, 0x2d, 0x4f, 0x54, 0x41, 0x0c+6, 0xff, 'B', 'C', '6', '2', '1', '8'};
     90a:	2410      	movs	r4, #16
     90c:	4906      	ldr	r1, [pc, #24]	; (928 <gatt_ota_init+0x20>)
     90e:	0022      	movs	r2, r4
     910:	316f      	adds	r1, #111	; 0x6f
     912:	4668      	mov	r0, sp
     914:	f015 f85c 	bl	159d0 <memcpy>
	memcpy((unsigned char*)reg_map(mem_le_scan_data),_data,sizeof(_data));
     918:	0022      	movs	r2, r4
     91a:	4669      	mov	r1, sp
     91c:	4803      	ldr	r0, [pc, #12]	; (92c <gatt_ota_init+0x24>)
     91e:	f015 f857 	bl	159d0 <memcpy>
	HWRITE(mem_le_scan_data_len,sizeof(_data));
     922:	4b03      	ldr	r3, [pc, #12]	; (930 <gatt_ota_init+0x28>)
     924:	701c      	strb	r4, [r3, #0]
	//start timer for clear
//	SYS_SetTimer(&stGattOtaAdvTimer, GATT_OTA_PERIOD_NUM, 
//					TIMER_CYCLE, (Timer_Expire_CB)_gatt_ota_adv_period_set);
}
     926:	bd1f      	pop	{r0, r1, r2, r3, r4, pc}
     928:	0001fd9c 	.word	0x0001fd9c
     92c:	100043d3 	.word	0x100043d3
     930:	100043d2 	.word	0x100043d2

00000934 <gatt_ota_deinit>:
void gatt_ota_deinit(void)
{
//	SYS_ReleaseTimer(&stGattOtaAdvTimer);
	HWRITE(mem_le_scan_data_len,0);
     934:	2200      	movs	r2, #0
     936:	4b01      	ldr	r3, [pc, #4]	; (93c <gatt_ota_deinit+0x8>)
     938:	701a      	strb	r2, [r3, #0]
}
     93a:	4770      	bx	lr
     93c:	100043d2 	.word	0x100043d2

00000940 <Ble_SendDataSimple.part.0>:

	return 0;
}


void Ble_SendDataSimple(uint16_t handle, uint8_t* data, uint16_t len)//eg handle = 0x0008
     940:	b570      	push	{r4, r5, r6, lr}
     942:	b088      	sub	sp, #32
     944:	0014      	movs	r4, r2
     946:	0006      	movs	r6, r0
{	
	int cnt;
	if(len<0 || len>20)
		return;
	uint8_t BleSendData[30]={0};
     948:	221e      	movs	r2, #30

	return 0;
}


void Ble_SendDataSimple(uint16_t handle, uint8_t* data, uint16_t len)//eg handle = 0x0008
     94a:	000d      	movs	r5, r1
{	
	int cnt;
	if(len<0 || len>20)
		return;
	uint8_t BleSendData[30]={0};
     94c:	4668      	mov	r0, sp
     94e:	2100      	movs	r1, #0
     950:	f015 f87c 	bl	15a4c <memset>
	IPC_DATA_FORMAT* temp = (IPC_DATA_FORMAT*)BleSendData;
	temp->ipctype =IPC_BLE_DATA;
     954:	466a      	mov	r2, sp
     956:	2305      	movs	r3, #5
     958:	7013      	strb	r3, [r2, #0]
	temp->len = len+2;
     95a:	1ca3      	adds	r3, r4, #2
     95c:	7053      	strb	r3, [r2, #1]
	temp->ipcUnion.uBleData.mhandle = handle;
	unsigned char *dataAy = (unsigned char *)&temp->ipcUnion.uBleData.data;

	//	memcpy(dataAy,data,len);
	for(cnt=0; cnt<len+2; cnt++)
     95e:	2300      	movs	r3, #0
		return;
	uint8_t BleSendData[30]={0};
	IPC_DATA_FORMAT* temp = (IPC_DATA_FORMAT*)BleSendData;
	temp->ipctype =IPC_BLE_DATA;
	temp->len = len+2;
	temp->ipcUnion.uBleData.mhandle = handle;
     960:	8056      	strh	r6, [r2, #2]
	unsigned char *dataAy = (unsigned char *)&temp->ipcUnion.uBleData.data;

	//	memcpy(dataAy,data,len);
	for(cnt=0; cnt<len+2; cnt++)
     962:	3401      	adds	r4, #1
     964:	42a3      	cmp	r3, r4
     966:	dc05      	bgt.n	974 <Ble_SendDataSimple.part.0+0x34>
		*(dataAy+cnt) = *(data+cnt);
     968:	001a      	movs	r2, r3
     96a:	5ce9      	ldrb	r1, [r5, r3]
     96c:	446a      	add	r2, sp
     96e:	7111      	strb	r1, [r2, #4]
	temp->len = len+2;
	temp->ipcUnion.uBleData.mhandle = handle;
	unsigned char *dataAy = (unsigned char *)&temp->ipcUnion.uBleData.data;

	//	memcpy(dataAy,data,len);
	for(cnt=0; cnt<len+2; cnt++)
     970:	3301      	adds	r3, #1
     972:	e7f7      	b.n	964 <Ble_SendDataSimple.part.0+0x24>
		*(dataAy+cnt) = *(data+cnt);
		
	IPC_TxPacket(temp);
     974:	4668      	mov	r0, sp
     976:	f000 f8d1 	bl	b1c <IPC_TxPacket>
}
     97a:	b008      	add	sp, #32
     97c:	bd70      	pop	{r4, r5, r6, pc}
     97e:	46c0      	nop			; (mov r8, r8)

00000980 <hw_delay>:

#define BW(addr)			(int)*(addr) << 24 | (int)*(addr + 1) << 16 | (int)*(addr + 2) << 8 | *(addr + 3)

static inline void hw_delay() 
{
	__asm__ __volatile__("nop");
     980:	46c0      	nop			; (mov r8, r8)
	__asm__ __volatile__("nop");
     982:	46c0      	nop			; (mov r8, r8)
	__asm__ __volatile__("nop");
     984:	46c0      	nop			; (mov r8, r8)
	__asm__ __volatile__("nop");
     986:	46c0      	nop			; (mov r8, r8)
	__asm__ __volatile__("nop");
     988:	46c0      	nop			; (mov r8, r8)
}
     98a:	4770      	bx	lr

0000098c <HR_REG_24BIT>:
	return_data = (return_data | ((H_data << 8) & 0xFF00));
	return return_data;
}

static inline uint32_t HR_REG_24BIT(uint32_t reg)
{
     98c:	b570      	push	{r4, r5, r6, lr}
     98e:	0006      	movs	r6, r0
	uint32_t return_data = 0;
	hw_delay();
     990:	f7ff fff6 	bl	980 <hw_delay>
	return_data = HR_REG_8BIT(reg);
     994:	7834      	ldrb	r4, [r6, #0]
	hw_delay();
     996:	f7ff fff3 	bl	980 <hw_delay>
	return_data = return_data |(HR_REG_8BIT(reg + 1)<<8);
     99a:	7875      	ldrb	r5, [r6, #1]
	hw_delay();
     99c:	f7ff fff0 	bl	980 <hw_delay>
	return_data = return_data | (HR_REG_8BIT(reg + 2)<<16);
     9a0:	78b3      	ldrb	r3, [r6, #2]
{
	uint32_t return_data = 0;
	hw_delay();
	return_data = HR_REG_8BIT(reg);
	hw_delay();
	return_data = return_data |(HR_REG_8BIT(reg + 1)<<8);
     9a2:	b2ed      	uxtb	r5, r5
	hw_delay();
	return_data = return_data | (HR_REG_8BIT(reg + 2)<<16);
	
	return return_data;
     9a4:	0228      	lsls	r0, r5, #8
     9a6:	041b      	lsls	r3, r3, #16

static inline uint32_t HR_REG_24BIT(uint32_t reg)
{
	uint32_t return_data = 0;
	hw_delay();
	return_data = HR_REG_8BIT(reg);
     9a8:	b2e4      	uxtb	r4, r4
	hw_delay();
	return_data = return_data |(HR_REG_8BIT(reg + 1)<<8);
	hw_delay();
	return_data = return_data | (HR_REG_8BIT(reg + 2)<<16);
	
	return return_data;
     9aa:	4318      	orrs	r0, r3
     9ac:	4320      	orrs	r0, r4
}
     9ae:	bd70      	pop	{r4, r5, r6, pc}

000009b0 <IpcDefaultCallBack>:
uint8_t gIPC_test;


void IpcDefaultCallBack(uint8_t len,uint8_t *dataPtr)
{
	gIPC_test++;
     9b0:	4a02      	ldr	r2, [pc, #8]	; (9bc <IpcDefaultCallBack+0xc>)
     9b2:	7813      	ldrb	r3, [r2, #0]
     9b4:	3301      	adds	r3, #1
     9b6:	7013      	strb	r3, [r2, #0]
	return;
}
     9b8:	4770      	bx	lr
     9ba:	46c0      	nop			; (mov r8, r8)
     9bc:	100127f8 	.word	0x100127f8

000009c0 <IPC_Initialize>:

void IPC_Initialize(tIPCControlBlock *Cb)
{
	ipcCb = *Cb;
     9c0:	4a05      	ldr	r2, [pc, #20]	; (9d8 <IPC_Initialize+0x18>)
	gIPC_test++;
	return;
}

void IPC_Initialize(tIPCControlBlock *Cb)
{
     9c2:	b510      	push	{r4, lr}
	ipcCb = *Cb;
     9c4:	0013      	movs	r3, r2
     9c6:	c816      	ldmia	r0!, {r1, r2, r4}
     9c8:	c316      	stmia	r3!, {r1, r2, r4}
     9ca:	c816      	ldmia	r0!, {r1, r2, r4}
     9cc:	c316      	stmia	r3!, {r1, r2, r4}
     9ce:	c816      	ldmia	r0!, {r1, r2, r4}
     9d0:	c316      	stmia	r3!, {r1, r2, r4}
     9d2:	6802      	ldr	r2, [r0, #0]
     9d4:	601a      	str	r2, [r3, #0]
}
     9d6:	bd10      	pop	{r4, pc}
     9d8:	10010f8c 	.word	0x10010f8c

000009dc <IPC_init>:

void IPC_init(tIPCHandleCbArray cbArrayPtr)
{
	ipcCbArray = cbArrayPtr;
     9dc:	4b01      	ldr	r3, [pc, #4]	; (9e4 <IPC_init+0x8>)
     9de:	6298      	str	r0, [r3, #40]	; 0x28
	return;
}
     9e0:	4770      	bx	lr
     9e2:	46c0      	nop			; (mov r8, r8)
     9e4:	10010f8c 	.word	0x10010f8c

000009e8 <ipcRx>:

static void ipcRx(uint8_t* Dest, uint16_t Len)
{
     9e8:	b570      	push	{r4, r5, r6, lr}
     9ea:	0005      	movs	r5, r0
	uint32_t RxPtr = HR_REG_24BIT(reg_map(IPC_RX_READ_PTR));
     9ec:	4810      	ldr	r0, [pc, #64]	; (a30 <ipcRx+0x48>)
	ipcCbArray = cbArrayPtr;
	return;
}

static void ipcRx(uint8_t* Dest, uint16_t Len)
{
     9ee:	000c      	movs	r4, r1
	uint32_t RxPtr = HR_REG_24BIT(reg_map(IPC_RX_READ_PTR));
     9f0:	f7ff ffcc 	bl	98c <HR_REG_24BIT>
	for (uint16_t i=0; i<Len; i++) {
		Dest[i] = HREAD(RxPtr);
     9f4:	2180      	movs	r1, #128	; 0x80
}

static void ipcRx(uint8_t* Dest, uint16_t Len)
{
	uint32_t RxPtr = HR_REG_24BIT(reg_map(IPC_RX_READ_PTR));
	for (uint16_t i=0; i<Len; i++) {
     9f6:	2300      	movs	r3, #0
		Dest[i] = HREAD(RxPtr);
		if(++RxPtr >= IPC_RX_END) 
     9f8:	4e0e      	ldr	r6, [pc, #56]	; (a34 <ipcRx+0x4c>)

static void ipcRx(uint8_t* Dest, uint16_t Len)
{
	uint32_t RxPtr = HR_REG_24BIT(reg_map(IPC_RX_READ_PTR));
	for (uint16_t i=0; i<Len; i++) {
		Dest[i] = HREAD(RxPtr);
     9fa:	0549      	lsls	r1, r1, #21
}

static void ipcRx(uint8_t* Dest, uint16_t Len)
{
	uint32_t RxPtr = HR_REG_24BIT(reg_map(IPC_RX_READ_PTR));
	for (uint16_t i=0; i<Len; i++) {
     9fc:	b29a      	uxth	r2, r3
     9fe:	4294      	cmp	r4, r2
     a00:	d909      	bls.n	a16 <ipcRx+0x2e>
		Dest[i] = HREAD(RxPtr);
     a02:	000a      	movs	r2, r1
     a04:	4302      	orrs	r2, r0
     a06:	7812      	ldrb	r2, [r2, #0]
		if(++RxPtr >= IPC_RX_END) 
     a08:	3001      	adds	r0, #1

static void ipcRx(uint8_t* Dest, uint16_t Len)
{
	uint32_t RxPtr = HR_REG_24BIT(reg_map(IPC_RX_READ_PTR));
	for (uint16_t i=0; i<Len; i++) {
		Dest[i] = HREAD(RxPtr);
     a0a:	54ea      	strb	r2, [r5, r3]
		if(++RxPtr >= IPC_RX_END) 
     a0c:	42b0      	cmp	r0, r6
     a0e:	d900      	bls.n	a12 <ipcRx+0x2a>
			RxPtr = IPC_RX_HEAD;
     a10:	4809      	ldr	r0, [pc, #36]	; (a38 <ipcRx+0x50>)
     a12:	3301      	adds	r3, #1
     a14:	e7f2      	b.n	9fc <ipcRx+0x14>
	}
	
	HWRITE24BIT(IPC_RX_READ_PTR, RxPtr);
     a16:	4b06      	ldr	r3, [pc, #24]	; (a30 <ipcRx+0x48>)
     a18:	b2c2      	uxtb	r2, r0
     a1a:	701a      	strb	r2, [r3, #0]
     a1c:	1203      	asrs	r3, r0, #8
     a1e:	4a07      	ldr	r2, [pc, #28]	; (a3c <ipcRx+0x54>)
     a20:	b2db      	uxtb	r3, r3
     a22:	7013      	strb	r3, [r2, #0]
     a24:	1400      	asrs	r0, r0, #16
     a26:	4b06      	ldr	r3, [pc, #24]	; (a40 <ipcRx+0x58>)
     a28:	b2c0      	uxtb	r0, r0
     a2a:	7018      	strb	r0, [r3, #0]
}
     a2c:	bd70      	pop	{r4, r5, r6, pc}
     a2e:	46c0      	nop			; (mov r8, r8)
     a30:	1001030c 	.word	0x1001030c
     a34:	000104ff 	.word	0x000104ff
     a38:	00010350 	.word	0x00010350
     a3c:	1001030d 	.word	0x1001030d
     a40:	1001030e 	.word	0x1001030e

00000a44 <ipcTx>:

static void ipcTx(uint8_t* Src, uint8_t Len)
{
     a44:	b570      	push	{r4, r5, r6, lr}
     a46:	0004      	movs	r4, r0
	int me;
	uint32_t TxPtr = HR_REG_24BIT(reg_map(IPC_TX_WRITE_PTR));
     a48:	4810      	ldr	r0, [pc, #64]	; (a8c <ipcTx+0x48>)
	
	HWRITE24BIT(IPC_RX_READ_PTR, RxPtr);
}

static void ipcTx(uint8_t* Src, uint8_t Len)
{
     a4a:	000d      	movs	r5, r1
	int me;
	uint32_t TxPtr = HR_REG_24BIT(reg_map(IPC_TX_WRITE_PTR));
     a4c:	f7ff ff9e 	bl	98c <HR_REG_24BIT>
	for (uint16_t i=0; i<Len; i++) {
		HWRITE(TxPtr, Src[i]);
     a50:	2280      	movs	r2, #128	; 0x80
     a52:	0023      	movs	r3, r4
		if(++TxPtr >= IPC_TX_END) 
     a54:	490e      	ldr	r1, [pc, #56]	; (a90 <ipcTx+0x4c>)
     a56:	1965      	adds	r5, r4, r5
static void ipcTx(uint8_t* Src, uint8_t Len)
{
	int me;
	uint32_t TxPtr = HR_REG_24BIT(reg_map(IPC_TX_WRITE_PTR));
	for (uint16_t i=0; i<Len; i++) {
		HWRITE(TxPtr, Src[i]);
     a58:	0552      	lsls	r2, r2, #21

static void ipcTx(uint8_t* Src, uint8_t Len)
{
	int me;
	uint32_t TxPtr = HR_REG_24BIT(reg_map(IPC_TX_WRITE_PTR));
	for (uint16_t i=0; i<Len; i++) {
     a5a:	429d      	cmp	r5, r3
     a5c:	d00a      	beq.n	a74 <ipcTx+0x30>
		HWRITE(TxPtr, Src[i]);
     a5e:	0014      	movs	r4, r2
     a60:	781e      	ldrb	r6, [r3, #0]
     a62:	4304      	orrs	r4, r0
		if(++TxPtr >= IPC_TX_END) 
     a64:	3001      	adds	r0, #1
static void ipcTx(uint8_t* Src, uint8_t Len)
{
	int me;
	uint32_t TxPtr = HR_REG_24BIT(reg_map(IPC_TX_WRITE_PTR));
	for (uint16_t i=0; i<Len; i++) {
		HWRITE(TxPtr, Src[i]);
     a66:	7026      	strb	r6, [r4, #0]
		if(++TxPtr >= IPC_TX_END) 
     a68:	4288      	cmp	r0, r1
     a6a:	d901      	bls.n	a70 <ipcTx+0x2c>
			TxPtr = IPC_TX_HEAD;
     a6c:	2080      	movs	r0, #128	; 0x80
     a6e:	0240      	lsls	r0, r0, #9
     a70:	3301      	adds	r3, #1
     a72:	e7f2      	b.n	a5a <ipcTx+0x16>
		me=100;
		while(me--);
	}
	HWRITE24BIT(IPC_TX_WRITE_PTR, TxPtr);
     a74:	4b05      	ldr	r3, [pc, #20]	; (a8c <ipcTx+0x48>)
     a76:	b2c2      	uxtb	r2, r0
     a78:	701a      	strb	r2, [r3, #0]
     a7a:	1203      	asrs	r3, r0, #8
     a7c:	4a05      	ldr	r2, [pc, #20]	; (a94 <ipcTx+0x50>)
     a7e:	b2db      	uxtb	r3, r3
     a80:	7013      	strb	r3, [r2, #0]
     a82:	1400      	asrs	r0, r0, #16
     a84:	4b04      	ldr	r3, [pc, #16]	; (a98 <ipcTx+0x54>)
     a86:	b2c0      	uxtb	r0, r0
     a88:	7018      	strb	r0, [r3, #0]
}
     a8a:	bd70      	pop	{r4, r5, r6, pc}
     a8c:	10010300 	.word	0x10010300
     a90:	000102ff 	.word	0x000102ff
     a94:	10010301 	.word	0x10010301
     a98:	10010302 	.word	0x10010302

00000a9c <IPC_TxBufferIsEnough>:

unsigned char IPC_TxBufferIsEnough(uint8_t Len)
{
     a9c:	b570      	push	{r4, r5, r6, lr}
     a9e:	0005      	movs	r5, r0
	uint32_t TxPtr = HR_REG_24BIT(reg_map(IPC_TX_WRITE_PTR));
     aa0:	480c      	ldr	r0, [pc, #48]	; (ad4 <IPC_TxBufferIsEnough+0x38>)
     aa2:	f7ff ff73 	bl	98c <HR_REG_24BIT>
     aa6:	0004      	movs	r4, r0
	uint32_t TxReadPtr = HR_REG_24BIT(reg_map(IPC_TX_READ_PTR));
     aa8:	480b      	ldr	r0, [pc, #44]	; (ad8 <IPC_TxBufferIsEnough+0x3c>)
     aaa:	f7ff ff6f 	bl	98c <HR_REG_24BIT>

	for (uint16_t i=0; i<Len; i++) {
     aae:	2300      	movs	r3, #0
		if(++TxPtr >= IPC_TX_END) 
     ab0:	4a0a      	ldr	r2, [pc, #40]	; (adc <IPC_TxBufferIsEnough+0x40>)
unsigned char IPC_TxBufferIsEnough(uint8_t Len)
{
	uint32_t TxPtr = HR_REG_24BIT(reg_map(IPC_TX_WRITE_PTR));
	uint32_t TxReadPtr = HR_REG_24BIT(reg_map(IPC_TX_READ_PTR));

	for (uint16_t i=0; i<Len; i++) {
     ab2:	b2ad      	uxth	r5, r5
     ab4:	42ab      	cmp	r3, r5
     ab6:	d209      	bcs.n	acc <IPC_TxBufferIsEnough+0x30>
		if(++TxPtr >= IPC_TX_END) 
     ab8:	3401      	adds	r4, #1
     aba:	4294      	cmp	r4, r2
     abc:	d901      	bls.n	ac2 <IPC_TxBufferIsEnough+0x26>
			TxPtr = IPC_TX_HEAD;
     abe:	2480      	movs	r4, #128	; 0x80
     ac0:	0264      	lsls	r4, r4, #9

		if(TxPtr == TxReadPtr)
     ac2:	4284      	cmp	r4, r0
     ac4:	d004      	beq.n	ad0 <IPC_TxBufferIsEnough+0x34>
unsigned char IPC_TxBufferIsEnough(uint8_t Len)
{
	uint32_t TxPtr = HR_REG_24BIT(reg_map(IPC_TX_WRITE_PTR));
	uint32_t TxReadPtr = HR_REG_24BIT(reg_map(IPC_TX_READ_PTR));

	for (uint16_t i=0; i<Len; i++) {
     ac6:	3301      	adds	r3, #1
     ac8:	b29b      	uxth	r3, r3
     aca:	e7f3      	b.n	ab4 <IPC_TxBufferIsEnough+0x18>

		if(TxPtr == TxReadPtr)
			return 0;

	}
	return 1;
     acc:	2001      	movs	r0, #1
     ace:	e000      	b.n	ad2 <IPC_TxBufferIsEnough+0x36>
	for (uint16_t i=0; i<Len; i++) {
		if(++TxPtr >= IPC_TX_END) 
			TxPtr = IPC_TX_HEAD;

		if(TxPtr == TxReadPtr)
			return 0;
     ad0:	2000      	movs	r0, #0

	}
	return 1;
}
     ad2:	bd70      	pop	{r4, r5, r6, pc}
     ad4:	10010300 	.word	0x10010300
     ad8:	10010304 	.word	0x10010304
     adc:	000102ff 	.word	0x000102ff

00000ae0 <IPC_WaitBufferEnough>:

unsigned char IPC_WaitBufferEnough(uint8_t Len)
{
     ae0:	b510      	push	{r4, lr}
     ae2:	0004      	movs	r4, r0
	int m;
	while(1){
		if(IPC_TxBufferIsEnough(Len))
     ae4:	0020      	movs	r0, r4
     ae6:	f7ff ffd9 	bl	a9c <IPC_TxBufferIsEnough>
     aea:	2800      	cmp	r0, #0
     aec:	d0fa      	beq.n	ae4 <IPC_WaitBufferEnough+0x4>
		{
			m = 1000;
			while(m--);
		}
	}
}
     aee:	2001      	movs	r0, #1
     af0:	bd10      	pop	{r4, pc}

00000af2 <IPC_TxCommon>:

void IPC_TxCommon(uint8_t Type, uint8_t* Dt, uint8_t Len)
{
     af2:	b570      	push	{r4, r5, r6, lr}
	ipcSendBuff[0] = Type;
     af4:	4d07      	ldr	r5, [pc, #28]	; (b14 <IPC_TxCommon+0x22>)
	if (Len == 0 || Len > IPC_TX_BUFF_LEN-2)
     af6:	1e53      	subs	r3, r2, #1
		}
	}
}

void IPC_TxCommon(uint8_t Type, uint8_t* Dt, uint8_t Len)
{
     af8:	0014      	movs	r4, r2
	ipcSendBuff[0] = Type;
     afa:	7028      	strb	r0, [r5, #0]
	if (Len == 0 || Len > IPC_TX_BUFF_LEN-2)
     afc:	2b1b      	cmp	r3, #27
     afe:	d808      	bhi.n	b12 <IPC_TxCommon+0x20>
		return;
	ipcSendBuff[1] = Len;
	memcpy(&ipcSendBuff[2], Dt, Len);
     b00:	4805      	ldr	r0, [pc, #20]	; (b18 <IPC_TxCommon+0x26>)
	ipcTx(ipcSendBuff, Len + 2);
     b02:	3402      	adds	r4, #2
void IPC_TxCommon(uint8_t Type, uint8_t* Dt, uint8_t Len)
{
	ipcSendBuff[0] = Type;
	if (Len == 0 || Len > IPC_TX_BUFF_LEN-2)
		return;
	ipcSendBuff[1] = Len;
     b04:	706a      	strb	r2, [r5, #1]
	memcpy(&ipcSendBuff[2], Dt, Len);
     b06:	f014 ff63 	bl	159d0 <memcpy>
	ipcTx(ipcSendBuff, Len + 2);
     b0a:	b2e1      	uxtb	r1, r4
     b0c:	0028      	movs	r0, r5
     b0e:	f7ff ff99 	bl	a44 <ipcTx>
}
     b12:	bd70      	pop	{r4, r5, r6, pc}
     b14:	100127da 	.word	0x100127da
     b18:	100127dc 	.word	0x100127dc

00000b1c <IPC_TxPacket>:

void IPC_TxPacket(IPC_DATA_FORMAT *packet)
{
	if (packet->len == 0)
     b1c:	7841      	ldrb	r1, [r0, #1]
	memcpy(&ipcSendBuff[2], Dt, Len);
	ipcTx(ipcSendBuff, Len + 2);
}

void IPC_TxPacket(IPC_DATA_FORMAT *packet)
{
     b1e:	b510      	push	{r4, lr}
	if (packet->len == 0)
     b20:	2900      	cmp	r1, #0
     b22:	d003      	beq.n	b2c <IPC_TxPacket+0x10>
		return;

	ipcTx((unsigned char*)packet,  packet->len+ 2);
     b24:	3102      	adds	r1, #2
     b26:	b2c9      	uxtb	r1, r1
     b28:	f7ff ff8c 	bl	a44 <ipcTx>
}
     b2c:	bd10      	pop	{r4, pc}

00000b2e <IPC_TxControlCmd>:

void IPC_TxControlCmd(uint8_t Cmd)
{
     b2e:	b573      	push	{r0, r1, r4, r5, r6, lr}
#define IPC_CMD_LEN 3
	uint8_t cmdBuff[IPC_CMD_LEN] = {IPC_CONTROL_CMD,0x01};
     b30:	2503      	movs	r5, #3
     b32:	ac01      	add	r4, sp, #4

	ipcTx((unsigned char*)packet,  packet->len+ 2);
}

void IPC_TxControlCmd(uint8_t Cmd)
{
     b34:	0006      	movs	r6, r0
#define IPC_CMD_LEN 3
	uint8_t cmdBuff[IPC_CMD_LEN] = {IPC_CONTROL_CMD,0x01};
     b36:	002a      	movs	r2, r5
     b38:	2100      	movs	r1, #0
     b3a:	0020      	movs	r0, r4
     b3c:	f014 ff86 	bl	15a4c <memset>
     b40:	2301      	movs	r3, #1
	cmdBuff[IPC_CMD_LEN - 1] = Cmd;
	ipcTx(cmdBuff, IPC_CMD_LEN);
     b42:	0029      	movs	r1, r5
     b44:	0020      	movs	r0, r4

void IPC_TxControlCmd(uint8_t Cmd)
{
#define IPC_CMD_LEN 3
	uint8_t cmdBuff[IPC_CMD_LEN] = {IPC_CONTROL_CMD,0x01};
	cmdBuff[IPC_CMD_LEN - 1] = Cmd;
     b46:	70a6      	strb	r6, [r4, #2]
}

void IPC_TxControlCmd(uint8_t Cmd)
{
#define IPC_CMD_LEN 3
	uint8_t cmdBuff[IPC_CMD_LEN] = {IPC_CONTROL_CMD,0x01};
     b48:	7023      	strb	r3, [r4, #0]
     b4a:	7063      	strb	r3, [r4, #1]
	cmdBuff[IPC_CMD_LEN - 1] = Cmd;
	ipcTx(cmdBuff, IPC_CMD_LEN);
     b4c:	f7ff ff7a 	bl	a44 <ipcTx>
}
     b50:	bd73      	pop	{r0, r1, r4, r5, r6, pc}

00000b52 <IPC_GetBBDIsconnectReason>:
     b52:	2000      	movs	r0, #0
     b54:	4770      	bx	lr

00000b56 <IPC_CheckServerConenct>:
}

uint8_t IPC_CheckServerConenct()
{
	return 0;
}
     b56:	2000      	movs	r0, #0
     b58:	4770      	bx	lr

00000b5a <IPC_CheckReconnect>:

uint8_t IPC_CheckReconnect()
{
	return 0;
}
     b5a:	2000      	movs	r0, #0
     b5c:	4770      	bx	lr

00000b5e <IPC_WaitLpm>:

void IPC_WaitLpm()
{
     b5e:	b510      	push	{r4, lr}
	int dayloop = 10000;
	while(dayloop--) hw_delay();
     b60:	4c03      	ldr	r4, [pc, #12]	; (b70 <IPC_WaitLpm+0x12>)
     b62:	3c01      	subs	r4, #1
     b64:	2c00      	cmp	r4, #0
     b66:	d002      	beq.n	b6e <IPC_WaitLpm+0x10>
     b68:	f7ff ff0a 	bl	980 <hw_delay>
     b6c:	e7f9      	b.n	b62 <IPC_WaitLpm+0x4>
}
     b6e:	bd10      	pop	{r4, pc}
     b70:	00002711 	.word	0x00002711

00000b74 <IPC_AbandonLpm>:

void IPC_AbandonLpm()
{
     b74:	b510      	push	{r4, lr}
	hw_delay();
     b76:	f7ff ff03 	bl	980 <hw_delay>
	//HW_REG_8BIT(IPC_M0_BUSY_FALG_ADDR, 0);
}
     b7a:	bd10      	pop	{r4, pc}

00000b7c <IPC_DisableLpm>:
     b7c:	b510      	push	{r4, lr}
     b7e:	f7ff feff 	bl	980 <hw_delay>
     b82:	bd10      	pop	{r4, pc}

00000b84 <IPC_EnableLpm>:
	hw_delay();
	//HW_REG_8BIT(IPC_LPM_FLAG_ADDR, 0);
}

void IPC_EnableLpm()
{
     b84:	b510      	push	{r4, lr}
	hw_delay();
     b86:	f7ff fefb 	bl	980 <hw_delay>
	//HW_REG_8BIT(IPC_LPM_FLAG_ADDR, 1);
}
     b8a:	bd10      	pop	{r4, pc}

00000b8c <IPC_IsTxBuffEmpty>:


uint8_t IPC_IsTxBuffEmpty()
{
     b8c:	b510      	push	{r4, lr}
	uint32_t TxReadPtr = HR_REG_24BIT(reg_map(IPC_TX_READ_PTR));
     b8e:	4806      	ldr	r0, [pc, #24]	; (ba8 <IPC_IsTxBuffEmpty+0x1c>)
     b90:	f7ff fefc 	bl	98c <HR_REG_24BIT>
     b94:	0004      	movs	r4, r0
	uint32_t TxWritePtr = HR_REG_24BIT(reg_map(IPC_TX_WRITE_PTR));
     b96:	4805      	ldr	r0, [pc, #20]	; (bac <IPC_IsTxBuffEmpty+0x20>)
     b98:	f7ff fef8 	bl	98c <HR_REG_24BIT>
     b9c:	1a20      	subs	r0, r4, r0
     b9e:	4244      	negs	r4, r0
     ba0:	4160      	adcs	r0, r4
	if (TxWritePtr == TxReadPtr)
		return 1;
	return 0;
}
     ba2:	b2c0      	uxtb	r0, r0
     ba4:	bd10      	pop	{r4, pc}
     ba6:	46c0      	nop			; (mov r8, r8)
     ba8:	10010304 	.word	0x10010304
     bac:	10010300 	.word	0x10010300

00000bb0 <IPC_IsRxBuffEmpty>:

uint8_t IPC_IsRxBuffEmpty()
{
     bb0:	b510      	push	{r4, lr}
	uint32_t RxReadPtr = HR_REG_24BIT(reg_map(IPC_RX_READ_PTR));
     bb2:	4806      	ldr	r0, [pc, #24]	; (bcc <IPC_IsRxBuffEmpty+0x1c>)
     bb4:	f7ff feea 	bl	98c <HR_REG_24BIT>
     bb8:	0004      	movs	r4, r0
	uint32_t RxWritePtr = HR_REG_24BIT(reg_map(IPC_RX_WRITE_PTR));
     bba:	4805      	ldr	r0, [pc, #20]	; (bd0 <IPC_IsRxBuffEmpty+0x20>)
     bbc:	f7ff fee6 	bl	98c <HR_REG_24BIT>
     bc0:	1a20      	subs	r0, r4, r0
     bc2:	4244      	negs	r4, r0
     bc4:	4160      	adcs	r0, r4
//	printf("RxReadPtr = %06x, RxWritePtr = %06x \n",RxReadPtr,RxWritePtr);
	if (RxReadPtr == RxWritePtr)
		return 1;
	return 0;
}
     bc6:	b2c0      	uxtb	r0, r0
     bc8:	bd10      	pop	{r4, pc}
     bca:	46c0      	nop			; (mov r8, r8)
     bcc:	1001030c 	.word	0x1001030c
     bd0:	10010308 	.word	0x10010308

00000bd4 <IPC_HandleRxPacket>:

uint16_t a2dpLen;


void IPC_HandleRxPacket()
{
     bd4:	b570      	push	{r4, r5, r6, lr}
	uint8_t *pbuff = ipcReadBuff;
	if (IPC_IsRxBuffEmpty())
     bd6:	f7ff ffeb 	bl	bb0 <IPC_IsRxBuffEmpty>
     bda:	2800      	cmp	r0, #0
     bdc:	d117      	bne.n	c0e <IPC_HandleRxPacket+0x3a>
		return;

	ipcRx(ipcReadBuff, 2);
     bde:	4c0c      	ldr	r4, [pc, #48]	; (c10 <IPC_HandleRxPacket+0x3c>)
     be0:	2102      	movs	r1, #2
     be2:	0020      	movs	r0, r4
     be4:	f7ff ff00 	bl	9e8 <ipcRx>
	if(*pbuff > IPC_TYPE_START && *pbuff < IPC_TYPE_NUM)
     be8:	7823      	ldrb	r3, [r4, #0]
     bea:	3b01      	subs	r3, #1
     bec:	2b0a      	cmp	r3, #10
     bee:	d80d      	bhi.n	c0c <IPC_HandleRxPacket+0x38>
	{
		ipcRx(ipcReadBuff+2, *(pbuff+1));	
     bf0:	4d08      	ldr	r5, [pc, #32]	; (c14 <IPC_HandleRxPacket+0x40>)
     bf2:	7861      	ldrb	r1, [r4, #1]
     bf4:	0028      	movs	r0, r5
     bf6:	f7ff fef7 	bl	9e8 <ipcRx>
		//(*gIPCHandleCb[*pbuff])(*(pbuff+1),pbuff+2);
		(*(*ipcCbArray)[*pbuff])(*(pbuff+1),pbuff+2);
     bfa:	4b07      	ldr	r3, [pc, #28]	; (c18 <IPC_HandleRxPacket+0x44>)
     bfc:	7860      	ldrb	r0, [r4, #1]
     bfe:	6a9a      	ldr	r2, [r3, #40]	; 0x28
     c00:	7823      	ldrb	r3, [r4, #0]
     c02:	0029      	movs	r1, r5
     c04:	009b      	lsls	r3, r3, #2
     c06:	589b      	ldr	r3, [r3, r2]
     c08:	4798      	blx	r3
     c0a:	e000      	b.n	c0e <IPC_HandleRxPacket+0x3a>
     c0c:	e7fe      	b.n	c0c <IPC_HandleRxPacket+0x38>
	else
	{
		while(1);
	}

}
     c0e:	bd70      	pop	{r4, r5, r6, pc}
     c10:	10012712 	.word	0x10012712
     c14:	10012714 	.word	0x10012714
     c18:	10010f8c 	.word	0x10010f8c

00000c1c <IPC_DealSingleStep>:

void IPC_DealSingleStep()
{
     c1c:	b570      	push	{r4, r5, r6, lr}
#define IPC_FRAME_HEAD_SIZE 3
	uint8_t *pbuff = ipcReadBuff;//СΪ30ֽ
	if (IPC_IsRxBuffEmpty())
     c1e:	f7ff ffc7 	bl	bb0 <IPC_IsRxBuffEmpty>
     c22:	2800      	cmp	r0, #0
     c24:	d000      	beq.n	c28 <IPC_DealSingleStep+0xc>
     c26:	e082      	b.n	d2e <IPC_DealSingleStep+0x112>
		return;
			
	ipcRx(ipcReadBuff, IPC_FRAME_HEAD_SIZE);
     c28:	4d41      	ldr	r5, [pc, #260]	; (d30 <IPC_DealSingleStep+0x114>)
     c2a:	2103      	movs	r1, #3
     c2c:	0028      	movs	r0, r5
     c2e:	f7ff fedb 	bl	9e8 <ipcRx>
 		
	if (*pbuff == IPC_CONTROL_EVT) {
     c32:	782b      	ldrb	r3, [r5, #0]
     c34:	2b02      	cmp	r3, #2
     c36:	d108      	bne.n	c4a <IPC_DealSingleStep+0x2e>
		pbuff += 2;
		if(ipcCb.evtcb) ipcCb.evtcb(*pbuff);//յ
     c38:	4b3e      	ldr	r3, [pc, #248]	; (d34 <IPC_DealSingleStep+0x118>)
     c3a:	4e3f      	ldr	r6, [pc, #252]	; (d38 <IPC_DealSingleStep+0x11c>)
     c3c:	681b      	ldr	r3, [r3, #0]
		return;
			
	ipcRx(ipcReadBuff, IPC_FRAME_HEAD_SIZE);
 		
	if (*pbuff == IPC_CONTROL_EVT) {
		pbuff += 2;
     c3e:	0034      	movs	r4, r6
		if(ipcCb.evtcb) ipcCb.evtcb(*pbuff);//յ
     c40:	2b00      	cmp	r3, #0
     c42:	d016      	beq.n	c72 <IPC_DealSingleStep+0x56>
     c44:	78a8      	ldrb	r0, [r5, #2]
     c46:	4798      	blx	r3
     c48:	e013      	b.n	c72 <IPC_DealSingleStep+0x56>
}

void IPC_DealSingleStep()
{
#define IPC_FRAME_HEAD_SIZE 3
	uint8_t *pbuff = ipcReadBuff;//СΪ30ֽ
     c4a:	002c      	movs	r4, r5
 		
	if (*pbuff == IPC_CONTROL_EVT) {
		pbuff += 2;
		if(ipcCb.evtcb) ipcCb.evtcb(*pbuff);//յ
	}
	else if (*pbuff == IPC_SPP_DATA) {
     c4c:	2b04      	cmp	r3, #4
     c4e:	d110      	bne.n	c72 <IPC_DealSingleStep+0x56>
		pbuff++;
		ipcRx(ipcReadBuff+IPC_FRAME_HEAD_SIZE, *pbuff -1);
     c50:	7869      	ldrb	r1, [r5, #1]
     c52:	483a      	ldr	r0, [pc, #232]	; (d3c <IPC_DealSingleStep+0x120>)
     c54:	3901      	subs	r1, #1
     c56:	b289      	uxth	r1, r1
     c58:	f7ff fec6 	bl	9e8 <ipcRx>
		if(ipcCb.sppcb) ipcCb.sppcb(pbuff+1, *pbuff);
     c5c:	4b35      	ldr	r3, [pc, #212]	; (d34 <IPC_DealSingleStep+0x118>)
     c5e:	4d38      	ldr	r5, [pc, #224]	; (d40 <IPC_DealSingleStep+0x124>)
     c60:	685b      	ldr	r3, [r3, #4]
     c62:	2b00      	cmp	r3, #0
     c64:	d004      	beq.n	c70 <IPC_DealSingleStep+0x54>
     c66:	7861      	ldrb	r1, [r4, #1]
     c68:	4833      	ldr	r0, [pc, #204]	; (d38 <IPC_DealSingleStep+0x11c>)
     c6a:	4798      	blx	r3
	if (*pbuff == IPC_CONTROL_EVT) {
		pbuff += 2;
		if(ipcCb.evtcb) ipcCb.evtcb(*pbuff);//յ
	}
	else if (*pbuff == IPC_SPP_DATA) {
		pbuff++;
     c6c:	002c      	movs	r4, r5
     c6e:	e000      	b.n	c72 <IPC_DealSingleStep+0x56>
     c70:	002c      	movs	r4, r5
		ipcRx(ipcReadBuff+IPC_FRAME_HEAD_SIZE, *pbuff -1);
		if(ipcCb.sppcb) ipcCb.sppcb(pbuff+1, *pbuff);
	}	
	if (*pbuff == IPC_BLE_DATA) {
     c72:	7823      	ldrb	r3, [r4, #0]
     c74:	2b05      	cmp	r3, #5
     c76:	d10a      	bne.n	c8e <IPC_DealSingleStep+0x72>
		pbuff++;
		ipcRx(ipcReadBuff+IPC_FRAME_HEAD_SIZE, *pbuff -1);				
     c78:	7861      	ldrb	r1, [r4, #1]
     c7a:	4830      	ldr	r0, [pc, #192]	; (d3c <IPC_DealSingleStep+0x120>)
     c7c:	3901      	subs	r1, #1
     c7e:	b289      	uxth	r1, r1
     c80:	f7ff feb2 	bl	9e8 <ipcRx>
		if(ipcCb.blecb) ipcCb.blecb(pbuff+1, *pbuff);//յ
     c84:	4b2b      	ldr	r3, [pc, #172]	; (d34 <IPC_DealSingleStep+0x118>)
     c86:	691b      	ldr	r3, [r3, #16]
     c88:	2b00      	cmp	r3, #0
     c8a:	d14d      	bne.n	d28 <IPC_DealSingleStep+0x10c>
     c8c:	e04f      	b.n	d2e <IPC_DealSingleStep+0x112>
	}	
	else if (*pbuff == IPC_HID_DATA) {
     c8e:	2b03      	cmp	r3, #3
     c90:	d10a      	bne.n	ca8 <IPC_DealSingleStep+0x8c>
		pbuff++;
		ipcRx(ipcReadBuff+IPC_FRAME_HEAD_SIZE, *pbuff -1);
     c92:	7861      	ldrb	r1, [r4, #1]
     c94:	4829      	ldr	r0, [pc, #164]	; (d3c <IPC_DealSingleStep+0x120>)
     c96:	3901      	subs	r1, #1
     c98:	b289      	uxth	r1, r1
     c9a:	f7ff fea5 	bl	9e8 <ipcRx>
		if(ipcCb.hidcb) ipcCb.hidcb(pbuff+1, *pbuff);
     c9e:	4b25      	ldr	r3, [pc, #148]	; (d34 <IPC_DealSingleStep+0x118>)
     ca0:	699b      	ldr	r3, [r3, #24]
     ca2:	2b00      	cmp	r3, #0
     ca4:	d140      	bne.n	d28 <IPC_DealSingleStep+0x10c>
     ca6:	e042      	b.n	d2e <IPC_DealSingleStep+0x112>
	}
	else if (*pbuff == IPC_MESH_DATA) {
     ca8:	2b07      	cmp	r3, #7
     caa:	d110      	bne.n	cce <IPC_DealSingleStep+0xb2>
 		pbuff++;
		ipcRx(ipcReadBuff+IPC_FRAME_HEAD_SIZE, *pbuff -1);
     cac:	7861      	ldrb	r1, [r4, #1]
     cae:	4823      	ldr	r0, [pc, #140]	; (d3c <IPC_DealSingleStep+0x120>)
     cb0:	3901      	subs	r1, #1
     cb2:	b289      	uxth	r1, r1
     cb4:	f7ff fe98 	bl	9e8 <ipcRx>
		if(ipcCb.meshcb) ipcCb.meshcb(*(pbuff+1), pbuff+2, *pbuff-1);
     cb8:	4b1e      	ldr	r3, [pc, #120]	; (d34 <IPC_DealSingleStep+0x118>)
     cba:	69db      	ldr	r3, [r3, #28]
     cbc:	2b00      	cmp	r3, #0
     cbe:	d036      	beq.n	d2e <IPC_DealSingleStep+0x112>
     cc0:	7862      	ldrb	r2, [r4, #1]
     cc2:	1ce1      	adds	r1, r4, #3
     cc4:	3a01      	subs	r2, #1
     cc6:	b292      	uxth	r2, r2
     cc8:	78a0      	ldrb	r0, [r4, #2]
     cca:	4798      	blx	r3
     ccc:	e02f      	b.n	d2e <IPC_DealSingleStep+0x112>
	}
	else if (*pbuff == IPC_A2DP_DATA) {
     cce:	2b0a      	cmp	r3, #10
     cd0:	d111      	bne.n	cf6 <IPC_DealSingleStep+0xda>
		pbuff++;
		a2dpLen = pbuff[0]|pbuff[1]<<8;
     cd2:	78a1      	ldrb	r1, [r4, #2]
     cd4:	7863      	ldrb	r3, [r4, #1]
		ipcRx(ipcReadBuff+IPC_FRAME_HEAD_SIZE, a2dpLen);
     cd6:	4c19      	ldr	r4, [pc, #100]	; (d3c <IPC_DealSingleStep+0x120>)
		ipcRx(ipcReadBuff+IPC_FRAME_HEAD_SIZE, *pbuff -1);
		if(ipcCb.meshcb) ipcCb.meshcb(*(pbuff+1), pbuff+2, *pbuff-1);
	}
	else if (*pbuff == IPC_A2DP_DATA) {
		pbuff++;
		a2dpLen = pbuff[0]|pbuff[1]<<8;
     cd8:	4d1a      	ldr	r5, [pc, #104]	; (d44 <IPC_DealSingleStep+0x128>)
     cda:	0209      	lsls	r1, r1, #8
     cdc:	4319      	orrs	r1, r3
		ipcRx(ipcReadBuff+IPC_FRAME_HEAD_SIZE, a2dpLen);
     cde:	0020      	movs	r0, r4
		ipcRx(ipcReadBuff+IPC_FRAME_HEAD_SIZE, *pbuff -1);
		if(ipcCb.meshcb) ipcCb.meshcb(*(pbuff+1), pbuff+2, *pbuff-1);
	}
	else if (*pbuff == IPC_A2DP_DATA) {
		pbuff++;
		a2dpLen = pbuff[0]|pbuff[1]<<8;
     ce0:	8029      	strh	r1, [r5, #0]
		ipcRx(ipcReadBuff+IPC_FRAME_HEAD_SIZE, a2dpLen);
     ce2:	f7ff fe81 	bl	9e8 <ipcRx>
		if(ipcCb.a2dpcb) ipcCb.a2dpcb(ipcReadBuff+IPC_FRAME_HEAD_SIZE,a2dpLen);
     ce6:	4b13      	ldr	r3, [pc, #76]	; (d34 <IPC_DealSingleStep+0x118>)
     ce8:	6a1b      	ldr	r3, [r3, #32]
     cea:	2b00      	cmp	r3, #0
     cec:	d01f      	beq.n	d2e <IPC_DealSingleStep+0x112>
     cee:	8829      	ldrh	r1, [r5, #0]
     cf0:	0020      	movs	r0, r4
     cf2:	4798      	blx	r3
     cf4:	e01b      	b.n	d2e <IPC_DealSingleStep+0x112>
	}
	else if(*pbuff == IPC_MESH_ADV_DATA) {
     cf6:	2b08      	cmp	r3, #8
     cf8:	d10a      	bne.n	d10 <IPC_DealSingleStep+0xf4>
		pbuff++;
		ipcRx(ipcReadBuff+IPC_FRAME_HEAD_SIZE,*pbuff -1);
     cfa:	7861      	ldrb	r1, [r4, #1]
     cfc:	480f      	ldr	r0, [pc, #60]	; (d3c <IPC_DealSingleStep+0x120>)
     cfe:	3901      	subs	r1, #1
     d00:	b289      	uxth	r1, r1
     d02:	f7ff fe71 	bl	9e8 <ipcRx>
		if(ipcCb.advcb) ipcCb.advcb(pbuff+1,*pbuff);
     d06:	4b0b      	ldr	r3, [pc, #44]	; (d34 <IPC_DealSingleStep+0x118>)
     d08:	695b      	ldr	r3, [r3, #20]
     d0a:	2b00      	cmp	r3, #0
     d0c:	d10c      	bne.n	d28 <IPC_DealSingleStep+0x10c>
     d0e:	e00e      	b.n	d2e <IPC_DealSingleStep+0x112>
	}else if(*pbuff == IPC_READ_CONN_PARA) {
     d10:	2b0c      	cmp	r3, #12
     d12:	d10c      	bne.n	d2e <IPC_DealSingleStep+0x112>
		pbuff++;
		ipcRx(ipcReadBuff+IPC_FRAME_HEAD_SIZE,*pbuff-1);
     d14:	7861      	ldrb	r1, [r4, #1]
     d16:	4809      	ldr	r0, [pc, #36]	; (d3c <IPC_DealSingleStep+0x120>)
     d18:	3901      	subs	r1, #1
     d1a:	b289      	uxth	r1, r1
     d1c:	f7ff fe64 	bl	9e8 <ipcRx>
		if(ipcCb.readconnparamcb) ipcCb.readconnparamcb(pbuff+1,*pbuff);//
     d20:	4b04      	ldr	r3, [pc, #16]	; (d34 <IPC_DealSingleStep+0x118>)
     d22:	6a5b      	ldr	r3, [r3, #36]	; 0x24
     d24:	2b00      	cmp	r3, #0
     d26:	d002      	beq.n	d2e <IPC_DealSingleStep+0x112>
     d28:	7861      	ldrb	r1, [r4, #1]
     d2a:	1ca0      	adds	r0, r4, #2
     d2c:	4798      	blx	r3
	}
//	while(1);
}
     d2e:	bd70      	pop	{r4, r5, r6, pc}
     d30:	10012712 	.word	0x10012712
     d34:	10010f8c 	.word	0x10010f8c
     d38:	10012714 	.word	0x10012714
     d3c:	10012715 	.word	0x10012715
     d40:	10012713 	.word	0x10012713
     d44:	100127fa 	.word	0x100127fa

00000d48 <IPC_set_ack_flag>:

void IPC_set_ack_flag()
{
  HWRITE(IPC_MCU_PHASE,IPC_MCU_PHASE1_ACK);
     d48:	2302      	movs	r3, #2
     d4a:	490b      	ldr	r1, [pc, #44]	; (d78 <IPC_set_ack_flag+0x30>)
	}
//	while(1);
}

void IPC_set_ack_flag()
{
     d4c:	b570      	push	{r4, r5, r6, lr}
  HWRITE(IPC_MCU_PHASE,IPC_MCU_PHASE1_ACK);
     d4e:	700b      	strb	r3, [r1, #0]
  HWRITE(IPC_MCU_STATE,IPC_MCU_STATE_RUNNING);
     d50:	4b0a      	ldr	r3, [pc, #40]	; (d7c <IPC_set_ack_flag+0x34>)
     d52:	2200      	movs	r2, #0
  while(HREAD(IPC_MCU_STATE))
     d54:	001c      	movs	r4, r3
    {
    HWRITE(0x4ff1,IPC_MCU_STATE_HIBERNATE);
     d56:	2601      	movs	r6, #1
     d58:	4d09      	ldr	r5, [pc, #36]	; (d80 <IPC_set_ack_flag+0x38>)
}

void IPC_set_ack_flag()
{
  HWRITE(IPC_MCU_PHASE,IPC_MCU_PHASE1_ACK);
  HWRITE(IPC_MCU_STATE,IPC_MCU_STATE_RUNNING);
     d5a:	701a      	strb	r2, [r3, #0]
  while(HREAD(IPC_MCU_STATE))
     d5c:	7818      	ldrb	r0, [r3, #0]
     d5e:	2800      	cmp	r0, #0
     d60:	d002      	beq.n	d68 <IPC_set_ack_flag+0x20>
    {
    HWRITE(0x4ff1,IPC_MCU_STATE_HIBERNATE);
     d62:	702e      	strb	r6, [r5, #0]
    HWRITE(IPC_MCU_STATE,IPC_MCU_STATE_RUNNING);
     d64:	7022      	strb	r2, [r4, #0]
     d66:	e7f9      	b.n	d5c <IPC_set_ack_flag+0x14>
    }
  while(HREAD(IPC_MCU_PHASE) != IPC_MCU_PHASE1_ACK)
     d68:	4a03      	ldr	r2, [pc, #12]	; (d78 <IPC_set_ack_flag+0x30>)
    {
    HWRITE(IPC_MCU_PHASE,IPC_MCU_PHASE1_ACK);
     d6a:	3002      	adds	r0, #2
  while(HREAD(IPC_MCU_STATE))
    {
    HWRITE(0x4ff1,IPC_MCU_STATE_HIBERNATE);
    HWRITE(IPC_MCU_STATE,IPC_MCU_STATE_RUNNING);
    }
  while(HREAD(IPC_MCU_PHASE) != IPC_MCU_PHASE1_ACK)
     d6c:	780b      	ldrb	r3, [r1, #0]
     d6e:	2b02      	cmp	r3, #2
     d70:	d001      	beq.n	d76 <IPC_set_ack_flag+0x2e>
    {
    HWRITE(IPC_MCU_PHASE,IPC_MCU_PHASE1_ACK);
     d72:	7010      	strb	r0, [r2, #0]
     d74:	e7fa      	b.n	d6c <IPC_set_ack_flag+0x24>
    }
}
     d76:	bd70      	pop	{r4, r5, r6, pc}
     d78:	10004333 	.word	0x10004333
     d7c:	10004334 	.word	0x10004334
     d80:	10004ff1 	.word	0x10004ff1

00000d84 <IPC_set_nack_flag>:

void IPC_set_nack_flag()
{
	HWRITE(IPC_MCU_PHASE,IPC_MCU_PHASE1_NACK);
     d84:	2201      	movs	r2, #1
     d86:	4b03      	ldr	r3, [pc, #12]	; (d94 <IPC_set_nack_flag+0x10>)
     d88:	701a      	strb	r2, [r3, #0]
	HWRITE(IPC_MCU_STATE,IPC_MCU_STATE_RUNNING);
     d8a:	2200      	movs	r2, #0
     d8c:	4b02      	ldr	r3, [pc, #8]	; (d98 <IPC_set_nack_flag+0x14>)
     d8e:	701a      	strb	r2, [r3, #0]
}
     d90:	4770      	bx	lr
     d92:	46c0      	nop			; (mov r8, r8)
     d94:	10004333 	.word	0x10004333
     d98:	10004334 	.word	0x10004334

00000d9c <IPC_clear_flag>:

void IPC_clear_flag()
{
	HWRITE(IPC_MCU_PHASE,IPC_MCU_PHASE_IDLE);
     d9c:	2300      	movs	r3, #0
     d9e:	4a02      	ldr	r2, [pc, #8]	; (da8 <IPC_clear_flag+0xc>)
     da0:	7013      	strb	r3, [r2, #0]
	HWRITE(IPC_MCU_STATE,IPC_MCU_STATE_RUNNING);
     da2:	4a02      	ldr	r2, [pc, #8]	; (dac <IPC_clear_flag+0x10>)
     da4:	7013      	strb	r3, [r2, #0]
}
     da6:	4770      	bx	lr
     da8:	10004333 	.word	0x10004333
     dac:	10004334 	.word	0x10004334

00000db0 <IPC_wait_ack>:
	int i;
	while(1)
	{
		i = 500;
		while(i--);
		switch (HREAD(IPC_MCU_PHASE))
     db0:	4a02      	ldr	r2, [pc, #8]	; (dbc <IPC_wait_ack+0xc>)
     db2:	7813      	ldrb	r3, [r2, #0]
     db4:	2b00      	cmp	r3, #0
     db6:	d1fc      	bne.n	db2 <IPC_wait_ack+0x2>
				break;
			case IPC_MCU_PHASE_IDLE:
				return;
		}
	}
}
     db8:	4770      	bx	lr
     dba:	46c0      	nop			; (mov r8, r8)
     dbc:	10004333 	.word	0x10004333

00000dc0 <Start>:
#endif


void __attribute__((noinline)) Start()
{
	__ASM("nop");
     dc0:	46c0      	nop			; (mov r8, r8)
}
     dc2:	4770      	bx	lr

00000dc4 <FillSendCMD>:
{
	//uint8_t j;
	buf[0] = cmd;
	//for(j = 0;j < 3;j++);
//	QSPI_Delay(1);
	buf[1] = flash_addr >> 16;
     dc4:	1413      	asrs	r3, r2, #16
     dc6:	7043      	strb	r3, [r0, #1]
	//for(j = 0;j < 3;j++);
//	QSPI_Delay(1);
	buf[2] = flash_addr >> 8;
     dc8:	1213      	asrs	r3, r2, #8
*/

void __attribute__((noinline))   FillSendCMD(uint8_t *buf, uint8_t cmd, int flash_addr)
{
	//uint8_t j;
	buf[0] = cmd;
     dca:	7001      	strb	r1, [r0, #0]
	//for(j = 0;j < 3;j++);
//	QSPI_Delay(1);
	buf[1] = flash_addr >> 16;
	//for(j = 0;j < 3;j++);
//	QSPI_Delay(1);
	buf[2] = flash_addr >> 8;
     dcc:	7083      	strb	r3, [r0, #2]
	//for(j = 0;j < 3;j++);
//	QSPI_Delay(1);
	buf[3] = flash_addr;
     dce:	70c2      	strb	r2, [r0, #3]
}
     dd0:	4770      	bx	lr

00000dd2 <ReadFlashDSPI>:
//	}
}
*/

void  ReadFlashDSPI(uint8_t cammond,int flash_addr, int rxlen, uint8_t *rxbuf)
{
     dd2:	b5f0      	push	{r4, r5, r6, r7, lr}
     dd4:	001e      	movs	r6, r3
//	int addr;
//	volatile unsigned int i, j;
	uint8_t mode, delay;
#ifdef RAM10000
	uint8_t temp[4]={0,0,0,0};
     dd6:	2300      	movs	r3, #0
//	}
}
*/

void  ReadFlashDSPI(uint8_t cammond,int flash_addr, int rxlen, uint8_t *rxbuf)
{
     dd8:	b085      	sub	sp, #20
//	int addr;
//	volatile unsigned int i, j;
	uint8_t mode, delay;
#ifdef RAM10000
	uint8_t temp[4]={0,0,0,0};
     dda:	ac03      	add	r4, sp, #12
//	}
}
*/

void  ReadFlashDSPI(uint8_t cammond,int flash_addr, int rxlen, uint8_t *rxbuf)
{
     ddc:	0015      	movs	r5, r2
//	volatile unsigned int i, j;
	uint8_t mode, delay;
#ifdef RAM10000
	uint8_t temp[4]={0,0,0,0};
#endif
	FillSendCMD(temp, cammond, flash_addr);
     dde:	000a      	movs	r2, r1
     de0:	0001      	movs	r1, r0
     de2:	0020      	movs	r0, r4
{
//	int addr;
//	volatile unsigned int i, j;
	uint8_t mode, delay;
#ifdef RAM10000
	uint8_t temp[4]={0,0,0,0};
     de4:	9303      	str	r3, [sp, #12]
#endif
	FillSendCMD(temp, cammond, flash_addr);
     de6:	f7ff ffed 	bl	dc4 <FillSendCMD>
	mode = HREAD(CORE_QSPI_CTRL);
     dea:	4a1b      	ldr	r2, [pc, #108]	; (e58 <ReadFlashDSPI+0x86>)
		HWRITE(CORE_QSPI_CTRL  , 0x45);//mode&0xb8 |0x05
#else
		HWRITE(CORE_QSPI_CTRL  , 0x05);//mode&0xb8 |0x05
#endif
		HWRITE(CORE_QSPI_DELAY, 8);
		HWRITEW(CORE_QSPI_TXADDR , (int)temp);
     dec:	b2e0      	uxtb	r0, r4
	uint8_t mode, delay;
#ifdef RAM10000
	uint8_t temp[4]={0,0,0,0};
#endif
	FillSendCMD(temp, cammond, flash_addr);
	mode = HREAD(CORE_QSPI_CTRL);
     dee:	7813      	ldrb	r3, [r2, #0]
		HWRITE(CORE_QSPI_CTRL  , 0x45);//mode&0xb8 |0x05
#else
		HWRITE(CORE_QSPI_CTRL  , 0x05);//mode&0xb8 |0x05
#endif
		HWRITE(CORE_QSPI_DELAY, 8);
		HWRITEW(CORE_QSPI_TXADDR , (int)temp);
     df0:	4684      	mov	ip, r0
	uint8_t mode, delay;
#ifdef RAM10000
	uint8_t temp[4]={0,0,0,0};
#endif
	FillSendCMD(temp, cammond, flash_addr);
	mode = HREAD(CORE_QSPI_CTRL);
     df2:	b2db      	uxtb	r3, r3
     df4:	9300      	str	r3, [sp, #0]
	delay = HREAD(CORE_QSPI_DELAY);
     df6:	4b19      	ldr	r3, [pc, #100]	; (e5c <ReadFlashDSPI+0x8a>)
		HWRITE(CORE_QSPI_CTRL  , 0x45);//mode&0xb8 |0x05
#else
		HWRITE(CORE_QSPI_CTRL  , 0x05);//mode&0xb8 |0x05
#endif
		HWRITE(CORE_QSPI_DELAY, 8);
		HWRITEW(CORE_QSPI_TXADDR , (int)temp);
     df8:	4667      	mov	r7, ip
#ifdef RAM10000
	uint8_t temp[4]={0,0,0,0};
#endif
	FillSendCMD(temp, cammond, flash_addr);
	mode = HREAD(CORE_QSPI_CTRL);
	delay = HREAD(CORE_QSPI_DELAY);
     dfa:	7819      	ldrb	r1, [r3, #0]
		HWRITE(CORE_QSPI_CTRL  , 0x45);//mode&0xb8 |0x05
#else
		HWRITE(CORE_QSPI_CTRL  , 0x05);//mode&0xb8 |0x05
#endif
		HWRITE(CORE_QSPI_DELAY, 8);
		HWRITEW(CORE_QSPI_TXADDR , (int)temp);
     dfc:	4818      	ldr	r0, [pc, #96]	; (e60 <ReadFlashDSPI+0x8e>)
#ifdef RAM10000
	uint8_t temp[4]={0,0,0,0};
#endif
	FillSendCMD(temp, cammond, flash_addr);
	mode = HREAD(CORE_QSPI_CTRL);
	delay = HREAD(CORE_QSPI_DELAY);
     dfe:	b2c9      	uxtb	r1, r1
     e00:	9101      	str	r1, [sp, #4]
#ifdef RAM10000
		HWRITE(CORE_QSPI_CTRL  , 0x45);//mode&0xb8 |0x05
     e02:	2145      	movs	r1, #69	; 0x45
     e04:	7011      	strb	r1, [r2, #0]
#else
		HWRITE(CORE_QSPI_CTRL  , 0x05);//mode&0xb8 |0x05
#endif
		HWRITE(CORE_QSPI_DELAY, 8);
     e06:	393d      	subs	r1, #61	; 0x3d
		HWRITEW(CORE_QSPI_TXADDR , (int)temp);
     e08:	410c      	asrs	r4, r1
#ifdef RAM10000
		HWRITE(CORE_QSPI_CTRL  , 0x45);//mode&0xb8 |0x05
#else
		HWRITE(CORE_QSPI_CTRL  , 0x05);//mode&0xb8 |0x05
#endif
		HWRITE(CORE_QSPI_DELAY, 8);
     e0a:	7019      	strb	r1, [r3, #0]
		HWRITEW(CORE_QSPI_TXADDR , (int)temp);
     e0c:	7007      	strb	r7, [r0, #0]
     e0e:	4815      	ldr	r0, [pc, #84]	; (e64 <ReadFlashDSPI+0x92>)
     e10:	b2e4      	uxtb	r4, r4
     e12:	7004      	strb	r4, [r0, #0]
		HWRITEW(CORE_QSPI_TXLEN , 4);
     e14:	2404      	movs	r4, #4
     e16:	4814      	ldr	r0, [pc, #80]	; (e68 <ReadFlashDSPI+0x96>)
     e18:	7004      	strb	r4, [r0, #0]
     e1a:	2400      	movs	r4, #0
     e1c:	4813      	ldr	r0, [pc, #76]	; (e6c <ReadFlashDSPI+0x9a>)
     e1e:	7004      	strb	r4, [r0, #0]
		HWRITEW(CORE_QSPI_RXADDR , (int)rxbuf);
     e20:	b2f4      	uxtb	r4, r6
     e22:	410e      	asrs	r6, r1
     e24:	4812      	ldr	r0, [pc, #72]	; (e70 <ReadFlashDSPI+0x9e>)
     e26:	b2f6      	uxtb	r6, r6
     e28:	7004      	strb	r4, [r0, #0]
		HWRITEW(CORE_QSPI_RXLEN , rxlen);
     e2a:	b2ec      	uxtb	r4, r5
     e2c:	410d      	asrs	r5, r1
		HWRITE(CORE_QSPI_CTRL  , 0x05);//mode&0xb8 |0x05
#endif
		HWRITE(CORE_QSPI_DELAY, 8);
		HWRITEW(CORE_QSPI_TXADDR , (int)temp);
		HWRITEW(CORE_QSPI_TXLEN , 4);
		HWRITEW(CORE_QSPI_RXADDR , (int)rxbuf);
     e2e:	4811      	ldr	r0, [pc, #68]	; (e74 <ReadFlashDSPI+0xa2>)
		HWRITEW(CORE_QSPI_RXLEN , rxlen);
     e30:	b2ed      	uxtb	r5, r5
		HWRITE(CORE_QSPI_CTRL  , 0x05);//mode&0xb8 |0x05
#endif
		HWRITE(CORE_QSPI_DELAY, 8);
		HWRITEW(CORE_QSPI_TXADDR , (int)temp);
		HWRITEW(CORE_QSPI_TXLEN , 4);
		HWRITEW(CORE_QSPI_RXADDR , (int)rxbuf);
     e32:	7006      	strb	r6, [r0, #0]
		HWRITEW(CORE_QSPI_RXLEN , rxlen);
     e34:	4810      	ldr	r0, [pc, #64]	; (e78 <ReadFlashDSPI+0xa6>)
     e36:	7004      	strb	r4, [r0, #0]
     e38:	4810      	ldr	r0, [pc, #64]	; (e7c <ReadFlashDSPI+0xaa>)
		
		HWRITE(CORE_DMA_START , 8);
		//for(j = 0;j < 20;j++);
		while(!(HREAD(CORE_DMA_STATUS) & 8) );
     e3a:	4c11      	ldr	r4, [pc, #68]	; (e80 <ReadFlashDSPI+0xae>)
#endif
		HWRITE(CORE_QSPI_DELAY, 8);
		HWRITEW(CORE_QSPI_TXADDR , (int)temp);
		HWRITEW(CORE_QSPI_TXLEN , 4);
		HWRITEW(CORE_QSPI_RXADDR , (int)rxbuf);
		HWRITEW(CORE_QSPI_RXLEN , rxlen);
     e3c:	7005      	strb	r5, [r0, #0]
		
		HWRITE(CORE_DMA_START , 8);
     e3e:	4811      	ldr	r0, [pc, #68]	; (e84 <ReadFlashDSPI+0xb2>)
     e40:	7001      	strb	r1, [r0, #0]
		//for(j = 0;j < 20;j++);
		while(!(HREAD(CORE_DMA_STATUS) & 8) );
     e42:	7820      	ldrb	r0, [r4, #0]
     e44:	4208      	tst	r0, r1
     e46:	d0fc      	beq.n	e42 <ReadFlashDSPI+0x70>
		HWRITE(CORE_QSPI_CTRL, mode);
     e48:	4669      	mov	r1, sp
     e4a:	7809      	ldrb	r1, [r1, #0]
     e4c:	7011      	strb	r1, [r2, #0]
		HWRITE(CORE_QSPI_DELAY , delay);
     e4e:	466a      	mov	r2, sp
     e50:	7912      	ldrb	r2, [r2, #4]
     e52:	701a      	strb	r2, [r3, #0]
}
     e54:	b005      	add	sp, #20
     e56:	bdf0      	pop	{r4, r5, r6, r7, pc}
     e58:	100080a0 	.word	0x100080a0
     e5c:	100080a1 	.word	0x100080a1
     e60:	100080a4 	.word	0x100080a4
     e64:	100080a5 	.word	0x100080a5
     e68:	100080a2 	.word	0x100080a2
     e6c:	100080a3 	.word	0x100080a3
     e70:	100080a6 	.word	0x100080a6
     e74:	100080a7 	.word	0x100080a7
     e78:	100080a8 	.word	0x100080a8
     e7c:	100080a9 	.word	0x100080a9
     e80:	10008330 	.word	0x10008330
     e84:	1000800a 	.word	0x1000800a
     e88:	46c0      	nop			; (mov r8, r8)
     e8a:	46c0      	nop			; (mov r8, r8)
     e8c:	46c0      	nop			; (mov r8, r8)
     e8e:	46c0      	nop			; (mov r8, r8)
     e90:	46c0      	nop			; (mov r8, r8)
     e92:	46c0      	nop			; (mov r8, r8)
     e94:	46c0      	nop			; (mov r8, r8)
     e96:	46c0      	nop			; (mov r8, r8)
     e98:	46c0      	nop			; (mov r8, r8)
     e9a:	46c0      	nop			; (mov r8, r8)
     e9c:	46c0      	nop			; (mov r8, r8)
     e9e:	46c0      	nop			; (mov r8, r8)

00000ea0 <QSPI_ReadFlashData>:

void __attribute__((noinline,aligned(32))) QSPI_ReadFlashData(int flash_addr, int len, uint8_t *rxbuf)
{
     ea0:	b5f8      	push	{r3, r4, r5, r6, r7, lr}
     ea2:	0007      	movs	r7, r0
     ea4:	000d      	movs	r5, r1
     ea6:	0016      	movs	r6, r2
  \details Disables IRQ interrupts by setting the I-bit in the CPSR.
  Can only be executed in Privileged modes.
 */
__attribute__( ( always_inline ) ) __STATIC_INLINE void __disable_irq(void)
{
  __ASM volatile ("cpsid i" : : : "memory");
     ea8:	b672      	cpsid	i
	OS_ENTER_CRITICAL();
	int i=0,j=0;

	for(i = len,j=0;i>0;i = i -0x40,j = j+0x40){
     eaa:	0014      	movs	r4, r2
     eac:	2d00      	cmp	r5, #0
     eae:	dd10      	ble.n	ed2 <QSPI_ReadFlashData+0x32>
     eb0:	1bb9      	subs	r1, r7, r6
		if(i>0x40)
			ReadFlashDSPI(0x3b,flash_addr+j,0x40,rxbuf+j);
     eb2:	1909      	adds	r1, r1, r4
     eb4:	0023      	movs	r3, r4
{
	OS_ENTER_CRITICAL();
	int i=0,j=0;

	for(i = len,j=0;i>0;i = i -0x40,j = j+0x40){
		if(i>0x40)
     eb6:	2d40      	cmp	r5, #64	; 0x40
     eb8:	dd04      	ble.n	ec4 <QSPI_ReadFlashData+0x24>
			ReadFlashDSPI(0x3b,flash_addr+j,0x40,rxbuf+j);
     eba:	2240      	movs	r2, #64	; 0x40
     ebc:	203b      	movs	r0, #59	; 0x3b
     ebe:	f7ff ff88 	bl	dd2 <ReadFlashDSPI>
     ec2:	e003      	b.n	ecc <QSPI_ReadFlashData+0x2c>
		else
			ReadFlashDSPI(0x3b,flash_addr+j,i,rxbuf+j);	
     ec4:	002a      	movs	r2, r5
     ec6:	203b      	movs	r0, #59	; 0x3b
     ec8:	f7ff ff83 	bl	dd2 <ReadFlashDSPI>
void __attribute__((noinline,aligned(32))) QSPI_ReadFlashData(int flash_addr, int len, uint8_t *rxbuf)
{
	OS_ENTER_CRITICAL();
	int i=0,j=0;

	for(i = len,j=0;i>0;i = i -0x40,j = j+0x40){
     ecc:	3d40      	subs	r5, #64	; 0x40
     ece:	3440      	adds	r4, #64	; 0x40
     ed0:	e7ec      	b.n	eac <QSPI_ReadFlashData+0xc>
  \details Enables IRQ interrupts by clearing the I-bit in the CPSR.
           Can only be executed in Privileged modes.
 */
__attribute__( ( always_inline ) ) __STATIC_INLINE void __enable_irq(void)
{
  __ASM volatile ("cpsie i" : : : "memory");
     ed2:	b662      	cpsie	i
			ReadFlashDSPI(0x3b,flash_addr+j,0x40,rxbuf+j);
		else
			ReadFlashDSPI(0x3b,flash_addr+j,i,rxbuf+j);	
	}
	OS_EXIT_CRITICAL();
}
     ed4:	bdf8      	pop	{r3, r4, r5, r6, r7, pc}
     ed6:	46c0      	nop			; (mov r8, r8)
     ed8:	46c0      	nop			; (mov r8, r8)
     eda:	46c0      	nop			; (mov r8, r8)
     edc:	46c0      	nop			; (mov r8, r8)
     ede:	46c0      	nop			; (mov r8, r8)

00000ee0 <ReadFlashSPI>:

void __attribute__((noinline,aligned(32))) ReadFlashSPI(uint8_t *txdata,int txlen,uint8_t *rxbuf,int rxlen)
{
     ee0:	b5f7      	push	{r0, r1, r2, r4, r5, r6, r7, lr}
//	volatile int i, j;
	uint8_t mode, delay;
		mode = HREAD(CORE_QSPI_CTRL);
     ee2:	4d1c      	ldr	r5, [pc, #112]	; (f54 <ReadFlashSPI+0x74>)
     ee4:	782e      	ldrb	r6, [r5, #0]
     ee6:	b2f4      	uxtb	r4, r6
     ee8:	9400      	str	r4, [sp, #0]
		delay = HREAD(CORE_QSPI_DELAY);
     eea:	4c1b      	ldr	r4, [pc, #108]	; (f58 <ReadFlashSPI+0x78>)
     eec:	7827      	ldrb	r7, [r4, #0]
     eee:	b2ff      	uxtb	r7, r7
     ef0:	9701      	str	r7, [sp, #4]
#ifdef RAM10000
		HWRITE(CORE_QSPI_CTRL , 0x44);// 0x40  mode&0xb8 |0x00
     ef2:	2744      	movs	r7, #68	; 0x44
     ef4:	702f      	strb	r7, [r5, #0]
#else
		HWRITE(CORE_QSPI_CTRL , 0x04);// 0x40  mode&0xb8 |0x00
#endif
		HWRITE(CORE_QSPI_DELAY , 0x0);
     ef6:	2700      	movs	r7, #0
     ef8:	7027      	strb	r7, [r4, #0]
		HWRITEW(CORE_QSPI_TXADDR ,(int)txdata );
     efa:	b2c7      	uxtb	r7, r0
     efc:	46bc      	mov	ip, r7
     efe:	4666      	mov	r6, ip
     f00:	4f16      	ldr	r7, [pc, #88]	; (f5c <ReadFlashSPI+0x7c>)
     f02:	1200      	asrs	r0, r0, #8
     f04:	703e      	strb	r6, [r7, #0]
     f06:	4f16      	ldr	r7, [pc, #88]	; (f60 <ReadFlashSPI+0x80>)
     f08:	b2c0      	uxtb	r0, r0
     f0a:	7038      	strb	r0, [r7, #0]
		HWRITEW(CORE_QSPI_TXLEN , txlen);
     f0c:	4815      	ldr	r0, [pc, #84]	; (f64 <ReadFlashSPI+0x84>)
     f0e:	b2cf      	uxtb	r7, r1
     f10:	7007      	strb	r7, [r0, #0]
     f12:	1209      	asrs	r1, r1, #8
     f14:	4814      	ldr	r0, [pc, #80]	; (f68 <ReadFlashSPI+0x88>)
     f16:	b2c9      	uxtb	r1, r1
     f18:	7001      	strb	r1, [r0, #0]
		HWRITEW(CORE_QSPI_RXADDR , (int)rxbuf);
     f1a:	4914      	ldr	r1, [pc, #80]	; (f6c <ReadFlashSPI+0x8c>)
     f1c:	b2d0      	uxtb	r0, r2
     f1e:	7008      	strb	r0, [r1, #0]
     f20:	1212      	asrs	r2, r2, #8
     f22:	4913      	ldr	r1, [pc, #76]	; (f70 <ReadFlashSPI+0x90>)
     f24:	b2d2      	uxtb	r2, r2
     f26:	700a      	strb	r2, [r1, #0]
		HWRITEW(CORE_QSPI_RXLEN , rxlen);
     f28:	4a12      	ldr	r2, [pc, #72]	; (f74 <ReadFlashSPI+0x94>)
     f2a:	b2d9      	uxtb	r1, r3
     f2c:	7011      	strb	r1, [r2, #0]
     f2e:	121b      	asrs	r3, r3, #8
     f30:	4a11      	ldr	r2, [pc, #68]	; (f78 <ReadFlashSPI+0x98>)
     f32:	b2db      	uxtb	r3, r3
     f34:	7013      	strb	r3, [r2, #0]
		HWRITE(CORE_DMA_START , 8);
     f36:	2308      	movs	r3, #8
     f38:	4a10      	ldr	r2, [pc, #64]	; (f7c <ReadFlashSPI+0x9c>)
		//for(j = 0;j < 20;j++);
		while(!(HREAD(CORE_DMA_STATUS) & 8) );
     f3a:	4911      	ldr	r1, [pc, #68]	; (f80 <ReadFlashSPI+0xa0>)
		HWRITE(CORE_QSPI_DELAY , 0x0);
		HWRITEW(CORE_QSPI_TXADDR ,(int)txdata );
		HWRITEW(CORE_QSPI_TXLEN , txlen);
		HWRITEW(CORE_QSPI_RXADDR , (int)rxbuf);
		HWRITEW(CORE_QSPI_RXLEN , rxlen);
		HWRITE(CORE_DMA_START , 8);
     f3c:	7013      	strb	r3, [r2, #0]
		//for(j = 0;j < 20;j++);
		while(!(HREAD(CORE_DMA_STATUS) & 8) );
     f3e:	780a      	ldrb	r2, [r1, #0]
     f40:	421a      	tst	r2, r3
     f42:	d0fc      	beq.n	f3e <ReadFlashSPI+0x5e>
		HWRITE(CORE_QSPI_CTRL , mode);
     f44:	466b      	mov	r3, sp
     f46:	781b      	ldrb	r3, [r3, #0]
     f48:	702b      	strb	r3, [r5, #0]
		HWRITE(CORE_QSPI_DELAY , delay);
     f4a:	466b      	mov	r3, sp
     f4c:	791b      	ldrb	r3, [r3, #4]
     f4e:	7023      	strb	r3, [r4, #0]
}
     f50:	bdf7      	pop	{r0, r1, r2, r4, r5, r6, r7, pc}
     f52:	46c0      	nop			; (mov r8, r8)
     f54:	100080a0 	.word	0x100080a0
     f58:	100080a1 	.word	0x100080a1
     f5c:	100080a4 	.word	0x100080a4
     f60:	100080a5 	.word	0x100080a5
     f64:	100080a2 	.word	0x100080a2
     f68:	100080a3 	.word	0x100080a3
     f6c:	100080a6 	.word	0x100080a6
     f70:	100080a7 	.word	0x100080a7
     f74:	100080a8 	.word	0x100080a8
     f78:	100080a9 	.word	0x100080a9
     f7c:	1000800a 	.word	0x1000800a
     f80:	10008330 	.word	0x10008330
     f84:	46c0      	nop			; (mov r8, r8)
     f86:	46c0      	nop			; (mov r8, r8)
     f88:	46c0      	nop			; (mov r8, r8)
     f8a:	46c0      	nop			; (mov r8, r8)
     f8c:	46c0      	nop			; (mov r8, r8)
     f8e:	46c0      	nop			; (mov r8, r8)
     f90:	46c0      	nop			; (mov r8, r8)
     f92:	46c0      	nop			; (mov r8, r8)
     f94:	46c0      	nop			; (mov r8, r8)
     f96:	46c0      	nop			; (mov r8, r8)
     f98:	46c0      	nop			; (mov r8, r8)
     f9a:	46c0      	nop			; (mov r8, r8)
     f9c:	46c0      	nop			; (mov r8, r8)
     f9e:	46c0      	nop			; (mov r8, r8)

00000fa0 <QSPI_ReadFlashRDID>:
void __attribute__((noinline,aligned(32))) QSPI_ReadFlashRDID(uint8_t *rxbuf)
{
#ifdef RAM10000
	uint8_t temp[1]={0};
#endif
	temp[0] = 0x9f;
     fa0:	239f      	movs	r3, #159	; 0x9f
		HWRITE(CORE_QSPI_CTRL , mode);
		HWRITE(CORE_QSPI_DELAY , delay);
}

void __attribute__((noinline,aligned(32))) QSPI_ReadFlashRDID(uint8_t *rxbuf)
{
     fa2:	b507      	push	{r0, r1, r2, lr}
     fa4:	0002      	movs	r2, r0
#ifdef RAM10000
	uint8_t temp[1]={0};
#endif
	temp[0] = 0x9f;
     fa6:	a801      	add	r0, sp, #4
     fa8:	7003      	strb	r3, [r0, #0]
	ReadFlashSPI(temp,1,rxbuf,3);
     faa:	2101      	movs	r1, #1
     fac:	3b9c      	subs	r3, #156	; 0x9c
     fae:	f7ff ff97 	bl	ee0 <ReadFlashSPI>
}
     fb2:	bd07      	pop	{r0, r1, r2, pc}
     fb4:	46c0      	nop			; (mov r8, r8)
     fb6:	46c0      	nop			; (mov r8, r8)
     fb8:	46c0      	nop			; (mov r8, r8)
     fba:	46c0      	nop			; (mov r8, r8)
     fbc:	46c0      	nop			; (mov r8, r8)
     fbe:	46c0      	nop			; (mov r8, r8)

00000fc0 <QSPI_ReadFlashReg>:
void __attribute__((noinline,aligned(32))) QSPI_ReadFlashReg(uint8_t *rxbuf)
{
#ifdef RAM10000
	uint8_t temp2[1]={0};
#endif
	temp2[0] = 0x05;
     fc0:	2305      	movs	r3, #5
	temp[0] = 0x9f;
	ReadFlashSPI(temp,1,rxbuf,3);
}

void __attribute__((noinline,aligned(32))) QSPI_ReadFlashReg(uint8_t *rxbuf)
{
     fc2:	b537      	push	{r0, r1, r2, r4, r5, lr}
#ifdef RAM10000
	uint8_t temp2[1]={0};
#endif
	temp2[0] = 0x05;
     fc4:	ac01      	add	r4, sp, #4
     fc6:	7023      	strb	r3, [r4, #0]
	ReadFlashSPI(temp2,1,rxbuf,1); //s7-s0
     fc8:	3b04      	subs	r3, #4
	temp[0] = 0x9f;
	ReadFlashSPI(temp,1,rxbuf,3);
}

void __attribute__((noinline,aligned(32))) QSPI_ReadFlashReg(uint8_t *rxbuf)
{
     fca:	0005      	movs	r5, r0
#ifdef RAM10000
	uint8_t temp2[1]={0};
#endif
	temp2[0] = 0x05;
	ReadFlashSPI(temp2,1,rxbuf,1); //s7-s0
     fcc:	0002      	movs	r2, r0
     fce:	0019      	movs	r1, r3
     fd0:	0020      	movs	r0, r4
     fd2:	f7ff ff85 	bl	ee0 <ReadFlashSPI>
	temp2[0] = 0x35;
     fd6:	2335      	movs	r3, #53	; 0x35
     fd8:	7023      	strb	r3, [r4, #0]
	ReadFlashSPI(temp2,1,rxbuf+1,1);	//s15-s8
     fda:	3b34      	subs	r3, #52	; 0x34
     fdc:	1c6a      	adds	r2, r5, #1
     fde:	0019      	movs	r1, r3
     fe0:	0020      	movs	r0, r4
     fe2:	f7ff ff7d 	bl	ee0 <ReadFlashSPI>
}
     fe6:	bd37      	pop	{r0, r1, r2, r4, r5, pc}
     fe8:	46c0      	nop			; (mov r8, r8)
     fea:	46c0      	nop			; (mov r8, r8)
     fec:	46c0      	nop			; (mov r8, r8)
     fee:	46c0      	nop			; (mov r8, r8)
     ff0:	46c0      	nop			; (mov r8, r8)
     ff2:	46c0      	nop			; (mov r8, r8)
     ff4:	46c0      	nop			; (mov r8, r8)
     ff6:	46c0      	nop			; (mov r8, r8)
     ff8:	46c0      	nop			; (mov r8, r8)
     ffa:	46c0      	nop			; (mov r8, r8)
     ffc:	46c0      	nop			; (mov r8, r8)
     ffe:	46c0      	nop			; (mov r8, r8)

00001000 <QSPI_ReadFlashREMS>:

void __attribute__((noinline,aligned(32))) QSPI_ReadFlashREMS(uint8_t *rxbuf)
{
#ifdef RAM10000
	uint8_t temp[4]={0,0,0,0};
    1000:	2300      	movs	r3, #0
	temp2[0] = 0x35;
	ReadFlashSPI(temp2,1,rxbuf+1,1);	//s15-s8
}

void __attribute__((noinline,aligned(32))) QSPI_ReadFlashREMS(uint8_t *rxbuf)
{
    1002:	b507      	push	{r0, r1, r2, lr}
    1004:	0002      	movs	r2, r0
#ifdef RAM10000
	uint8_t temp[4]={0,0,0,0};
    1006:	9301      	str	r3, [sp, #4]
    1008:	a801      	add	r0, sp, #4
#endif
	temp[0] = 0x90;
    100a:	3390      	adds	r3, #144	; 0x90
    100c:	7003      	strb	r3, [r0, #0]
	ReadFlashSPI(temp,4,rxbuf,2); //s7-s0
    100e:	2104      	movs	r1, #4
    1010:	3b8e      	subs	r3, #142	; 0x8e
    1012:	f7ff ff65 	bl	ee0 <ReadFlashSPI>
}
    1016:	bd07      	pop	{r0, r1, r2, pc}
    1018:	46c0      	nop			; (mov r8, r8)
    101a:	46c0      	nop			; (mov r8, r8)
    101c:	46c0      	nop			; (mov r8, r8)
    101e:	46c0      	nop			; (mov r8, r8)

00001020 <QSPI_ReadFlashUID>:

void __attribute__((noinline,aligned(32))) QSPI_ReadFlashUID(uint8_t *rxbuf)
{
    1020:	b537      	push	{r0, r1, r2, r4, r5, lr}
#ifdef RAM10000
	uint8_t temp[5]={0,0,0,0,0};
    1022:	2405      	movs	r4, #5
	temp[0] = 0x90;
	ReadFlashSPI(temp,4,rxbuf,2); //s7-s0
}

void __attribute__((noinline,aligned(32))) QSPI_ReadFlashUID(uint8_t *rxbuf)
{
    1024:	0005      	movs	r5, r0
#ifdef RAM10000
	uint8_t temp[5]={0,0,0,0,0};
    1026:	0022      	movs	r2, r4
    1028:	2100      	movs	r1, #0
    102a:	4668      	mov	r0, sp
    102c:	f014 fd0e 	bl	15a4c <memset>
#endif
	temp[0] = 0x4b;
    1030:	466a      	mov	r2, sp
    1032:	234b      	movs	r3, #75	; 0x4b
	ReadFlashSPI(temp,5,rxbuf,8); //s7-s0
    1034:	0021      	movs	r1, r4
void __attribute__((noinline,aligned(32))) QSPI_ReadFlashUID(uint8_t *rxbuf)
{
#ifdef RAM10000
	uint8_t temp[5]={0,0,0,0,0};
#endif
	temp[0] = 0x4b;
    1036:	7013      	strb	r3, [r2, #0]
	ReadFlashSPI(temp,5,rxbuf,8); //s7-s0
    1038:	4668      	mov	r0, sp
    103a:	002a      	movs	r2, r5
    103c:	3b43      	subs	r3, #67	; 0x43
    103e:	f7ff ff4f 	bl	ee0 <ReadFlashSPI>
}
    1042:	bd37      	pop	{r0, r1, r2, r4, r5, pc}
    1044:	46c0      	nop			; (mov r8, r8)
    1046:	46c0      	nop			; (mov r8, r8)
    1048:	46c0      	nop			; (mov r8, r8)
    104a:	46c0      	nop			; (mov r8, r8)
    104c:	46c0      	nop			; (mov r8, r8)
    104e:	46c0      	nop			; (mov r8, r8)
    1050:	46c0      	nop			; (mov r8, r8)
    1052:	46c0      	nop			; (mov r8, r8)
    1054:	46c0      	nop			; (mov r8, r8)
    1056:	46c0      	nop			; (mov r8, r8)
    1058:	46c0      	nop			; (mov r8, r8)
    105a:	46c0      	nop			; (mov r8, r8)
    105c:	46c0      	nop			; (mov r8, r8)
    105e:	46c0      	nop			; (mov r8, r8)

00001060 <WaitFlashFinish>:

void  WaitFlashFinish()
{
//	uint8_t j;
#ifdef RAM10000
	uint8_t readreg[2] =  {0,0};
    1060:	2300      	movs	r3, #0
	temp[0] = 0x4b;
	ReadFlashSPI(temp,5,rxbuf,8); //s7-s0
}

void  WaitFlashFinish()
{
    1062:	b537      	push	{r0, r1, r2, r4, r5, lr}
	uint8_t readreg[2] =  {0,0};
#endif
	do{
		//for(j = 0;j < 40;j++);
		QSPI_ReadFlashReg(readreg);
	}	while((readreg[0]&0x01));
    1064:	2501      	movs	r5, #1

void  WaitFlashFinish()
{
//	uint8_t j;
#ifdef RAM10000
	uint8_t readreg[2] =  {0,0};
    1066:	ac01      	add	r4, sp, #4
    1068:	7023      	strb	r3, [r4, #0]
    106a:	7063      	strb	r3, [r4, #1]
#endif
	do{
		//for(j = 0;j < 40;j++);
		QSPI_ReadFlashReg(readreg);
    106c:	0020      	movs	r0, r4
    106e:	f7ff ffa7 	bl	fc0 <QSPI_ReadFlashReg>
	}	while((readreg[0]&0x01));
    1072:	7823      	ldrb	r3, [r4, #0]
    1074:	422b      	tst	r3, r5
    1076:	d1f9      	bne.n	106c <WaitFlashFinish+0xc>
}
    1078:	bd37      	pop	{r0, r1, r2, r4, r5, pc}

0000107a <WriteFlashData>:

void WriteFlashData( int txlen, uint8_t *txdata)
{
    107a:	b5f0      	push	{r4, r5, r6, r7, lr}
    107c:	000c      	movs	r4, r1
    107e:	b085      	sub	sp, #20
    1080:	0005      	movs	r5, r0
	volatile int j;
	uint8_t mode, delay;
	FlashWriteEnable();
    1082:	f000 f96d 	bl	1360 <FlashWriteEnable>
	mode = HREAD(CORE_QSPI_CTRL);
    1086:	4a1c      	ldr	r2, [pc, #112]	; (10f8 <WriteFlashData+0x7e>)
	delay = HREAD(CORE_QSPI_DELAY);
    1088:	4b1c      	ldr	r3, [pc, #112]	; (10fc <WriteFlashData+0x82>)
void WriteFlashData( int txlen, uint8_t *txdata)
{
	volatile int j;
	uint8_t mode, delay;
	FlashWriteEnable();
	mode = HREAD(CORE_QSPI_CTRL);
    108a:	7816      	ldrb	r6, [r2, #0]
	delay = HREAD(CORE_QSPI_DELAY);
    108c:	7818      	ldrb	r0, [r3, #0]
		HWRITE(CORE_QSPI_CTRL ,0x44);//mode&0xf8 |0x40
#else
		HWRITE(CORE_QSPI_CTRL ,0x04);//mode&0xf8 |0x40
#endif
		HWRITE(CORE_QSPI_DELAY , 0x0);
		HWRITEW(CORE_QSPI_TXADDR , (int)txdata);
    108e:	b2e7      	uxtb	r7, r4
{
	volatile int j;
	uint8_t mode, delay;
	FlashWriteEnable();
	mode = HREAD(CORE_QSPI_CTRL);
	delay = HREAD(CORE_QSPI_DELAY);
    1090:	b2c1      	uxtb	r1, r0
    1092:	9101      	str	r1, [sp, #4]
		HWRITE(CORE_QSPI_CTRL ,0x44);//mode&0xf8 |0x40
#else
		HWRITE(CORE_QSPI_CTRL ,0x04);//mode&0xf8 |0x40
#endif
		HWRITE(CORE_QSPI_DELAY , 0x0);
		HWRITEW(CORE_QSPI_TXADDR , (int)txdata);
    1094:	46bc      	mov	ip, r7
	uint8_t mode, delay;
	FlashWriteEnable();
	mode = HREAD(CORE_QSPI_CTRL);
	delay = HREAD(CORE_QSPI_DELAY);
#ifdef RAM10000
		HWRITE(CORE_QSPI_CTRL ,0x44);//mode&0xf8 |0x40
    1096:	2144      	movs	r1, #68	; 0x44
#else
		HWRITE(CORE_QSPI_CTRL ,0x04);//mode&0xf8 |0x40
#endif
		HWRITE(CORE_QSPI_DELAY , 0x0);
		HWRITEW(CORE_QSPI_TXADDR , (int)txdata);
    1098:	4660      	mov	r0, ip
	uint8_t mode, delay;
	FlashWriteEnable();
	mode = HREAD(CORE_QSPI_CTRL);
	delay = HREAD(CORE_QSPI_DELAY);
#ifdef RAM10000
		HWRITE(CORE_QSPI_CTRL ,0x44);//mode&0xf8 |0x40
    109a:	7011      	strb	r1, [r2, #0]
#else
		HWRITE(CORE_QSPI_CTRL ,0x04);//mode&0xf8 |0x40
#endif
		HWRITE(CORE_QSPI_DELAY , 0x0);
    109c:	2100      	movs	r1, #0
		HWRITEW(CORE_QSPI_TXADDR , (int)txdata);
    109e:	4f18      	ldr	r7, [pc, #96]	; (1100 <WriteFlashData+0x86>)
#ifdef RAM10000
		HWRITE(CORE_QSPI_CTRL ,0x44);//mode&0xf8 |0x40
#else
		HWRITE(CORE_QSPI_CTRL ,0x04);//mode&0xf8 |0x40
#endif
		HWRITE(CORE_QSPI_DELAY , 0x0);
    10a0:	7019      	strb	r1, [r3, #0]
		HWRITEW(CORE_QSPI_TXADDR , (int)txdata);
    10a2:	1224      	asrs	r4, r4, #8
    10a4:	7038      	strb	r0, [r7, #0]
    10a6:	4f17      	ldr	r7, [pc, #92]	; (1104 <WriteFlashData+0x8a>)
    10a8:	b2e4      	uxtb	r4, r4
    10aa:	703c      	strb	r4, [r7, #0]
		HWRITEW(CORE_QSPI_TXLEN , txlen );
    10ac:	4c16      	ldr	r4, [pc, #88]	; (1108 <WriteFlashData+0x8e>)
    10ae:	b2ef      	uxtb	r7, r5
    10b0:	7027      	strb	r7, [r4, #0]
    10b2:	122c      	asrs	r4, r5, #8
    10b4:	4f15      	ldr	r7, [pc, #84]	; (110c <WriteFlashData+0x92>)
    10b6:	b2e4      	uxtb	r4, r4
    10b8:	703c      	strb	r4, [r7, #0]
		HWRITEW(CORE_QSPI_RXLEN , 0);
		HWRITE(CORE_DMA_START , 8);
    10ba:	2708      	movs	r7, #8
		HWRITE(CORE_QSPI_CTRL ,0x04);//mode&0xf8 |0x40
#endif
		HWRITE(CORE_QSPI_DELAY , 0x0);
		HWRITEW(CORE_QSPI_TXADDR , (int)txdata);
		HWRITEW(CORE_QSPI_TXLEN , txlen );
		HWRITEW(CORE_QSPI_RXLEN , 0);
    10bc:	4c14      	ldr	r4, [pc, #80]	; (1110 <WriteFlashData+0x96>)
void WriteFlashData( int txlen, uint8_t *txdata)
{
	volatile int j;
	uint8_t mode, delay;
	FlashWriteEnable();
	mode = HREAD(CORE_QSPI_CTRL);
    10be:	b2f6      	uxtb	r6, r6
		HWRITE(CORE_QSPI_CTRL ,0x04);//mode&0xf8 |0x40
#endif
		HWRITE(CORE_QSPI_DELAY , 0x0);
		HWRITEW(CORE_QSPI_TXADDR , (int)txdata);
		HWRITEW(CORE_QSPI_TXLEN , txlen );
		HWRITEW(CORE_QSPI_RXLEN , 0);
    10c0:	7021      	strb	r1, [r4, #0]
    10c2:	4c14      	ldr	r4, [pc, #80]	; (1114 <WriteFlashData+0x9a>)
    10c4:	7021      	strb	r1, [r4, #0]
		HWRITE(CORE_DMA_START , 8);
    10c6:	4c14      	ldr	r4, [pc, #80]	; (1118 <WriteFlashData+0x9e>)
    10c8:	7027      	strb	r7, [r4, #0]
		for(j = 0;j <(txlen*10);j++);
    10ca:	9103      	str	r1, [sp, #12]
    10cc:	310a      	adds	r1, #10
    10ce:	434d      	muls	r5, r1
    10d0:	9903      	ldr	r1, [sp, #12]
    10d2:	428d      	cmp	r5, r1
    10d4:	dd03      	ble.n	10de <WriteFlashData+0x64>
    10d6:	9903      	ldr	r1, [sp, #12]
    10d8:	3101      	adds	r1, #1
    10da:	9103      	str	r1, [sp, #12]
    10dc:	e7f8      	b.n	10d0 <WriteFlashData+0x56>
		while(!(HREAD(CORE_DMA_STATUS) & 8) );
    10de:	2108      	movs	r1, #8
    10e0:	4d0e      	ldr	r5, [pc, #56]	; (111c <WriteFlashData+0xa2>)
    10e2:	782c      	ldrb	r4, [r5, #0]
    10e4:	420c      	tst	r4, r1
    10e6:	d0fc      	beq.n	10e2 <WriteFlashData+0x68>
		HWRITE(CORE_QSPI_CTRL , mode);
    10e8:	7016      	strb	r6, [r2, #0]
		HWRITE(CORE_QSPI_DELAY , delay);
    10ea:	466a      	mov	r2, sp
    10ec:	7912      	ldrb	r2, [r2, #4]
    10ee:	701a      	strb	r2, [r3, #0]
		WaitFlashFinish();
    10f0:	f7ff ffb6 	bl	1060 <WaitFlashFinish>
}
    10f4:	b005      	add	sp, #20
    10f6:	bdf0      	pop	{r4, r5, r6, r7, pc}
    10f8:	100080a0 	.word	0x100080a0
    10fc:	100080a1 	.word	0x100080a1
    1100:	100080a4 	.word	0x100080a4
    1104:	100080a5 	.word	0x100080a5
    1108:	100080a2 	.word	0x100080a2
    110c:	100080a3 	.word	0x100080a3
    1110:	100080a8 	.word	0x100080a8
    1114:	100080a9 	.word	0x100080a9
    1118:	1000800a 	.word	0x1000800a
    111c:	10008330 	.word	0x10008330

00001120 <QSPI_WriteFlashData>:

void  __attribute__((noinline,aligned(32))) QSPI_WriteFlashData(int flash_addr, int txlen, uint8_t *txdata)
{
    1120:	b5f0      	push	{r4, r5, r6, r7, lr}
    1122:	0006      	movs	r6, r0
    1124:	b089      	sub	sp, #36	; 0x24
    1126:	000d      	movs	r5, r1
    1128:	0014      	movs	r4, r2
  \details Disables IRQ interrupts by setting the I-bit in the CPSR.
  Can only be executed in Privileged modes.
 */
__attribute__( ( always_inline ) ) __STATIC_INLINE void __disable_irq(void)
{
  __ASM volatile ("cpsid i" : : : "memory");
    112a:	b672      	cpsid	i
	OS_ENTER_CRITICAL();
	int i=0,j=0,x=0, offset=0;
#ifdef RAM10000
	uint8_t temp[0x10+4]={0};	
    112c:	2214      	movs	r2, #20
    112e:	2100      	movs	r1, #0
    1130:	a803      	add	r0, sp, #12
    1132:	f014 fc8b 	bl	15a4c <memset>
    1136:	9400      	str	r4, [sp, #0]
#endif
	for(i = txlen,j=0;i>0;i = i -0x10,j = j+0x10){
    1138:	2d00      	cmp	r5, #0
    113a:	dc00      	bgt.n	113e <QSPI_WriteFlashData+0x1e>
    113c:	e09a      	b.n	1274 <QSPI_WriteFlashData+0x154>
    113e:	4c4f      	ldr	r4, [pc, #316]	; (127c <QSPI_WriteFlashData+0x15c>)
		
		if(i>0x10){
    1140:	2d10      	cmp	r5, #16
    1142:	dd49      	ble.n	11d8 <QSPI_WriteFlashData+0xb8>
    1144:	0033      	movs	r3, r6
    1146:	3310      	adds	r3, #16
    1148:	9301      	str	r3, [sp, #4]
			offset = (flash_addr+j +0x10)%0x100;
    114a:	401c      	ands	r4, r3
    114c:	d503      	bpl.n	1156 <QSPI_WriteFlashData+0x36>
    114e:	484c      	ldr	r0, [pc, #304]	; (1280 <QSPI_WriteFlashData+0x160>)
    1150:	3c01      	subs	r4, #1
    1152:	4304      	orrs	r4, r0
    1154:	3401      	adds	r4, #1
		 	if(offset < 0x10 && offset !=0)
		 	{
				FillSendCMD(temp, 0x02, flash_addr+j);
    1156:	0032      	movs	r2, r6
    1158:	2102      	movs	r1, #2
    115a:	a803      	add	r0, sp, #12
#endif
	for(i = txlen,j=0;i>0;i = i -0x10,j = j+0x10){
		
		if(i>0x10){
			offset = (flash_addr+j +0x10)%0x100;
		 	if(offset < 0x10 && offset !=0)
    115c:	2c0f      	cmp	r4, #15
    115e:	dc2b      	bgt.n	11b8 <QSPI_WriteFlashData+0x98>
    1160:	2c00      	cmp	r4, #0
    1162:	d029      	beq.n	11b8 <QSPI_WriteFlashData+0x98>
		 	{
				FillSendCMD(temp, 0x02, flash_addr+j);
    1164:	f7ff fe2e 	bl	dc4 <FillSendCMD>
				for(x = 0;x < 0x10-offset;x++)  
    1168:	2210      	movs	r2, #16
    116a:	2300      	movs	r3, #0
    116c:	1b12      	subs	r2, r2, r4
    116e:	4293      	cmp	r3, r2
    1170:	da06      	bge.n	1180 <QSPI_WriteFlashData+0x60>
					temp[x+4] = txdata[j+x];
    1172:	9800      	ldr	r0, [sp, #0]
    1174:	a903      	add	r1, sp, #12
    1176:	5cc0      	ldrb	r0, [r0, r3]
    1178:	18c9      	adds	r1, r1, r3
    117a:	7108      	strb	r0, [r1, #4]
		if(i>0x10){
			offset = (flash_addr+j +0x10)%0x100;
		 	if(offset < 0x10 && offset !=0)
		 	{
				FillSendCMD(temp, 0x02, flash_addr+j);
				for(x = 0;x < 0x10-offset;x++)  
    117c:	3301      	adds	r3, #1
    117e:	e7f6      	b.n	116e <QSPI_WriteFlashData+0x4e>
    1180:	43d7      	mvns	r7, r2
					temp[x+4] = txdata[j+x];
				WriteFlashData(0x10-offset +4,temp);
    1182:	2014      	movs	r0, #20
    1184:	a903      	add	r1, sp, #12
    1186:	1b00      	subs	r0, r0, r4
    1188:	17ff      	asrs	r7, r7, #31
    118a:	4017      	ands	r7, r2
    118c:	f7ff ff75 	bl	107a <WriteFlashData>
				
				FillSendCMD(temp, 0x02, flash_addr+j+0x10-offset);
    1190:	9b01      	ldr	r3, [sp, #4]
    1192:	2102      	movs	r1, #2
    1194:	1b1a      	subs	r2, r3, r4
    1196:	a803      	add	r0, sp, #12
    1198:	f7ff fe14 	bl	dc4 <FillSendCMD>
    119c:	a903      	add	r1, sp, #12
				for(;x < 0x10;x++)  
    119e:	2f10      	cmp	r7, #16
    11a0:	d006      	beq.n	11b0 <QSPI_WriteFlashData+0x90>
					temp[x+4-0x10 + offset] = txdata[j+x];
    11a2:	9a00      	ldr	r2, [sp, #0]
    11a4:	19e3      	adds	r3, r4, r7
    11a6:	5dd2      	ldrb	r2, [r2, r7]
    11a8:	3b0c      	subs	r3, #12
    11aa:	54ca      	strb	r2, [r1, r3]
				for(x = 0;x < 0x10-offset;x++)  
					temp[x+4] = txdata[j+x];
				WriteFlashData(0x10-offset +4,temp);
				
				FillSendCMD(temp, 0x02, flash_addr+j+0x10-offset);
				for(;x < 0x10;x++)  
    11ac:	3701      	adds	r7, #1
    11ae:	e7f6      	b.n	119e <QSPI_WriteFlashData+0x7e>
					temp[x+4-0x10 + offset] = txdata[j+x];
				WriteFlashData(offset+4,temp);
    11b0:	1d20      	adds	r0, r4, #4
    11b2:	f7ff ff62 	bl	107a <WriteFlashData>
    11b6:	e057      	b.n	1268 <QSPI_WriteFlashData+0x148>
		 	}else
		 		{	
				FillSendCMD(temp, 0x02, flash_addr+j);
    11b8:	f7ff fe04 	bl	dc4 <FillSendCMD>
				for(x = 0;x < 0x10;x++)  
    11bc:	2300      	movs	r3, #0
					temp[x+4] = txdata[j+x];
    11be:	9900      	ldr	r1, [sp, #0]
    11c0:	aa03      	add	r2, sp, #12
    11c2:	5cc9      	ldrb	r1, [r1, r3]
    11c4:	18d2      	adds	r2, r2, r3
					temp[x+4-0x10 + offset] = txdata[j+x];
				WriteFlashData(offset+4,temp);
		 	}else
		 		{	
				FillSendCMD(temp, 0x02, flash_addr+j);
				for(x = 0;x < 0x10;x++)  
    11c6:	3301      	adds	r3, #1
					temp[x+4] = txdata[j+x];
    11c8:	7111      	strb	r1, [r2, #4]
					temp[x+4-0x10 + offset] = txdata[j+x];
				WriteFlashData(offset+4,temp);
		 	}else
		 		{	
				FillSendCMD(temp, 0x02, flash_addr+j);
				for(x = 0;x < 0x10;x++)  
    11ca:	2b10      	cmp	r3, #16
    11cc:	d1f7      	bne.n	11be <QSPI_WriteFlashData+0x9e>
					temp[x+4] = txdata[j+x];
				WriteFlashData(0x10+4,temp);
    11ce:	a903      	add	r1, sp, #12
    11d0:	2014      	movs	r0, #20
    11d2:	f7ff ff52 	bl	107a <WriteFlashData>
    11d6:	e047      	b.n	1268 <QSPI_WriteFlashData+0x148>
				}
		}
		else
		{
			offset = (flash_addr+j +i)%0x100;
    11d8:	19ab      	adds	r3, r5, r6
    11da:	9301      	str	r3, [sp, #4]
    11dc:	401c      	ands	r4, r3
    11de:	d503      	bpl.n	11e8 <QSPI_WriteFlashData+0xc8>
    11e0:	4827      	ldr	r0, [pc, #156]	; (1280 <QSPI_WriteFlashData+0x160>)
    11e2:	3c01      	subs	r4, #1
    11e4:	4304      	orrs	r4, r0
    11e6:	3401      	adds	r4, #1
		 	if(offset <  i && offset != 0 )
		 	{
				FillSendCMD(temp, 0x02, flash_addr+j);
    11e8:	0032      	movs	r2, r6
    11ea:	2102      	movs	r1, #2
    11ec:	a803      	add	r0, sp, #12
				}
		}
		else
		{
			offset = (flash_addr+j +i)%0x100;
		 	if(offset <  i && offset != 0 )
    11ee:	42a5      	cmp	r5, r4
    11f0:	dd2b      	ble.n	124a <QSPI_WriteFlashData+0x12a>
    11f2:	2c00      	cmp	r4, #0
    11f4:	d029      	beq.n	124a <QSPI_WriteFlashData+0x12a>
		 	{
				FillSendCMD(temp, 0x02, flash_addr+j);
    11f6:	f7ff fde5 	bl	dc4 <FillSendCMD>
				for(x = 0;x <i- offset;x++)  
    11fa:	2300      	movs	r3, #0
    11fc:	1b28      	subs	r0, r5, r4
    11fe:	4283      	cmp	r3, r0
    1200:	da06      	bge.n	1210 <QSPI_WriteFlashData+0xf0>
					temp[x+4] = txdata[j+x];
    1202:	9900      	ldr	r1, [sp, #0]
    1204:	aa03      	add	r2, sp, #12
    1206:	5cc9      	ldrb	r1, [r1, r3]
    1208:	18d2      	adds	r2, r2, r3
    120a:	7111      	strb	r1, [r2, #4]
		{
			offset = (flash_addr+j +i)%0x100;
		 	if(offset <  i && offset != 0 )
		 	{
				FillSendCMD(temp, 0x02, flash_addr+j);
				for(x = 0;x <i- offset;x++)  
    120c:	3301      	adds	r3, #1
    120e:	e7f6      	b.n	11fe <QSPI_WriteFlashData+0xde>
    1210:	43c7      	mvns	r7, r0
    1212:	17ff      	asrs	r7, r7, #31
					temp[x+4] = txdata[j+x];
				WriteFlashData(i- offset+4,temp);
    1214:	a903      	add	r1, sp, #12
    1216:	4007      	ands	r7, r0
    1218:	3004      	adds	r0, #4
    121a:	f7ff ff2e 	bl	107a <WriteFlashData>
				
				FillSendCMD(temp, 0x02, flash_addr+j+i-offset);
    121e:	9b01      	ldr	r3, [sp, #4]
    1220:	2102      	movs	r1, #2
    1222:	1b1a      	subs	r2, r3, r4
    1224:	a803      	add	r0, sp, #12
    1226:	f7ff fdcd 	bl	dc4 <FillSendCMD>
    122a:	1b62      	subs	r2, r4, r5
				for(;x < i;x++)  
    122c:	42bd      	cmp	r5, r7
    122e:	dd07      	ble.n	1240 <QSPI_WriteFlashData+0x120>
					temp[x+4-i + offset] = txdata[j+x];
    1230:	19d3      	adds	r3, r2, r7
    1232:	a903      	add	r1, sp, #12
    1234:	18cb      	adds	r3, r1, r3
    1236:	9900      	ldr	r1, [sp, #0]
    1238:	5dc9      	ldrb	r1, [r1, r7]
				for(x = 0;x <i- offset;x++)  
					temp[x+4] = txdata[j+x];
				WriteFlashData(i- offset+4,temp);
				
				FillSendCMD(temp, 0x02, flash_addr+j+i-offset);
				for(;x < i;x++)  
    123a:	3701      	adds	r7, #1
					temp[x+4-i + offset] = txdata[j+x];
    123c:	7119      	strb	r1, [r3, #4]
    123e:	e7f5      	b.n	122c <QSPI_WriteFlashData+0x10c>
				WriteFlashData(offset+4,temp);
    1240:	1d20      	adds	r0, r4, #4
    1242:	a903      	add	r1, sp, #12
    1244:	f7ff ff19 	bl	107a <WriteFlashData>
    1248:	e00e      	b.n	1268 <QSPI_WriteFlashData+0x148>
		 	}else
			 	{
			 	FillSendCMD(temp, 0x02, flash_addr+j);
    124a:	f7ff fdbb 	bl	dc4 <FillSendCMD>
				for(x = 0;x < i;x++)  
    124e:	2300      	movs	r3, #0
					temp[x+4] = txdata[j+x];
    1250:	9900      	ldr	r1, [sp, #0]
    1252:	aa03      	add	r2, sp, #12
    1254:	5cc9      	ldrb	r1, [r1, r3]
    1256:	18d2      	adds	r2, r2, r3
					temp[x+4-i + offset] = txdata[j+x];
				WriteFlashData(offset+4,temp);
		 	}else
			 	{
			 	FillSendCMD(temp, 0x02, flash_addr+j);
				for(x = 0;x < i;x++)  
    1258:	3301      	adds	r3, #1
					temp[x+4] = txdata[j+x];
    125a:	7111      	strb	r1, [r2, #4]
					temp[x+4-i + offset] = txdata[j+x];
				WriteFlashData(offset+4,temp);
		 	}else
			 	{
			 	FillSendCMD(temp, 0x02, flash_addr+j);
				for(x = 0;x < i;x++)  
    125c:	429d      	cmp	r5, r3
    125e:	d1f7      	bne.n	1250 <QSPI_WriteFlashData+0x130>
					temp[x+4] = txdata[j+x];
				WriteFlashData(i+4,temp);
    1260:	1d28      	adds	r0, r5, #4
    1262:	a903      	add	r1, sp, #12
    1264:	f7ff ff09 	bl	107a <WriteFlashData>
    1268:	9b00      	ldr	r3, [sp, #0]
	OS_ENTER_CRITICAL();
	int i=0,j=0,x=0, offset=0;
#ifdef RAM10000
	uint8_t temp[0x10+4]={0};	
#endif
	for(i = txlen,j=0;i>0;i = i -0x10,j = j+0x10){
    126a:	3d10      	subs	r5, #16
    126c:	3310      	adds	r3, #16
    126e:	3610      	adds	r6, #16
    1270:	9300      	str	r3, [sp, #0]
    1272:	e761      	b.n	1138 <QSPI_WriteFlashData+0x18>
  \details Enables IRQ interrupts by clearing the I-bit in the CPSR.
           Can only be executed in Privileged modes.
 */
__attribute__( ( always_inline ) ) __STATIC_INLINE void __enable_irq(void)
{
  __ASM volatile ("cpsie i" : : : "memory");
    1274:	b662      	cpsie	i
				WriteFlashData(i+4,temp);
				}
		}
	}
	OS_EXIT_CRITICAL();
}
    1276:	b009      	add	sp, #36	; 0x24
    1278:	bdf0      	pop	{r4, r5, r6, r7, pc}
    127a:	46c0      	nop			; (mov r8, r8)
    127c:	800000ff 	.word	0x800000ff
    1280:	ffffff00 	.word	0xffffff00
    1284:	46c0      	nop			; (mov r8, r8)
    1286:	46c0      	nop			; (mov r8, r8)
    1288:	46c0      	nop			; (mov r8, r8)
    128a:	46c0      	nop			; (mov r8, r8)
    128c:	46c0      	nop			; (mov r8, r8)
    128e:	46c0      	nop			; (mov r8, r8)
    1290:	46c0      	nop			; (mov r8, r8)
    1292:	46c0      	nop			; (mov r8, r8)
    1294:	46c0      	nop			; (mov r8, r8)
    1296:	46c0      	nop			; (mov r8, r8)
    1298:	46c0      	nop			; (mov r8, r8)
    129a:	46c0      	nop			; (mov r8, r8)
    129c:	46c0      	nop			; (mov r8, r8)
    129e:	46c0      	nop			; (mov r8, r8)

000012a0 <SendFlashWithoutRx>:
void __attribute__((noinline,aligned(32))) SendFlashWithoutRx(uint8_t *txdata,int txlen)
{
    12a0:	b5f7      	push	{r0, r1, r2, r4, r5, r6, r7, lr}
		HWRITE(CORE_QSPI_CTRL,0x44 );// 0x40
#else
		HWRITE(CORE_QSPI_CTRL,0x04 );// 0x40
#endif
		HWRITE(CORE_QSPI_DELAY , 0x0);
		HWRITEW(CORE_QSPI_TXADDR , (int)txdata);
    12a2:	b2c7      	uxtb	r7, r0
//	volatile int i, j;
	uint8_t mode, delay;
	mode = HREAD(CORE_QSPI_CTRL);
	delay = HREAD(CORE_QSPI_DELAY);
#ifdef RAM10000
		HWRITE(CORE_QSPI_CTRL,0x44 );// 0x40
    12a4:	2644      	movs	r6, #68	; 0x44
#else
		HWRITE(CORE_QSPI_CTRL,0x04 );// 0x40
#endif
		HWRITE(CORE_QSPI_DELAY , 0x0);
		HWRITEW(CORE_QSPI_TXADDR , (int)txdata);
    12a6:	46bc      	mov	ip, r7
}
void __attribute__((noinline,aligned(32))) SendFlashWithoutRx(uint8_t *txdata,int txlen)
{
//	volatile int i, j;
	uint8_t mode, delay;
	mode = HREAD(CORE_QSPI_CTRL);
    12a8:	4a14      	ldr	r2, [pc, #80]	; (12fc <SendFlashWithoutRx+0x5c>)
	delay = HREAD(CORE_QSPI_DELAY);
    12aa:	4b15      	ldr	r3, [pc, #84]	; (1300 <SendFlashWithoutRx+0x60>)
}
void __attribute__((noinline,aligned(32))) SendFlashWithoutRx(uint8_t *txdata,int txlen)
{
//	volatile int i, j;
	uint8_t mode, delay;
	mode = HREAD(CORE_QSPI_CTRL);
    12ac:	7815      	ldrb	r5, [r2, #0]
	delay = HREAD(CORE_QSPI_DELAY);
    12ae:	781c      	ldrb	r4, [r3, #0]
		HWRITE(CORE_QSPI_CTRL,0x44 );// 0x40
#else
		HWRITE(CORE_QSPI_CTRL,0x04 );// 0x40
#endif
		HWRITE(CORE_QSPI_DELAY , 0x0);
		HWRITEW(CORE_QSPI_TXADDR , (int)txdata);
    12b0:	4f14      	ldr	r7, [pc, #80]	; (1304 <SendFlashWithoutRx+0x64>)
void __attribute__((noinline,aligned(32))) SendFlashWithoutRx(uint8_t *txdata,int txlen)
{
//	volatile int i, j;
	uint8_t mode, delay;
	mode = HREAD(CORE_QSPI_CTRL);
	delay = HREAD(CORE_QSPI_DELAY);
    12b2:	b2e4      	uxtb	r4, r4
    12b4:	9401      	str	r4, [sp, #4]
#ifdef RAM10000
		HWRITE(CORE_QSPI_CTRL,0x44 );// 0x40
    12b6:	7016      	strb	r6, [r2, #0]
#else
		HWRITE(CORE_QSPI_CTRL,0x04 );// 0x40
#endif
		HWRITE(CORE_QSPI_DELAY , 0x0);
		HWRITEW(CORE_QSPI_TXADDR , (int)txdata);
    12b8:	4664      	mov	r4, ip
#ifdef RAM10000
		HWRITE(CORE_QSPI_CTRL,0x44 );// 0x40
#else
		HWRITE(CORE_QSPI_CTRL,0x04 );// 0x40
#endif
		HWRITE(CORE_QSPI_DELAY , 0x0);
    12ba:	2600      	movs	r6, #0
		HWRITEW(CORE_QSPI_TXADDR , (int)txdata);
    12bc:	1200      	asrs	r0, r0, #8
#ifdef RAM10000
		HWRITE(CORE_QSPI_CTRL,0x44 );// 0x40
#else
		HWRITE(CORE_QSPI_CTRL,0x04 );// 0x40
#endif
		HWRITE(CORE_QSPI_DELAY , 0x0);
    12be:	701e      	strb	r6, [r3, #0]
		HWRITEW(CORE_QSPI_TXADDR , (int)txdata);
    12c0:	703c      	strb	r4, [r7, #0]
    12c2:	4f11      	ldr	r7, [pc, #68]	; (1308 <SendFlashWithoutRx+0x68>)
    12c4:	b2c0      	uxtb	r0, r0
    12c6:	7038      	strb	r0, [r7, #0]
		HWRITEW(CORE_QSPI_TXLEN, txlen);
    12c8:	4810      	ldr	r0, [pc, #64]	; (130c <SendFlashWithoutRx+0x6c>)
    12ca:	b2cf      	uxtb	r7, r1
    12cc:	7007      	strb	r7, [r0, #0]
    12ce:	1209      	asrs	r1, r1, #8
    12d0:	480f      	ldr	r0, [pc, #60]	; (1310 <SendFlashWithoutRx+0x70>)
    12d2:	b2c9      	uxtb	r1, r1
    12d4:	7001      	strb	r1, [r0, #0]
		HWRITEW(CORE_QSPI_RXLEN , 0);
    12d6:	490f      	ldr	r1, [pc, #60]	; (1314 <SendFlashWithoutRx+0x74>)
		HWRITE(CORE_DMA_START , 8);
    12d8:	480f      	ldr	r0, [pc, #60]	; (1318 <SendFlashWithoutRx+0x78>)
		HWRITE(CORE_QSPI_CTRL,0x04 );// 0x40
#endif
		HWRITE(CORE_QSPI_DELAY , 0x0);
		HWRITEW(CORE_QSPI_TXADDR , (int)txdata);
		HWRITEW(CORE_QSPI_TXLEN, txlen);
		HWRITEW(CORE_QSPI_RXLEN , 0);
    12da:	700e      	strb	r6, [r1, #0]
    12dc:	490f      	ldr	r1, [pc, #60]	; (131c <SendFlashWithoutRx+0x7c>)
}
void __attribute__((noinline,aligned(32))) SendFlashWithoutRx(uint8_t *txdata,int txlen)
{
//	volatile int i, j;
	uint8_t mode, delay;
	mode = HREAD(CORE_QSPI_CTRL);
    12de:	b2ed      	uxtb	r5, r5
		HWRITE(CORE_QSPI_CTRL,0x04 );// 0x40
#endif
		HWRITE(CORE_QSPI_DELAY , 0x0);
		HWRITEW(CORE_QSPI_TXADDR , (int)txdata);
		HWRITEW(CORE_QSPI_TXLEN, txlen);
		HWRITEW(CORE_QSPI_RXLEN , 0);
    12e0:	700e      	strb	r6, [r1, #0]
		HWRITE(CORE_DMA_START , 8);
    12e2:	2108      	movs	r1, #8
		//for(j = 0;j < 20;j++);
		while(!(HREAD(CORE_DMA_STATUS) & 8) );
    12e4:	4e0e      	ldr	r6, [pc, #56]	; (1320 <SendFlashWithoutRx+0x80>)
#endif
		HWRITE(CORE_QSPI_DELAY , 0x0);
		HWRITEW(CORE_QSPI_TXADDR , (int)txdata);
		HWRITEW(CORE_QSPI_TXLEN, txlen);
		HWRITEW(CORE_QSPI_RXLEN , 0);
		HWRITE(CORE_DMA_START , 8);
    12e6:	7001      	strb	r1, [r0, #0]
		//for(j = 0;j < 20;j++);
		while(!(HREAD(CORE_DMA_STATUS) & 8) );
    12e8:	7830      	ldrb	r0, [r6, #0]
    12ea:	4208      	tst	r0, r1
    12ec:	d0fc      	beq.n	12e8 <SendFlashWithoutRx+0x48>
		HWRITE(CORE_QSPI_CTRL , mode);
    12ee:	7015      	strb	r5, [r2, #0]
		HWRITE(CORE_QSPI_DELAY , delay);
    12f0:	466a      	mov	r2, sp
    12f2:	7912      	ldrb	r2, [r2, #4]
    12f4:	701a      	strb	r2, [r3, #0]
		WaitFlashFinish();
    12f6:	f7ff feb3 	bl	1060 <WaitFlashFinish>

}
    12fa:	bdf7      	pop	{r0, r1, r2, r4, r5, r6, r7, pc}
    12fc:	100080a0 	.word	0x100080a0
    1300:	100080a1 	.word	0x100080a1
    1304:	100080a4 	.word	0x100080a4
    1308:	100080a5 	.word	0x100080a5
    130c:	100080a2 	.word	0x100080a2
    1310:	100080a3 	.word	0x100080a3
    1314:	100080a8 	.word	0x100080a8
    1318:	1000800a 	.word	0x1000800a
    131c:	100080a9 	.word	0x100080a9
    1320:	10008330 	.word	0x10008330
    1324:	46c0      	nop			; (mov r8, r8)
    1326:	46c0      	nop			; (mov r8, r8)
    1328:	46c0      	nop			; (mov r8, r8)
    132a:	46c0      	nop			; (mov r8, r8)
    132c:	46c0      	nop			; (mov r8, r8)
    132e:	46c0      	nop			; (mov r8, r8)
    1330:	46c0      	nop			; (mov r8, r8)
    1332:	46c0      	nop			; (mov r8, r8)
    1334:	46c0      	nop			; (mov r8, r8)
    1336:	46c0      	nop			; (mov r8, r8)
    1338:	46c0      	nop			; (mov r8, r8)
    133a:	46c0      	nop			; (mov r8, r8)
    133c:	46c0      	nop			; (mov r8, r8)
    133e:	46c0      	nop			; (mov r8, r8)

00001340 <QSPI_FlashDeepPowerDown>:
{
#ifdef RAM10000
	uint8_t temp[1]={0};
#endif
	int i;
	temp[0] = 0xb9;
    1340:	23b9      	movs	r3, #185	; 0xb9

}


void  __attribute__((noinline,aligned(32)))  QSPI_FlashDeepPowerDown()
{
    1342:	b507      	push	{r0, r1, r2, lr}
#ifdef RAM10000
	uint8_t temp[1]={0};
#endif
	int i;
	temp[0] = 0xb9;
	SendFlashWithoutRx(temp,1);
    1344:	2101      	movs	r1, #1
{
#ifdef RAM10000
	uint8_t temp[1]={0};
#endif
	int i;
	temp[0] = 0xb9;
    1346:	a801      	add	r0, sp, #4
    1348:	7003      	strb	r3, [r0, #0]
	SendFlashWithoutRx(temp,1);
    134a:	f7ff ffa9 	bl	12a0 <SendFlashWithoutRx>
	for(i=0;i<5000;i++);
}
    134e:	bd07      	pop	{r0, r1, r2, pc}
    1350:	46c0      	nop			; (mov r8, r8)
    1352:	46c0      	nop			; (mov r8, r8)
    1354:	46c0      	nop			; (mov r8, r8)
    1356:	46c0      	nop			; (mov r8, r8)
    1358:	46c0      	nop			; (mov r8, r8)
    135a:	46c0      	nop			; (mov r8, r8)
    135c:	46c0      	nop			; (mov r8, r8)
    135e:	46c0      	nop			; (mov r8, r8)

00001360 <FlashWriteEnable>:
void  __attribute__((noinline,aligned(32)))  FlashWriteEnable()
{
#ifdef RAM10000
	uint8_t temp2[1]={0};
#endif
	temp2[0] = 0x06;
    1360:	2306      	movs	r3, #6
	SendFlashWithoutRx(temp,1);
	for(i=0;i<5000;i++);
}

void  __attribute__((noinline,aligned(32)))  FlashWriteEnable()
{
    1362:	b507      	push	{r0, r1, r2, lr}
#ifdef RAM10000
	uint8_t temp2[1]={0};
#endif
	temp2[0] = 0x06;
	SendFlashWithoutRx(temp2,1);
    1364:	2101      	movs	r1, #1
void  __attribute__((noinline,aligned(32)))  FlashWriteEnable()
{
#ifdef RAM10000
	uint8_t temp2[1]={0};
#endif
	temp2[0] = 0x06;
    1366:	a801      	add	r0, sp, #4
    1368:	7003      	strb	r3, [r0, #0]
	SendFlashWithoutRx(temp2,1);
    136a:	f7ff ff99 	bl	12a0 <SendFlashWithoutRx>
}
    136e:	bd07      	pop	{r0, r1, r2, pc}
    1370:	46c0      	nop			; (mov r8, r8)
    1372:	46c0      	nop			; (mov r8, r8)
    1374:	46c0      	nop			; (mov r8, r8)
    1376:	46c0      	nop			; (mov r8, r8)
    1378:	46c0      	nop			; (mov r8, r8)
    137a:	46c0      	nop			; (mov r8, r8)
    137c:	46c0      	nop			; (mov r8, r8)
    137e:	46c0      	nop			; (mov r8, r8)

00001380 <QSPI_FlashWriteDisable>:
void  __attribute__((noinline,aligned(32)))  QSPI_FlashWriteDisable()
{
#ifdef RAM10000
	uint8_t temp[1]={0};
#endif
	temp[0] = 0x04;
    1380:	2304      	movs	r3, #4
	temp2[0] = 0x06;
	SendFlashWithoutRx(temp2,1);
}

void  __attribute__((noinline,aligned(32)))  QSPI_FlashWriteDisable()
{
    1382:	b507      	push	{r0, r1, r2, lr}
#ifdef RAM10000
	uint8_t temp[1]={0};
#endif
	temp[0] = 0x04;
	SendFlashWithoutRx(temp,1);
    1384:	2101      	movs	r1, #1
void  __attribute__((noinline,aligned(32)))  QSPI_FlashWriteDisable()
{
#ifdef RAM10000
	uint8_t temp[1]={0};
#endif
	temp[0] = 0x04;
    1386:	a801      	add	r0, sp, #4
    1388:	7003      	strb	r3, [r0, #0]
	SendFlashWithoutRx(temp,1);
    138a:	f7ff ff89 	bl	12a0 <SendFlashWithoutRx>
}
    138e:	bd07      	pop	{r0, r1, r2, pc}
    1390:	46c0      	nop			; (mov r8, r8)
    1392:	46c0      	nop			; (mov r8, r8)
    1394:	46c0      	nop			; (mov r8, r8)
    1396:	46c0      	nop			; (mov r8, r8)
    1398:	46c0      	nop			; (mov r8, r8)
    139a:	46c0      	nop			; (mov r8, r8)
    139c:	46c0      	nop			; (mov r8, r8)
    139e:	46c0      	nop			; (mov r8, r8)

000013a0 <QSPI_PageEraseFlash>:

void __attribute__((noinline,aligned(32))) QSPI_PageEraseFlash(int flash_addr)
{
    13a0:	b507      	push	{r0, r1, r2, lr}
    13a2:	0002      	movs	r2, r0
  \details Disables IRQ interrupts by setting the I-bit in the CPSR.
  Can only be executed in Privileged modes.
 */
__attribute__( ( always_inline ) ) __STATIC_INLINE void __disable_irq(void)
{
  __ASM volatile ("cpsid i" : : : "memory");
    13a4:	b672      	cpsid	i
	OS_ENTER_CRITICAL();
#ifdef RAM10000
	uint8_t temp[4]={0};
    13a6:	2300      	movs	r3, #0
#endif
	FillSendCMD(temp, 0x81, flash_addr);
    13a8:	a801      	add	r0, sp, #4
    13aa:	2181      	movs	r1, #129	; 0x81

void __attribute__((noinline,aligned(32))) QSPI_PageEraseFlash(int flash_addr)
{
	OS_ENTER_CRITICAL();
#ifdef RAM10000
	uint8_t temp[4]={0};
    13ac:	9301      	str	r3, [sp, #4]
#endif
	FillSendCMD(temp, 0x81, flash_addr);
    13ae:	f7ff fd09 	bl	dc4 <FillSendCMD>
	FlashWriteEnable();	
    13b2:	f7ff ffd5 	bl	1360 <FlashWriteEnable>
	SendFlashWithoutRx(temp,4);
    13b6:	2104      	movs	r1, #4
    13b8:	a801      	add	r0, sp, #4
    13ba:	f7ff ff71 	bl	12a0 <SendFlashWithoutRx>
  \details Enables IRQ interrupts by clearing the I-bit in the CPSR.
           Can only be executed in Privileged modes.
 */
__attribute__( ( always_inline ) ) __STATIC_INLINE void __enable_irq(void)
{
  __ASM volatile ("cpsie i" : : : "memory");
    13be:	b662      	cpsie	i
	OS_EXIT_CRITICAL();
}
    13c0:	bd07      	pop	{r0, r1, r2, pc}
    13c2:	46c0      	nop			; (mov r8, r8)
    13c4:	46c0      	nop			; (mov r8, r8)
    13c6:	46c0      	nop			; (mov r8, r8)
    13c8:	46c0      	nop			; (mov r8, r8)
    13ca:	46c0      	nop			; (mov r8, r8)
    13cc:	46c0      	nop			; (mov r8, r8)
    13ce:	46c0      	nop			; (mov r8, r8)
    13d0:	46c0      	nop			; (mov r8, r8)
    13d2:	46c0      	nop			; (mov r8, r8)
    13d4:	46c0      	nop			; (mov r8, r8)
    13d6:	46c0      	nop			; (mov r8, r8)
    13d8:	46c0      	nop			; (mov r8, r8)
    13da:	46c0      	nop			; (mov r8, r8)
    13dc:	46c0      	nop			; (mov r8, r8)
    13de:	46c0      	nop			; (mov r8, r8)

000013e0 <QSPI_WriteFlashReg>:

void   __attribute__((noinline,aligned(32)))  QSPI_WriteFlashReg(uint8_t *txbuf)
{
    13e0:	b573      	push	{r0, r1, r4, r5, r6, lr}
#ifdef RAM10000
	uint8_t temp[3]={0};
    13e2:	2503      	movs	r5, #3
    13e4:	ac01      	add	r4, sp, #4
	SendFlashWithoutRx(temp,4);
	OS_EXIT_CRITICAL();
}

void   __attribute__((noinline,aligned(32)))  QSPI_WriteFlashReg(uint8_t *txbuf)
{
    13e6:	0006      	movs	r6, r0
#ifdef RAM10000
	uint8_t temp[3]={0};
    13e8:	002a      	movs	r2, r5
    13ea:	2100      	movs	r1, #0
    13ec:	0020      	movs	r0, r4
    13ee:	f014 fb2d 	bl	15a4c <memset>
#endif
	temp[0] = 0x01;
    13f2:	2301      	movs	r3, #1
    13f4:	7023      	strb	r3, [r4, #0]
	temp[1] = txbuf[0];
    13f6:	7833      	ldrb	r3, [r6, #0]
    13f8:	7063      	strb	r3, [r4, #1]
	temp[2] = txbuf[1];
    13fa:	7873      	ldrb	r3, [r6, #1]
    13fc:	70a3      	strb	r3, [r4, #2]
	FlashWriteEnable();
    13fe:	f7ff ffaf 	bl	1360 <FlashWriteEnable>
	SendFlashWithoutRx(temp,3);	//s15-s8
    1402:	0029      	movs	r1, r5
    1404:	0020      	movs	r0, r4
    1406:	f7ff ff4b 	bl	12a0 <SendFlashWithoutRx>
}
    140a:	bd73      	pop	{r0, r1, r4, r5, r6, pc}
    140c:	46c0      	nop			; (mov r8, r8)
    140e:	46c0      	nop			; (mov r8, r8)
    1410:	46c0      	nop			; (mov r8, r8)
    1412:	46c0      	nop			; (mov r8, r8)
    1414:	46c0      	nop			; (mov r8, r8)
    1416:	46c0      	nop			; (mov r8, r8)
    1418:	46c0      	nop			; (mov r8, r8)
    141a:	46c0      	nop			; (mov r8, r8)
    141c:	46c0      	nop			; (mov r8, r8)
    141e:	46c0      	nop			; (mov r8, r8)

00001420 <QSPI_FlashQuadEnable>:

void   __attribute__((noinline,aligned(32)))   QSPI_FlashQuadEnable(uint8_t on)
{
#ifdef RAM10000
	uint8_t temp[2]={0};
    1420:	2300      	movs	r3, #0
	FlashWriteEnable();
	SendFlashWithoutRx(temp,3);	//s15-s8
}

void   __attribute__((noinline,aligned(32)))   QSPI_FlashQuadEnable(uint8_t on)
{
    1422:	b537      	push	{r0, r1, r2, r4, r5, lr}
#ifdef RAM10000
	uint8_t temp[2]={0};
    1424:	ac01      	add	r4, sp, #4
	FlashWriteEnable();
	SendFlashWithoutRx(temp,3);	//s15-s8
}

void   __attribute__((noinline,aligned(32)))   QSPI_FlashQuadEnable(uint8_t on)
{
    1426:	0005      	movs	r5, r0
#ifdef RAM10000
	uint8_t temp[2]={0};
#endif
	QSPI_ReadFlashReg(temp);
    1428:	0020      	movs	r0, r4
}

void   __attribute__((noinline,aligned(32)))   QSPI_FlashQuadEnable(uint8_t on)
{
#ifdef RAM10000
	uint8_t temp[2]={0};
    142a:	8023      	strh	r3, [r4, #0]
#endif
	QSPI_ReadFlashReg(temp);
    142c:	f7ff fdc8 	bl	fc0 <QSPI_ReadFlashReg>
    1430:	7863      	ldrb	r3, [r4, #1]
    1432:	2202      	movs	r2, #2
	if(on)
    1434:	2d00      	cmp	r5, #0
    1436:	d002      	beq.n	143e <QSPI_FlashQuadEnable+0x1e>
		temp[1] = temp[1] |0x02;	
    1438:	4313      	orrs	r3, r2
    143a:	7063      	strb	r3, [r4, #1]
    143c:	e001      	b.n	1442 <QSPI_FlashQuadEnable+0x22>
	else
		temp[1] = temp[1] &0xfd;
    143e:	4393      	bics	r3, r2
    1440:	7063      	strb	r3, [r4, #1]
	QSPI_WriteFlashReg(temp);
    1442:	0020      	movs	r0, r4
    1444:	f7ff ffcc 	bl	13e0 <QSPI_WriteFlashReg>
}
    1448:	bd37      	pop	{r0, r1, r2, r4, r5, pc}
    144a:	46c0      	nop			; (mov r8, r8)
    144c:	46c0      	nop			; (mov r8, r8)
    144e:	46c0      	nop			; (mov r8, r8)
    1450:	46c0      	nop			; (mov r8, r8)
    1452:	46c0      	nop			; (mov r8, r8)
    1454:	46c0      	nop			; (mov r8, r8)
    1456:	46c0      	nop			; (mov r8, r8)
    1458:	46c0      	nop			; (mov r8, r8)
    145a:	46c0      	nop			; (mov r8, r8)
    145c:	46c0      	nop			; (mov r8, r8)
    145e:	46c0      	nop			; (mov r8, r8)

00001460 <End>:


void __attribute__((noinline,aligned(32)))    End()
{
	__ASM("nop");
    1460:	46c0      	nop			; (mov r8, r8)
}
    1462:	4770      	bx	lr
    1464:	46c0      	nop			; (mov r8, r8)
    1466:	46c0      	nop			; (mov r8, r8)
    1468:	46c0      	nop			; (mov r8, r8)
    146a:	46c0      	nop			; (mov r8, r8)
    146c:	46c0      	nop			; (mov r8, r8)
    146e:	46c0      	nop			; (mov r8, r8)
    1470:	46c0      	nop			; (mov r8, r8)
    1472:	46c0      	nop			; (mov r8, r8)
    1474:	46c0      	nop			; (mov r8, r8)
    1476:	46c0      	nop			; (mov r8, r8)
    1478:	46c0      	nop			; (mov r8, r8)
    147a:	46c0      	nop			; (mov r8, r8)
    147c:	46c0      	nop			; (mov r8, r8)
    147e:	46c0      	nop			; (mov r8, r8)

00001480 <prefetch>:

void __attribute__((noinline,aligned(32)))   prefetch(int start_addr, int end_addr)
{
	int addr= 0;
	for(addr = (int)start_addr & (~0x1f);addr < (int)end_addr + 32;addr += 32)
    1480:	231f      	movs	r3, #31
    1482:	4398      	bics	r0, r3
    1484:	0003      	movs	r3, r0
    1486:	311f      	adds	r1, #31
    1488:	428b      	cmp	r3, r1
    148a:	dc02      	bgt.n	1492 <prefetch+0x12>
	{
		__ASM("ldr r0,[%0]": : "r"(addr) :"%r0");
    148c:	6818      	ldr	r0, [r3, #0]
}

void __attribute__((noinline,aligned(32)))   prefetch(int start_addr, int end_addr)
{
	int addr= 0;
	for(addr = (int)start_addr & (~0x1f);addr < (int)end_addr + 32;addr += 32)
    148e:	3320      	adds	r3, #32
    1490:	e7fa      	b.n	1488 <prefetch+0x8>
	{
		__ASM("ldr r0,[%0]": : "r"(addr) :"%r0");
//			__ASM("ldr r0,[%0]": : "r"(addr) :);
	}
}
    1492:	4770      	bx	lr

00001494 <QSPI_Init>:

void QSPI_Init()
{
	int a,b;
	a = (int)Start;
    1494:	4806      	ldr	r0, [pc, #24]	; (14b0 <QSPI_Init+0x1c>)
	b = (int)End;
    1496:	4b07      	ldr	r3, [pc, #28]	; (14b4 <QSPI_Init+0x20>)
//			__ASM("ldr r0,[%0]": : "r"(addr) :);
	}
}

void QSPI_Init()
{
    1498:	b510      	push	{r4, lr}
	int a,b;
	a = (int)Start;
	b = (int)End;
	if(a<b)
    149a:	4298      	cmp	r0, r3
    149c:	da03      	bge.n	14a6 <QSPI_Init+0x12>
		prefetch(a,b);
    149e:	0019      	movs	r1, r3
    14a0:	f7ff ffee 	bl	1480 <prefetch>
    14a4:	e003      	b.n	14ae <QSPI_Init+0x1a>
	else
		prefetch(b,a);
    14a6:	0001      	movs	r1, r0
    14a8:	0018      	movs	r0, r3
    14aa:	f7ff ffe9 	bl	1480 <prefetch>
}
    14ae:	bd10      	pop	{r4, pc}
    14b0:	00000dc1 	.word	0x00000dc1
    14b4:	00001461 	.word	0x00001461

000014b8 <_Qspi_WritebyEarsePage>:

void _Qspi_WritebyEarsePage(uint32_t flash_addr,uint32_t len,uint8_t* tbuf)
{		
    14b8:	b5f0      	push	{r4, r5, r6, r7, lr}
    14ba:	0017      	movs	r7, r2
	uint32_t i=0;
	uint8_t pagebuf[PAGE_SIZE] = {0};
	
	memset(pagebuf,0xff,PAGE_SIZE);												//ÿֽڶΪff													
    14bc:	2280      	movs	r2, #128	; 0x80
	else
		prefetch(b,a);
}

void _Qspi_WritebyEarsePage(uint32_t flash_addr,uint32_t len,uint8_t* tbuf)
{		
    14be:	b0c1      	sub	sp, #260	; 0x104
    14c0:	0005      	movs	r5, r0
	uint32_t i=0;
	uint8_t pagebuf[PAGE_SIZE] = {0};
	
	memset(pagebuf,0xff,PAGE_SIZE);												//ÿֽڶΪff													
    14c2:	0052      	lsls	r2, r2, #1
	else
		prefetch(b,a);
}

void _Qspi_WritebyEarsePage(uint32_t flash_addr,uint32_t len,uint8_t* tbuf)
{		
    14c4:	000e      	movs	r6, r1
	uint32_t i=0;
	uint8_t pagebuf[PAGE_SIZE] = {0};
	
	memset(pagebuf,0xff,PAGE_SIZE);												//ÿֽڶΪff													
    14c6:	4668      	mov	r0, sp
    14c8:	21ff      	movs	r1, #255	; 0xff
    14ca:	f014 fabf 	bl	15a4c <memset>

	QSPI_Init();
    14ce:	f7ff ffe1 	bl	1494 <QSPI_Init>
	QSPI_ReadFlashData((flash_addr/PAGE_SIZE)*PAGE_SIZE,PAGE_SIZE,pagebuf);//flashжĵݵpagebuf
    14d2:	2180      	movs	r1, #128	; 0x80
    14d4:	0a2c      	lsrs	r4, r5, #8
    14d6:	0224      	lsls	r4, r4, #8
    14d8:	466a      	mov	r2, sp
    14da:	0049      	lsls	r1, r1, #1
    14dc:	0020      	movs	r0, r4
    14de:	f7ff fcdf 	bl	ea0 <QSPI_ReadFlashData>

	for(i=0; i<len; i++)														//Ҫ޸copypagebuf
    14e2:	2300      	movs	r3, #0
		pagebuf[flash_addr%256 +i] = *(tbuf + i);
    14e4:	b2ea      	uxtb	r2, r5
	memset(pagebuf,0xff,PAGE_SIZE);												//ÿֽڶΪff													

	QSPI_Init();
	QSPI_ReadFlashData((flash_addr/PAGE_SIZE)*PAGE_SIZE,PAGE_SIZE,pagebuf);//flashжĵݵpagebuf

	for(i=0; i<len; i++)														//Ҫ޸copypagebuf
    14e6:	42b3      	cmp	r3, r6
    14e8:	d005      	beq.n	14f6 <_Qspi_WritebyEarsePage+0x3e>
		pagebuf[flash_addr%256 +i] = *(tbuf + i);
    14ea:	0019      	movs	r1, r3
    14ec:	5cf8      	ldrb	r0, [r7, r3]
    14ee:	4469      	add	r1, sp
    14f0:	5488      	strb	r0, [r1, r2]
	memset(pagebuf,0xff,PAGE_SIZE);												//ÿֽڶΪff													

	QSPI_Init();
	QSPI_ReadFlashData((flash_addr/PAGE_SIZE)*PAGE_SIZE,PAGE_SIZE,pagebuf);//flashжĵݵpagebuf

	for(i=0; i<len; i++)														//Ҫ޸copypagebuf
    14f2:	3301      	adds	r3, #1
    14f4:	e7f7      	b.n	14e6 <_Qspi_WritebyEarsePage+0x2e>
		pagebuf[flash_addr%256 +i] = *(tbuf + i);

	QSPI_Init();
    14f6:	f7ff ffcd 	bl	1494 <QSPI_Init>
	QSPI_PageEraseFlash(flash_addr);											//page
    14fa:	0028      	movs	r0, r5
    14fc:	f7ff ff50 	bl	13a0 <QSPI_PageEraseFlash>

	QSPI_Init();
    1500:	f7ff ffc8 	bl	1494 <QSPI_Init>
	QSPI_WriteFlashData((flash_addr/PAGE_SIZE)*PAGE_SIZE,PAGE_SIZE,pagebuf);	//õµpagebufдflash
    1504:	2180      	movs	r1, #128	; 0x80
    1506:	466a      	mov	r2, sp
    1508:	0049      	lsls	r1, r1, #1
    150a:	0020      	movs	r0, r4
    150c:	f7ff fe08 	bl	1120 <QSPI_WriteFlashData>
}
    1510:	b041      	add	sp, #260	; 0x104
    1512:	bdf0      	pop	{r4, r5, r6, r7, pc}

00001514 <QSPI_WriteFlashDatabyPage>:


void QSPI_WriteFlashDatabyPage(int flash_addr, int txlen, uint8_t *txdata)
{
    1514:	b5f7      	push	{r0, r1, r2, r4, r5, r6, r7, lr}
	uint32_t i=0;
//	uint8_t pagebuf[PAGE_SIZE] = {0};
	uint32_t packnum = 0;
	uint32_t ilen = (PAGE_SIZE - flash_addr % PAGE_SIZE);
    1516:	4c1c      	ldr	r4, [pc, #112]	; (1588 <QSPI_WriteFlashDatabyPage+0x74>)
	QSPI_WriteFlashData((flash_addr/PAGE_SIZE)*PAGE_SIZE,PAGE_SIZE,pagebuf);	//õµpagebufдflash
}


void QSPI_WriteFlashDatabyPage(int flash_addr, int txlen, uint8_t *txdata)
{
    1518:	0007      	movs	r7, r0
    151a:	000d      	movs	r5, r1
    151c:	0016      	movs	r6, r2
	uint32_t i=0;
//	uint8_t pagebuf[PAGE_SIZE] = {0};
	uint32_t packnum = 0;
	uint32_t ilen = (PAGE_SIZE - flash_addr % PAGE_SIZE);
    151e:	4004      	ands	r4, r0
    1520:	d503      	bpl.n	152a <QSPI_WriteFlashDatabyPage+0x16>
    1522:	4b1a      	ldr	r3, [pc, #104]	; (158c <QSPI_WriteFlashDatabyPage+0x78>)
    1524:	3c01      	subs	r4, #1
    1526:	431c      	orrs	r4, r3
    1528:	3401      	adds	r4, #1
    152a:	2380      	movs	r3, #128	; 0x80
    152c:	005b      	lsls	r3, r3, #1
    152e:	1b1c      	subs	r4, r3, r4
		
	ilen = ilen>txlen?txlen:ilen;						//ȷһҳдĳ
    1530:	42ac      	cmp	r4, r5
    1532:	d900      	bls.n	1536 <QSPI_WriteFlashDatabyPage+0x22>
    1534:	002c      	movs	r4, r5

	_Qspi_WritebyEarsePage(flash_addr,ilen,txdata);		//дҪдĵһpage
    1536:	0032      	movs	r2, r6
    1538:	0021      	movs	r1, r4
    153a:	0038      	movs	r0, r7
    153c:	f7ff ffbc 	bl	14b8 <_Qspi_WritebyEarsePage>

	flash_addr += ilen;									//дһҳ֮ƫ
	txdata += ilen;
    1540:	1933      	adds	r3, r6, r4
	txlen -= ilen;
    1542:	1b2e      	subs	r6, r5, r4
	ilen = ilen>txlen?txlen:ilen;						//ȷһҳдĳ

	_Qspi_WritebyEarsePage(flash_addr,ilen,txdata);		//дҪдĵһpage

	flash_addr += ilen;									//дһҳ֮ƫ
	txdata += ilen;
    1544:	9300      	str	r3, [sp, #0]
	txlen -= ilen;

	packnum = (txlen + 255)/PAGE_SIZE; 					//ʣݻҪдҳ
    1546:	0033      	movs	r3, r6
    1548:	33ff      	adds	r3, #255	; 0xff
		
	ilen = ilen>txlen?txlen:ilen;						//ȷһҳдĳ

	_Qspi_WritebyEarsePage(flash_addr,ilen,txdata);		//дҪдĵһpage

	flash_addr += ilen;									//дһҳ֮ƫ
    154a:	19e7      	adds	r7, r4, r7
	txdata += ilen;
	txlen -= ilen;

	packnum = (txlen + 255)/PAGE_SIZE; 					//ʣݻҪдҳ
    154c:	17dc      	asrs	r4, r3, #31
    154e:	b2e4      	uxtb	r4, r4
    1550:	18e4      	adds	r4, r4, r3

	for(i=0; i<packnum; i++){							//ѭдʣ
    1552:	2300      	movs	r3, #0

	flash_addr += ilen;									//дһҳ֮ƫ
	txdata += ilen;
	txlen -= ilen;

	packnum = (txlen + 255)/PAGE_SIZE; 					//ʣݻҪдҳ
    1554:	1224      	asrs	r4, r4, #8

	for(i=0; i<packnum; i++){							//ѭдʣ
    1556:	9301      	str	r3, [sp, #4]
    1558:	9b01      	ldr	r3, [sp, #4]
    155a:	42a3      	cmp	r3, r4
    155c:	d013      	beq.n	1586 <QSPI_WriteFlashDatabyPage+0x72>
	
		ilen = txlen>PAGE_SIZE?PAGE_SIZE:txlen;
    155e:	2380      	movs	r3, #128	; 0x80
    1560:	0035      	movs	r5, r6
    1562:	005b      	lsls	r3, r3, #1
    1564:	429e      	cmp	r6, r3
    1566:	dd00      	ble.n	156a <QSPI_WriteFlashDatabyPage+0x56>
    1568:	001d      	movs	r5, r3
		_Qspi_WritebyEarsePage(flash_addr,ilen,txdata);
    156a:	0038      	movs	r0, r7
    156c:	9a00      	ldr	r2, [sp, #0]
    156e:	0029      	movs	r1, r5
    1570:	f7ff ffa2 	bl	14b8 <_Qspi_WritebyEarsePage>

		flash_addr += ilen;
		txdata += ilen;
    1574:	9b00      	ldr	r3, [sp, #0]
	for(i=0; i<packnum; i++){							//ѭдʣ
	
		ilen = txlen>PAGE_SIZE?PAGE_SIZE:txlen;
		_Qspi_WritebyEarsePage(flash_addr,ilen,txdata);

		flash_addr += ilen;
    1576:	19ef      	adds	r7, r5, r7
		txdata += ilen;
    1578:	195b      	adds	r3, r3, r5
    157a:	9300      	str	r3, [sp, #0]
	txdata += ilen;
	txlen -= ilen;

	packnum = (txlen + 255)/PAGE_SIZE; 					//ʣݻҪдҳ

	for(i=0; i<packnum; i++){							//ѭдʣ
    157c:	9b01      	ldr	r3, [sp, #4]
		ilen = txlen>PAGE_SIZE?PAGE_SIZE:txlen;
		_Qspi_WritebyEarsePage(flash_addr,ilen,txdata);

		flash_addr += ilen;
		txdata += ilen;
		txlen -= ilen;
    157e:	1b76      	subs	r6, r6, r5
	txdata += ilen;
	txlen -= ilen;

	packnum = (txlen + 255)/PAGE_SIZE; 					//ʣݻҪдҳ

	for(i=0; i<packnum; i++){							//ѭдʣ
    1580:	3301      	adds	r3, #1
    1582:	9301      	str	r3, [sp, #4]
    1584:	e7e8      	b.n	1558 <QSPI_WriteFlashDatabyPage+0x44>
		flash_addr += ilen;
		txdata += ilen;
		txlen -= ilen;
	}
	
}
    1586:	bdf7      	pop	{r0, r1, r2, r4, r5, r6, r7, pc}
    1588:	800000ff 	.word	0x800000ff
    158c:	ffffff00 	.word	0xffffff00

00001590 <hw_delay>:

#define BW(addr)			(int)*(addr) << 24 | (int)*(addr + 1) << 16 | (int)*(addr + 2) << 8 | *(addr + 3)

static inline void hw_delay() 
{
	__asm__ __volatile__("nop");
    1590:	46c0      	nop			; (mov r8, r8)
	__asm__ __volatile__("nop");
    1592:	46c0      	nop			; (mov r8, r8)
	__asm__ __volatile__("nop");
    1594:	46c0      	nop			; (mov r8, r8)
	__asm__ __volatile__("nop");
    1596:	46c0      	nop			; (mov r8, r8)
	__asm__ __volatile__("nop");
    1598:	46c0      	nop			; (mov r8, r8)
}
    159a:	4770      	bx	lr

0000159c <HW_REG_16BIT>:
#define OS_ENTER_CRITICAL() __disable_irq() 
#define OS_EXIT_CRITICAL() __enable_irq() 


static inline void HW_REG_16BIT(uint32_t reg, uint16_t word)
{
    159c:	b570      	push	{r4, r5, r6, lr}
    159e:	000c      	movs	r4, r1
    15a0:	0005      	movs	r5, r0
    HW_REG_8BIT(reg, word & 0x00FF);
    15a2:	b2cb      	uxtb	r3, r1
    15a4:	7003      	strb	r3, [r0, #0]
    hw_delay();
    HW_REG_8BIT(reg + 1,(word >> 8));
    15a6:	0a24      	lsrs	r4, r4, #8


static inline void HW_REG_16BIT(uint32_t reg, uint16_t word)
{
    HW_REG_8BIT(reg, word & 0x00FF);
    hw_delay();
    15a8:	f7ff fff2 	bl	1590 <hw_delay>
    HW_REG_8BIT(reg + 1,(word >> 8));
    15ac:	706c      	strb	r4, [r5, #1]
}
    15ae:	bd70      	pop	{r4, r5, r6, pc}

000015b0 <HR_REG_16BIT>:
static inline uint16_t HR_REG_16BIT(uint32_t reg)
{
    15b0:	b570      	push	{r4, r5, r6, lr}
    15b2:	0005      	movs	r5, r0
	uint16_t return_data = 0;
	uint16_t H_data = 0;
	hw_delay();
    15b4:	f7ff ffec 	bl	1590 <hw_delay>
	return_data = HR_REG_8BIT(reg);
    15b8:	782c      	ldrb	r4, [r5, #0]
	hw_delay();
    15ba:	f7ff ffe9 	bl	1590 <hw_delay>
	H_data = HR_REG_8BIT(reg + 1);
    15be:	7868      	ldrb	r0, [r5, #1]
static inline uint16_t HR_REG_16BIT(uint32_t reg)
{
	uint16_t return_data = 0;
	uint16_t H_data = 0;
	hw_delay();
	return_data = HR_REG_8BIT(reg);
    15c0:	b2e4      	uxtb	r4, r4
	hw_delay();
	H_data = HR_REG_8BIT(reg + 1);
	return_data = (return_data | ((H_data << 8) & 0xFF00));
	return return_data;
    15c2:	0200      	lsls	r0, r0, #8
    15c4:	4320      	orrs	r0, r4
}
    15c6:	bd70      	pop	{r4, r5, r6, pc}

000015c8 <usartInitByBackup>:

UartxRegControlBackup regBeck[UART_PER_NUM];


static void usartInitByBackup(USART_TypeDef USARTx)
{
    15c8:	b5f8      	push	{r3, r4, r5, r6, r7, lr}
	uint16_t UartxCtrlAdr = 0;
	UartxRegDef *UartAdr = NULL;
	/*set uart control*/
	if(USARTx == UARTA) {
    15ca:	2800      	cmp	r0, #0
    15cc:	d004      	beq.n	15d8 <usartInitByBackup+0x10>
		UartxCtrlAdr = CORE_UART_CTRL;
		UartAdr = (UartxRegDef *)(reg_map(CORE_UART_BAUD));
	}else if(USARTx == UARTB) {
    15ce:	2801      	cmp	r0, #1
    15d0:	d105      	bne.n	15de <usartInitByBackup+0x16>
		UartxCtrlAdr = CORE_UARTB_CTRL;
		UartAdr = (UartxRegDef *)(reg_map(CORE_UARTB_BAUD));
    15d2:	4e1b      	ldr	r6, [pc, #108]	; (1640 <usartInitByBackup+0x78>)
	/*set uart control*/
	if(USARTx == UARTA) {
		UartxCtrlAdr = CORE_UART_CTRL;
		UartAdr = (UartxRegDef *)(reg_map(CORE_UART_BAUD));
	}else if(USARTx == UARTB) {
		UartxCtrlAdr = CORE_UARTB_CTRL;
    15d4:	4b1b      	ldr	r3, [pc, #108]	; (1644 <usartInitByBackup+0x7c>)
    15d6:	e004      	b.n	15e2 <usartInitByBackup+0x1a>
	uint16_t UartxCtrlAdr = 0;
	UartxRegDef *UartAdr = NULL;
	/*set uart control*/
	if(USARTx == UARTA) {
		UartxCtrlAdr = CORE_UART_CTRL;
		UartAdr = (UartxRegDef *)(reg_map(CORE_UART_BAUD));
    15d8:	4e1b      	ldr	r6, [pc, #108]	; (1648 <usartInitByBackup+0x80>)
{
	uint16_t UartxCtrlAdr = 0;
	UartxRegDef *UartAdr = NULL;
	/*set uart control*/
	if(USARTx == UARTA) {
		UartxCtrlAdr = CORE_UART_CTRL;
    15da:	4b1c      	ldr	r3, [pc, #112]	; (164c <usartInitByBackup+0x84>)
    15dc:	e001      	b.n	15e2 <usartInitByBackup+0x1a>


static void usartInitByBackup(USART_TypeDef USARTx)
{
	uint16_t UartxCtrlAdr = 0;
	UartxRegDef *UartAdr = NULL;
    15de:	2600      	movs	r6, #0
UartxRegControlBackup regBeck[UART_PER_NUM];


static void usartInitByBackup(USART_TypeDef USARTx)
{
	uint16_t UartxCtrlAdr = 0;
    15e0:	0033      	movs	r3, r6
	}else if(USARTx == UARTB) {
		UartxCtrlAdr = CORE_UARTB_CTRL;
		UartAdr = (UartxRegDef *)(reg_map(CORE_UARTB_BAUD));
	}

	HWCOR(UartxCtrlAdr, 1);
    15e2:	2580      	movs	r5, #128	; 0x80
    15e4:	2201      	movs	r2, #1
    15e6:	056d      	lsls	r5, r5, #21
    15e8:	431d      	orrs	r5, r3
    15ea:	782b      	ldrb	r3, [r5, #0]

	/*init all reg by backup*/
	HW_REG_16BIT(((uint32_t)(&UartAdr->Baudrate)), regBeck[USARTx].rbu.Baudrate);
    15ec:	4f18      	ldr	r7, [pc, #96]	; (1650 <usartInitByBackup+0x88>)
	}else if(USARTx == UARTB) {
		UartxCtrlAdr = CORE_UARTB_CTRL;
		UartAdr = (UartxRegDef *)(reg_map(CORE_UARTB_BAUD));
	}

	HWCOR(UartxCtrlAdr, 1);
    15ee:	4393      	bics	r3, r2
    15f0:	702b      	strb	r3, [r5, #0]

	/*init all reg by backup*/
	HW_REG_16BIT(((uint32_t)(&UartAdr->Baudrate)), regBeck[USARTx].rbu.Baudrate);
    15f2:	0104      	lsls	r4, r0, #4
    15f4:	5be1      	ldrh	r1, [r4, r7]
    15f6:	0030      	movs	r0, r6
    15f8:	f7ff ffd0 	bl	159c <HW_REG_16BIT>
	HW_REG_16BIT(((uint32_t)(&UartAdr->TxSadr)), (uint32_t)regBeck[USARTx].rbu.TxSadr);
    15fc:	0030      	movs	r0, r6
    15fe:	193c      	adds	r4, r7, r4
    1600:	8921      	ldrh	r1, [r4, #8]
    1602:	3008      	adds	r0, #8
    1604:	f7ff ffca 	bl	159c <HW_REG_16BIT>
	HW_REG_16BIT(((uint32_t)(&UartAdr->TxEadr)), (uint32_t)regBeck[USARTx].rbu.TxEadr);
    1608:	0030      	movs	r0, r6
    160a:	8961      	ldrh	r1, [r4, #10]
    160c:	300a      	adds	r0, #10
    160e:	f7ff ffc5 	bl	159c <HW_REG_16BIT>
	HW_REG_16BIT(((uint32_t)(&UartAdr->TxWptr)), (uint32_t)regBeck[USARTx].rbu.TxSadr);
    1612:	0030      	movs	r0, r6
    1614:	8921      	ldrh	r1, [r4, #8]
    1616:	300c      	adds	r0, #12
    1618:	f7ff ffc0 	bl	159c <HW_REG_16BIT>
	HW_REG_16BIT(((uint32_t)(&UartAdr->RxSadr)), (uint32_t)regBeck[USARTx].rbu.RxSadr);
    161c:	1cb0      	adds	r0, r6, #2
    161e:	8861      	ldrh	r1, [r4, #2]
    1620:	f7ff ffbc 	bl	159c <HW_REG_16BIT>
	HW_REG_16BIT(((uint32_t)(&UartAdr->RxEadr)), (uint32_t)regBeck[USARTx].rbu.RxEadr);
    1624:	1d30      	adds	r0, r6, #4
    1626:	88a1      	ldrh	r1, [r4, #4]
    1628:	f7ff ffb8 	bl	159c <HW_REG_16BIT>
	HW_REG_16BIT(((uint32_t)(&UartAdr->RxRptr)), (uint32_t)regBeck[USARTx].rbu.RxSadr);
    162c:	1db0      	adds	r0, r6, #6
    162e:	8861      	ldrh	r1, [r4, #2]
    1630:	f7ff ffb4 	bl	159c <HW_REG_16BIT>
	HWOR(UartxCtrlAdr, regBeck[USARTx].cbu);
    1634:	782a      	ldrb	r2, [r5, #0]
    1636:	7ba3      	ldrb	r3, [r4, #14]
    1638:	4313      	orrs	r3, r2
    163a:	702b      	strb	r3, [r5, #0]
}
    163c:	bdf8      	pop	{r3, r4, r5, r6, r7, pc}
    163e:	46c0      	nop			; (mov r8, r8)
    1640:	10008072 	.word	0x10008072
    1644:	00008071 	.word	0x00008071
    1648:	10008052 	.word	0x10008052
    164c:	00008060 	.word	0x00008060
    1650:	100127fc 	.word	0x100127fc

00001654 <USART_Init>:

void USART_Init(USART_TypeDef USARTx, USART_InitTypeDef* USART_InitStruct)
{	
#define UARTC_BIT_ENABLE (1<<0)
#define BAUD_USE_SETTING (1<<7)
	HWRITE(CORE_UART_CLKSEL, 1);
    1654:	2201      	movs	r2, #1
    1656:	4b37      	ldr	r3, [pc, #220]	; (1734 <USART_Init+0xe0>)
	return SUCCESS;
}
#endif

void USART_Init(USART_TypeDef USARTx, USART_InitTypeDef* USART_InitStruct)
{	
    1658:	b5f0      	push	{r4, r5, r6, r7, lr}
#define UARTC_BIT_ENABLE (1<<0)
#define BAUD_USE_SETTING (1<<7)
	HWRITE(CORE_UART_CLKSEL, 1);
    165a:	701a      	strb	r2, [r3, #0]
	HWCOR(CORE_CLKOFF + 1, 0x80);
    165c:	237f      	movs	r3, #127	; 0x7f
    165e:	4a36      	ldr	r2, [pc, #216]	; (1738 <USART_Init+0xe4>)
	return SUCCESS;
}
#endif

void USART_Init(USART_TypeDef USARTx, USART_InitTypeDef* USART_InitStruct)
{	
    1660:	0005      	movs	r5, r0
#define UARTC_BIT_ENABLE (1<<0)
#define BAUD_USE_SETTING (1<<7)
	HWRITE(CORE_UART_CLKSEL, 1);
	HWCOR(CORE_CLKOFF + 1, 0x80);
    1662:	7810      	ldrb	r0, [r2, #0]
	return SUCCESS;
}
#endif

void USART_Init(USART_TypeDef USARTx, USART_InitTypeDef* USART_InitStruct)
{	
    1664:	b087      	sub	sp, #28
#define UARTC_BIT_ENABLE (1<<0)
#define BAUD_USE_SETTING (1<<7)
	HWRITE(CORE_UART_CLKSEL, 1);
	HWCOR(CORE_CLKOFF + 1, 0x80);
    1666:	4003      	ands	r3, r0
    1668:	7013      	strb	r3, [r2, #0]

	void *Ptr = NULL;
	uint8_t CtrValue = 0;

	/*check parameter*/
	ASSERT(USART_InitStruct != NULL);
    166a:	2900      	cmp	r1, #0
    166c:	d100      	bne.n	1670 <USART_Init+0x1c>
    166e:	e7fe      	b.n	166e <USART_Init+0x1a>
	ASSERT(IS_USARTAB(USARTx));
    1670:	2d01      	cmp	r5, #1
    1672:	d8fd      	bhi.n	1670 <USART_Init+0x1c>
	ASSERT(IS_UARTE_BAUDRATE(USART_InitStruct->USART_BaudRate));
    1674:	680b      	ldr	r3, [r1, #0]
    1676:	4a31      	ldr	r2, [pc, #196]	; (173c <USART_Init+0xe8>)
    1678:	1e58      	subs	r0, r3, #1
    167a:	4290      	cmp	r0, r2
    167c:	d8fd      	bhi.n	167a <USART_Init+0x26>
	ASSERT(IS_USART_WORD_LENGTH(USART_InitStruct->USART_WordLength));
    167e:	888a      	ldrh	r2, [r1, #4]
    1680:	9201      	str	r2, [sp, #4]
    1682:	9a01      	ldr	r2, [sp, #4]
    1684:	2a00      	cmp	r2, #0
    1686:	d001      	beq.n	168c <USART_Init+0x38>
    1688:	2a04      	cmp	r2, #4
    168a:	d1fa      	bne.n	1682 <USART_Init+0x2e>
	ASSERT(IS_USART_STOPBITS(USART_InitStruct->USART_StopBits));
    168c:	88ca      	ldrh	r2, [r1, #6]
    168e:	9202      	str	r2, [sp, #8]
    1690:	9a02      	ldr	r2, [sp, #8]
    1692:	2a00      	cmp	r2, #0
    1694:	d001      	beq.n	169a <USART_Init+0x46>
    1696:	2a08      	cmp	r2, #8
    1698:	d1fa      	bne.n	1690 <USART_Init+0x3c>
	ASSERT(IS_USART_PARITY(USART_InitStruct->USART_Parity));
    169a:	890a      	ldrh	r2, [r1, #8]
    169c:	9203      	str	r2, [sp, #12]
    169e:	9a03      	ldr	r2, [sp, #12]
    16a0:	2a00      	cmp	r2, #0
    16a2:	d001      	beq.n	16a8 <USART_Init+0x54>
    16a4:	2a02      	cmp	r2, #2
    16a6:	d1fa      	bne.n	169e <USART_Init+0x4a>
	ASSERT(IS_USART_MODE(USART_InitStruct->USART_Mode));
    16a8:	894a      	ldrh	r2, [r1, #10]
    16aa:	9204      	str	r2, [sp, #16]
    16ac:	9a04      	ldr	r2, [sp, #16]
    16ae:	2a40      	cmp	r2, #64	; 0x40
    16b0:	d001      	beq.n	16b6 <USART_Init+0x62>
    16b2:	2a00      	cmp	r2, #0
    16b4:	d1fa      	bne.n	16ac <USART_Init+0x58>
	ASSERT(IS_USART_HARDWARE_FLOW_CONTROL(USART_InitStruct->USART_HardwareFlowControl));
    16b6:	898f      	ldrh	r7, [r1, #12]
    16b8:	2f00      	cmp	r7, #0
    16ba:	d001      	beq.n	16c0 <USART_Init+0x6c>
    16bc:	2f10      	cmp	r7, #16
    16be:	d1fb      	bne.n	16b8 <USART_Init+0x64>
	ASSERT(IS_USART_TXLen(USART_InitStruct->USART_TXLen));
    16c0:	89ce      	ldrh	r6, [r1, #14]
    16c2:	2e00      	cmp	r6, #0
    16c4:	d100      	bne.n	16c8 <USART_Init+0x74>
    16c6:	e7fe      	b.n	16c6 <USART_Init+0x72>
	ASSERT(IS_USART_RXLen(USART_InitStruct->USART_RXLen));
    16c8:	8a0a      	ldrh	r2, [r1, #16]
    16ca:	9205      	str	r2, [sp, #20]
    16cc:	2a00      	cmp	r2, #0
    16ce:	d100      	bne.n	16d2 <USART_Init+0x7e>
    16d0:	e7fe      	b.n	16d0 <USART_Init+0x7c>

	/*init baud backup*/
	regBeck[USARTx].rbu.Baudrate = USART_InitStruct->USART_BaudRate;
    16d2:	4a1b      	ldr	r2, [pc, #108]	; (1740 <USART_Init+0xec>)
    16d4:	012c      	lsls	r4, r5, #4
    16d6:	52a3      	strh	r3, [r4, r2]
	
	/*init tx ring buffer backup*/
	Ptr = malloc(USART_InitStruct->USART_TXLen);
    16d8:	0030      	movs	r0, r6
    16da:	f013 fe93 	bl	15404 <malloc>
	regBeck[USARTx].rbu.TxSadr = (uint32_t)Ptr;
    16de:	4a18      	ldr	r2, [pc, #96]	; (1740 <USART_Init+0xec>)
    16e0:	b283      	uxth	r3, r0
    16e2:	1914      	adds	r4, r2, r4
    16e4:	8123      	strh	r3, [r4, #8]

	ASSERT(Ptr != NULL);	
    16e6:	2800      	cmp	r0, #0
    16e8:	d100      	bne.n	16ec <USART_Init+0x98>
    16ea:	e7fe      	b.n	16ea <USART_Init+0x96>
	regBeck[USARTx].rbu.TxEadr = ((uint32_t)Ptr) + USART_InitStruct->USART_TXLen;
    16ec:	18f6      	adds	r6, r6, r3
    16ee:	8166      	strh	r6, [r4, #10]
	Ptr = NULL;
	
	/*init rx ring buffer backup*/
	Ptr = malloc(USART_InitStruct->USART_RXLen);
    16f0:	9805      	ldr	r0, [sp, #20]
    16f2:	f013 fe87 	bl	15404 <malloc>
	regBeck[USARTx].rbu.RxSadr = (uint32_t)Ptr;
    16f6:	b283      	uxth	r3, r0
    16f8:	8063      	strh	r3, [r4, #2]
	ASSERT(Ptr != NULL);	
    16fa:	2800      	cmp	r0, #0
    16fc:	d100      	bne.n	1700 <USART_Init+0xac>
    16fe:	e7fe      	b.n	16fe <USART_Init+0xaa>
	regBeck[USARTx].rbu.RxEadr = ((uint32_t)Ptr) + USART_InitStruct->USART_RXLen;
    1700:	9a05      	ldr	r2, [sp, #20]
    1702:	18d3      	adds	r3, r2, r3
    1704:	80a3      	strh	r3, [r4, #4]

	CtrValue =  USART_InitStruct->USART_Mode | USART_InitStruct->USART_HardwareFlowControl |\
			  USART_InitStruct->USART_Parity |USART_InitStruct->USART_StopBits| \
			  USART_InitStruct->USART_WordLength|BAUD_USE_SETTING|UARTC_BIT_ENABLE;
	
	regBeck[USARTx].cbu = CtrValue;
    1706:	237f      	movs	r3, #127	; 0x7f
    1708:	9a01      	ldr	r2, [sp, #4]
    170a:	425b      	negs	r3, r3
    170c:	4313      	orrs	r3, r2
    170e:	9a02      	ldr	r2, [sp, #8]
    1710:	4313      	orrs	r3, r2
    1712:	9a03      	ldr	r2, [sp, #12]
    1714:	4313      	orrs	r3, r2
    1716:	9a04      	ldr	r2, [sp, #16]
    1718:	4313      	orrs	r3, r2
    171a:	433b      	orrs	r3, r7
    171c:	73a3      	strb	r3, [r4, #14]

	/*init rx ring buffer regs*/
	if(USARTx == UARTA) {
    171e:	2d00      	cmp	r5, #0
    1720:	d103      	bne.n	172a <USART_Init+0xd6>
		usartInitByBackup(UARTA);
    1722:	0028      	movs	r0, r5
    1724:	f7ff ff50 	bl	15c8 <usartInitByBackup>
    1728:	e002      	b.n	1730 <USART_Init+0xdc>
		//DEV_Register(Device_Id_UartA, usartAReinit, NULL);
	}
	else {
		usartInitByBackup(UARTB);
    172a:	2001      	movs	r0, #1
    172c:	f7ff ff4c 	bl	15c8 <usartInitByBackup>
		//DEV_Register(Device_Id_UartB, usartBReinit, NULL);
	}

}
    1730:	b007      	add	sp, #28
    1732:	bdf0      	pop	{r4, r5, r6, r7, pc}
    1734:	10008043 	.word	0x10008043
    1738:	10008051 	.word	0x10008051
    173c:	00008ffe 	.word	0x00008ffe
    1740:	100127fc 	.word	0x100127fc

00001744 <USART_DeInit>:


void USART_DeInit(USART_TypeDef USARTx)
{
    1744:	b510      	push	{r4, lr}
	UartxRegDef *UartAdr = NULL;
	ASSERT(IS_USARTAB(USARTx));
    1746:	2801      	cmp	r0, #1
    1748:	d8fd      	bhi.n	1746 <USART_DeInit+0x2>
    174a:	2201      	movs	r2, #1
	
	if(USARTx == UARTA) {
    174c:	2800      	cmp	r0, #0
    174e:	d108      	bne.n	1762 <USART_DeInit+0x1e>
		HWOR(reg_map(CORE_UART_CTRL), (1<<0));
    1750:	4b0b      	ldr	r3, [pc, #44]	; (1780 <USART_DeInit+0x3c>)
		HWOR(reg_map(CORE_UART_CTRL), (0<<0));
		UartAdr = (UartxRegDef *)(reg_map(CORE_UART_BAUD));
    1752:	4c0c      	ldr	r4, [pc, #48]	; (1784 <USART_DeInit+0x40>)
{
	UartxRegDef *UartAdr = NULL;
	ASSERT(IS_USARTAB(USARTx));
	
	if(USARTx == UARTA) {
		HWOR(reg_map(CORE_UART_CTRL), (1<<0));
    1754:	7819      	ldrb	r1, [r3, #0]
    1756:	430a      	orrs	r2, r1
    1758:	701a      	strb	r2, [r3, #0]
		HWOR(reg_map(CORE_UART_CTRL), (0<<0));
    175a:	781a      	ldrb	r2, [r3, #0]
    175c:	b2d2      	uxtb	r2, r2
    175e:	701a      	strb	r2, [r3, #0]
    1760:	e007      	b.n	1772 <USART_DeInit+0x2e>
		UartAdr = (UartxRegDef *)(reg_map(CORE_UART_BAUD));
	}else {

		HWOR(reg_map(CORE_UARTB_CTRL), (1<<0));
    1762:	4b09      	ldr	r3, [pc, #36]	; (1788 <USART_DeInit+0x44>)
		HWOR(reg_map(CORE_UARTB_CTRL), (0<<0));
		UartAdr = (UartxRegDef *)(reg_map(CORE_UARTB_BAUD));
    1764:	4c09      	ldr	r4, [pc, #36]	; (178c <USART_DeInit+0x48>)
		HWOR(reg_map(CORE_UART_CTRL), (1<<0));
		HWOR(reg_map(CORE_UART_CTRL), (0<<0));
		UartAdr = (UartxRegDef *)(reg_map(CORE_UART_BAUD));
	}else {

		HWOR(reg_map(CORE_UARTB_CTRL), (1<<0));
    1766:	7819      	ldrb	r1, [r3, #0]
    1768:	430a      	orrs	r2, r1
    176a:	701a      	strb	r2, [r3, #0]
		HWOR(reg_map(CORE_UARTB_CTRL), (0<<0));
    176c:	781a      	ldrb	r2, [r3, #0]
    176e:	b2d2      	uxtb	r2, r2
    1770:	701a      	strb	r2, [r3, #0]
		UartAdr = (UartxRegDef *)(reg_map(CORE_UARTB_BAUD));
	}
	free((void *)((uint32_t)(UartAdr->TxSadr)));
    1772:	8920      	ldrh	r0, [r4, #8]
    1774:	f013 fe50 	bl	15418 <free>
	free((void *)((uint32_t)(UartAdr->RxSadr)));
    1778:	8860      	ldrh	r0, [r4, #2]
    177a:	f013 fe4d 	bl	15418 <free>
}
    177e:	bd10      	pop	{r4, pc}
    1780:	10008060 	.word	0x10008060
    1784:	10008052 	.word	0x10008052
    1788:	10008071 	.word	0x10008071
    178c:	10008072 	.word	0x10008072

00001790 <USART_SendData>:



void USART_SendData(USART_TypeDef USARTx, uint16_t Data)
{
    1790:	b5f7      	push	{r0, r1, r2, r4, r5, r6, r7, lr}
    1792:	0006      	movs	r6, r0
    1794:	9101      	str	r1, [sp, #4]
	UartxRegDef * UartAdr = NULL;
	uint16_t  WPtr = 0; 
	ASSERT(IS_USARTAB(USARTx));
    1796:	2e01      	cmp	r6, #1
    1798:	d8fd      	bhi.n	1796 <USART_SendData+0x6>
	
	if(USARTx == UARTA) {
    179a:	2e00      	cmp	r6, #0
    179c:	d001      	beq.n	17a2 <USART_SendData+0x12>
		UartAdr = (UartxRegDef *)(reg_map(CORE_UART_BAUD));	
	}else {
		UartAdr = (UartxRegDef *)(reg_map(CORE_UARTB_BAUD));
    179e:	4c15      	ldr	r4, [pc, #84]	; (17f4 <USART_SendData+0x64>)
    17a0:	e000      	b.n	17a4 <USART_SendData+0x14>
	UartxRegDef * UartAdr = NULL;
	uint16_t  WPtr = 0; 
	ASSERT(IS_USARTAB(USARTx));
	
	if(USARTx == UARTA) {
		UartAdr = (UartxRegDef *)(reg_map(CORE_UART_BAUD));	
    17a2:	4c15      	ldr	r4, [pc, #84]	; (17f8 <USART_SendData+0x68>)
	}else {
		UartAdr = (UartxRegDef *)(reg_map(CORE_UARTB_BAUD));
	}
	ASSERT((&UartAdr->TxSadr  != NULL));
	
	WPtr = HR_REG_16BIT((uint32_t)(&UartAdr->TxWptr));
    17a4:	0027      	movs	r7, r4
    17a6:	370c      	adds	r7, #12
    17a8:	0038      	movs	r0, r7
    17aa:	f7ff ff01 	bl	15b0 <HR_REG_16BIT>
    17ae:	0005      	movs	r5, r0
	if(USARTx == UARTA) {
    17b0:	2e00      	cmp	r6, #0
    17b2:	d104      	bne.n	17be <USART_SendData+0x2e>
		while(HREAD(CORE_UART_TX_ITEMS) > 0);
    17b4:	4a11      	ldr	r2, [pc, #68]	; (17fc <USART_SendData+0x6c>)
    17b6:	7813      	ldrb	r3, [r2, #0]
    17b8:	2b00      	cmp	r3, #0
    17ba:	d1fc      	bne.n	17b6 <USART_SendData+0x26>
    17bc:	e003      	b.n	17c6 <USART_SendData+0x36>
	}else {
		while(HREAD(CORE_UARTB_TX_ITEMS) > 0);
    17be:	4a10      	ldr	r2, [pc, #64]	; (1800 <USART_SendData+0x70>)
    17c0:	7813      	ldrb	r3, [r2, #0]
    17c2:	2b00      	cmp	r3, #0
    17c4:	d1fc      	bne.n	17c0 <USART_SendData+0x30>
	}	
	HW_REG_8BIT(WPtr|M0_MEMORY_BASE,Data);	
    17c6:	466a      	mov	r2, sp
	RB_UPDATE_PTR(WPtr, HR_REG_16BIT((uint32_t)(&UartAdr->TxSadr)),  HR_REG_16BIT((uint32_t)(&UartAdr->TxEadr)));	
    17c8:	0020      	movs	r0, r4
	if(USARTx == UARTA) {
		while(HREAD(CORE_UART_TX_ITEMS) > 0);
	}else {
		while(HREAD(CORE_UARTB_TX_ITEMS) > 0);
	}	
	HW_REG_8BIT(WPtr|M0_MEMORY_BASE,Data);	
    17ca:	4b0e      	ldr	r3, [pc, #56]	; (1804 <USART_SendData+0x74>)
    17cc:	7912      	ldrb	r2, [r2, #4]
    17ce:	432b      	orrs	r3, r5
    17d0:	701a      	strb	r2, [r3, #0]
	RB_UPDATE_PTR(WPtr, HR_REG_16BIT((uint32_t)(&UartAdr->TxSadr)),  HR_REG_16BIT((uint32_t)(&UartAdr->TxEadr)));	
    17d2:	300a      	adds	r0, #10
    17d4:	f7ff feec 	bl	15b0 <HR_REG_16BIT>
    17d8:	1c69      	adds	r1, r5, #1
    17da:	b289      	uxth	r1, r1
    17dc:	4285      	cmp	r5, r0
    17de:	d104      	bne.n	17ea <USART_SendData+0x5a>
	if(USARTx == UARTA) {
		UartAdr = (UartxRegDef *)(reg_map(CORE_UART_BAUD));	
	}else {
		UartAdr = (UartxRegDef *)(reg_map(CORE_UARTB_BAUD));
	}
	ASSERT((&UartAdr->TxSadr  != NULL));
    17e0:	0020      	movs	r0, r4
    17e2:	3008      	adds	r0, #8
		while(HREAD(CORE_UART_TX_ITEMS) > 0);
	}else {
		while(HREAD(CORE_UARTB_TX_ITEMS) > 0);
	}	
	HW_REG_8BIT(WPtr|M0_MEMORY_BASE,Data);	
	RB_UPDATE_PTR(WPtr, HR_REG_16BIT((uint32_t)(&UartAdr->TxSadr)),  HR_REG_16BIT((uint32_t)(&UartAdr->TxEadr)));	
    17e4:	f7ff fee4 	bl	15b0 <HR_REG_16BIT>
    17e8:	0001      	movs	r1, r0
	HW_REG_16BIT((uint32_t)(&UartAdr->TxWptr),  WPtr);                                                                                                		
    17ea:	0038      	movs	r0, r7
    17ec:	f7ff fed6 	bl	159c <HW_REG_16BIT>
}
    17f0:	bdf7      	pop	{r0, r1, r2, r4, r5, r6, r7, pc}
    17f2:	46c0      	nop			; (mov r8, r8)
    17f4:	10008072 	.word	0x10008072
    17f8:	10008052 	.word	0x10008052
    17fc:	1000830e 	.word	0x1000830e
    1800:	10008356 	.word	0x10008356
    1804:	10010000 	.word	0x10010000

00001808 <USART_ReceiveData>:



uint16_t USART_ReceiveData(USART_TypeDef USARTx)
{	
    1808:	b5f8      	push	{r3, r4, r5, r6, r7, lr}
	UartxRegDef *UartAdr = NULL;
	uint16_t  RPtr = 0;
	uint16_t  RdData = 0;
	ASSERT(IS_USARTAB(USARTx)); 
    180a:	2801      	cmp	r0, #1
    180c:	d8fd      	bhi.n	180a <USART_ReceiveData+0x2>

	if(USARTx == UARTA) {
    180e:	2800      	cmp	r0, #0
    1810:	d001      	beq.n	1816 <USART_ReceiveData+0xe>
		UartAdr = (UartxRegDef *)(reg_map(CORE_UART_BAUD));	
	}else {
		UartAdr = (UartxRegDef *)(reg_map(CORE_UARTB_BAUD));
    1812:	4c0e      	ldr	r4, [pc, #56]	; (184c <USART_ReceiveData+0x44>)
    1814:	e000      	b.n	1818 <USART_ReceiveData+0x10>
	uint16_t  RPtr = 0;
	uint16_t  RdData = 0;
	ASSERT(IS_USARTAB(USARTx)); 

	if(USARTx == UARTA) {
		UartAdr = (UartxRegDef *)(reg_map(CORE_UART_BAUD));	
    1816:	4c0e      	ldr	r4, [pc, #56]	; (1850 <USART_ReceiveData+0x48>)
	}else {
		UartAdr = (UartxRegDef *)(reg_map(CORE_UARTB_BAUD));
	}
	RPtr = HR_REG_16BIT((uint32_t)(&UartAdr->RxRptr));
    1818:	1da5      	adds	r5, r4, #6
    181a:	0028      	movs	r0, r5
    181c:	f7ff fec8 	bl	15b0 <HR_REG_16BIT>
    1820:	0007      	movs	r7, r0
	RdData = HR_REG_16BIT(RPtr|M0_MEMORY_BASE);
    1822:	480c      	ldr	r0, [pc, #48]	; (1854 <USART_ReceiveData+0x4c>)
    1824:	4338      	orrs	r0, r7
    1826:	f7ff fec3 	bl	15b0 <HR_REG_16BIT>
    182a:	0006      	movs	r6, r0
	RB_UPDATE_PTR(RPtr, HR_REG_16BIT((uint32_t)(&UartAdr->RxSadr)), HR_REG_16BIT((uint32_t)(&UartAdr->RxEadr)));
    182c:	1d20      	adds	r0, r4, #4
    182e:	f7ff febf 	bl	15b0 <HR_REG_16BIT>
    1832:	1c79      	adds	r1, r7, #1
    1834:	b289      	uxth	r1, r1
    1836:	4287      	cmp	r7, r0
    1838:	d103      	bne.n	1842 <USART_ReceiveData+0x3a>
    183a:	1ca0      	adds	r0, r4, #2
    183c:	f7ff feb8 	bl	15b0 <HR_REG_16BIT>
    1840:	0001      	movs	r1, r0
	HW_REG_16BIT((uint32_t)(&UartAdr->RxRptr), RPtr);	
    1842:	0028      	movs	r0, r5
    1844:	f7ff feaa 	bl	159c <HW_REG_16BIT>
	return RdData;
}
    1848:	0030      	movs	r0, r6
    184a:	bdf8      	pop	{r3, r4, r5, r6, r7, pc}
    184c:	10008072 	.word	0x10008072
    1850:	10008052 	.word	0x10008052
    1854:	10010000 	.word	0x10010000

00001858 <USART_GetRxCount>:


uint16_t USART_GetRxCount(USART_TypeDef USARTx)
{
    1858:	b510      	push	{r4, lr}
	ASSERT(IS_USARTAB(USARTx));
    185a:	2801      	cmp	r0, #1
    185c:	d8fd      	bhi.n	185a <USART_GetRxCount+0x2>
	if(USARTx == UARTA) {
    185e:	2800      	cmp	r0, #0
    1860:	d103      	bne.n	186a <USART_GetRxCount+0x12>
		return HR_REG_16BIT(reg_map(CORE_UART_RX_ITEMS));
    1862:	4804      	ldr	r0, [pc, #16]	; (1874 <USART_GetRxCount+0x1c>)
    1864:	f7ff fea4 	bl	15b0 <HR_REG_16BIT>
    1868:	e002      	b.n	1870 <USART_GetRxCount+0x18>
	}else {
		return HR_REG_16BIT(reg_map(CORE_UARTB_RX_ITEMS));
    186a:	4803      	ldr	r0, [pc, #12]	; (1878 <USART_GetRxCount+0x20>)
    186c:	f7ff fea0 	bl	15b0 <HR_REG_16BIT>
	}
}
    1870:	bd10      	pop	{r4, pc}
    1872:	46c0      	nop			; (mov r8, r8)
    1874:	10008312 	.word	0x10008312
    1878:	1000835a 	.word	0x1000835a

0000187c <USART_ReadDatatoBuff>:


uint16_t USART_ReadDatatoBuff(USART_TypeDef USARTx, uint8_t* RxBuff, uint16_t RxSize)
{
    187c:	b5f7      	push	{r0, r1, r2, r4, r5, r6, r7, lr}
    187e:	000d      	movs	r5, r1
    1880:	0016      	movs	r6, r2
	uint16_t RxLen = 0;	
	uint16_t RPtr = 0;
	uint16_t RdataLen = 0;
	uint32_t RxITEMS = 0;
	UartxRegDef *UartAdr = NULL;
	ASSERT(IS_USARTAB(USARTx));
    1882:	2801      	cmp	r0, #1
    1884:	d8fd      	bhi.n	1882 <USART_ReadDatatoBuff+0x6>
	ASSERT(RxBuff != NULL);
    1886:	2d00      	cmp	r5, #0
    1888:	d100      	bne.n	188c <USART_ReadDatatoBuff+0x10>
    188a:	e7fe      	b.n	188a <USART_ReadDatatoBuff+0xe>
	
	if(USARTx == UARTA) {
    188c:	2800      	cmp	r0, #0
    188e:	d002      	beq.n	1896 <USART_ReadDatatoBuff+0x1a>
		UartAdr = (UartxRegDef *)(reg_map(CORE_UART_BAUD));
		RxITEMS = reg_map(CORE_UART_RX_ITEMS);
	}else {
		UartAdr = (UartxRegDef *)(reg_map(CORE_UARTB_BAUD));
    1890:	4f1a      	ldr	r7, [pc, #104]	; (18fc <USART_ReadDatatoBuff+0x80>)
		RxITEMS = reg_map(CORE_UARTB_RX_ITEMS);
    1892:	481b      	ldr	r0, [pc, #108]	; (1900 <USART_ReadDatatoBuff+0x84>)
    1894:	e001      	b.n	189a <USART_ReadDatatoBuff+0x1e>
	UartxRegDef *UartAdr = NULL;
	ASSERT(IS_USARTAB(USARTx));
	ASSERT(RxBuff != NULL);
	
	if(USARTx == UARTA) {
		UartAdr = (UartxRegDef *)(reg_map(CORE_UART_BAUD));
    1896:	4f1b      	ldr	r7, [pc, #108]	; (1904 <USART_ReadDatatoBuff+0x88>)
		RxITEMS = reg_map(CORE_UART_RX_ITEMS);
    1898:	481b      	ldr	r0, [pc, #108]	; (1908 <USART_ReadDatatoBuff+0x8c>)
	}else {
		UartAdr = (UartxRegDef *)(reg_map(CORE_UARTB_BAUD));
		RxITEMS = reg_map(CORE_UARTB_RX_ITEMS);
	}
	RxLen = HR_REG_16BIT(reg_map(RxITEMS)); 
    189a:	f7ff fe89 	bl	15b0 <HR_REG_16BIT>
	if (RxSize!=0) {
    189e:	2e00      	cmp	r6, #0
    18a0:	d003      	beq.n	18aa <USART_ReadDatatoBuff+0x2e>
		if (RxLen < RxSize) return 0; else RxLen = RxSize;
    18a2:	2300      	movs	r3, #0
    18a4:	42b0      	cmp	r0, r6
    18a6:	d204      	bcs.n	18b2 <USART_ReadDatatoBuff+0x36>
    18a8:	e025      	b.n	18f6 <USART_ReadDatatoBuff+0x7a>
    18aa:	0033      	movs	r3, r6
	}
	if (0 == RxLen) {
    18ac:	2800      	cmp	r0, #0
    18ae:	d022      	beq.n	18f6 <USART_ReadDatatoBuff+0x7a>
    18b0:	0006      	movs	r6, r0
        return 0;
	} else {
		RPtr = HR_REG_16BIT((uint32_t)(&UartAdr->RxRptr));
    18b2:	1dbb      	adds	r3, r7, #6
    18b4:	0018      	movs	r0, r3
    18b6:	9300      	str	r3, [sp, #0]
    18b8:	f7ff fe7a 	bl	15b0 <HR_REG_16BIT>
    18bc:	0004      	movs	r4, r0
    18be:	19ab      	adds	r3, r5, r6
    18c0:	9301      	str	r3, [sp, #4]
		for(RdataLen = 0; RdataLen<RxLen; RdataLen++ ){
    18c2:	9b01      	ldr	r3, [sp, #4]
    18c4:	429d      	cmp	r5, r3
    18c6:	d011      	beq.n	18ec <USART_ReadDatatoBuff+0x70>
			RxBuff[RdataLen] = HR_REG_8BIT(RPtr|M0_MEMORY_BASE);   
    18c8:	4b10      	ldr	r3, [pc, #64]	; (190c <USART_ReadDatatoBuff+0x90>)
			RB_UPDATE_PTR(RPtr, HR_REG_16BIT((uint32_t)(&UartAdr->RxSadr)), HR_REG_16BIT((uint32_t)(&UartAdr->RxEadr)));
    18ca:	1d38      	adds	r0, r7, #4
	if (0 == RxLen) {
        return 0;
	} else {
		RPtr = HR_REG_16BIT((uint32_t)(&UartAdr->RxRptr));
		for(RdataLen = 0; RdataLen<RxLen; RdataLen++ ){
			RxBuff[RdataLen] = HR_REG_8BIT(RPtr|M0_MEMORY_BASE);   
    18cc:	4323      	orrs	r3, r4
    18ce:	781b      	ldrb	r3, [r3, #0]
    18d0:	702b      	strb	r3, [r5, #0]
			RB_UPDATE_PTR(RPtr, HR_REG_16BIT((uint32_t)(&UartAdr->RxSadr)), HR_REG_16BIT((uint32_t)(&UartAdr->RxEadr)));
    18d2:	f7ff fe6d 	bl	15b0 <HR_REG_16BIT>
    18d6:	4284      	cmp	r4, r0
    18d8:	d104      	bne.n	18e4 <USART_ReadDatatoBuff+0x68>
    18da:	1cb8      	adds	r0, r7, #2
    18dc:	f7ff fe68 	bl	15b0 <HR_REG_16BIT>
    18e0:	0004      	movs	r4, r0
    18e2:	e001      	b.n	18e8 <USART_ReadDatatoBuff+0x6c>
    18e4:	3401      	adds	r4, #1
    18e6:	b2a4      	uxth	r4, r4
    18e8:	3501      	adds	r5, #1
    18ea:	e7ea      	b.n	18c2 <USART_ReadDatatoBuff+0x46>
		}
	}
	HW_REG_16BIT((uint32_t)(&UartAdr->RxRptr), (RPtr));
    18ec:	0021      	movs	r1, r4
    18ee:	9800      	ldr	r0, [sp, #0]
    18f0:	f7ff fe54 	bl	159c <HW_REG_16BIT>
	return RdataLen;
    18f4:	0033      	movs	r3, r6
}
    18f6:	0018      	movs	r0, r3
    18f8:	bdfe      	pop	{r1, r2, r3, r4, r5, r6, r7, pc}
    18fa:	46c0      	nop			; (mov r8, r8)
    18fc:	10008072 	.word	0x10008072
    1900:	1000835a 	.word	0x1000835a
    1904:	10008052 	.word	0x10008052
    1908:	10008312 	.word	0x10008312
    190c:	10010000 	.word	0x10010000

00001910 <USART_SendDataFromBuff>:

uint16_t USART_SendDataFromBuff(USART_TypeDef USARTx, uint8_t* TxBuff, uint16_t TxLen)
{
    1910:	b5f7      	push	{r0, r1, r2, r4, r5, r6, r7, lr}
    1912:	000d      	movs	r5, r1
    1914:	0017      	movs	r7, r2
	uint16_t  WPtr = 0;
	uint16_t  SDataLen = 0;	
	UartxRegDef *UartAdr = NULL;
	ASSERT(IS_USARTAB(USARTx));
    1916:	2801      	cmp	r0, #1
    1918:	d8fd      	bhi.n	1916 <USART_SendDataFromBuff+0x6>
	ASSERT(TxBuff != 0);
    191a:	2d00      	cmp	r5, #0
    191c:	d100      	bne.n	1920 <USART_SendDataFromBuff+0x10>
    191e:	e7fe      	b.n	191e <USART_SendDataFromBuff+0xe>
	ASSERT(TxLen > 0);
    1920:	2f00      	cmp	r7, #0
    1922:	d100      	bne.n	1926 <USART_SendDataFromBuff+0x16>
    1924:	e7fe      	b.n	1924 <USART_SendDataFromBuff+0x14>
	
	if(USARTx == UARTA) {
    1926:	2800      	cmp	r0, #0
    1928:	d001      	beq.n	192e <USART_SendDataFromBuff+0x1e>
		UartAdr = (UartxRegDef *)(reg_map(CORE_UART_BAUD));	
	}else {
		UartAdr = (UartxRegDef *)(reg_map(CORE_UARTB_BAUD));
    192a:	4e14      	ldr	r6, [pc, #80]	; (197c <USART_SendDataFromBuff+0x6c>)
    192c:	e000      	b.n	1930 <USART_SendDataFromBuff+0x20>
	ASSERT(IS_USARTAB(USARTx));
	ASSERT(TxBuff != 0);
	ASSERT(TxLen > 0);
	
	if(USARTx == UARTA) {
		UartAdr = (UartxRegDef *)(reg_map(CORE_UART_BAUD));	
    192e:	4e14      	ldr	r6, [pc, #80]	; (1980 <USART_SendDataFromBuff+0x70>)
	}else {
		UartAdr = (UartxRegDef *)(reg_map(CORE_UARTB_BAUD));
	}
   	WPtr = HR_REG_16BIT((uint32_t)(&UartAdr->TxWptr));
    1930:	0033      	movs	r3, r6
    1932:	330c      	adds	r3, #12
    1934:	0018      	movs	r0, r3
    1936:	9300      	str	r3, [sp, #0]
    1938:	f7ff fe3a 	bl	15b0 <HR_REG_16BIT>
    193c:	0004      	movs	r4, r0
    193e:	19eb      	adds	r3, r5, r7
    1940:	9301      	str	r3, [sp, #4]
   	for (uint16_t i=0; i<TxLen; i++)  {	
    1942:	9b01      	ldr	r3, [sp, #4]
    1944:	429d      	cmp	r5, r3
    1946:	d013      	beq.n	1970 <USART_SendDataFromBuff+0x60>
		HW_REG_8BIT(WPtr|M0_MEMORY_BASE,TxBuff[i]);	
		RB_UPDATE_PTR(WPtr, HR_REG_16BIT((uint32_t)(&UartAdr->TxSadr)),  HR_REG_16BIT((uint32_t)(&UartAdr->TxEadr)));	   
    1948:	0030      	movs	r0, r6
	}else {
		UartAdr = (UartxRegDef *)(reg_map(CORE_UARTB_BAUD));
	}
   	WPtr = HR_REG_16BIT((uint32_t)(&UartAdr->TxWptr));
   	for (uint16_t i=0; i<TxLen; i++)  {	
		HW_REG_8BIT(WPtr|M0_MEMORY_BASE,TxBuff[i]);	
    194a:	4b0e      	ldr	r3, [pc, #56]	; (1984 <USART_SendDataFromBuff+0x74>)
    194c:	782a      	ldrb	r2, [r5, #0]
    194e:	4323      	orrs	r3, r4
    1950:	701a      	strb	r2, [r3, #0]
		RB_UPDATE_PTR(WPtr, HR_REG_16BIT((uint32_t)(&UartAdr->TxSadr)),  HR_REG_16BIT((uint32_t)(&UartAdr->TxEadr)));	   
    1952:	300a      	adds	r0, #10
    1954:	f7ff fe2c 	bl	15b0 <HR_REG_16BIT>
    1958:	4284      	cmp	r4, r0
    195a:	d105      	bne.n	1968 <USART_SendDataFromBuff+0x58>
    195c:	0030      	movs	r0, r6
    195e:	3008      	adds	r0, #8
    1960:	f7ff fe26 	bl	15b0 <HR_REG_16BIT>
    1964:	0004      	movs	r4, r0
    1966:	e001      	b.n	196c <USART_SendDataFromBuff+0x5c>
    1968:	3401      	adds	r4, #1
    196a:	b2a4      	uxth	r4, r4
    196c:	3501      	adds	r5, #1
    196e:	e7e8      	b.n	1942 <USART_SendDataFromBuff+0x32>
		SDataLen++;	
	}
	HW_REG_16BIT((uint32_t)(&UartAdr->TxWptr),  WPtr);  
    1970:	9800      	ldr	r0, [sp, #0]
    1972:	0021      	movs	r1, r4
    1974:	f7ff fe12 	bl	159c <HW_REG_16BIT>
	return SDataLen;
}
    1978:	0038      	movs	r0, r7
    197a:	bdfe      	pop	{r1, r2, r3, r4, r5, r6, r7, pc}
    197c:	10008072 	.word	0x10008072
    1980:	10008052 	.word	0x10008052
    1984:	10010000 	.word	0x10010000

00001988 <UART_RemapToPrintf>:

static USART_TypeDef _printf_uart;

int UART_RemapToPrintf(USART_TypeDef USARTx, uint8_t txPin, uint8_t rxPin)
{
    1988:	000b      	movs	r3, r1
    198a:	b570      	push	{r4, r5, r6, lr}
    198c:	0016      	movs	r6, r2
	_printf_uart = USARTx;
	/*init gpio*/	
	GPIO_CFG cfgTx ={FUNC_UARTB_TXD, GFG_PULLUP};
    198e:	4c0e      	ldr	r4, [pc, #56]	; (19c8 <UART_RemapToPrintf+0x40>)

static USART_TypeDef _printf_uart;

int UART_RemapToPrintf(USART_TypeDef USARTx, uint8_t txPin, uint8_t rxPin)
{
	_printf_uart = USARTx;
    1990:	4d0e      	ldr	r5, [pc, #56]	; (19cc <UART_RemapToPrintf+0x44>)
}

static USART_TypeDef _printf_uart;

int UART_RemapToPrintf(USART_TypeDef USARTx, uint8_t txPin, uint8_t rxPin)
{
    1992:	b088      	sub	sp, #32
	_printf_uart = USARTx;
	/*init gpio*/	
	GPIO_CFG cfgTx ={FUNC_UARTB_TXD, GFG_PULLUP};
    1994:	7822      	ldrb	r2, [r4, #0]
    1996:	a901      	add	r1, sp, #4

static USART_TypeDef _printf_uart;

int UART_RemapToPrintf(USART_TypeDef USARTx, uint8_t txPin, uint8_t rxPin)
{
	_printf_uart = USARTx;
    1998:	7028      	strb	r0, [r5, #0]
	/*init gpio*/	
	GPIO_CFG cfgTx ={FUNC_UARTB_TXD, GFG_PULLUP};
	bc_gpio_init(txPin, &cfgTx);
    199a:	0018      	movs	r0, r3

int UART_RemapToPrintf(USART_TypeDef USARTx, uint8_t txPin, uint8_t rxPin)
{
	_printf_uart = USARTx;
	/*init gpio*/	
	GPIO_CFG cfgTx ={FUNC_UARTB_TXD, GFG_PULLUP};
    199c:	700a      	strb	r2, [r1, #0]
	bc_gpio_init(txPin, &cfgTx);
    199e:	f000 faa7 	bl	1ef0 <bc_gpio_init>
	
	GPIO_CFG cfgRx ={FUNC_UARTB_RXD, GFG_PULLUP};
    19a2:	7863      	ldrb	r3, [r4, #1]
	bc_gpio_init(rxPin, &cfgRx);
    19a4:	0030      	movs	r0, r6
	_printf_uart = USARTx;
	/*init gpio*/	
	GPIO_CFG cfgTx ={FUNC_UARTB_TXD, GFG_PULLUP};
	bc_gpio_init(txPin, &cfgTx);
	
	GPIO_CFG cfgRx ={FUNC_UARTB_RXD, GFG_PULLUP};
    19a6:	a902      	add	r1, sp, #8
    19a8:	700b      	strb	r3, [r1, #0]
	bc_gpio_init(rxPin, &cfgRx);
    19aa:	f000 faa1 	bl	1ef0 <bc_gpio_init>

	/*cofig uart parameter*/	
	USART_InitTypeDef Uart = {BAUD921600, DATA_BITS_8b, STOP_BITS_1, PARITY_EVEN,
    19ae:	a903      	add	r1, sp, #12
    19b0:	000a      	movs	r2, r1
    19b2:	1d23      	adds	r3, r4, #4
    19b4:	cb51      	ldmia	r3!, {r0, r4, r6}
    19b6:	c251      	stmia	r2!, {r0, r4, r6}
    19b8:	cb11      	ldmia	r3!, {r0, r4}
    19ba:	c211      	stmia	r2!, {r0, r4}
								MODE_DUPLEX, FLOW_CTRL_NONE, 128, 128};
	USART_Init(_printf_uart, &Uart);
    19bc:	7828      	ldrb	r0, [r5, #0]
    19be:	f7ff fe49 	bl	1654 <USART_Init>
	return 0;
}
    19c2:	2000      	movs	r0, #0
    19c4:	b008      	add	sp, #32
    19c6:	bd70      	pop	{r4, r5, r6, pc}
    19c8:	0001fe1c 	.word	0x0001fe1c
    19cc:	10010fb8 	.word	0x10010fb8

000019d0 <UART_PutChar>:

void UART_PutChar(char c)
{
	if(_printf_uart)
    19d0:	4b04      	ldr	r3, [pc, #16]	; (19e4 <UART_PutChar+0x14>)
	USART_Init(_printf_uart, &Uart);
	return 0;
}

void UART_PutChar(char c)
{
    19d2:	0001      	movs	r1, r0
	if(_printf_uart)
    19d4:	7818      	ldrb	r0, [r3, #0]
	USART_Init(_printf_uart, &Uart);
	return 0;
}

void UART_PutChar(char c)
{
    19d6:	b510      	push	{r4, lr}
	if(_printf_uart)
    19d8:	2800      	cmp	r0, #0
    19da:	d002      	beq.n	19e2 <UART_PutChar+0x12>
		USART_SendData(_printf_uart, (uint16_t)c);
    19dc:	b289      	uxth	r1, r1
    19de:	f7ff fed7 	bl	1790 <USART_SendData>
}
    19e2:	bd10      	pop	{r4, pc}
    19e4:	10010fb8 	.word	0x10010fb8

000019e8 <bc_flash_erase>:
#define APP_SIZE				(FLASH_START_ADDR+FLASH_SIZE-APP_START_ADDR)

uint32_t bc_flash_erase(uint32_t addr, uint32_t page_cnt)
{

	if((addr&(PAGE_SIZE-1))!= 0 && (addr+PAGE_SIZE*page_cnt)>APP_SIZE)
    19e8:	b2c3      	uxtb	r3, r0

#define APP_START_ADDR			(SECTION_START_ADDR+SECTION_SIZE*SECTION_NUM)
#define APP_SIZE				(FLASH_START_ADDR+FLASH_SIZE-APP_START_ADDR)

uint32_t bc_flash_erase(uint32_t addr, uint32_t page_cnt)
{
    19ea:	b570      	push	{r4, r5, r6, lr}
    19ec:	0004      	movs	r4, r0
    19ee:	000d      	movs	r5, r1

	if((addr&(PAGE_SIZE-1))!= 0 && (addr+PAGE_SIZE*page_cnt)>APP_SIZE)
    19f0:	2b00      	cmp	r3, #0
    19f2:	d006      	beq.n	1a02 <bc_flash_erase+0x1a>
    19f4:	22d0      	movs	r2, #208	; 0xd0
    19f6:	020b      	lsls	r3, r1, #8
    19f8:	181b      	adds	r3, r3, r0
    19fa:	0152      	lsls	r2, r2, #5
		return 1;
    19fc:	2001      	movs	r0, #1
#define APP_SIZE				(FLASH_START_ADDR+FLASH_SIZE-APP_START_ADDR)

uint32_t bc_flash_erase(uint32_t addr, uint32_t page_cnt)
{

	if((addr&(PAGE_SIZE-1))!= 0 && (addr+PAGE_SIZE*page_cnt)>APP_SIZE)
    19fe:	4293      	cmp	r3, r2
    1a00:	d80e      	bhi.n	1a20 <bc_flash_erase+0x38>
		return 1;
	addr += APP_START_ADDR;
    1a02:	4b08      	ldr	r3, [pc, #32]	; (1a24 <bc_flash_erase+0x3c>)
#ifndef RELEASE
		printf( "erase data addr=0x%08x\r\n", addr);
#endif
	QSPI_Init();
	for(int i = 0; i < page_cnt; ++i){
    1a04:	2600      	movs	r6, #0
uint32_t bc_flash_erase(uint32_t addr, uint32_t page_cnt)
{

	if((addr&(PAGE_SIZE-1))!= 0 && (addr+PAGE_SIZE*page_cnt)>APP_SIZE)
		return 1;
	addr += APP_START_ADDR;
    1a06:	18e4      	adds	r4, r4, r3
#ifndef RELEASE
		printf( "erase data addr=0x%08x\r\n", addr);
#endif
	QSPI_Init();
    1a08:	f7ff fd44 	bl	1494 <QSPI_Init>
	for(int i = 0; i < page_cnt; ++i){
    1a0c:	42ae      	cmp	r6, r5
    1a0e:	d006      	beq.n	1a1e <bc_flash_erase+0x36>
		QSPI_PageEraseFlash(addr+i*PAGE_SIZE);
    1a10:	0020      	movs	r0, r4
    1a12:	3401      	adds	r4, #1
    1a14:	f7ff fcc4 	bl	13a0 <QSPI_PageEraseFlash>
	addr += APP_START_ADDR;
#ifndef RELEASE
		printf( "erase data addr=0x%08x\r\n", addr);
#endif
	QSPI_Init();
	for(int i = 0; i < page_cnt; ++i){
    1a18:	3601      	adds	r6, #1
    1a1a:	34ff      	adds	r4, #255	; 0xff
    1a1c:	e7f6      	b.n	1a0c <bc_flash_erase+0x24>
		QSPI_PageEraseFlash(addr+i*PAGE_SIZE);
	}
	return 0;	
    1a1e:	2000      	movs	r0, #0
}
    1a20:	bd70      	pop	{r4, r5, r6, pc}
    1a22:	46c0      	nop			; (mov r8, r8)
    1a24:	0007e600 	.word	0x0007e600

00001a28 <bc_flash_read>:

uint32_t bc_flash_read(uint32_t addr, uint32_t len, uint8_t* buf)
{
    1a28:	b5f8      	push	{r3, r4, r5, r6, r7, lr}
    1a2a:	0005      	movs	r5, r0
    1a2c:	000e      	movs	r6, r1
    1a2e:	0017      	movs	r7, r2
	if(len < 1 ||(((addr+len-1)&PAGE_MASK) != ((addr)&PAGE_MASK)) || buf == NULL){
		return 1;
    1a30:	2401      	movs	r4, #1
	return 0;	
}

uint32_t bc_flash_read(uint32_t addr, uint32_t len, uint8_t* buf)
{
	if(len < 1 ||(((addr+len-1)&PAGE_MASK) != ((addr)&PAGE_MASK)) || buf == NULL){
    1a32:	2900      	cmp	r1, #0
    1a34:	d011      	beq.n	1a5a <bc_flash_read+0x32>
    1a36:	23ff      	movs	r3, #255	; 0xff
    1a38:	1e44      	subs	r4, r0, #1
    1a3a:	1864      	adds	r4, r4, r1
    1a3c:	4044      	eors	r4, r0
    1a3e:	439c      	bics	r4, r3
    1a40:	d10a      	bne.n	1a58 <bc_flash_read+0x30>
    1a42:	2a00      	cmp	r2, #0
    1a44:	d008      	beq.n	1a58 <bc_flash_read+0x30>
	}
	addr += APP_START_ADDR;
#ifndef RELEASE
	printf("read addr=%08xx\r\n", addr);
#endif
	QSPI_Init();
    1a46:	f7ff fd25 	bl	1494 <QSPI_Init>
	QSPI_ReadFlashData(addr,len,buf);
    1a4a:	4b05      	ldr	r3, [pc, #20]	; (1a60 <bc_flash_read+0x38>)
    1a4c:	003a      	movs	r2, r7
    1a4e:	18e8      	adds	r0, r5, r3
    1a50:	0031      	movs	r1, r6
    1a52:	f7ff fa25 	bl	ea0 <QSPI_ReadFlashData>
		printf("%02x ", buf[i]);
	}
	printf("\r\n");
#endif

	return 0;
    1a56:	e000      	b.n	1a5a <bc_flash_read+0x32>
}

uint32_t bc_flash_read(uint32_t addr, uint32_t len, uint8_t* buf)
{
	if(len < 1 ||(((addr+len-1)&PAGE_MASK) != ((addr)&PAGE_MASK)) || buf == NULL){
		return 1;
    1a58:	2401      	movs	r4, #1
	}
	printf("\r\n");
#endif

	return 0;
}
    1a5a:	0020      	movs	r0, r4
    1a5c:	bdf8      	pop	{r3, r4, r5, r6, r7, pc}
    1a5e:	46c0      	nop			; (mov r8, r8)
    1a60:	0007e600 	.word	0x0007e600

00001a64 <bc_flash_write>:

uint32_t bc_flash_write(uint32_t addr, uint32_t len, uint8_t* buf)
{
    1a64:	b5f8      	push	{r3, r4, r5, r6, r7, lr}
    1a66:	0005      	movs	r5, r0
    1a68:	000e      	movs	r6, r1
    1a6a:	0017      	movs	r7, r2
	if(len < 1 || (((addr+len-1)&PAGE_MASK) != ((addr)&PAGE_MASK))|| buf == NULL){
		return 1;
    1a6c:	2401      	movs	r4, #1
	return 0;
}

uint32_t bc_flash_write(uint32_t addr, uint32_t len, uint8_t* buf)
{
	if(len < 1 || (((addr+len-1)&PAGE_MASK) != ((addr)&PAGE_MASK))|| buf == NULL){
    1a6e:	2900      	cmp	r1, #0
    1a70:	d011      	beq.n	1a96 <bc_flash_write+0x32>
    1a72:	23ff      	movs	r3, #255	; 0xff
    1a74:	1e44      	subs	r4, r0, #1
    1a76:	1864      	adds	r4, r4, r1
    1a78:	4044      	eors	r4, r0
    1a7a:	439c      	bics	r4, r3
    1a7c:	d10a      	bne.n	1a94 <bc_flash_write+0x30>
    1a7e:	2a00      	cmp	r2, #0
    1a80:	d008      	beq.n	1a94 <bc_flash_write+0x30>
	}
	addr += APP_START_ADDR;
#ifndef RELEASE
	printf("write addr = %08x\r\n", addr);
#endif
	QSPI_Init();
    1a82:	f7ff fd07 	bl	1494 <QSPI_Init>
	QSPI_WriteFlashData(addr,len,buf);
    1a86:	4b05      	ldr	r3, [pc, #20]	; (1a9c <bc_flash_write+0x38>)
    1a88:	003a      	movs	r2, r7
    1a8a:	18e8      	adds	r0, r5, r3
    1a8c:	0031      	movs	r1, r6
    1a8e:	f7ff fb47 	bl	1120 <QSPI_WriteFlashData>
#ifndef RELEASE
	printf("write end\r\n");
#endif
	return 0;
    1a92:	e000      	b.n	1a96 <bc_flash_write+0x32>
}

uint32_t bc_flash_write(uint32_t addr, uint32_t len, uint8_t* buf)
{
	if(len < 1 || (((addr+len-1)&PAGE_MASK) != ((addr)&PAGE_MASK))|| buf == NULL){
		return 1;
    1a94:	2401      	movs	r4, #1
	QSPI_WriteFlashData(addr,len,buf);
#ifndef RELEASE
	printf("write end\r\n");
#endif
	return 0;
}
    1a96:	0020      	movs	r0, r4
    1a98:	bdf8      	pop	{r3, r4, r5, r6, r7, pc}
    1a9a:	46c0      	nop			; (mov r8, r8)
    1a9c:	0007e600 	.word	0x0007e600

00001aa0 <HW_REG_16BIT>:
#define OS_EXIT_CRITICAL() __enable_irq() 


static inline void HW_REG_16BIT(uint32_t reg, uint16_t word)
{
    HW_REG_8BIT(reg, word & 0x00FF);
    1aa0:	b2cb      	uxtb	r3, r1
    1aa2:	7003      	strb	r3, [r0, #0]

#define BW(addr)			(int)*(addr) << 24 | (int)*(addr + 1) << 16 | (int)*(addr + 2) << 8 | *(addr + 3)

static inline void hw_delay() 
{
	__asm__ __volatile__("nop");
    1aa4:	46c0      	nop			; (mov r8, r8)
	__asm__ __volatile__("nop");
    1aa6:	46c0      	nop			; (mov r8, r8)
	__asm__ __volatile__("nop");
    1aa8:	46c0      	nop			; (mov r8, r8)
	__asm__ __volatile__("nop");
    1aaa:	46c0      	nop			; (mov r8, r8)
	__asm__ __volatile__("nop");
    1aac:	46c0      	nop			; (mov r8, r8)
    hw_delay();
    HW_REG_8BIT(reg + 1,(word >> 8));
    1aae:	0a09      	lsrs	r1, r1, #8
    1ab0:	7041      	strb	r1, [r0, #1]
}
    1ab2:	4770      	bx	lr

00001ab4 <PWM_Init>:

void PWM_Init(uint8_t channel, struct PWM_CTRL_BITS *bits)
{
	tPWM_CTRL_REG_GRP *pwm = (tPWM_CTRL_REG_GRP *)(reg_map(PWM_BASE));
	//pwm0
	if (channel&PWM_CH0)	pwm ->PWM0.bits = *bits;
    1ab4:	07c3      	lsls	r3, r0, #31
    1ab6:	d502      	bpl.n	1abe <PWM_Init+0xa>
    1ab8:	780a      	ldrb	r2, [r1, #0]
    1aba:	4b13      	ldr	r3, [pc, #76]	; (1b08 <PWM_Init+0x54>)
    1abc:	711a      	strb	r2, [r3, #4]
	//pwm1
	if (channel&PWM_CH1)	pwm ->PWM1.bits = *bits;
    1abe:	0783      	lsls	r3, r0, #30
    1ac0:	d502      	bpl.n	1ac8 <PWM_Init+0x14>
    1ac2:	780a      	ldrb	r2, [r1, #0]
    1ac4:	4b10      	ldr	r3, [pc, #64]	; (1b08 <PWM_Init+0x54>)
    1ac6:	725a      	strb	r2, [r3, #9]
	//pwm2
	if (channel&PWM_CH2)	pwm ->PWM2.bits = *bits;
    1ac8:	0743      	lsls	r3, r0, #29
    1aca:	d502      	bpl.n	1ad2 <PWM_Init+0x1e>
    1acc:	780a      	ldrb	r2, [r1, #0]
    1ace:	4b0e      	ldr	r3, [pc, #56]	; (1b08 <PWM_Init+0x54>)
    1ad0:	739a      	strb	r2, [r3, #14]
	//pwm3
	if (channel&PWM_CH3)	pwm ->PWM3.bits = *bits;
    1ad2:	0703      	lsls	r3, r0, #28
    1ad4:	d502      	bpl.n	1adc <PWM_Init+0x28>
    1ad6:	780a      	ldrb	r2, [r1, #0]
    1ad8:	4b0b      	ldr	r3, [pc, #44]	; (1b08 <PWM_Init+0x54>)
    1ada:	74da      	strb	r2, [r3, #19]
	//pwm4
	if (channel&PWM_CH4)	pwm ->PWM4.bits = *bits;
    1adc:	06c3      	lsls	r3, r0, #27
    1ade:	d502      	bpl.n	1ae6 <PWM_Init+0x32>
    1ae0:	780a      	ldrb	r2, [r1, #0]
    1ae2:	4b09      	ldr	r3, [pc, #36]	; (1b08 <PWM_Init+0x54>)
    1ae4:	761a      	strb	r2, [r3, #24]
	//pwm5
	if (channel&PWM_CH5)	pwm ->PWM5.bits = *bits;
    1ae6:	0683      	lsls	r3, r0, #26
    1ae8:	d502      	bpl.n	1af0 <PWM_Init+0x3c>
    1aea:	780a      	ldrb	r2, [r1, #0]
    1aec:	4b06      	ldr	r3, [pc, #24]	; (1b08 <PWM_Init+0x54>)
    1aee:	775a      	strb	r2, [r3, #29]
	//pwm6
	if (channel&PWM_CH6)	pwm ->PWM6.bits = *bits;
    1af0:	0643      	lsls	r3, r0, #25
    1af2:	d502      	bpl.n	1afa <PWM_Init+0x46>
    1af4:	780a      	ldrb	r2, [r1, #0]
    1af6:	4b05      	ldr	r3, [pc, #20]	; (1b0c <PWM_Init+0x58>)
    1af8:	77da      	strb	r2, [r3, #31]
	//pwm7
	if (channel&PWM_CH7)	pwm ->PWM7.bits = *bits;
    1afa:	b240      	sxtb	r0, r0
    1afc:	2800      	cmp	r0, #0
    1afe:	da02      	bge.n	1b06 <PWM_Init+0x52>
    1b00:	780a      	ldrb	r2, [r1, #0]
    1b02:	4b03      	ldr	r3, [pc, #12]	; (1b10 <PWM_Init+0x5c>)
    1b04:	77da      	strb	r2, [r3, #31]
}
    1b06:	4770      	bx	lr
    1b08:	100080cd 	.word	0x100080cd
    1b0c:	100080d0 	.word	0x100080d0
    1b10:	100080d5 	.word	0x100080d5

00001b14 <PWM_DeInit>:

void PWM_DeInit(uint8_t channel)
{
	tPWM_CTRL_REG_GRP *pwm = (tPWM_CTRL_REG_GRP *)(reg_map(PWM_BASE));
	//pwm0
	if (channel&PWM_CH0)	pwm ->PWM0.bits.ENABLE = PWM_DISABLE;
    1b14:	07c3      	lsls	r3, r0, #31
    1b16:	d504      	bpl.n	1b22 <PWM_DeInit+0xe>
    1b18:	2120      	movs	r1, #32
    1b1a:	4a1b      	ldr	r2, [pc, #108]	; (1b88 <PWM_DeInit+0x74>)
    1b1c:	7913      	ldrb	r3, [r2, #4]
    1b1e:	438b      	bics	r3, r1
    1b20:	7113      	strb	r3, [r2, #4]
	//pwm1
	if (channel&PWM_CH1)	pwm ->PWM1.bits.ENABLE = PWM_DISABLE;
    1b22:	0783      	lsls	r3, r0, #30
    1b24:	d504      	bpl.n	1b30 <PWM_DeInit+0x1c>
    1b26:	2120      	movs	r1, #32
    1b28:	4a17      	ldr	r2, [pc, #92]	; (1b88 <PWM_DeInit+0x74>)
    1b2a:	7a53      	ldrb	r3, [r2, #9]
    1b2c:	438b      	bics	r3, r1
    1b2e:	7253      	strb	r3, [r2, #9]
	//pwm2
	if (channel&PWM_CH2)	pwm ->PWM2.bits.ENABLE = PWM_DISABLE;
    1b30:	0743      	lsls	r3, r0, #29
    1b32:	d504      	bpl.n	1b3e <PWM_DeInit+0x2a>
    1b34:	2120      	movs	r1, #32
    1b36:	4a14      	ldr	r2, [pc, #80]	; (1b88 <PWM_DeInit+0x74>)
    1b38:	7b93      	ldrb	r3, [r2, #14]
    1b3a:	438b      	bics	r3, r1
    1b3c:	7393      	strb	r3, [r2, #14]
	//pwm3
	if (channel&PWM_CH3)	pwm ->PWM3.bits.ENABLE = PWM_DISABLE;
    1b3e:	0703      	lsls	r3, r0, #28
    1b40:	d504      	bpl.n	1b4c <PWM_DeInit+0x38>
    1b42:	2120      	movs	r1, #32
    1b44:	4a10      	ldr	r2, [pc, #64]	; (1b88 <PWM_DeInit+0x74>)
    1b46:	7cd3      	ldrb	r3, [r2, #19]
    1b48:	438b      	bics	r3, r1
    1b4a:	74d3      	strb	r3, [r2, #19]
	//pwm4
	if (channel&PWM_CH4)	pwm ->PWM4.bits.ENABLE = PWM_DISABLE;
    1b4c:	06c3      	lsls	r3, r0, #27
    1b4e:	d504      	bpl.n	1b5a <PWM_DeInit+0x46>
    1b50:	2120      	movs	r1, #32
    1b52:	4a0d      	ldr	r2, [pc, #52]	; (1b88 <PWM_DeInit+0x74>)
    1b54:	7e13      	ldrb	r3, [r2, #24]
    1b56:	438b      	bics	r3, r1
    1b58:	7613      	strb	r3, [r2, #24]
	//pwm5
	if (channel&PWM_CH5)	pwm ->PWM5.bits.ENABLE = PWM_DISABLE;
    1b5a:	2120      	movs	r1, #32
    1b5c:	4208      	tst	r0, r1
    1b5e:	d003      	beq.n	1b68 <PWM_DeInit+0x54>
    1b60:	4a09      	ldr	r2, [pc, #36]	; (1b88 <PWM_DeInit+0x74>)
    1b62:	7f53      	ldrb	r3, [r2, #29]
    1b64:	438b      	bics	r3, r1
    1b66:	7753      	strb	r3, [r2, #29]
	//pwm6
	if (channel&PWM_CH6)	pwm ->PWM6.bits.ENABLE = PWM_DISABLE;
    1b68:	0643      	lsls	r3, r0, #25
    1b6a:	d504      	bpl.n	1b76 <PWM_DeInit+0x62>
    1b6c:	2120      	movs	r1, #32
    1b6e:	4a07      	ldr	r2, [pc, #28]	; (1b8c <PWM_DeInit+0x78>)
    1b70:	7fd3      	ldrb	r3, [r2, #31]
    1b72:	438b      	bics	r3, r1
    1b74:	77d3      	strb	r3, [r2, #31]
	//pwm7
	if (channel&PWM_CH7)	pwm ->PWM7.bits.ENABLE = PWM_DISABLE;
    1b76:	b240      	sxtb	r0, r0
    1b78:	2800      	cmp	r0, #0
    1b7a:	da04      	bge.n	1b86 <PWM_DeInit+0x72>
    1b7c:	2120      	movs	r1, #32
    1b7e:	4a04      	ldr	r2, [pc, #16]	; (1b90 <PWM_DeInit+0x7c>)
    1b80:	7fd3      	ldrb	r3, [r2, #31]
    1b82:	438b      	bics	r3, r1
    1b84:	77d3      	strb	r3, [r2, #31]
}
    1b86:	4770      	bx	lr
    1b88:	100080cd 	.word	0x100080cd
    1b8c:	100080d0 	.word	0x100080d0
    1b90:	100080d5 	.word	0x100080d5

00001b94 <PWM_Start>:

void PWM_Start(uint8_t channel)
{
	tPWM_CTRL_REG_GRP *pwm = (tPWM_CTRL_REG_GRP *)(reg_map(PWM_BASE));
	//pwm0
	if (channel&PWM_CH0)	pwm ->PWM0.bits.ENABLE = PWM_ENABLE;
    1b94:	07c3      	lsls	r3, r0, #31
    1b96:	d504      	bpl.n	1ba2 <PWM_Start+0xe>
    1b98:	2120      	movs	r1, #32
    1b9a:	4a1b      	ldr	r2, [pc, #108]	; (1c08 <PWM_Start+0x74>)
    1b9c:	7913      	ldrb	r3, [r2, #4]
    1b9e:	430b      	orrs	r3, r1
    1ba0:	7113      	strb	r3, [r2, #4]
	//pwm1
	if (channel&PWM_CH1)	pwm ->PWM1.bits.ENABLE = PWM_ENABLE;
    1ba2:	0783      	lsls	r3, r0, #30
    1ba4:	d504      	bpl.n	1bb0 <PWM_Start+0x1c>
    1ba6:	2120      	movs	r1, #32
    1ba8:	4a17      	ldr	r2, [pc, #92]	; (1c08 <PWM_Start+0x74>)
    1baa:	7a53      	ldrb	r3, [r2, #9]
    1bac:	430b      	orrs	r3, r1
    1bae:	7253      	strb	r3, [r2, #9]
	//pwm2
	if (channel&PWM_CH2)	pwm ->PWM2.bits.ENABLE = PWM_ENABLE;
    1bb0:	0743      	lsls	r3, r0, #29
    1bb2:	d504      	bpl.n	1bbe <PWM_Start+0x2a>
    1bb4:	2120      	movs	r1, #32
    1bb6:	4a14      	ldr	r2, [pc, #80]	; (1c08 <PWM_Start+0x74>)
    1bb8:	7b93      	ldrb	r3, [r2, #14]
    1bba:	430b      	orrs	r3, r1
    1bbc:	7393      	strb	r3, [r2, #14]
	//pwm3
	if (channel&PWM_CH3)	pwm ->PWM3.bits.ENABLE = PWM_ENABLE;
    1bbe:	0703      	lsls	r3, r0, #28
    1bc0:	d504      	bpl.n	1bcc <PWM_Start+0x38>
    1bc2:	2120      	movs	r1, #32
    1bc4:	4a10      	ldr	r2, [pc, #64]	; (1c08 <PWM_Start+0x74>)
    1bc6:	7cd3      	ldrb	r3, [r2, #19]
    1bc8:	430b      	orrs	r3, r1
    1bca:	74d3      	strb	r3, [r2, #19]
	//pwm4
	if (channel&PWM_CH4)	pwm ->PWM4.bits.ENABLE = PWM_ENABLE;
    1bcc:	06c3      	lsls	r3, r0, #27
    1bce:	d504      	bpl.n	1bda <PWM_Start+0x46>
    1bd0:	2120      	movs	r1, #32
    1bd2:	4a0d      	ldr	r2, [pc, #52]	; (1c08 <PWM_Start+0x74>)
    1bd4:	7e13      	ldrb	r3, [r2, #24]
    1bd6:	430b      	orrs	r3, r1
    1bd8:	7613      	strb	r3, [r2, #24]
	//pwm5
	if (channel&PWM_CH5)	pwm ->PWM5.bits.ENABLE = PWM_ENABLE;
    1bda:	2120      	movs	r1, #32
    1bdc:	4208      	tst	r0, r1
    1bde:	d003      	beq.n	1be8 <PWM_Start+0x54>
    1be0:	4a09      	ldr	r2, [pc, #36]	; (1c08 <PWM_Start+0x74>)
    1be2:	7f53      	ldrb	r3, [r2, #29]
    1be4:	430b      	orrs	r3, r1
    1be6:	7753      	strb	r3, [r2, #29]
	//pwm6
	if (channel&PWM_CH6)	pwm ->PWM6.bits.ENABLE = PWM_ENABLE;
    1be8:	0643      	lsls	r3, r0, #25
    1bea:	d504      	bpl.n	1bf6 <PWM_Start+0x62>
    1bec:	2120      	movs	r1, #32
    1bee:	4a07      	ldr	r2, [pc, #28]	; (1c0c <PWM_Start+0x78>)
    1bf0:	7fd3      	ldrb	r3, [r2, #31]
    1bf2:	430b      	orrs	r3, r1
    1bf4:	77d3      	strb	r3, [r2, #31]
	//pwm7
	if (channel&PWM_CH7)	pwm ->PWM7.bits.ENABLE = PWM_ENABLE;
    1bf6:	b240      	sxtb	r0, r0
    1bf8:	2800      	cmp	r0, #0
    1bfa:	da04      	bge.n	1c06 <PWM_Start+0x72>
    1bfc:	2120      	movs	r1, #32
    1bfe:	4a04      	ldr	r2, [pc, #16]	; (1c10 <PWM_Start+0x7c>)
    1c00:	7fd3      	ldrb	r3, [r2, #31]
    1c02:	430b      	orrs	r3, r1
    1c04:	77d3      	strb	r3, [r2, #31]
}
    1c06:	4770      	bx	lr
    1c08:	100080cd 	.word	0x100080cd
    1c0c:	100080d0 	.word	0x100080d0
    1c10:	100080d5 	.word	0x100080d5

00001c14 <PWM_SetPnCnt>:


void PWM_SetPnCnt(uint8_t channel, uint16_t pcnt, uint16_t ncnt)
{
    1c14:	b570      	push	{r4, r5, r6, lr}
    1c16:	0004      	movs	r4, r0
    1c18:	000d      	movs	r5, r1
    1c1a:	0016      	movs	r6, r2
	//tPWM_CTRL_REG_GRP *pwm = (tPWM_CTRL_REG_GRP *)(reg_map(PWM_BASE));

	
	if (channel&PWM_CH0) {
    1c1c:	07c3      	lsls	r3, r0, #31
    1c1e:	d507      	bpl.n	1c30 <PWM_SetPnCnt+0x1c>
		HW_REG_16BIT(reg_map(CORE_PWM0_NCNT), ncnt);
    1c20:	0011      	movs	r1, r2
    1c22:	4827      	ldr	r0, [pc, #156]	; (1cc0 <PWM_SetPnCnt+0xac>)
    1c24:	f7ff ff3c 	bl	1aa0 <HW_REG_16BIT>
		HW_REG_16BIT(reg_map(CORE_PWM0_PCNT), pcnt);
    1c28:	0029      	movs	r1, r5
    1c2a:	4826      	ldr	r0, [pc, #152]	; (1cc4 <PWM_SetPnCnt+0xb0>)
    1c2c:	f7ff ff38 	bl	1aa0 <HW_REG_16BIT>
	}

	if (channel&PWM_CH1) {
    1c30:	07a3      	lsls	r3, r4, #30
    1c32:	d507      	bpl.n	1c44 <PWM_SetPnCnt+0x30>
		HW_REG_16BIT(reg_map(CORE_PWM1_NCNT), ncnt);
    1c34:	0031      	movs	r1, r6
    1c36:	4824      	ldr	r0, [pc, #144]	; (1cc8 <PWM_SetPnCnt+0xb4>)
    1c38:	f7ff ff32 	bl	1aa0 <HW_REG_16BIT>
		HW_REG_16BIT(reg_map(CORE_PWM1_PCNT), pcnt);
    1c3c:	0029      	movs	r1, r5
    1c3e:	4823      	ldr	r0, [pc, #140]	; (1ccc <PWM_SetPnCnt+0xb8>)
    1c40:	f7ff ff2e 	bl	1aa0 <HW_REG_16BIT>
	}

	if (channel&PWM_CH2) {
    1c44:	0763      	lsls	r3, r4, #29
    1c46:	d507      	bpl.n	1c58 <PWM_SetPnCnt+0x44>
		HW_REG_16BIT(reg_map(CORE_PWM2_NCNT), ncnt);
    1c48:	0031      	movs	r1, r6
    1c4a:	4821      	ldr	r0, [pc, #132]	; (1cd0 <PWM_SetPnCnt+0xbc>)
    1c4c:	f7ff ff28 	bl	1aa0 <HW_REG_16BIT>
		HW_REG_16BIT(reg_map(CORE_PWM2_PCNT), pcnt);
    1c50:	0029      	movs	r1, r5
    1c52:	4820      	ldr	r0, [pc, #128]	; (1cd4 <PWM_SetPnCnt+0xc0>)
    1c54:	f7ff ff24 	bl	1aa0 <HW_REG_16BIT>
	}

	if (channel&PWM_CH3) {
    1c58:	0723      	lsls	r3, r4, #28
    1c5a:	d507      	bpl.n	1c6c <PWM_SetPnCnt+0x58>
		HW_REG_16BIT(reg_map(CORE_PWM3_NCNT), ncnt);
    1c5c:	0031      	movs	r1, r6
    1c5e:	481e      	ldr	r0, [pc, #120]	; (1cd8 <PWM_SetPnCnt+0xc4>)
    1c60:	f7ff ff1e 	bl	1aa0 <HW_REG_16BIT>
		HW_REG_16BIT(reg_map(CORE_PWM3_PCNT), pcnt);
    1c64:	0029      	movs	r1, r5
    1c66:	481d      	ldr	r0, [pc, #116]	; (1cdc <PWM_SetPnCnt+0xc8>)
    1c68:	f7ff ff1a 	bl	1aa0 <HW_REG_16BIT>
	}

	if (channel&PWM_CH4) {
    1c6c:	06e3      	lsls	r3, r4, #27
    1c6e:	d507      	bpl.n	1c80 <PWM_SetPnCnt+0x6c>
		HW_REG_16BIT(reg_map(CORE_PWM4_NCNT), ncnt);
    1c70:	0031      	movs	r1, r6
    1c72:	481b      	ldr	r0, [pc, #108]	; (1ce0 <PWM_SetPnCnt+0xcc>)
    1c74:	f7ff ff14 	bl	1aa0 <HW_REG_16BIT>
		HW_REG_16BIT(reg_map(CORE_PWM4_PCNT), pcnt);
    1c78:	0029      	movs	r1, r5
    1c7a:	481a      	ldr	r0, [pc, #104]	; (1ce4 <PWM_SetPnCnt+0xd0>)
    1c7c:	f7ff ff10 	bl	1aa0 <HW_REG_16BIT>
	}

	if (channel&PWM_CH5) {
    1c80:	06a3      	lsls	r3, r4, #26
    1c82:	d507      	bpl.n	1c94 <PWM_SetPnCnt+0x80>
		HW_REG_16BIT(reg_map(CORE_PWM5_NCNT), ncnt);
    1c84:	0031      	movs	r1, r6
    1c86:	4818      	ldr	r0, [pc, #96]	; (1ce8 <PWM_SetPnCnt+0xd4>)
    1c88:	f7ff ff0a 	bl	1aa0 <HW_REG_16BIT>
		HW_REG_16BIT(reg_map(CORE_PWM5_PCNT), pcnt);
    1c8c:	0029      	movs	r1, r5
    1c8e:	4817      	ldr	r0, [pc, #92]	; (1cec <PWM_SetPnCnt+0xd8>)
    1c90:	f7ff ff06 	bl	1aa0 <HW_REG_16BIT>
	}

	if (channel&PWM_CH6) {
    1c94:	0663      	lsls	r3, r4, #25
    1c96:	d507      	bpl.n	1ca8 <PWM_SetPnCnt+0x94>
		HW_REG_16BIT(reg_map(CORE_PWM6_NCNT), ncnt);
    1c98:	0031      	movs	r1, r6
    1c9a:	4815      	ldr	r0, [pc, #84]	; (1cf0 <PWM_SetPnCnt+0xdc>)
    1c9c:	f7ff ff00 	bl	1aa0 <HW_REG_16BIT>
		HW_REG_16BIT(reg_map(CORE_PWM6_PCNT), pcnt);
    1ca0:	0029      	movs	r1, r5
    1ca2:	4814      	ldr	r0, [pc, #80]	; (1cf4 <PWM_SetPnCnt+0xe0>)
    1ca4:	f7ff fefc 	bl	1aa0 <HW_REG_16BIT>
	}

	if (channel&PWM_CH7) {
    1ca8:	b264      	sxtb	r4, r4
    1caa:	2c00      	cmp	r4, #0
    1cac:	da07      	bge.n	1cbe <PWM_SetPnCnt+0xaa>
		HW_REG_16BIT(reg_map(CORE_PWM7_NCNT), ncnt);
    1cae:	0031      	movs	r1, r6
    1cb0:	4811      	ldr	r0, [pc, #68]	; (1cf8 <PWM_SetPnCnt+0xe4>)
    1cb2:	f7ff fef5 	bl	1aa0 <HW_REG_16BIT>
		HW_REG_16BIT(reg_map(CORE_PWM7_PCNT), pcnt);
    1cb6:	0029      	movs	r1, r5
    1cb8:	4810      	ldr	r0, [pc, #64]	; (1cfc <PWM_SetPnCnt+0xe8>)
    1cba:	f7ff fef1 	bl	1aa0 <HW_REG_16BIT>
	}

}
    1cbe:	bd70      	pop	{r4, r5, r6, pc}
    1cc0:	100080cf 	.word	0x100080cf
    1cc4:	100080cd 	.word	0x100080cd
    1cc8:	100080d4 	.word	0x100080d4
    1ccc:	100080d2 	.word	0x100080d2
    1cd0:	100080d9 	.word	0x100080d9
    1cd4:	100080d7 	.word	0x100080d7
    1cd8:	100080de 	.word	0x100080de
    1cdc:	100080dc 	.word	0x100080dc
    1ce0:	100080e3 	.word	0x100080e3
    1ce4:	100080e1 	.word	0x100080e1
    1ce8:	100080e8 	.word	0x100080e8
    1cec:	100080e6 	.word	0x100080e6
    1cf0:	100080ed 	.word	0x100080ed
    1cf4:	100080eb 	.word	0x100080eb
    1cf8:	100080f2 	.word	0x100080f2
    1cfc:	100080f0 	.word	0x100080f0

00001d00 <SYS_TimerExpireDefaultHandle>:

void SYS_TimerExpireDefaultHandle(int params)
{
	// YC_LOG_ERROR("default timer expire !\r\n");
	while(0);
}
    1d00:	4770      	bx	lr

00001d02 <SYS_TimerInit>:

void SYS_TimerInit()
{
	//initial timer lists
	pheader = &header_Timer;
    1d02:	4b0d      	ldr	r3, [pc, #52]	; (1d38 <SYS_TimerInit+0x36>)
    1d04:	4a0d      	ldr	r2, [pc, #52]	; (1d3c <SYS_TimerInit+0x3a>)
	// YC_LOG_ERROR("default timer expire !\r\n");
	while(0);
}

void SYS_TimerInit()
{
    1d06:	b510      	push	{r4, lr}
	//initial timer lists
	pheader = &header_Timer;
    1d08:	6013      	str	r3, [r2, #0]
	pheader->pNextTimer = NULL;
	pheader->pfExpireCb = SYS_TimerExpireDefaultHandle;
    1d0a:	4a0d      	ldr	r2, [pc, #52]	; (1d40 <SYS_TimerInit+0x3e>)

void SYS_TimerInit()
{
	//initial timer lists
	pheader = &header_Timer;
	pheader->pNextTimer = NULL;
    1d0c:	2100      	movs	r1, #0
	pheader->pfExpireCb = SYS_TimerExpireDefaultHandle;
    1d0e:	60da      	str	r2, [r3, #12]
	pheader->mTimerStatus = TIMER_START;
    1d10:	2201      	movs	r2, #1
 */
__STATIC_INLINE void NVIC_SetPriority(IRQn_Type IRQn, uint32_t priority)
{
  if ((int32_t)(IRQn) < 0)
  {
    SCB->SHP[_SHP_IDX(IRQn)] = ((uint32_t)(SCB->SHP[_SHP_IDX(IRQn)] & ~(0xFFUL << _BIT_SHIFT(IRQn))) |
    1d12:	24c0      	movs	r4, #192	; 0xc0
    1d14:	721a      	strb	r2, [r3, #8]
	pheader->mTimerValue = 0;
    1d16:	6019      	str	r1, [r3, #0]

void SYS_TimerInit()
{
	//initial timer lists
	pheader = &header_Timer;
	pheader->pNextTimer = NULL;
    1d18:	6119      	str	r1, [r3, #16]
  if ((ticks - 1UL) > SysTick_LOAD_RELOAD_Msk)
  {
    return (1UL);                                                   /* Reload value impossible */
  }

  SysTick->LOAD  = (uint32_t)(ticks - 1UL);                         /* set reload register */
    1d1a:	4a0a      	ldr	r2, [pc, #40]	; (1d44 <SYS_TimerInit+0x42>)
    1d1c:	4b0a      	ldr	r3, [pc, #40]	; (1d48 <SYS_TimerInit+0x46>)
 */
__STATIC_INLINE void NVIC_SetPriority(IRQn_Type IRQn, uint32_t priority)
{
  if ((int32_t)(IRQn) < 0)
  {
    SCB->SHP[_SHP_IDX(IRQn)] = ((uint32_t)(SCB->SHP[_SHP_IDX(IRQn)] & ~(0xFFUL << _BIT_SHIFT(IRQn))) |
    1d1e:	480b      	ldr	r0, [pc, #44]	; (1d4c <SYS_TimerInit+0x4a>)
  if ((ticks - 1UL) > SysTick_LOAD_RELOAD_Msk)
  {
    return (1UL);                                                   /* Reload value impossible */
  }

  SysTick->LOAD  = (uint32_t)(ticks - 1UL);                         /* set reload register */
    1d20:	6053      	str	r3, [r2, #4]
 */
__STATIC_INLINE void NVIC_SetPriority(IRQn_Type IRQn, uint32_t priority)
{
  if ((int32_t)(IRQn) < 0)
  {
    SCB->SHP[_SHP_IDX(IRQn)] = ((uint32_t)(SCB->SHP[_SHP_IDX(IRQn)] & ~(0xFFUL << _BIT_SHIFT(IRQn))) |
    1d22:	6a03      	ldr	r3, [r0, #32]
    1d24:	0624      	lsls	r4, r4, #24
    1d26:	021b      	lsls	r3, r3, #8
    1d28:	0a1b      	lsrs	r3, r3, #8
    1d2a:	4323      	orrs	r3, r4
    1d2c:	6203      	str	r3, [r0, #32]
  }

  SysTick->LOAD  = (uint32_t)(ticks - 1UL);                         /* set reload register */
  NVIC_SetPriority (SysTick_IRQn, (1UL << __NVIC_PRIO_BITS) - 1UL); /* set Priority for Systick Interrupt */
  SysTick->VAL   = 0UL;                                             /* Load the SysTick Counter Value */
  SysTick->CTRL  = SysTick_CTRL_CLKSOURCE_Msk |
    1d2e:	2307      	movs	r3, #7
    return (1UL);                                                   /* Reload value impossible */
  }

  SysTick->LOAD  = (uint32_t)(ticks - 1UL);                         /* set reload register */
  NVIC_SetPriority (SysTick_IRQn, (1UL << __NVIC_PRIO_BITS) - 1UL); /* set Priority for Systick Interrupt */
  SysTick->VAL   = 0UL;                                             /* Load the SysTick Counter Value */
    1d30:	6091      	str	r1, [r2, #8]
  SysTick->CTRL  = SysTick_CTRL_CLKSOURCE_Msk |
    1d32:	6013      	str	r3, [r2, #0]
	pheader->pfExpireCb = SYS_TimerExpireDefaultHandle;
	pheader->mTimerStatus = TIMER_START;
	pheader->mTimerValue = 0;

	SysTick_Config(SYSTEM_CLOCK/1000); //each  systick interrupt is 1ms
}
    1d34:	bd10      	pop	{r4, pc}
    1d36:	46c0      	nop			; (mov r8, r8)
    1d38:	10012824 	.word	0x10012824
    1d3c:	10012820 	.word	0x10012820
    1d40:	00001d01 	.word	0x00001d01
    1d44:	e000e010 	.word	0xe000e010
    1d48:	00005dbf 	.word	0x00005dbf
    1d4c:	e000ed00 	.word	0xe000ed00

00001d50 <SYS_SetTimer>:


//union is 10ms
bool SYS_SetTimer(SYS_TIMER_TYPE *pTimer, int tick,TIMER_TYPE isSingle,Timer_Expire_CB pfExpire_CB)
{
    1d50:	b570      	push	{r4, r5, r6, lr}
    1d52:	1e04      	subs	r4, r0, #0
	SYS_TIMER_TYPE *pTemp;
	if(pTimer == NULL)
    1d54:	d01c      	beq.n	1d90 <SYS_SetTimer+0x40>
	{
		return false;
	}
	
	if (pfExpire_CB == NULL)
    1d56:	2b00      	cmp	r3, #0
    1d58:	d102      	bne.n	1d60 <SYS_SetTimer+0x10>
	{
		pTimer->pfExpireCb = SYS_TimerExpireDefaultHandle;
    1d5a:	4b0e      	ldr	r3, [pc, #56]	; (1d94 <SYS_SetTimer+0x44>)
    1d5c:	60c3      	str	r3, [r0, #12]
    1d5e:	e000      	b.n	1d62 <SYS_SetTimer+0x12>
	}
	else
	{
		pTimer->pfExpireCb = pfExpire_CB;
    1d60:	60c3      	str	r3, [r0, #12]
  \details Disables IRQ interrupts by setting the I-bit in the CPSR.
  Can only be executed in Privileged modes.
 */
__attribute__( ( always_inline ) ) __STATIC_INLINE void __disable_irq(void)
{
  __ASM volatile ("cpsid i" : : : "memory");
    1d62:	b672      	cpsid	i
	}
	OS_ENTER_CRITICAL();
	pTimer->mTick = tick;
	pTimer->mTimerValue = sys_tick_count+tick;
	pTimer->mTimerStatus = TIMER_START;
    1d64:	2501      	movs	r5, #1
	{
		pTimer->pfExpireCb = pfExpire_CB;
	}
	OS_ENTER_CRITICAL();
	pTimer->mTick = tick;
	pTimer->mTimerValue = sys_tick_count+tick;
    1d66:	4b0c      	ldr	r3, [pc, #48]	; (1d98 <SYS_SetTimer+0x48>)
	else
	{
		pTimer->pfExpireCb = pfExpire_CB;
	}
	OS_ENTER_CRITICAL();
	pTimer->mTick = tick;
    1d68:	6061      	str	r1, [r4, #4]
	pTimer->mTimerValue = sys_tick_count+tick;
    1d6a:	681b      	ldr	r3, [r3, #0]
	pTimer->mTimerStatus = TIMER_START;
    1d6c:	7225      	strb	r5, [r4, #8]
	{
		pTimer->pfExpireCb = pfExpire_CB;
	}
	OS_ENTER_CRITICAL();
	pTimer->mTick = tick;
	pTimer->mTimerValue = sys_tick_count+tick;
    1d6e:	1859      	adds	r1, r3, r1
    1d70:	6021      	str	r1, [r4, #0]
	pTimer->mTimerStatus = TIMER_START;
	pTimer->mIsCycle = isSingle;
    1d72:	7262      	strb	r2, [r4, #9]

	pTimer->cbParams = (int32_t)pTimer;
    1d74:	6164      	str	r4, [r4, #20]
  \details Enables IRQ interrupts by clearing the I-bit in the CPSR.
           Can only be executed in Privileged modes.
 */
__attribute__( ( always_inline ) ) __STATIC_INLINE void __enable_irq(void)
{
  __ASM volatile ("cpsie i" : : : "memory");
    1d76:	b662      	cpsie	i
	OS_EXIT_CRITICAL();
	if (SYS_TimerisExist(pTimer))
    1d78:	0020      	movs	r0, r4
    1d7a:	f000 f811 	bl	1da0 <SYS_TimerisExist>
    1d7e:	2800      	cmp	r0, #0
    1d80:	d106      	bne.n	1d90 <SYS_SetTimer+0x40>
  \details Disables IRQ interrupts by setting the I-bit in the CPSR.
  Can only be executed in Privileged modes.
 */
__attribute__( ( always_inline ) ) __STATIC_INLINE void __disable_irq(void)
{
  __ASM volatile ("cpsid i" : : : "memory");
    1d82:	b672      	cpsid	i
		//printf("timer exised and set timer success\r\n");
		return true;
	}
	OS_ENTER_CRITICAL();
	//insert to list
	pTemp = pheader;
    1d84:	4b05      	ldr	r3, [pc, #20]	; (1d9c <SYS_SetTimer+0x4c>)
    1d86:	681a      	ldr	r2, [r3, #0]
	pheader = pTimer;
    1d88:	601c      	str	r4, [r3, #0]
		//printf("timer exised and set timer success\r\n");
		return true;
	}
	OS_ENTER_CRITICAL();
	//insert to list
	pTemp = pheader;
    1d8a:	6122      	str	r2, [r4, #16]
  \details Enables IRQ interrupts by clearing the I-bit in the CPSR.
           Can only be executed in Privileged modes.
 */
__attribute__( ( always_inline ) ) __STATIC_INLINE void __enable_irq(void)
{
  __ASM volatile ("cpsie i" : : : "memory");
    1d8c:	b662      	cpsie	i
	pheader = pTimer;
	pheader->pNextTimer = pTemp;
	OS_EXIT_CRITICAL();
	//printf("set timer success\n");
	//YC_LOG_INFO("set timer %d \r\n",pTimer->cbParams);
	return true;
    1d8e:	0028      	movs	r0, r5
}
    1d90:	bd70      	pop	{r4, r5, r6, pc}
    1d92:	46c0      	nop			; (mov r8, r8)
    1d94:	00001d01 	.word	0x00001d01
    1d98:	1001281c 	.word	0x1001281c
    1d9c:	10012820 	.word	0x10012820

00001da0 <SYS_TimerisExist>:

bool SYS_TimerisExist(SYS_TIMER_TYPE *pTimer)
{
    1da0:	1e01      	subs	r1, r0, #0
	SYS_TIMER_TYPE *pTemp;
	if (pTimer == NULL)
    1da2:	d00b      	beq.n	1dbc <SYS_TimerisExist+0x1c>
	{
		return false;
	}
	for(pTemp = pheader; pTemp->pNextTimer != NULL; pTemp = pTemp->pNextTimer)
    1da4:	4b06      	ldr	r3, [pc, #24]	; (1dc0 <SYS_TimerisExist+0x20>)
    1da6:	681a      	ldr	r2, [r3, #0]
    1da8:	6913      	ldr	r3, [r2, #16]
    1daa:	2b00      	cmp	r3, #0
    1dac:	d003      	beq.n	1db6 <SYS_TimerisExist+0x16>
	{
		if (pTimer == pTemp)
    1dae:	428a      	cmp	r2, r1
    1db0:	d003      	beq.n	1dba <SYS_TimerisExist+0x1a>
    1db2:	001a      	movs	r2, r3
    1db4:	e7f8      	b.n	1da8 <SYS_TimerisExist+0x8>
bool SYS_TimerisExist(SYS_TIMER_TYPE *pTimer)
{
	SYS_TIMER_TYPE *pTemp;
	if (pTimer == NULL)
	{
		return false;
    1db6:	0018      	movs	r0, r3
    1db8:	e000      	b.n	1dbc <SYS_TimerisExist+0x1c>
	}
	for(pTemp = pheader; pTemp->pNextTimer != NULL; pTemp = pTemp->pNextTimer)
	{
		if (pTimer == pTemp)
		{
			return true;
    1dba:	2001      	movs	r0, #1
		}
	}
	return false;
}
    1dbc:	4770      	bx	lr
    1dbe:	46c0      	nop			; (mov r8, r8)
    1dc0:	10012820 	.word	0x10012820

00001dc4 <SYS_ResetTimer>:


bool SYS_ResetTimer(SYS_TIMER_TYPE *pTimer)
{
    1dc4:	1e01      	subs	r1, r0, #0
	SYS_TIMER_TYPE *pTemp;
	if (pTimer == NULL)
    1dc6:	d010      	beq.n	1dea <SYS_ResetTimer+0x26>
	{
		return false;
	}
	for(pTemp = pheader; pTemp->pNextTimer != NULL; pTemp = pTemp->pNextTimer)
    1dc8:	4b08      	ldr	r3, [pc, #32]	; (1dec <SYS_ResetTimer+0x28>)
    1dca:	681a      	ldr	r2, [r3, #0]
    1dcc:	6913      	ldr	r3, [r2, #16]
    1dce:	2b00      	cmp	r3, #0
    1dd0:	d00a      	beq.n	1de8 <SYS_ResetTimer+0x24>
	{
		if (pTimer == pTemp)
    1dd2:	428a      	cmp	r2, r1
    1dd4:	d106      	bne.n	1de4 <SYS_ResetTimer+0x20>
		{
			pTimer->mTimerValue = sys_tick_count+(pTimer->mTick);
    1dd6:	4b06      	ldr	r3, [pc, #24]	; (1df0 <SYS_ResetTimer+0x2c>)
    1dd8:	6851      	ldr	r1, [r2, #4]
    1dda:	681b      	ldr	r3, [r3, #0]
			return true;
    1ddc:	2001      	movs	r0, #1
	}
	for(pTemp = pheader; pTemp->pNextTimer != NULL; pTemp = pTemp->pNextTimer)
	{
		if (pTimer == pTemp)
		{
			pTimer->mTimerValue = sys_tick_count+(pTimer->mTick);
    1dde:	18cb      	adds	r3, r1, r3
    1de0:	6013      	str	r3, [r2, #0]
			return true;
    1de2:	e002      	b.n	1dea <SYS_ResetTimer+0x26>
    1de4:	001a      	movs	r2, r3
    1de6:	e7f1      	b.n	1dcc <SYS_ResetTimer+0x8>
bool SYS_ResetTimer(SYS_TIMER_TYPE *pTimer)
{
	SYS_TIMER_TYPE *pTemp;
	if (pTimer == NULL)
	{
		return false;
    1de8:	0018      	movs	r0, r3
			pTimer->mTimerValue = sys_tick_count+(pTimer->mTick);
			return true;
		}
	}
	return false;
}
    1dea:	4770      	bx	lr
    1dec:	10012820 	.word	0x10012820
    1df0:	1001281c 	.word	0x1001281c

00001df4 <SYS_TimerTest>:
	for (pTimer = pheader; pTimer->pNextTimer != NULL; pTimer = pTimer->pNextTimer)
	{
		i++;
	}
	//YC_LOG_INFO("timer count %d \r\n",i);
}
    1df4:	4770      	bx	lr

00001df6 <SYS_timerPolling>:

void SYS_timerPolling()
{
    1df6:	b510      	push	{r4, lr}
	SYS_TIMER_TYPE *pTimer;
	
	if (sys_Timer_Check_Flag)
    1df8:	4b11      	ldr	r3, [pc, #68]	; (1e40 <SYS_timerPolling+0x4a>)
    1dfa:	781a      	ldrb	r2, [r3, #0]
    1dfc:	2a00      	cmp	r2, #0
    1dfe:	d01d      	beq.n	1e3c <SYS_timerPolling+0x46>
	{
		sys_Timer_Check_Flag = false;
    1e00:	2200      	movs	r2, #0
    1e02:	701a      	strb	r2, [r3, #0]
		//SYS_TimerTest();
	//	printf("2\n");
		for (pTimer = pheader; pTimer->pNextTimer != NULL; pTimer = pTimer->pNextTimer)
    1e04:	4b0f      	ldr	r3, [pc, #60]	; (1e44 <SYS_timerPolling+0x4e>)
    1e06:	681c      	ldr	r4, [r3, #0]
    1e08:	6923      	ldr	r3, [r4, #16]
    1e0a:	2b00      	cmp	r3, #0
    1e0c:	d016      	beq.n	1e3c <SYS_timerPolling+0x46>
		{
	//		printf("3\n");
			if (pTimer->mTimerStatus == TIMER_START)
    1e0e:	7a23      	ldrb	r3, [r4, #8]
    1e10:	2b01      	cmp	r3, #1
    1e12:	d111      	bne.n	1e38 <SYS_timerPolling+0x42>
			{
		//		printf("sys_tick_count = %d\n",sys_tick_count);
		//		printf("pTimer->mTimerValue = %d\n",pTimer->mTimerValue);
		//		printf("timer %d in\r\n",pTimer->cbParams);
				if (pTimer->mTimerValue <= sys_tick_count)
    1e14:	4b0c      	ldr	r3, [pc, #48]	; (1e48 <SYS_timerPolling+0x52>)
    1e16:	6822      	ldr	r2, [r4, #0]
    1e18:	681b      	ldr	r3, [r3, #0]
    1e1a:	429a      	cmp	r2, r3
    1e1c:	d80c      	bhi.n	1e38 <SYS_timerPolling+0x42>
				{
		//			printf("5\n");
					if (pTimer->mIsCycle == TIMER_SINGLE)
    1e1e:	7a62      	ldrb	r2, [r4, #9]
    1e20:	2a00      	cmp	r2, #0
    1e22:	d103      	bne.n	1e2c <SYS_timerPolling+0x36>
					{
				//		printf("timer release %d in\r\n",pTimer->cbParams);
						SYS_ReleaseTimer(pTimer);
    1e24:	0020      	movs	r0, r4
    1e26:	f000 f811 	bl	1e4c <SYS_ReleaseTimer>
    1e2a:	e002      	b.n	1e32 <SYS_timerPolling+0x3c>
					}
					else
					{					
				//		printf("timer cycle in\r\n");
				//		printf("timer release %d in\r\n",pTimer->cbParams);
						pTimer->mTimerValue = sys_tick_count+(pTimer->mTick);
    1e2c:	6862      	ldr	r2, [r4, #4]
    1e2e:	18d3      	adds	r3, r2, r3
    1e30:	6023      	str	r3, [r4, #0]
					}
			//		printf("6\n");
					pTimer->pfExpireCb(pTimer->cbParams);
    1e32:	6960      	ldr	r0, [r4, #20]
    1e34:	68e3      	ldr	r3, [r4, #12]
    1e36:	4798      	blx	r3
	if (sys_Timer_Check_Flag)
	{
		sys_Timer_Check_Flag = false;
		//SYS_TimerTest();
	//	printf("2\n");
		for (pTimer = pheader; pTimer->pNextTimer != NULL; pTimer = pTimer->pNextTimer)
    1e38:	6924      	ldr	r4, [r4, #16]
    1e3a:	e7e5      	b.n	1e08 <SYS_timerPolling+0x12>
					pTimer->pfExpireCb(pTimer->cbParams);
				}
			}
		}
	}
}
    1e3c:	bd10      	pop	{r4, pc}
    1e3e:	46c0      	nop			; (mov r8, r8)
    1e40:	1001283c 	.word	0x1001283c
    1e44:	10012820 	.word	0x10012820
    1e48:	1001281c 	.word	0x1001281c

00001e4c <SYS_ReleaseTimer>:

bool SYS_ReleaseTimer(SYS_TIMER_TYPE *pTimer)
{
    1e4c:	b510      	push	{r4, lr}
    1e4e:	1e01      	subs	r1, r0, #0
	SYS_TIMER_TYPE *pTemp, *pPre;
	if (pTimer == NULL)
    1e50:	d01a      	beq.n	1e88 <SYS_ReleaseTimer+0x3c>
	{
		return false;
	}

	if (pTimer == &header_Timer)
    1e52:	4b0e      	ldr	r3, [pc, #56]	; (1e8c <SYS_ReleaseTimer+0x40>)
bool SYS_ReleaseTimer(SYS_TIMER_TYPE *pTimer)
{
	SYS_TIMER_TYPE *pTemp, *pPre;
	if (pTimer == NULL)
	{
		return false;
    1e54:	2000      	movs	r0, #0
	}

	if (pTimer == &header_Timer)
    1e56:	4299      	cmp	r1, r3
    1e58:	d016      	beq.n	1e88 <SYS_ReleaseTimer+0x3c>
	{
		return false;
	}

	for(pTemp = pPre = pheader; pTemp->pNextTimer != NULL; pPre = pTemp,pTemp = pTemp->pNextTimer)
    1e5a:	4b0d      	ldr	r3, [pc, #52]	; (1e90 <SYS_ReleaseTimer+0x44>)
    1e5c:	681a      	ldr	r2, [r3, #0]
    1e5e:	0018      	movs	r0, r3
    1e60:	0014      	movs	r4, r2
    1e62:	6913      	ldr	r3, [r2, #16]
    1e64:	2b00      	cmp	r3, #0
    1e66:	d00e      	beq.n	1e86 <SYS_ReleaseTimer+0x3a>
	{
		if (pTimer == pTemp)
    1e68:	428a      	cmp	r2, r1
    1e6a:	d109      	bne.n	1e80 <SYS_ReleaseTimer+0x34>
		{
			pTemp->mTimerStatus = TIMER_STOP;
    1e6c:	2100      	movs	r1, #0
    1e6e:	7211      	strb	r1, [r2, #8]
			if (pPre == pTemp) //delete the first one element
    1e70:	4294      	cmp	r4, r2
    1e72:	d102      	bne.n	1e7a <SYS_ReleaseTimer+0x2e>
			{
				pheader = pTemp->pNextTimer;
    1e74:	6003      	str	r3, [r0, #0]
			{
				pPre->pNextTimer = pTemp->pNextTimer;
			}

			//YC_LOG_INFO("release timer %d,%d \r\n",pPre->cbParams,pTimer->cbParams);
			return true;
    1e76:	2001      	movs	r0, #1
    1e78:	e006      	b.n	1e88 <SYS_ReleaseTimer+0x3c>
			{
				pheader = pTemp->pNextTimer;
			}
			else
			{
				pPre->pNextTimer = pTemp->pNextTimer;
    1e7a:	6123      	str	r3, [r4, #16]
			}

			//YC_LOG_INFO("release timer %d,%d \r\n",pPre->cbParams,pTimer->cbParams);
			return true;
    1e7c:	2001      	movs	r0, #1
    1e7e:	e003      	b.n	1e88 <SYS_ReleaseTimer+0x3c>
    1e80:	0014      	movs	r4, r2
    1e82:	001a      	movs	r2, r3
    1e84:	e7ed      	b.n	1e62 <SYS_ReleaseTimer+0x16>
bool SYS_ReleaseTimer(SYS_TIMER_TYPE *pTimer)
{
	SYS_TIMER_TYPE *pTemp, *pPre;
	if (pTimer == NULL)
	{
		return false;
    1e86:	0018      	movs	r0, r3
			//YC_LOG_INFO("release timer %d,%d \r\n",pPre->cbParams,pTimer->cbParams);
			return true;
		}
	}
	return false;
}
    1e88:	bd10      	pop	{r4, pc}
    1e8a:	46c0      	nop			; (mov r8, r8)
    1e8c:	10012824 	.word	0x10012824
    1e90:	10012820 	.word	0x10012820

00001e94 <SYS_ReleaseAllTimer>:
void SYS_ReleaseAllTimer()
{
	SYS_TIMER_TYPE *pTemp;
	for(pTemp = pheader; pTemp->pNextTimer != NULL; pTemp = pTemp->pNextTimer)
	{
		pTemp->mTimerStatus = TIMER_STOP;
    1e94:	2000      	movs	r0, #0
}

void SYS_ReleaseAllTimer()
{
	SYS_TIMER_TYPE *pTemp;
	for(pTemp = pheader; pTemp->pNextTimer != NULL; pTemp = pTemp->pNextTimer)
    1e96:	4b05      	ldr	r3, [pc, #20]	; (1eac <SYS_ReleaseAllTimer+0x18>)
    1e98:	681a      	ldr	r2, [r3, #0]
    1e9a:	6911      	ldr	r1, [r2, #16]
    1e9c:	2900      	cmp	r1, #0
    1e9e:	d002      	beq.n	1ea6 <SYS_ReleaseAllTimer+0x12>
	{
		pTemp->mTimerStatus = TIMER_STOP;
    1ea0:	7210      	strb	r0, [r2, #8]
    1ea2:	000a      	movs	r2, r1
    1ea4:	e7f9      	b.n	1e9a <SYS_ReleaseAllTimer+0x6>
	}
	pheader = &header_Timer;
    1ea6:	4a02      	ldr	r2, [pc, #8]	; (1eb0 <SYS_ReleaseAllTimer+0x1c>)
    1ea8:	601a      	str	r2, [r3, #0]
}
    1eaa:	4770      	bx	lr
    1eac:	10012820 	.word	0x10012820
    1eb0:	10012824 	.word	0x10012824

00001eb4 <SYStick_handle>:

void SYStick_handle()
{
	if(++tmpCnt%10 == 0){//each	systick interrupt is 10ms
    1eb4:	4b08      	ldr	r3, [pc, #32]	; (1ed8 <SYStick_handle+0x24>)
	}
	pheader = &header_Timer;
}

void SYStick_handle()
{
    1eb6:	b510      	push	{r4, lr}
	if(++tmpCnt%10 == 0){//each	systick interrupt is 10ms
    1eb8:	681a      	ldr	r2, [r3, #0]
    1eba:	210a      	movs	r1, #10
    1ebc:	1c50      	adds	r0, r2, #1
    1ebe:	6018      	str	r0, [r3, #0]
    1ec0:	f002 fa15 	bl	42ee <__aeabi_uidiv>
    1ec4:	2900      	cmp	r1, #0
    1ec6:	d106      	bne.n	1ed6 <SYStick_handle+0x22>
		sys_tick_count++; //10
    1ec8:	4a04      	ldr	r2, [pc, #16]	; (1edc <SYStick_handle+0x28>)
    1eca:	6813      	ldr	r3, [r2, #0]
    1ecc:	3301      	adds	r3, #1
    1ece:	6013      	str	r3, [r2, #0]
		sys_Timer_Check_Flag = true;
    1ed0:	2201      	movs	r2, #1
    1ed2:	4b03      	ldr	r3, [pc, #12]	; (1ee0 <SYStick_handle+0x2c>)
    1ed4:	701a      	strb	r2, [r3, #0]
	}
}
    1ed6:	bd10      	pop	{r4, pc}
    1ed8:	10010fbc 	.word	0x10010fbc
    1edc:	1001281c 	.word	0x1001281c
    1ee0:	1001283c 	.word	0x1001283c

00001ee4 <hw_delay>:

#define BW(addr)			(int)*(addr) << 24 | (int)*(addr + 1) << 16 | (int)*(addr + 2) << 8 | *(addr + 3)

static inline void hw_delay() 
{
	__asm__ __volatile__("nop");
    1ee4:	46c0      	nop			; (mov r8, r8)
	__asm__ __volatile__("nop");
    1ee6:	46c0      	nop			; (mov r8, r8)
	__asm__ __volatile__("nop");
    1ee8:	46c0      	nop			; (mov r8, r8)
	__asm__ __volatile__("nop");
    1eea:	46c0      	nop			; (mov r8, r8)
	__asm__ __volatile__("nop");
    1eec:	46c0      	nop			; (mov r8, r8)
}
    1eee:	4770      	bx	lr

00001ef0 <bc_gpio_init>:
#define IS_VALID_PIN(PIN)
#endif

void bc_gpio_init(uint8_t pin, GPIO_CFG* t)
{
	ASSERT(t != NULL);
    1ef0:	2900      	cmp	r1, #0
    1ef2:	d100      	bne.n	1ef6 <bc_gpio_init+0x6>
    1ef4:	e7fe      	b.n	1ef4 <bc_gpio_init+0x4>
    1ef6:	2301      	movs	r3, #1
    1ef8:	281c      	cmp	r0, #28
    1efa:	d803      	bhi.n	1f04 <bc_gpio_init+0x14>
    1efc:	4a07      	ldr	r2, [pc, #28]	; (1f1c <bc_gpio_init+0x2c>)
    1efe:	2301      	movs	r3, #1
    1f00:	40c2      	lsrs	r2, r0
    1f02:	4393      	bics	r3, r2
    1f04:	b2db      	uxtb	r3, r3
	ASSERT(IS_VALID_PIN(pin));
    1f06:	2b00      	cmp	r3, #0
    1f08:	d1fd      	bne.n	1f06 <bc_gpio_init+0x16>
	HWRITE(CORE_GPIO_CONF + pin, *(uint8_t*)t);
    1f0a:	4b05      	ldr	r3, [pc, #20]	; (1f20 <bc_gpio_init+0x30>)
    1f0c:	18c0      	adds	r0, r0, r3
    1f0e:	2380      	movs	r3, #128	; 0x80
    1f10:	055b      	lsls	r3, r3, #21
    1f12:	4318      	orrs	r0, r3
    1f14:	780b      	ldrb	r3, [r1, #0]
    1f16:	7003      	strb	r3, [r0, #0]
}
    1f18:	4770      	bx	lr
    1f1a:	46c0      	nop			; (mov r8, r8)
    1f1c:	1b884040 	.word	0x1b884040
    1f20:	00008080 	.word	0x00008080

00001f24 <bc_gpio_deinit>:

void bc_gpio_deinit(uint8_t pin, GPIO_CFG* t)
{
	ASSERT(t != NULL);
    1f24:	2900      	cmp	r1, #0
    1f26:	d100      	bne.n	1f2a <bc_gpio_deinit+0x6>
    1f28:	e7fe      	b.n	1f28 <bc_gpio_deinit+0x4>
    1f2a:	2301      	movs	r3, #1
    1f2c:	281c      	cmp	r0, #28
    1f2e:	d803      	bhi.n	1f38 <bc_gpio_deinit+0x14>
    1f30:	4a03      	ldr	r2, [pc, #12]	; (1f40 <bc_gpio_deinit+0x1c>)
    1f32:	2301      	movs	r3, #1
    1f34:	40c2      	lsrs	r2, r0
    1f36:	4393      	bics	r3, r2
    1f38:	b2db      	uxtb	r3, r3
	ASSERT(IS_VALID_PIN(pin));
    1f3a:	2b00      	cmp	r3, #0
    1f3c:	d1fd      	bne.n	1f3a <bc_gpio_deinit+0x16>
}
    1f3e:	4770      	bx	lr
    1f40:	1b884040 	.word	0x1b884040

00001f44 <bc_gpio_set>:

void bc_gpio_set(uint8_t pin, bool val)
{
    1f44:	b570      	push	{r4, r5, r6, lr}
    1f46:	2301      	movs	r3, #1
    1f48:	0004      	movs	r4, r0
    1f4a:	000d      	movs	r5, r1
    1f4c:	281c      	cmp	r0, #28
    1f4e:	d803      	bhi.n	1f58 <bc_gpio_set+0x14>
    1f50:	4a0b      	ldr	r2, [pc, #44]	; (1f80 <bc_gpio_set+0x3c>)
    1f52:	2301      	movs	r3, #1
    1f54:	40c2      	lsrs	r2, r0
    1f56:	4393      	bics	r3, r2
    1f58:	b2db      	uxtb	r3, r3
	ASSERT(IS_VALID_PIN(pin));
    1f5a:	2b00      	cmp	r3, #0
    1f5c:	d1fd      	bne.n	1f5a <bc_gpio_set+0x16>
	//GPIO_SetOut(pin, val);
	hw_delay();
    1f5e:	f7ff ffc1 	bl	1ee4 <hw_delay>
    1f62:	4b08      	ldr	r3, [pc, #32]	; (1f84 <bc_gpio_set+0x40>)
    1f64:	18e4      	adds	r4, r4, r3
    1f66:	2380      	movs	r3, #128	; 0x80
    1f68:	055b      	lsls	r3, r3, #21
	if (val)
		HWRITE(CORE_GPIO_CONF + pin, GPCFG_OUTPUT_HIGH);
    1f6a:	431c      	orrs	r4, r3
void bc_gpio_set(uint8_t pin, bool val)
{
	ASSERT(IS_VALID_PIN(pin));
	//GPIO_SetOut(pin, val);
	hw_delay();
	if (val)
    1f6c:	2d00      	cmp	r5, #0
    1f6e:	d002      	beq.n	1f76 <bc_gpio_set+0x32>
		HWRITE(CORE_GPIO_CONF + pin, GPCFG_OUTPUT_HIGH);
    1f70:	233f      	movs	r3, #63	; 0x3f
    1f72:	7023      	strb	r3, [r4, #0]
    1f74:	e001      	b.n	1f7a <bc_gpio_set+0x36>
	else
		HWRITE(CORE_GPIO_CONF + pin, GPCFG_OUTPUT_LOW);
    1f76:	233e      	movs	r3, #62	; 0x3e
    1f78:	7023      	strb	r3, [r4, #0]
	hw_delay();
    1f7a:	f7ff ffb3 	bl	1ee4 <hw_delay>
}
    1f7e:	bd70      	pop	{r4, r5, r6, pc}
    1f80:	1b884040 	.word	0x1b884040
    1f84:	00008080 	.word	0x00008080

00001f88 <bc_gpio_get>:

bool bc_gpio_get(uint8_t pin)
{
    1f88:	b510      	push	{r4, lr}
    1f8a:	2301      	movs	r3, #1
    1f8c:	0004      	movs	r4, r0
    1f8e:	281c      	cmp	r0, #28
    1f90:	d803      	bhi.n	1f9a <bc_gpio_get+0x12>
    1f92:	4a0d      	ldr	r2, [pc, #52]	; (1fc8 <bc_gpio_get+0x40>)
    1f94:	2301      	movs	r3, #1
    1f96:	40c2      	lsrs	r2, r0
    1f98:	4393      	bics	r3, r2
    1f9a:	b2db      	uxtb	r3, r3
	ASSERT(IS_VALID_PIN(pin));
    1f9c:	2b00      	cmp	r3, #0
    1f9e:	d1fd      	bne.n	1f9c <bc_gpio_get+0x14>
	hw_delay();
    1fa0:	f7ff ffa0 	bl	1ee4 <hw_delay>
	register uint8_t group = 0;
	uint8_t st = 0;
	
	queue = (pin & 7);
	group = pin >> 3 & 3;
	st = HREAD(CORE_GPIO_IN+group);
    1fa4:	06e3      	lsls	r3, r4, #27
    1fa6:	4a09      	ldr	r2, [pc, #36]	; (1fcc <bc_gpio_get+0x44>)
    1fa8:	0f9b      	lsrs	r3, r3, #30
    1faa:	189b      	adds	r3, r3, r2
    1fac:	2280      	movs	r2, #128	; 0x80
    1fae:	0552      	lsls	r2, r2, #21
    1fb0:	4313      	orrs	r3, r2
    1fb2:	781a      	ldrb	r2, [r3, #0]
	return (st & (1 << queue));
    1fb4:	2307      	movs	r3, #7
    1fb6:	401c      	ands	r4, r3
    1fb8:	3b06      	subs	r3, #6
    1fba:	40a3      	lsls	r3, r4
    1fbc:	0018      	movs	r0, r3
    1fbe:	4010      	ands	r0, r2
