   1              		.syntax unified
   2              		.cpu cortex-m0
   3              		.fpu softvfp
   4              		.eabi_attribute 20, 1
   5              		.eabi_attribute 21, 1
   6              		.eabi_attribute 23, 3
   7              		.eabi_attribute 24, 1
   8              		.eabi_attribute 25, 1
   9              		.eabi_attribute 26, 1
  10              		.eabi_attribute 30, 4
  11              		.eabi_attribute 34, 0
  12              		.eabi_attribute 18, 4
  13              		.thumb
  14              		.syntax unified
  15              		.file	"app_mesh.c"
  16              		.text
  17              	.Ltext0:
  18              		.cfi_sections	.debug_frame
  19              		.comm	L_LEV,4,4
  20              		.comm	GPIO_FUNC,1,1
  21              		.global	app_mesh_prov_state_str
  22              		.global	ali_app_array
  23              		.align	1
  24              		.code	16
  25              		.thumb_func
  27              	app_mesh_enabled_cb:
  28              	.LFB85:
  29              		.file 1 "../../../mesh/app/app_mesh.c"
   1:../../../mesh/app/app_mesh.c **** #include "m_api.h"
   2:../../../mesh/app/app_mesh.c **** #include "systick.h"
   3:../../../mesh/app/app_mesh.c **** 
   4:../../../mesh/app/app_mesh.c **** #include "app_mesh.h"
   5:../../../mesh/app/app_mesh.c **** #include "co_com.h"
   6:../../../mesh/app/app_mesh.c **** 
   7:../../../mesh/app/app_mesh.c **** #include "meshTimer.h"
   8:../../../mesh/app/app_mesh.c **** #include "bc62xx_gpio.h"
   9:../../../mesh/app/app_mesh.c **** 
  10:../../../mesh/app/app_mesh.c **** #include "mm_alis.h"
  11:../../../mesh/app/app_mesh.c **** #include "ali_light.h"
  12:../../../mesh/app/app_mesh.c **** #include "ali_socket.h"
  13:../../../mesh/app/app_mesh.c **** #include "ali_heatingTable.h"
  14:../../../mesh/app/app_mesh.c **** 
  15:../../../mesh/app/app_mesh.c **** 
  16:../../../mesh/app/app_mesh.c **** #define ALI_PROV_TIMEOUT_TIME (600000)//10mins 
  17:../../../mesh/app/app_mesh.c **** 
  18:../../../mesh/app/app_mesh.c **** #if (BLE_MESH)	
  19:../../../mesh/app/app_mesh.c **** const char *app_mesh_prov_state_str[] ={
  20:../../../mesh/app/app_mesh.c **** 	"M_PROV_STARTED",
  21:../../../mesh/app/app_mesh.c **** 	"M_PROV_SUCCEED",
  22:../../../mesh/app/app_mesh.c **** 	"M_PROV_FAILED",
  23:../../../mesh/app/app_mesh.c **** 	"M_PROV_SUCCEED_APP",
  24:../../../mesh/app/app_mesh.c **** };
  25:../../../mesh/app/app_mesh.c **** 
  26:../../../mesh/app/app_mesh.c **** static ali_app_t* ali_app;
  27:../../../mesh/app/app_mesh.c **** 
  28:../../../mesh/app/app_mesh.c **** const app_t ali_app_array[] = 
  29:../../../mesh/app/app_mesh.c **** {
  30:../../../mesh/app/app_mesh.c **** 	//ali_light
  31:../../../mesh/app/app_mesh.c **** 	{	
  32:../../../mesh/app/app_mesh.c **** 		.factory_reset = ali_light_factory_reset,
  33:../../../mesh/app/app_mesh.c **** 		.prov_state_cb = ali_light_prov_state_cb,
  34:../../../mesh/app/app_mesh.c **** 		.prov_state_get = ali_light_prov_state_get,
  35:../../../mesh/app/app_mesh.c **** 		.app_init = ali_light_init,
  36:../../../mesh/app/app_mesh.c **** 		.app_deinit = ali_light_deinit,
  37:../../../mesh/app/app_mesh.c **** 		.hal_rx = ali_light_hal_rx,
  38:../../../mesh/app/app_mesh.c **** 		.tick_handler = NULL,
  39:../../../mesh/app/app_mesh.c **** 	},
  40:../../../mesh/app/app_mesh.c **** 	{	
  41:../../../mesh/app/app_mesh.c **** 		.factory_reset = ali_light_factory_reset,
  42:../../../mesh/app/app_mesh.c **** 		.prov_state_cb = ali_light_prov_state_cb,
  43:../../../mesh/app/app_mesh.c **** 		.prov_state_get = ali_light_prov_state_get,
  44:../../../mesh/app/app_mesh.c **** 		.app_init = ali_light_init,
  45:../../../mesh/app/app_mesh.c **** 		.app_deinit = ali_light_deinit,
  46:../../../mesh/app/app_mesh.c **** 		.hal_rx = NULL,
  47:../../../mesh/app/app_mesh.c **** 		.tick_handler = NULL,
  48:../../../mesh/app/app_mesh.c **** 	},
  49:../../../mesh/app/app_mesh.c **** 	//ali_socket = 
  50:../../../mesh/app/app_mesh.c **** 	{	
  51:../../../mesh/app/app_mesh.c **** 		.factory_reset = ali_socket_factory_reset,
  52:../../../mesh/app/app_mesh.c **** 		.prov_state_cb = ali_socket_prov_state_cb,
  53:../../../mesh/app/app_mesh.c **** 		.prov_state_get = ali_socket_prov_state_get,
  54:../../../mesh/app/app_mesh.c **** 		.app_init = ali_socket_init,
  55:../../../mesh/app/app_mesh.c **** 		.app_deinit = ali_socket_deinit,
  56:../../../mesh/app/app_mesh.c **** 		.hal_rx = NULL,
  57:../../../mesh/app/app_mesh.c **** 		.tick_handler = ali_socket_tick_handler,
  58:../../../mesh/app/app_mesh.c **** 	},
  59:../../../mesh/app/app_mesh.c **** 	//ali_HeatingTable = 
  60:../../../mesh/app/app_mesh.c **** 	{	
  61:../../../mesh/app/app_mesh.c **** 		.factory_reset = ali_heating_table_factory_reset,
  62:../../../mesh/app/app_mesh.c **** 		.prov_state_cb = ali_heating_table_prov_state_cb,
  63:../../../mesh/app/app_mesh.c **** 		.prov_state_get = ali_heating_table_prov_state_get,
  64:../../../mesh/app/app_mesh.c **** 		.app_init = ali_heating_table_init,
  65:../../../mesh/app/app_mesh.c **** 		.app_deinit = ali_heating_table_deinit,
  66:../../../mesh/app/app_mesh.c **** 		.hal_rx = ali_heating_table_hal_rx,
  67:../../../mesh/app/app_mesh.c **** 		.tick_handler = NULL,
  68:../../../mesh/app/app_mesh.c **** 	},
  69:../../../mesh/app/app_mesh.c **** };
  70:../../../mesh/app/app_mesh.c **** __STATIC void app_mesh_enabled_cb(uint16_t status)
  71:../../../mesh/app/app_mesh.c **** {
  30              		.loc 1 71 0
  31              		.cfi_startproc
  32              		@ args = 0, pretend = 0, frame = 0
  33              		@ frame_needed = 0, uses_anonymous_args = 0
  34              	.LVL0:
  72:../../../mesh/app/app_mesh.c **** 	M_PRINTF(L_APP, "");
  35              		.loc 1 72 0
  36 0000 0D4B     		ldr	r3, .L7
  71:../../../mesh/app/app_mesh.c **** 	M_PRINTF(L_APP, "");
  37              		.loc 1 71 0
  38 0002 37B5     		push	{r0, r1, r2, r4, r5, lr}
  39              	.LCFI0:
  40              		.cfi_def_cfa_offset 24
  41              		.cfi_offset 0, -24
  42              		.cfi_offset 1, -20
  43              		.cfi_offset 2, -16
  44              		.cfi_offset 4, -12
  45              		.cfi_offset 5, -8
  46              		.cfi_offset 14, -4
  47              		.loc 1 72 0
  48 0004 1B68     		ldr	r3, [r3]
  49 0006 9B04     		lsls	r3, r3, #18
  50 0008 15D5     		bpl	.L1
  51              	.LVL1:
  52              	.LBB4:
  53              	.LBB5:
  54 000a 0C4C     		ldr	r4, .L7+4
  55 000c 0C4D     		ldr	r5, .L7+8
  56 000e 2300     		movs	r3, r4
  57 0010 2200     		movs	r2, r4
  58 0012 2000     		movs	r0, r4
  59              	.LVL2:
  60 0014 6433     		adds	r3, r3, #100
  61 0016 2900     		movs	r1, r5
  62 0018 4A32     		adds	r2, r2, #74
  63 001a 0093     		str	r3, [sp]
  64 001c 5530     		adds	r0, r0, #85
  65 001e 4823     		movs	r3, #72
  66 0020 FFF7FEFF 		bl	m_print
  67              	.LVL3:
  68 0024 2000     		movs	r0, r4
  69 0026 7830     		adds	r0, r0, #120
  70 0028 FFF7FEFF 		bl	m_print
  71              	.LVL4:
  72 002c 2000     		movs	r0, r4
  73 002e A91D     		adds	r1, r5, #6
  74 0030 7930     		adds	r0, r0, #121
  75 0032 FFF7FEFF 		bl	m_print
  76              	.LVL5:
  77              	.L1:
  78              	.LBE5:
  79              	.LBE4:
  73:../../../mesh/app/app_mesh.c **** }
  80              		.loc 1 73 0
  81              		@ sp needed
  82 0036 37BD     		pop	{r0, r1, r2, r4, r5, pc}
  83              	.L8:
  84              		.align	2
  85              	.L7:
  86 0038 00000000 		.word	L_LEV
  87 003c 80000000 		.word	.LANCHOR0
  88 0040 00000000 		.word	.LANCHOR1
  89              		.cfi_endproc
  90              	.LFE85:
  92              		.align	1
  93              		.code	16
  94              		.thumb_func
  96              	app_mesh_disabled_cb:
  97              	.LFB86:
  74:../../../mesh/app/app_mesh.c **** 
  75:../../../mesh/app/app_mesh.c **** __STATIC void app_mesh_disabled_cb(uint16_t status)
  76:../../../mesh/app/app_mesh.c **** {
  98              		.loc 1 76 0
  99              		.cfi_startproc
 100              		@ args = 0, pretend = 0, frame = 0
 101              		@ frame_needed = 0, uses_anonymous_args = 0
 102              	.LVL6:
  77:../../../mesh/app/app_mesh.c **** 	M_PRINTF(L_APP, "");
 103              		.loc 1 77 0
 104 0044 0D4B     		ldr	r3, .L14
  76:../../../mesh/app/app_mesh.c **** 	M_PRINTF(L_APP, "");
 105              		.loc 1 76 0
 106 0046 37B5     		push	{r0, r1, r2, r4, r5, lr}
 107              	.LCFI1:
 108              		.cfi_def_cfa_offset 24
 109              		.cfi_offset 0, -24
 110              		.cfi_offset 1, -20
 111              		.cfi_offset 2, -16
 112              		.cfi_offset 4, -12
 113              		.cfi_offset 5, -8
 114              		.cfi_offset 14, -4
 115              		.loc 1 77 0
 116 0048 1B68     		ldr	r3, [r3]
 117 004a 9B04     		lsls	r3, r3, #18
 118 004c 15D5     		bpl	.L9
 119              	.LVL7:
 120              	.LBB8:
 121              	.LBB9:
 122 004e 0C4C     		ldr	r4, .L14+4
 123 0050 0C4D     		ldr	r5, .L14+8
 124 0052 2300     		movs	r3, r4
 125 0054 2200     		movs	r2, r4
 126 0056 2000     		movs	r0, r4
 127              	.LVL8:
 128 0058 7C33     		adds	r3, r3, #124
 129 005a 2900     		movs	r1, r5
 130 005c 4A32     		adds	r2, r2, #74
 131 005e 0093     		str	r3, [sp]
 132 0060 5530     		adds	r0, r0, #85
 133 0062 4D23     		movs	r3, #77
 134 0064 FFF7FEFF 		bl	m_print
 135              	.LVL9:
 136 0068 2000     		movs	r0, r4
 137 006a 7830     		adds	r0, r0, #120
 138 006c FFF7FEFF 		bl	m_print
 139              	.LVL10:
 140 0070 2000     		movs	r0, r4
 141 0072 A91D     		adds	r1, r5, #6
 142 0074 7930     		adds	r0, r0, #121
 143 0076 FFF7FEFF 		bl	m_print
 144              	.LVL11:
 145              	.L9:
 146              	.LBE9:
 147              	.LBE8:
  78:../../../mesh/app/app_mesh.c **** }
 148              		.loc 1 78 0
 149              		@ sp needed
 150 007a 37BD     		pop	{r0, r1, r2, r4, r5, pc}
 151              	.L15:
 152              		.align	2
 153              	.L14:
 154 007c 00000000 		.word	L_LEV
 155 0080 80000000 		.word	.LANCHOR0
 156 0084 00000000 		.word	.LANCHOR1
 157              		.cfi_endproc
 158              	.LFE86:
 160              		.align	1
 161              		.code	16
 162              		.thumb_func
 164              	app_mesh_prov_timeout_timer_cb:
 165              	.LFB87:
  79:../../../mesh/app/app_mesh.c **** static void app_mesh_prov_timeout_timer_cb(void* param)
  80:../../../mesh/app/app_mesh.c **** {
 166              		.loc 1 80 0
 167              		.cfi_startproc
 168              		@ args = 0, pretend = 0, frame = 0
 169              		@ frame_needed = 0, uses_anonymous_args = 0
 170              	.LVL12:
 171 0088 10B5     		push	{r4, lr}
 172              	.LCFI2:
 173              		.cfi_def_cfa_offset 8
 174              		.cfi_offset 4, -8
 175              		.cfi_offset 14, -4
  81:../../../mesh/app/app_mesh.c **** 	bc_m_bcn_stop_tx_unprov_bcn();
 176              		.loc 1 81 0
 177 008a FFF7FEFF 		bl	bc_m_bcn_stop_tx_unprov_bcn
 178              	.LVL13:
  82:../../../mesh/app/app_mesh.c **** }
 179              		.loc 1 82 0
 180              		@ sp needed
 181 008e 10BD     		pop	{r4, pc}
 182              		.cfi_endproc
 183              	.LFE87:
 185              		.align	1
 186              		.code	16
 187              		.thumb_func
 189              	app_mesh_prov_state_cb:
 190              	.LFB88:
  83:../../../mesh/app/app_mesh.c **** 
  84:../../../mesh/app/app_mesh.c **** __STATIC void app_mesh_prov_state_cb(uint8_t state, uint16_t status)
  85:../../../mesh/app/app_mesh.c **** {
 191              		.loc 1 85 0
 192              		.cfi_startproc
 193              		@ args = 0, pretend = 0, frame = 0
 194              		@ frame_needed = 0, uses_anonymous_args = 0
 195              	.LVL14:
  86:../../../mesh/app/app_mesh.c **** 	
  87:../../../mesh/app/app_mesh.c **** 	M_PRINTF(L_APP, "state[%s]", app_mesh_prov_state_str[state]);
 196              		.loc 1 87 0
 197 0090 1C4B     		ldr	r3, .L24
  85:../../../mesh/app/app_mesh.c **** 	
 198              		.loc 1 85 0
 199 0092 F7B5     		push	{r0, r1, r2, r4, r5, r6, r7, lr}
 200              	.LCFI3:
 201              		.cfi_def_cfa_offset 32
 202              		.cfi_offset 0, -32
 203              		.cfi_offset 1, -28
 204              		.cfi_offset 2, -24
 205              		.cfi_offset 4, -20
 206              		.cfi_offset 5, -16
 207              		.cfi_offset 6, -12
 208              		.cfi_offset 7, -8
 209              		.cfi_offset 14, -4
 210              		.loc 1 87 0
 211 0094 1B68     		ldr	r3, [r3]
  85:../../../mesh/app/app_mesh.c **** 	
 212              		.loc 1 85 0
 213 0096 0400     		movs	r4, r0
 214              		.loc 1 87 0
 215 0098 9B04     		lsls	r3, r3, #18
 216 009a 19D5     		bpl	.L18
 217              		.loc 1 87 0 is_stmt 0 discriminator 5
 218 009c 1A4F     		ldr	r7, .L24+4
 219 009e 1B4D     		ldr	r5, .L24+8
 220 00a0 3B00     		movs	r3, r7
 221 00a2 2A00     		movs	r2, r5
 222 00a4 2800     		movs	r0, r5
 223              	.LVL15:
 224 00a6 1A4E     		ldr	r6, .L24+12
 225 00a8 1133     		adds	r3, r3, #17
 226 00aa 4A32     		adds	r2, r2, #74
 227 00ac 0093     		str	r3, [sp]
 228 00ae 3100     		movs	r1, r6
 229              	.LVL16:
 230 00b0 5723     		movs	r3, #87
 231 00b2 5530     		adds	r0, r0, #85
 232 00b4 FFF7FEFF 		bl	m_print
 233              	.LVL17:
 234 00b8 3800     		movs	r0, r7
 235 00ba 164B     		ldr	r3, .L24+16
 236 00bc A200     		lsls	r2, r4, #2
 237 00be D158     		ldr	r1, [r2, r3]
 238 00c0 2830     		adds	r0, r0, #40
 239 00c2 FFF7FEFF 		bl	m_print
 240              	.LVL18:
 241 00c6 2800     		movs	r0, r5
 242 00c8 B11D     		adds	r1, r6, #6
 243 00ca 7930     		adds	r0, r0, #121
 244 00cc FFF7FEFF 		bl	m_print
 245              	.LVL19:
 246              	.L18:
 247 00d0 114D     		ldr	r5, .L24+20
  88:../../../mesh/app/app_mesh.c **** 	if(state == M_PROV_STARTED){
 248              		.loc 1 88 0 is_stmt 1
 249 00d2 002C     		cmp	r4, #0
 250 00d4 07D1     		bne	.L19
  89:../../../mesh/app/app_mesh.c **** 		/*Start 10 mins prov timeout timer*/
  90:../../../mesh/app/app_mesh.c **** 		SYS_SetTimer(&ali_app->provTimeoutTimer, (int)ALI_PROV_TIMEOUT_TIME/10, 
 251              		.loc 1 90 0
 252 00d6 2868     		ldr	r0, [r5]
 253 00d8 104B     		ldr	r3, .L24+24
 254 00da 2200     		movs	r2, r4
 255 00dc 1049     		ldr	r1, .L24+28
 256 00de 0830     		adds	r0, r0, #8
 257 00e0 FFF7FEFF 		bl	SYS_SetTimer
 258              	.LVL20:
 259 00e4 08E0     		b	.L20
 260              	.L19:
  91:../../../mesh/app/app_mesh.c **** 					TIMER_SINGLE, (Timer_Expire_CB)app_mesh_prov_timeout_timer_cb);
  92:../../../mesh/app/app_mesh.c **** 
  93:../../../mesh/app/app_mesh.c **** 		/*Clear saved provisioned parameters*/
  94:../../../mesh/app/app_mesh.c **** 		//bc_m_clear_config();
  95:../../../mesh/app/app_mesh.c **** 	}
  96:../../../mesh/app/app_mesh.c **** 	if(state == M_PROV_SUCCEED_APP){
 261              		.loc 1 96 0
 262 00e6 032C     		cmp	r4, #3
 263 00e8 06D1     		bne	.L20
  97:../../../mesh/app/app_mesh.c **** 		bc_m_proxy_ctrl(false);
 264              		.loc 1 97 0
 265 00ea 0020     		movs	r0, #0
 266 00ec FFF7FEFF 		bl	bc_m_proxy_ctrl
 267              	.LVL21:
  98:../../../mesh/app/app_mesh.c **** 		SYS_ReleaseTimer(&ali_app->provTimeoutTimer);
 268              		.loc 1 98 0
 269 00f0 2868     		ldr	r0, [r5]
 270 00f2 0830     		adds	r0, r0, #8
 271 00f4 FFF7FEFF 		bl	SYS_ReleaseTimer
 272              	.LVL22:
 273              	.L20:
  99:../../../mesh/app/app_mesh.c **** 	}
 100:../../../mesh/app/app_mesh.c **** 
 101:../../../mesh/app/app_mesh.c **** 	ali_app->app_t->prov_state_cb(state);
 274              		.loc 1 101 0
 275 00f8 2B68     		ldr	r3, [r5]
 276 00fa 2000     		movs	r0, r4
 277 00fc 1B6A     		ldr	r3, [r3, #32]
 102:../../../mesh/app/app_mesh.c **** }
 278              		.loc 1 102 0
 279              		@ sp needed
 101:../../../mesh/app/app_mesh.c **** }
 280              		.loc 1 101 0
 281 00fe 5B68     		ldr	r3, [r3, #4]
 282 0100 9847     		blx	r3
 283              	.LVL23:
 284              		.loc 1 102 0
 285 0102 F7BD     		pop	{r0, r1, r2, r4, r5, r6, r7, pc}
 286              	.L25:
 287              		.align	2
 288              	.L24:
 289 0104 00000000 		.word	L_LEV
 290 0108 00010000 		.word	.LANCHOR2
 291 010c 80000000 		.word	.LANCHOR0
 292 0110 00000000 		.word	.LANCHOR1
 293 0114 00000000 		.word	.LANCHOR3
 294 0118 00000000 		.word	.LANCHOR4
 295 011c 00000000 		.word	app_mesh_prov_timeout_timer_cb
 296 0120 60EA0000 		.word	60000
 297              		.cfi_endproc
 298              	.LFE88:
 300              		.align	1
 301              		.code	16
 302              		.thumb_func
 304              	app_mesh_prov_param_req_cb:
 305              	.LFB89:
 103:../../../mesh/app/app_mesh.c **** __STATIC void app_mesh_prov_param_req_cb(void)
 104:../../../mesh/app/app_mesh.c **** {
 306              		.loc 1 104 0
 307              		.cfi_startproc
 308              		@ args = 0, pretend = 0, frame = 48
 309              		@ frame_needed = 0, uses_anonymous_args = 0
 310 0124 30B5     		push	{r4, r5, lr}
 311              	.LCFI4:
 312              		.cfi_def_cfa_offset 12
 313              		.cfi_offset 4, -12
 314              		.cfi_offset 5, -8
 315              		.cfi_offset 14, -4
 105:../../../mesh/app/app_mesh.c **** 	m_api_prov_param_cfm_t cfm;
 106:../../../mesh/app/app_mesh.c **** 	ali_uuid_t uuid;
 107:../../../mesh/app/app_mesh.c **** 	ali_config_uuid_read(&uuid);
 108:../../../mesh/app/app_mesh.c **** 	memcpy(cfm.dev_uuid ,&uuid, M_DEV_UUID_LEN);
 316              		.loc 1 108 0
 317 0126 1025     		movs	r5, #16
 104:../../../mesh/app/app_mesh.c **** 	m_api_prov_param_cfm_t cfm;
 318              		.loc 1 104 0
 319 0128 8DB0     		sub	sp, sp, #52
 320              	.LCFI5:
 321              		.cfi_def_cfa_offset 64
 322              		.loc 1 108 0
 323 012a 04AC     		add	r4, sp, #16
 107:../../../mesh/app/app_mesh.c **** 	memcpy(cfm.dev_uuid ,&uuid, M_DEV_UUID_LEN);
 324              		.loc 1 107 0
 325 012c 6846     		mov	r0, sp
 326 012e FFF7FEFF 		bl	ali_config_uuid_read
 327              	.LVL24:
 328              		.loc 1 108 0
 329 0132 2A00     		movs	r2, r5
 330 0134 6946     		mov	r1, sp
 331 0136 2000     		movs	r0, r4
 332 0138 FFF7FEFF 		bl	memcpy
 333              	.LVL25:
 109:../../../mesh/app/app_mesh.c **** 	m_printf_hex(L_APP, "prov param req cb", cfm.dev_uuid, M_DEV_UUID_LEN);
 334              		.loc 1 109 0
 335 013c 8020     		movs	r0, #128
 336 013e 0B49     		ldr	r1, .L27
 337 0140 2B00     		movs	r3, r5
 338 0142 2200     		movs	r2, r4
 339 0144 3231     		adds	r1, r1, #50
 340 0146 8001     		lsls	r0, r0, #6
 341 0148 FFF7FEFF 		bl	m_printf_hex
 342              	.LVL26:
 110:../../../mesh/app/app_mesh.c **** 	
 111:../../../mesh/app/app_mesh.c **** 	cfm.static_oob = M_PROV_STATIC_OOB_AVAILABLE;
 112:../../../mesh/app/app_mesh.c **** 	cfm.pub_key_oob = M_PROV_PUB_KEY_OOB_NOT_USED;
 343              		.loc 1 112 0
 344 014c 0023     		movs	r3, #0
 111:../../../mesh/app/app_mesh.c **** 	cfm.pub_key_oob = M_PROV_PUB_KEY_OOB_NOT_USED;
 345              		.loc 1 111 0
 346 014e 0122     		movs	r2, #1
 113:../../../mesh/app/app_mesh.c **** 	cfm.out_oob_size = 1;
 114:../../../mesh/app/app_mesh.c **** 	cfm.in_oob_size = 0;
 115:../../../mesh/app/app_mesh.c **** 	cfm.out_oob_action = 0;
 116:../../../mesh/app/app_mesh.c **** 	cfm.in_oob_action = 0;
 117:../../../mesh/app/app_mesh.c **** 	cfm.nb_elt = 1;
 118:../../../mesh/app/app_mesh.c **** 	cfm.info = 0;
 119:../../../mesh/app/app_mesh.c **** 
 120:../../../mesh/app/app_mesh.c **** 	bc_m_prov_param_rsp(&cfm);
 347              		.loc 1 120 0
 348 0150 2000     		movs	r0, r4
 111:../../../mesh/app/app_mesh.c **** 	cfm.pub_key_oob = M_PROV_PUB_KEY_OOB_NOT_USED;
 349              		.loc 1 111 0
 350 0152 E275     		strb	r2, [r4, #23]
 112:../../../mesh/app/app_mesh.c **** 	cfm.out_oob_size = 1;
 351              		.loc 1 112 0
 352 0154 A375     		strb	r3, [r4, #22]
 113:../../../mesh/app/app_mesh.c **** 	cfm.out_oob_size = 1;
 353              		.loc 1 113 0
 354 0156 2276     		strb	r2, [r4, #24]
 114:../../../mesh/app/app_mesh.c **** 	cfm.out_oob_action = 0;
 355              		.loc 1 114 0
 356 0158 6376     		strb	r3, [r4, #25]
 115:../../../mesh/app/app_mesh.c **** 	cfm.in_oob_action = 0;
 357              		.loc 1 115 0
 358 015a 6383     		strh	r3, [r4, #26]
 116:../../../mesh/app/app_mesh.c **** 	cfm.nb_elt = 1;
 359              		.loc 1 116 0
 360 015c A383     		strh	r3, [r4, #28]
 117:../../../mesh/app/app_mesh.c **** 	cfm.info = 0;
 361              		.loc 1 117 0
 362 015e A277     		strb	r2, [r4, #30]
 118:../../../mesh/app/app_mesh.c **** 
 363              		.loc 1 118 0
 364 0160 E377     		strb	r3, [r4, #31]
 365              		.loc 1 120 0
 366 0162 FFF7FEFF 		bl	bc_m_prov_param_rsp
 367              	.LVL27:
 121:../../../mesh/app/app_mesh.c **** }
 368              		.loc 1 121 0
 369 0166 0DB0     		add	sp, sp, #52
 370              		@ sp needed
 371 0168 30BD     		pop	{r4, r5, pc}
 372              	.L28:
 373 016a C046     		.align	2
 374              	.L27:
 375 016c 00010000 		.word	.LANCHOR2
 376              		.cfi_endproc
 377              	.LFE89:
 379              		.align	1
 380              		.code	16
 381              		.thumb_func
 383              	app_mesh_prov_oob_auth_req_cb:
 384              	.LFB90:
 122:../../../mesh/app/app_mesh.c **** __STATIC void app_mesh_prov_oob_auth_req_cb(uint8_t auth_method, uint16_t auth_action, uint8_t auth
 123:../../../mesh/app/app_mesh.c **** {
 385              		.loc 1 123 0
 386              		.cfi_startproc
 387              		@ args = 0, pretend = 0, frame = 24
 388              		@ frame_needed = 0, uses_anonymous_args = 0
 389              	.LVL28:
 390 0170 F0B5     		push	{r4, r5, r6, r7, lr}
 391              	.LCFI6:
 392              		.cfi_def_cfa_offset 20
 393              		.cfi_offset 4, -20
 394              		.cfi_offset 5, -16
 395              		.cfi_offset 6, -12
 396              		.cfi_offset 7, -8
 397              		.cfi_offset 14, -4
 124:../../../mesh/app/app_mesh.c **** 	uint8_t auth_data[16];
 125:../../../mesh/app/app_mesh.c **** 	
 126:../../../mesh/app/app_mesh.c **** 	M_PRINTF(L_APP,"auth_method:0x%02x,auth_action:0x%04x,auth_size:0x%02x", auth_method, auth_action,
 398              		.loc 1 126 0
 399 0172 1A4B     		ldr	r3, .L34
 123:../../../mesh/app/app_mesh.c **** 	uint8_t auth_data[16];
 400              		.loc 1 123 0
 401 0174 89B0     		sub	sp, sp, #36
 402              	.LCFI7:
 403              		.cfi_def_cfa_offset 56
 404              		.loc 1 126 0
 405 0176 1B68     		ldr	r3, [r3]
 123:../../../mesh/app/app_mesh.c **** 	uint8_t auth_data[16];
 406              		.loc 1 123 0
 407 0178 0290     		str	r0, [sp, #8]
 408 017a 0391     		str	r1, [sp, #12]
 409 017c 1600     		movs	r6, r2
 410              		.loc 1 126 0
 411 017e 9B04     		lsls	r3, r3, #18
 412 0180 19D5     		bpl	.L30
 413              		.loc 1 126 0 is_stmt 0 discriminator 5
 414 0182 174D     		ldr	r5, .L34+4
 415 0184 174C     		ldr	r4, .L34+8
 416 0186 2B00     		movs	r3, r5
 417 0188 2200     		movs	r2, r4
 418              	.LVL29:
 419 018a 2000     		movs	r0, r4
 420              	.LVL30:
 421 018c 164F     		ldr	r7, .L34+12
 422 018e 4433     		adds	r3, r3, #68
 423 0190 4A32     		adds	r2, r2, #74
 424 0192 0093     		str	r3, [sp]
 425 0194 3900     		movs	r1, r7
 426              	.LVL31:
 427 0196 7E23     		movs	r3, #126
 428 0198 5530     		adds	r0, r0, #85
 429 019a FFF7FEFF 		bl	m_print
 430              	.LVL32:
 431 019e 2800     		movs	r0, r5
 432 01a0 0299     		ldr	r1, [sp, #8]
 433 01a2 6230     		adds	r0, r0, #98
 434 01a4 3300     		movs	r3, r6
 435 01a6 039A     		ldr	r2, [sp, #12]
 436 01a8 FFF7FEFF 		bl	m_print
 437              	.LVL33:
 438 01ac 2000     		movs	r0, r4
 439 01ae B91D     		adds	r1, r7, #6
 440 01b0 7930     		adds	r0, r0, #121
 441 01b2 FFF7FEFF 		bl	m_print
 442              	.LVL34:
 443              	.L30:
 127:../../../mesh/app/app_mesh.c **** 
 128:../../../mesh/app/app_mesh.c **** 	ali_config_auth_val_read(auth_data);
 444              		.loc 1 128 0 is_stmt 1
 445 01b6 04A8     		add	r0, sp, #16
 446 01b8 FFF7FEFF 		bl	ali_config_auth_val_read
 447              	.LVL35:
 129:../../../mesh/app/app_mesh.c **** 									
 130:../../../mesh/app/app_mesh.c **** 	m_printf_hex(L_APP, "auth val request", auth_data, 16);
 448              		.loc 1 130 0
 449 01bc 8020     		movs	r0, #128
 450 01be 0B49     		ldr	r1, .L34+16
 451 01c0 1023     		movs	r3, #16
 452 01c2 04AA     		add	r2, sp, #16
 453 01c4 1931     		adds	r1, r1, #25
 454 01c6 8001     		lsls	r0, r0, #6
 455 01c8 FFF7FEFF 		bl	m_printf_hex
 456              	.LVL36:
 131:../../../mesh/app/app_mesh.c **** 	
 132:../../../mesh/app/app_mesh.c ****     bc_m_prov_oob_auth_rsp(1, auth_size, auth_data);
 457              		.loc 1 132 0
 458 01cc 04AA     		add	r2, sp, #16
 459 01ce 3100     		movs	r1, r6
 460 01d0 0120     		movs	r0, #1
 461 01d2 FFF7FEFF 		bl	bc_m_prov_oob_auth_rsp
 462              	.LVL37:
 133:../../../mesh/app/app_mesh.c **** }
 463              		.loc 1 133 0
 464 01d6 09B0     		add	sp, sp, #36
 465              		@ sp needed
 466 01d8 F0BD     		pop	{r4, r5, r6, r7, pc}
 467              	.L35:
 468 01da C046     		.align	2
 469              	.L34:
 470 01dc 00000000 		.word	L_LEV
 471 01e0 00010000 		.word	.LANCHOR2
 472 01e4 80000000 		.word	.LANCHOR0
 473 01e8 00000000 		.word	.LANCHOR1
 474 01ec 80010000 		.word	.LANCHOR5
 475              		.cfi_endproc
 476              	.LFE90:
 478              		.align	1
 479              		.code	16
 480              		.thumb_func
 482              	app_mesh_buf_block_freed_cb:
 483              	.LFB91:
 134:../../../mesh/app/app_mesh.c **** __STATIC void app_mesh_buf_block_freed_cb(uint8_t block_id)
 135:../../../mesh/app/app_mesh.c **** {
 484              		.loc 1 135 0
 485              		.cfi_startproc
 486              		@ args = 0, pretend = 0, frame = 0
 487              		@ frame_needed = 0, uses_anonymous_args = 0
 488              	.LVL38:
 136:../../../mesh/app/app_mesh.c **** 	M_PRINTF(L_APP, "");
 489              		.loc 1 136 0
 490 01f0 0D4B     		ldr	r3, .L41
 135:../../../mesh/app/app_mesh.c **** 	M_PRINTF(L_APP, "");
 491              		.loc 1 135 0
 492 01f2 37B5     		push	{r0, r1, r2, r4, r5, lr}
 493              	.LCFI8:
 494              		.cfi_def_cfa_offset 24
 495              		.cfi_offset 0, -24
 496              		.cfi_offset 1, -20
 497              		.cfi_offset 2, -16
 498              		.cfi_offset 4, -12
 499              		.cfi_offset 5, -8
 500              		.cfi_offset 14, -4
 501              		.loc 1 136 0
 502 01f4 1B68     		ldr	r3, [r3]
 503 01f6 9B04     		lsls	r3, r3, #18
 504 01f8 15D5     		bpl	.L36
 505              	.LVL39:
 506              	.LBB12:
 507              	.LBB13:
 508 01fa 0C4C     		ldr	r4, .L41+4
 509 01fc 0C4B     		ldr	r3, .L41+8
 510 01fe 2200     		movs	r2, r4
 511 0200 2000     		movs	r0, r4
 512              	.LVL40:
 513 0202 0C4D     		ldr	r5, .L41+12
 514 0204 2A33     		adds	r3, r3, #42
 515 0206 2900     		movs	r1, r5
 516 0208 4A32     		adds	r2, r2, #74
 517 020a 0093     		str	r3, [sp]
 518 020c 5530     		adds	r0, r0, #85
 519 020e 8823     		movs	r3, #136
 520 0210 FFF7FEFF 		bl	m_print
 521              	.LVL41:
 522 0214 2000     		movs	r0, r4
 523 0216 7830     		adds	r0, r0, #120
 524 0218 FFF7FEFF 		bl	m_print
 525              	.LVL42:
 526 021c 2000     		movs	r0, r4
 527 021e A91D     		adds	r1, r5, #6
 528 0220 7930     		adds	r0, r0, #121
 529 0222 FFF7FEFF 		bl	m_print
 530              	.LVL43:
 531              	.L36:
 532              	.LBE13:
 533              	.LBE12:
 137:../../../mesh/app/app_mesh.c **** }
 534              		.loc 1 137 0
 535              		@ sp needed
 536 0226 37BD     		pop	{r0, r1, r2, r4, r5, pc}
 537              	.L42:
 538              		.align	2
 539              	.L41:
 540 0228 00000000 		.word	L_LEV
 541 022c 80000000 		.word	.LANCHOR0
 542 0230 80010000 		.word	.LANCHOR5
 543 0234 00000000 		.word	.LANCHOR1
 544              		.cfi_endproc
 545              	.LFE91:
 547              		.align	1
 548              		.code	16
 549              		.thumb_func
 551              	app_mesh_loaded_cb:
 552              	.LFB92:
 138:../../../mesh/app/app_mesh.c **** __STATIC void app_mesh_loaded_cb(uint16_t status)
 139:../../../mesh/app/app_mesh.c **** {
 553              		.loc 1 139 0
 554              		.cfi_startproc
 555              		@ args = 0, pretend = 0, frame = 0
 556              		@ frame_needed = 0, uses_anonymous_args = 0
 557              	.LVL44:
 140:../../../mesh/app/app_mesh.c **** 	M_PRINTF(L_APP, "");
 558              		.loc 1 140 0
 559 0238 0D4B     		ldr	r3, .L48
 139:../../../mesh/app/app_mesh.c **** 	M_PRINTF(L_APP, "");
 560              		.loc 1 139 0
 561 023a 37B5     		push	{r0, r1, r2, r4, r5, lr}
 562              	.LCFI9:
 563              		.cfi_def_cfa_offset 24
 564              		.cfi_offset 0, -24
 565              		.cfi_offset 1, -20
 566              		.cfi_offset 2, -16
 567              		.cfi_offset 4, -12
 568              		.cfi_offset 5, -8
 569              		.cfi_offset 14, -4
 570              		.loc 1 140 0
 571 023c 1B68     		ldr	r3, [r3]
 572 023e 9B04     		lsls	r3, r3, #18
 573 0240 15D5     		bpl	.L43
 574              	.LVL45:
 575              	.LBB16:
 576              	.LBB17:
 577 0242 0C4C     		ldr	r4, .L48+4
 578 0244 0C4B     		ldr	r3, .L48+8
 579 0246 2200     		movs	r2, r4
 580 0248 2000     		movs	r0, r4
 581              	.LVL46:
 582 024a 0C4D     		ldr	r5, .L48+12
 583 024c 4633     		adds	r3, r3, #70
 584 024e 2900     		movs	r1, r5
 585 0250 4A32     		adds	r2, r2, #74
 586 0252 0093     		str	r3, [sp]
 587 0254 5530     		adds	r0, r0, #85
 588 0256 8C23     		movs	r3, #140
 589 0258 FFF7FEFF 		bl	m_print
 590              	.LVL47:
 591 025c 2000     		movs	r0, r4
 592 025e 7830     		adds	r0, r0, #120
 593 0260 FFF7FEFF 		bl	m_print
 594              	.LVL48:
 595 0264 2000     		movs	r0, r4
 596 0266 A91D     		adds	r1, r5, #6
 597 0268 7930     		adds	r0, r0, #121
 598 026a FFF7FEFF 		bl	m_print
 599              	.LVL49:
 600              	.L43:
 601              	.LBE17:
 602              	.LBE16:
 141:../../../mesh/app/app_mesh.c **** }
 603              		.loc 1 141 0
 604              		@ sp needed
 605 026e 37BD     		pop	{r0, r1, r2, r4, r5, pc}
 606              	.L49:
 607              		.align	2
 608              	.L48:
 609 0270 00000000 		.word	L_LEV
 610 0274 80000000 		.word	.LANCHOR0
 611 0278 80010000 		.word	.LANCHOR5
 612 027c 00000000 		.word	.LANCHOR1
 613              		.cfi_endproc
 614              	.LFE92:
 616              		.align	1
 617              		.code	16
 618              		.thumb_func
 620              	app_mesh_api_update_ind_cb:
 621              	.LFB93:
 142:../../../mesh/app/app_mesh.c **** 
 143:../../../mesh/app/app_mesh.c **** __STATIC void app_mesh_api_update_ind_cb(uint8_t type, uint16_t len, uint8_t *data)
 144:../../../mesh/app/app_mesh.c **** {
 622              		.loc 1 144 0
 623              		.cfi_startproc
 624              		@ args = 0, pretend = 0, frame = 0
 625              		@ frame_needed = 0, uses_anonymous_args = 0
 626              	.LVL50:
 627 0280 10B5     		push	{r4, lr}
 628              	.LCFI10:
 629              		.cfi_def_cfa_offset 8
 630              		.cfi_offset 4, -8
 631              		.cfi_offset 14, -4
 145:../../../mesh/app/app_mesh.c **** 	bc_m_param_save(type, len, data);
 632              		.loc 1 145 0
 633 0282 FFF7FEFF 		bl	bc_m_param_save
 634              	.LVL51:
 146:../../../mesh/app/app_mesh.c **** }
 635              		.loc 1 146 0
 636              		@ sp needed
 637 0286 10BD     		pop	{r4, pc}
 638              		.cfi_endproc
 639              	.LFE93:
 641              		.align	1
 642              		.code	16
 643              		.thumb_func
 645              	app_mesh_reset_ind_cb:
 646              	.LFB94:
 147:../../../mesh/app/app_mesh.c **** 
 148:../../../mesh/app/app_mesh.c **** __STATIC void app_mesh_reset_ind_cb(void)
 149:../../../mesh/app/app_mesh.c **** {
 647              		.loc 1 149 0
 648              		.cfi_startproc
 649              		@ args = 0, pretend = 0, frame = 0
 650              		@ frame_needed = 0, uses_anonymous_args = 0
 150:../../../mesh/app/app_mesh.c **** 	M_PRINTF(L_APP, "");
 651              		.loc 1 150 0
 652 0288 114B     		ldr	r3, .L56
 149:../../../mesh/app/app_mesh.c **** 	M_PRINTF(L_APP, "");
 653              		.loc 1 149 0
 654 028a 37B5     		push	{r0, r1, r2, r4, r5, lr}
 655              	.LCFI11:
 656              		.cfi_def_cfa_offset 24
 657              		.cfi_offset 0, -24
 658              		.cfi_offset 1, -20
 659              		.cfi_offset 2, -16
 660              		.cfi_offset 4, -12
 661              		.cfi_offset 5, -8
 662              		.cfi_offset 14, -4
 663              		.loc 1 150 0
 664 028c 1B68     		ldr	r3, [r3]
 665 028e 9B04     		lsls	r3, r3, #18
 666 0290 15D5     		bpl	.L52
 667              		.loc 1 150 0 is_stmt 0 discriminator 5
 668 0292 104C     		ldr	r4, .L56+4
 669 0294 104B     		ldr	r3, .L56+8
 670 0296 2200     		movs	r2, r4
 671 0298 2000     		movs	r0, r4
 672 029a 104D     		ldr	r5, .L56+12
 673 029c 5933     		adds	r3, r3, #89
 674 029e 2900     		movs	r1, r5
 675 02a0 4A32     		adds	r2, r2, #74
 676 02a2 0093     		str	r3, [sp]
 677 02a4 5530     		adds	r0, r0, #85
 678 02a6 9623     		movs	r3, #150
 679 02a8 FFF7FEFF 		bl	m_print
 680              	.LVL52:
 681 02ac 2000     		movs	r0, r4
 682 02ae 7830     		adds	r0, r0, #120
 683 02b0 FFF7FEFF 		bl	m_print
 684              	.LVL53:
 685 02b4 2000     		movs	r0, r4
 686 02b6 A91D     		adds	r1, r5, #6
 687 02b8 7930     		adds	r0, r0, #121
 688 02ba FFF7FEFF 		bl	m_print
 689              	.LVL54:
 690              	.L52:
 151:../../../mesh/app/app_mesh.c **** 	ali_app->app_t->factory_reset();
 691              		.loc 1 151 0 is_stmt 1
 692 02be 084B     		ldr	r3, .L56+16
 152:../../../mesh/app/app_mesh.c **** 	bc_m_disable();
 153:../../../mesh/app/app_mesh.c **** }
 693              		.loc 1 153 0
 694              		@ sp needed
 151:../../../mesh/app/app_mesh.c **** 	ali_app->app_t->factory_reset();
 695              		.loc 1 151 0
 696 02c0 1B68     		ldr	r3, [r3]
 697 02c2 1B6A     		ldr	r3, [r3, #32]
 698 02c4 1B68     		ldr	r3, [r3]
 699 02c6 9847     		blx	r3
 700              	.LVL55:
 152:../../../mesh/app/app_mesh.c **** 	bc_m_disable();
 701              		.loc 1 152 0
 702 02c8 FFF7FEFF 		bl	bc_m_disable
 703              	.LVL56:
 704              		.loc 1 153 0
 705 02cc 37BD     		pop	{r0, r1, r2, r4, r5, pc}
 706              	.L57:
 707 02ce C046     		.align	2
 708              	.L56:
 709 02d0 00000000 		.word	L_LEV
 710 02d4 80000000 		.word	.LANCHOR0
 711 02d8 80010000 		.word	.LANCHOR5
 712 02dc 00000000 		.word	.LANCHOR1
 713 02e0 00000000 		.word	.LANCHOR4
 714              		.cfi_endproc
 715              	.LFE94:
 717              		.align	1
 718              		.code	16
 719              		.thumb_func
 721              	app_mesh_compo_data_req_cb:
 722              	.LFB95:
 154:../../../mesh/app/app_mesh.c **** 
 155:../../../mesh/app/app_mesh.c **** __STATIC void app_mesh_compo_data_req_cb(uint8_t page)
 156:../../../mesh/app/app_mesh.c **** {
 723              		.loc 1 156 0
 724              		.cfi_startproc
 725              		@ args = 0, pretend = 0, frame = 24
 726              		@ frame_needed = 0, uses_anonymous_args = 0
 727              	.LVL57:
 728 02e4 30B5     		push	{r4, r5, lr}
 729              	.LCFI12:
 730              		.cfi_def_cfa_offset 12
 731              		.cfi_offset 4, -12
 732              		.cfi_offset 5, -8
 733              		.cfi_offset 14, -4
 157:../../../mesh/app/app_mesh.c **** 	M_PRINTF(L_APP, "");
 734              		.loc 1 157 0
 735 02e6 144B     		ldr	r3, .L63
 156:../../../mesh/app/app_mesh.c **** 	M_PRINTF(L_APP, "");
 736              		.loc 1 156 0
 737 02e8 89B0     		sub	sp, sp, #36
 738              	.LCFI13:
 739              		.cfi_def_cfa_offset 48
 740              		.loc 1 157 0
 741 02ea 1B68     		ldr	r3, [r3]
 742 02ec 9B04     		lsls	r3, r3, #18
 743 02ee 15D5     		bpl	.L59
 744              		.loc 1 157 0 is_stmt 0 discriminator 5
 745 02f0 124C     		ldr	r4, .L63+4
 746 02f2 134B     		ldr	r3, .L63+8
 747 02f4 2200     		movs	r2, r4
 748 02f6 2000     		movs	r0, r4
 749              	.LVL58:
 750 02f8 124D     		ldr	r5, .L63+12
 751 02fa 6F33     		adds	r3, r3, #111
 752 02fc 2900     		movs	r1, r5
 753 02fe 4A32     		adds	r2, r2, #74
 754 0300 0093     		str	r3, [sp]
 755 0302 5530     		adds	r0, r0, #85
 756 0304 9D23     		movs	r3, #157
 757 0306 FFF7FEFF 		bl	m_print
 758              	.LVL59:
 759 030a 2000     		movs	r0, r4
 760 030c 7830     		adds	r0, r0, #120
 761 030e FFF7FEFF 		bl	m_print
 762              	.LVL60:
 763 0312 2000     		movs	r0, r4
 764 0314 A91D     		adds	r1, r5, #6
 765 0316 7930     		adds	r0, r0, #121
 766 0318 FFF7FEFF 		bl	m_print
 767              	.LVL61:
 768              	.L59:
 158:../../../mesh/app/app_mesh.c **** 	uint8_t compo_data[] = {0xfc, 0x02, 0x00, 0x00, 0x00, 0x00, 0x08, 0x00, 0x01, 0x00, 0x01, 0x00, 0x
 769              		.loc 1 158 0 is_stmt 1
 770 031c 0A49     		ldr	r1, .L63+16
 771 031e 1822     		movs	r2, #24
 772 0320 0A31     		adds	r1, r1, #10
 773 0322 02A8     		add	r0, sp, #8
 774 0324 FFF7FEFF 		bl	memcpy
 775              	.LVL62:
 159:../../../mesh/app/app_mesh.c **** 	uint8_t data_len;
 160:../../../mesh/app/app_mesh.c **** 
 161:../../../mesh/app/app_mesh.c **** 	page = 0;
 162:../../../mesh/app/app_mesh.c **** 
 163:../../../mesh/app/app_mesh.c **** 	if(page == 0x00) {
 164:../../../mesh/app/app_mesh.c **** 		data_len = sizeof(compo_data);
 165:../../../mesh/app/app_mesh.c **** 	}
 166:../../../mesh/app/app_mesh.c **** 	else {
 167:../../../mesh/app/app_mesh.c **** 		data_len = 1;
 168:../../../mesh/app/app_mesh.c **** 	}
 169:../../../mesh/app/app_mesh.c **** 
 170:../../../mesh/app/app_mesh.c **** 	bc_m_compo_data_cfm(page, data_len, compo_data);
 776              		.loc 1 170 0
 777 0328 02AA     		add	r2, sp, #8
 778 032a 1821     		movs	r1, #24
 779 032c 0020     		movs	r0, #0
 780 032e FFF7FEFF 		bl	bc_m_compo_data_cfm
 781              	.LVL63:
 171:../../../mesh/app/app_mesh.c **** }
 782              		.loc 1 171 0
 783 0332 09B0     		add	sp, sp, #36
 784              		@ sp needed
 785 0334 30BD     		pop	{r4, r5, pc}
 786              	.L64:
 787 0336 C046     		.align	2
 788              	.L63:
 789 0338 00000000 		.word	L_LEV
 790 033c 80000000 		.word	.LANCHOR0
 791 0340 80010000 		.word	.LANCHOR5
 792 0344 00000000 		.word	.LANCHOR1
 793 0348 00020000 		.word	.LANCHOR6
 794              		.cfi_endproc
 795              	.LFE95:
 797              		.align	1
 798              		.global	app_mesh_init
 799              		.code	16
 800              		.thumb_func
 802              	app_mesh_init:
 803              	.LFB96:
 172:../../../mesh/app/app_mesh.c **** 
 173:../../../mesh/app/app_mesh.c **** /// Mesh call-backs structure for Message API
 174:../../../mesh/app/app_mesh.c **** __STATIC const m_api_cb_t app_mesh_cb = {
 175:../../../mesh/app/app_mesh.c ****     .cb_enabled         = app_mesh_enabled_cb,
 176:../../../mesh/app/app_mesh.c ****     .cb_disabled        = app_mesh_disabled_cb,
 177:../../../mesh/app/app_mesh.c ****     .cb_prov_state      = app_mesh_prov_state_cb,
 178:../../../mesh/app/app_mesh.c ****     .cb_prov_param_req  = app_mesh_prov_param_req_cb,
 179:../../../mesh/app/app_mesh.c ****     .cb_prov_auth_req   = app_mesh_prov_oob_auth_req_cb,
 180:../../../mesh/app/app_mesh.c ****     .cb_release         = app_mesh_buf_block_freed_cb,
 181:../../../mesh/app/app_mesh.c ****     .cb_loaded          = app_mesh_loaded_cb,
 182:../../../mesh/app/app_mesh.c ****  	.cb_update_ind		= app_mesh_api_update_ind_cb,
 183:../../../mesh/app/app_mesh.c ****  	.cb_reset_ind		= app_mesh_reset_ind_cb,
 184:../../../mesh/app/app_mesh.c ****  	.cb_compo_data_req	= app_mesh_compo_data_req_cb,
 185:../../../mesh/app/app_mesh.c **** };
 186:../../../mesh/app/app_mesh.c **** uint8_t app_mesh_init(void)
 187:../../../mesh/app/app_mesh.c **** {
 804              		.loc 1 187 0
 805              		.cfi_startproc
 806              		@ args = 0, pretend = 0, frame = 8
 807              		@ frame_needed = 0, uses_anonymous_args = 0
 808 034c F0B5     		push	{r4, r5, r6, r7, lr}
 809              	.LCFI14:
 810              		.cfi_def_cfa_offset 20
 811              		.cfi_offset 4, -20
 812              		.cfi_offset 5, -16
 813              		.cfi_offset 6, -12
 814              		.cfi_offset 7, -8
 815              		.cfi_offset 14, -4
 816 034e 85B0     		sub	sp, sp, #20
 817              	.LCFI15:
 818              		.cfi_def_cfa_offset 40
 188:../../../mesh/app/app_mesh.c **** 	/*Init mesh stack*/
 189:../../../mesh/app/app_mesh.c **** 	bc_m_mesh_init();
 819              		.loc 1 189 0
 820 0350 FFF7FEFF 		bl	bc_m_mesh_init
 821              	.LVL64:
 190:../../../mesh/app/app_mesh.c **** 
 191:../../../mesh/app/app_mesh.c **** 	/*Malloc memory for Genie product*/
 192:../../../mesh/app/app_mesh.c **** 	ali_app = ke_malloc(sizeof(ali_app_t), 0);
 822              		.loc 1 192 0
 823 0354 0021     		movs	r1, #0
 824 0356 2420     		movs	r0, #36
 825 0358 FFF7FEFF 		bl	ke_malloc
 826              	.LVL65:
 827 035c 1C4C     		ldr	r4, .L70
 193:../../../mesh/app/app_mesh.c **** 	/*Clear memroy*/
 194:../../../mesh/app/app_mesh.c **** 	memset(ali_app, 0, sizeof(ali_app_t));
 828              		.loc 1 194 0
 829 035e 2422     		movs	r2, #36
 830 0360 0021     		movs	r1, #0
 192:../../../mesh/app/app_mesh.c **** 	/*Clear memroy*/
 831              		.loc 1 192 0
 832 0362 2060     		str	r0, [r4]
 833              		.loc 1 194 0
 834 0364 FFF7FEFF 		bl	memset
 835              	.LVL66:
 195:../../../mesh/app/app_mesh.c **** 	
 196:../../../mesh/app/app_mesh.c **** 	/*Get Genie device type*/
 197:../../../mesh/app/app_mesh.c **** 	uint8_t dType = ali_config_device_type_get();	
 836              		.loc 1 197 0
 837 0368 FFF7FEFF 		bl	ali_config_device_type_get
 838              	.LVL67:
 198:../../../mesh/app/app_mesh.c **** 	M_PRINTF(L_APP, "device type[%d]", dType);
 839              		.loc 1 198 0
 840 036c 194B     		ldr	r3, .L70+4
 197:../../../mesh/app/app_mesh.c **** 	M_PRINTF(L_APP, "device type[%d]", dType);
 841              		.loc 1 197 0
 842 036e 0390     		str	r0, [sp, #12]
 843              	.LVL68:
 844              		.loc 1 198 0
 845 0370 1B68     		ldr	r3, [r3]
 846 0372 194E     		ldr	r6, .L70+8
 847 0374 9B04     		lsls	r3, r3, #18
 848 0376 16D5     		bpl	.L66
 849              		.loc 1 198 0 is_stmt 0 discriminator 5
 850 0378 184F     		ldr	r7, .L70+12
 851 037a 194D     		ldr	r5, .L70+16
 852 037c 3B00     		movs	r3, r7
 853 037e 2A00     		movs	r2, r5
 854 0380 2800     		movs	r0, r5
 855 0382 4C33     		adds	r3, r3, #76
 856 0384 4A32     		adds	r2, r2, #74
 857 0386 0093     		str	r3, [sp]
 858 0388 3100     		movs	r1, r6
 859 038a C623     		movs	r3, #198
 860 038c 5530     		adds	r0, r0, #85
 861 038e FFF7FEFF 		bl	m_print
 862              	.LVL69:
 863 0392 3800     		movs	r0, r7
 864 0394 0399     		ldr	r1, [sp, #12]
 865 0396 5A30     		adds	r0, r0, #90
 866 0398 FFF7FEFF 		bl	m_print
 867              	.LVL70:
 868 039c 2800     		movs	r0, r5
 869 039e B11D     		adds	r1, r6, #6
 870 03a0 7930     		adds	r0, r0, #121
 871 03a2 FFF7FEFF 		bl	m_print
 872              	.LVL71:
 873              	.L66:
 199:../../../mesh/app/app_mesh.c **** 	/*Get device structer*/
 200:../../../mesh/app/app_mesh.c **** 	ali_app->app_t = &ali_app_array[dType];
 874              		.loc 1 200 0 is_stmt 1
 875 03a6 1C23     		movs	r3, #28
 876 03a8 3200     		movs	r2, r6
 877 03aa 0398     		ldr	r0, [sp, #12]
 878 03ac 2168     		ldr	r1, [r4]
 879 03ae 4343     		muls	r3, r0
 880 03b0 4832     		adds	r2, r2, #72
 881 03b2 D218     		adds	r2, r2, r3
 201:../../../mesh/app/app_mesh.c **** 
 202:../../../mesh/app/app_mesh.c **** 	/*Init device*/
 203:../../../mesh/app/app_mesh.c **** 	ali_app->app_t->app_init(&ali_app->model, &ali_app->model_cnt);
 882              		.loc 1 203 0
 883 03b4 F618     		adds	r6, r6, r3
 200:../../../mesh/app/app_mesh.c **** 
 884              		.loc 1 200 0
 885 03b6 0A62     		str	r2, [r1, #32]
 886              		.loc 1 203 0
 887 03b8 081D     		adds	r0, r1, #4
 888 03ba 736D     		ldr	r3, [r6, #84]
 889 03bc 9847     		blx	r3
 890              	.LVL72:
 204:../../../mesh/app/app_mesh.c **** 
 205:../../../mesh/app/app_mesh.c **** 	/*Set systick callback function with 1ms interval*/
 206:../../../mesh/app/app_mesh.c **** 	systick_set_tick_irq_handler(ali_app->app_t->tick_handler);
 891              		.loc 1 206 0
 892 03be 2368     		ldr	r3, [r4]
 893 03c0 1B6A     		ldr	r3, [r3, #32]
 894 03c2 9869     		ldr	r0, [r3, #24]
 895 03c4 FFF7FEFF 		bl	systick_set_tick_irq_handler
 896              	.LVL73:
 207:../../../mesh/app/app_mesh.c **** 
 208:../../../mesh/app/app_mesh.c **** 	return 0;
 209:../../../mesh/app/app_mesh.c **** }
 897              		.loc 1 209 0
 898 03c8 0020     		movs	r0, #0
 899 03ca 05B0     		add	sp, sp, #20
 900              		@ sp needed
 901 03cc F0BD     		pop	{r4, r5, r6, r7, pc}
 902              	.L71:
 903 03ce C046     		.align	2
 904              	.L70:
 905 03d0 00000000 		.word	.LANCHOR4
 906 03d4 00000000 		.word	L_LEV
 907 03d8 00000000 		.word	.LANCHOR1
 908 03dc 00020000 		.word	.LANCHOR6
 909 03e0 80000000 		.word	.LANCHOR0
 910              		.cfi_endproc
 911              	.LFE96:
 913              		.align	1
 914              		.global	app_mesh_deinit
 915              		.code	16
 916              		.thumb_func
 918              	app_mesh_deinit:
 919              	.LFB97:
 210:../../../mesh/app/app_mesh.c **** 
 211:../../../mesh/app/app_mesh.c **** void app_mesh_deinit(void)
 212:../../../mesh/app/app_mesh.c **** {
 920              		.loc 1 212 0
 921              		.cfi_startproc
 922              		@ args = 0, pretend = 0, frame = 0
 923              		@ frame_needed = 0, uses_anonymous_args = 0
 924 03e4 10B5     		push	{r4, lr}
 925              	.LCFI16:
 926              		.cfi_def_cfa_offset 8
 927              		.cfi_offset 4, -8
 928              		.cfi_offset 14, -4
 213:../../../mesh/app/app_mesh.c **** 	ASSERT_ERR(ali_app && ali_app->model);
 929              		.loc 1 213 0
 930 03e6 074C     		ldr	r4, .L77
 931 03e8 2368     		ldr	r3, [r4]
 932 03ea 5A68     		ldr	r2, [r3, #4]
 933 03ec 002A     		cmp	r2, #0
 934 03ee 00D1     		bne	.L76
 935              	.L75:
 936 03f0 FEE7     		b	.L75
 937              	.L76:
 214:../../../mesh/app/app_mesh.c **** 	/*Release device*/
 215:../../../mesh/app/app_mesh.c **** 	ali_app->app_t->app_deinit(&ali_app->model);
 938              		.loc 1 215 0
 939 03f2 181D     		adds	r0, r3, #4
 940 03f4 1B6A     		ldr	r3, [r3, #32]
 216:../../../mesh/app/app_mesh.c **** 	/*Free memory*/
 217:../../../mesh/app/app_mesh.c **** 	ke_free(ali_app);
 218:../../../mesh/app/app_mesh.c **** }
 941              		.loc 1 218 0
 942              		@ sp needed
 215:../../../mesh/app/app_mesh.c **** 	/*Free memory*/
 943              		.loc 1 215 0
 944 03f6 1B69     		ldr	r3, [r3, #16]
 945 03f8 9847     		blx	r3
 946              	.LVL74:
 217:../../../mesh/app/app_mesh.c **** }
 947              		.loc 1 217 0
 948 03fa 2068     		ldr	r0, [r4]
 949 03fc FFF7FEFF 		bl	ke_free
 950              	.LVL75:
 951              		.loc 1 218 0
 952 0400 10BD     		pop	{r4, pc}
 953              	.L78:
 954 0402 C046     		.align	2
 955              	.L77:
 956 0404 00000000 		.word	.LANCHOR4
 957              		.cfi_endproc
 958              	.LFE97:
 960              		.align	1
 961              		.global	app_mesh_start
 962              		.code	16
 963              		.thumb_func
 965              	app_mesh_start:
 966              	.LFB98:
 219:../../../mesh/app/app_mesh.c **** void app_mesh_start(void)
 220:../../../mesh/app/app_mesh.c **** {
 967              		.loc 1 220 0
 968              		.cfi_startproc
 969              		@ args = 0, pretend = 0, frame = 0
 970              		@ frame_needed = 0, uses_anonymous_args = 0
 971              	.LVL76:
 972 0408 F7B5     		push	{r0, r1, r2, r4, r5, r6, r7, lr}
 973              	.LCFI17:
 974              		.cfi_def_cfa_offset 32
 975              		.cfi_offset 0, -32
 976              		.cfi_offset 1, -28
 977              		.cfi_offset 2, -24
 978              		.cfi_offset 4, -20
 979              		.cfi_offset 5, -16
 980              		.cfi_offset 6, -12
 981              		.cfi_offset 7, -8
 982              		.cfi_offset 14, -4
 221:../../../mesh/app/app_mesh.c **** 	uint16_t status = M_ERR_NO_ERROR;
 222:../../../mesh/app/app_mesh.c **** 	m_printf(L_APP, "app mesh start:\r\n");
 983              		.loc 1 222 0
 984 040a 2D4C     		ldr	r4, .L99
 985 040c 8020     		movs	r0, #128
 986 040e 2100     		movs	r1, r4
 987 0410 8001     		lsls	r0, r0, #6
 988 0412 6A31     		adds	r1, r1, #106
 989 0414 FFF7FEFF 		bl	m_printf
 990              	.LVL77:
 223:../../../mesh/app/app_mesh.c **** 
 224:../../../mesh/app/app_mesh.c **** 	//set api callback function
 225:../../../mesh/app/app_mesh.c **** 	bc_m_set(&app_mesh_cb);
 991              		.loc 1 225 0
 992 0418 2000     		movs	r0, r4
 993 041a 2430     		adds	r0, r0, #36
 994 041c FFF7FEFF 		bl	bc_m_set
 995              	.LVL78:
 226:../../../mesh/app/app_mesh.c **** 	// Set clock information
 227:../../../mesh/app/app_mesh.c **** 	status = bc_m_set_run_time(0, 0);
 996              		.loc 1 227 0
 997 0420 0021     		movs	r1, #0
 998 0422 0800     		movs	r0, r1
 999 0424 FFF7FEFF 		bl	bc_m_set_run_time
 1000              	.LVL79:
 1001 0428 0600     		movs	r6, r0
 1002              	.LVL80:
 1003              	.L80:
 228:../../../mesh/app/app_mesh.c **** 	ASSERT_ERR(status == M_ERR_NO_ERROR);
 1004              		.loc 1 228 0 discriminator 1
 1005 042a 002E     		cmp	r6, #0
 1006 042c FDD1     		bne	.L80
 229:../../../mesh/app/app_mesh.c **** 
 230:../../../mesh/app/app_mesh.c **** 	//register all models
 231:../../../mesh/app/app_mesh.c **** 	bc_mm_register_models(ali_app->model, ali_app->model_cnt);
 1007              		.loc 1 231 0
 1008 042e 254F     		ldr	r7, .L99+4
 1009 0430 3B68     		ldr	r3, [r7]
 1010 0432 1978     		ldrb	r1, [r3]
 1011 0434 5868     		ldr	r0, [r3, #4]
 1012 0436 FFF7FEFF 		bl	bc_mm_register_models
 1013              	.LVL81:
 232:../../../mesh/app/app_mesh.c **** 
 233:../../../mesh/app/app_mesh.c **** 	//if proved ;load flash config data
 234:../../../mesh/app/app_mesh.c **** 	uint32_t len  = bc_m_param_data_len();
 1014              		.loc 1 234 0
 1015 043a FFF7FEFF 		bl	bc_m_param_data_len
 1016              	.LVL82:
 1017 043e 051E     		subs	r5, r0, #0
 1018              	.LVL83:
 235:../../../mesh/app/app_mesh.c **** 	if(len && ali_app->app_t->prov_state_get()){
 1019              		.loc 1 235 0
 1020 0440 35D0     		beq	.L82
 1021              		.loc 1 235 0 is_stmt 0 discriminator 1
 1022 0442 3B68     		ldr	r3, [r7]
 1023 0444 1B6A     		ldr	r3, [r3, #32]
 1024 0446 9B68     		ldr	r3, [r3, #8]
 1025 0448 9847     		blx	r3
 1026              	.LVL84:
 1027 044a 0028     		cmp	r0, #0
 1028 044c 2FD0     		beq	.L82
 1029              	.LBB18:
 236:../../../mesh/app/app_mesh.c **** 		ASSERT_ERR(len);
 237:../../../mesh/app/app_mesh.c **** 		uint8_t *data = ke_malloc(len, 0);
 1030              		.loc 1 237 0 is_stmt 1
 1031 044e 3100     		movs	r1, r6
 1032 0450 2800     		movs	r0, r5
 1033 0452 FFF7FEFF 		bl	ke_malloc
 1034              	.LVL85:
 1035 0456 061E     		subs	r6, r0, #0
 1036              	.LVL86:
 238:../../../mesh/app/app_mesh.c **** 		ASSERT_ERR(data);
 1037              		.loc 1 238 0
 1038 0458 00D1     		bne	.L98
 1039              	.L95:
 1040 045a FEE7     		b	.L95
 1041              	.L98:
 239:../../../mesh/app/app_mesh.c **** 		bc_m_param_get_data(len, data);
 1042              		.loc 1 239 0
 1043 045c 0100     		movs	r1, r0
 1044 045e 2800     		movs	r0, r5
 1045              	.LVL87:
 1046 0460 FFF7FEFF 		bl	bc_m_param_get_data
 1047              	.LVL88:
 240:../../../mesh/app/app_mesh.c **** 
 241:../../../mesh/app/app_mesh.c **** 		status =  bc_m_load_stored_info(len, data);
 1048              		.loc 1 241 0
 1049 0464 A8B2     		uxth	r0, r5
 1050 0466 3100     		movs	r1, r6
 1051 0468 FFF7FEFF 		bl	bc_m_load_stored_info
 1052              	.LVL89:
 1053 046c 071E     		subs	r7, r0, #0
 1054              	.LVL90:
 242:../../../mesh/app/app_mesh.c **** 		if(M_ERR_NO_ERROR != status){
 1055              		.loc 1 242 0
 1056 046e 01D0     		beq	.L85
 243:../../../mesh/app/app_mesh.c **** 			bc_m_clear_config();
 1057              		.loc 1 243 0
 1058 0470 FFF7FEFF 		bl	bc_m_clear_config
 1059              	.LVL91:
 1060              	.L85:
 244:../../../mesh/app/app_mesh.c **** 		}
 245:../../../mesh/app/app_mesh.c **** 		ke_free(data);
 1061              		.loc 1 245 0
 1062 0474 3000     		movs	r0, r6
 1063 0476 FFF7FEFF 		bl	ke_free
 1064              	.LVL92:
 246:../../../mesh/app/app_mesh.c **** 		M_PRINTF(L_APP, "load stored config data status[%x]", status);
 1065              		.loc 1 246 0
 1066 047a 134B     		ldr	r3, .L99+8
 1067 047c 1B68     		ldr	r3, [r3]
 1068 047e 9B04     		lsls	r3, r3, #18
 1069 0480 15D5     		bpl	.L82
 1070              		.loc 1 246 0 is_stmt 0 discriminator 5
 1071 0482 124D     		ldr	r5, .L99+12
 1072              	.LVL93:
 1073 0484 124E     		ldr	r6, .L99+16
 1074              	.LVL94:
 1075 0486 2A00     		movs	r2, r5
 1076 0488 2800     		movs	r0, r5
 1077 048a 7C34     		adds	r4, r4, #124
 1078 048c 4A32     		adds	r2, r2, #74
 1079 048e F623     		movs	r3, #246
 1080 0490 3100     		movs	r1, r6
 1081 0492 5530     		adds	r0, r0, #85
 1082 0494 0094     		str	r4, [sp]
 1083 0496 FFF7FEFF 		bl	m_print
 1084              	.LVL95:
 1085 049a 0E48     		ldr	r0, .L99+20
 1086 049c 3900     		movs	r1, r7
 1087 049e 0B30     		adds	r0, r0, #11
 1088 04a0 FFF7FEFF 		bl	m_print
 1089              	.LVL96:
 1090 04a4 2800     		movs	r0, r5
 1091 04a6 B11D     		adds	r1, r6, #6
 1092 04a8 7930     		adds	r0, r0, #121
 1093 04aa FFF7FEFF 		bl	m_print
 1094              	.LVL97:
 1095              	.L82:
 1096              	.LBE18:
 247:../../../mesh/app/app_mesh.c **** 	}
 248:../../../mesh/app/app_mesh.c **** 
 249:../../../mesh/app/app_mesh.c **** 	// Enable the stack
 250:../../../mesh/app/app_mesh.c **** 	bc_m_enable();
 1097              		.loc 1 250 0 is_stmt 1
 1098 04ae FFF7FEFF 		bl	bc_m_enable
 1099              	.LVL98:
 251:../../../mesh/app/app_mesh.c **** 	m_printf(L_APP, "mesh stack enabled\r\n");
 1100              		.loc 1 251 0
 1101 04b2 8020     		movs	r0, #128
 1102 04b4 0749     		ldr	r1, .L99+20
 1103 04b6 8001     		lsls	r0, r0, #6
 1104 04b8 2E31     		adds	r1, r1, #46
 1105 04ba FFF7FEFF 		bl	m_printf
 1106              	.LVL99:
 252:../../../mesh/app/app_mesh.c **** }
 1107              		.loc 1 252 0
 1108              		@ sp needed
 1109 04be F7BD     		pop	{r0, r1, r2, r4, r5, r6, r7, pc}
 1110              	.L100:
 1111              		.align	2
 1112              	.L99:
 1113 04c0 00020000 		.word	.LANCHOR6
 1114 04c4 00000000 		.word	.LANCHOR4
 1115 04c8 00000000 		.word	L_LEV
 1116 04cc 80000000 		.word	.LANCHOR0
 1117 04d0 00000000 		.word	.LANCHOR1
 1118 04d4 80020000 		.word	.LANCHOR7
 1119              		.cfi_endproc
 1120              	.LFE98:
 1122              		.align	1
 1123              		.global	app_mesh_hal_rx
 1124              		.code	16
 1125              		.thumb_func
 1127              	app_mesh_hal_rx:
 1128              	.LFB99:
 253:../../../mesh/app/app_mesh.c **** 
 254:../../../mesh/app/app_mesh.c **** 
 255:../../../mesh/app/app_mesh.c **** void app_mesh_hal_rx(const HAL_TYPE type, const uint8_t* data, uint8_t len)
 256:../../../mesh/app/app_mesh.c **** {
 1129              		.loc 1 256 0
 1130              		.cfi_startproc
 1131              		@ args = 0, pretend = 0, frame = 0
 1132              		@ frame_needed = 0, uses_anonymous_args = 0
 1133              	.LVL100:
 257:../../../mesh/app/app_mesh.c **** 	if(ali_app && ali_app->app_t && ali_app->app_t->hal_rx)
 1134              		.loc 1 257 0
 1135 04d8 064B     		ldr	r3, .L112
 256:../../../mesh/app/app_mesh.c **** 	if(ali_app && ali_app->app_t && ali_app->app_t->hal_rx)
 1136              		.loc 1 256 0
 1137 04da 10B5     		push	{r4, lr}
 1138              	.LCFI18:
 1139              		.cfi_def_cfa_offset 8
 1140              		.cfi_offset 4, -8
 1141              		.cfi_offset 14, -4
 1142              		.loc 1 257 0
 1143 04dc 1B68     		ldr	r3, [r3]
 1144 04de 002B     		cmp	r3, #0
 1145 04e0 06D0     		beq	.L101
 1146              		.loc 1 257 0 is_stmt 0 discriminator 1
 1147 04e2 1B6A     		ldr	r3, [r3, #32]
 1148 04e4 002B     		cmp	r3, #0
 1149 04e6 03D0     		beq	.L101
 1150              		.loc 1 257 0 discriminator 2
 1151 04e8 5B69     		ldr	r3, [r3, #20]
 1152 04ea 002B     		cmp	r3, #0
 1153 04ec 00D0     		beq	.L101
 258:../../../mesh/app/app_mesh.c **** 		ali_app->app_t->hal_rx(type, data, len);
 1154              		.loc 1 258 0 is_stmt 1
 1155 04ee 9847     		blx	r3
 1156              	.LVL101:
 1157              	.L101:
 259:../../../mesh/app/app_mesh.c **** }
 1158              		.loc 1 259 0
 1159              		@ sp needed
 1160 04f0 10BD     		pop	{r4, pc}
 1161              	.L113:
 1162 04f2 C046     		.align	2
 1163              	.L112:
 1164 04f4 00000000 		.word	.LANCHOR4
 1165              		.cfi_endproc
 1166              	.LFE99:
 1168              		.align	1
 1169              		.global	app_mesh_prov_state_get
 1170              		.code	16
 1171              		.thumb_func
 1173              	app_mesh_prov_state_get:
 1174              	.LFB100:
 260:../../../mesh/app/app_mesh.c **** 
 261:../../../mesh/app/app_mesh.c **** uint8_t app_mesh_prov_state_get(void)
 262:../../../mesh/app/app_mesh.c **** {
 1175              		.loc 1 262 0
 1176              		.cfi_startproc
 1177              		@ args = 0, pretend = 0, frame = 0
 1178              		@ frame_needed = 0, uses_anonymous_args = 0
 263:../../../mesh/app/app_mesh.c **** 	if(ali_app && ali_app->app_t && ali_app->app_t->prov_state_get)
 1179              		.loc 1 263 0
 1180 04f8 064B     		ldr	r3, .L119
 262:../../../mesh/app/app_mesh.c **** 	if(ali_app && ali_app->app_t && ali_app->app_t->prov_state_get)
 1181              		.loc 1 262 0
 1182 04fa 10B5     		push	{r4, lr}
 1183              	.LCFI19:
 1184              		.cfi_def_cfa_offset 8
 1185              		.cfi_offset 4, -8
 1186              		.cfi_offset 14, -4
 1187              		.loc 1 263 0
 1188 04fc 1B68     		ldr	r3, [r3]
 264:../../../mesh/app/app_mesh.c **** 		return ali_app->app_t->prov_state_get();
 265:../../../mesh/app/app_mesh.c **** 	return 0;
 1189              		.loc 1 265 0
 1190 04fe 181E     		subs	r0, r3, #0
 263:../../../mesh/app/app_mesh.c **** 		return ali_app->app_t->prov_state_get();
 1191              		.loc 1 263 0
 1192 0500 06D0     		beq	.L115
 263:../../../mesh/app/app_mesh.c **** 		return ali_app->app_t->prov_state_get();
 1193              		.loc 1 263 0 is_stmt 0 discriminator 1
 1194 0502 1B6A     		ldr	r3, [r3, #32]
 1195              		.loc 1 265 0 is_stmt 1 discriminator 1
 1196 0504 181E     		subs	r0, r3, #0
 263:../../../mesh/app/app_mesh.c **** 		return ali_app->app_t->prov_state_get();
 1197              		.loc 1 263 0 discriminator 1
 1198 0506 03D0     		beq	.L115
 263:../../../mesh/app/app_mesh.c **** 		return ali_app->app_t->prov_state_get();
 1199              		.loc 1 263 0 is_stmt 0 discriminator 2
 1200 0508 9B68     		ldr	r3, [r3, #8]
 1201              		.loc 1 265 0 is_stmt 1 discriminator 2
 1202 050a 181E     		subs	r0, r3, #0
 263:../../../mesh/app/app_mesh.c **** 		return ali_app->app_t->prov_state_get();
 1203              		.loc 1 263 0 discriminator 2
 1204 050c 00D0     		beq	.L115
 264:../../../mesh/app/app_mesh.c **** 		return ali_app->app_t->prov_state_get();
 1205              		.loc 1 264 0
 1206 050e 9847     		blx	r3
 1207              	.LVL102:
 1208              	.L115:
 266:../../../mesh/app/app_mesh.c **** }
 1209              		.loc 1 266 0
 1210              		@ sp needed
 1211 0510 10BD     		pop	{r4, pc}
 1212              	.L120:
 1213 0512 C046     		.align	2
 1214              	.L119:
 1215 0514 00000000 		.word	.LANCHOR4
 1216              		.cfi_endproc
 1217              	.LFE100:
 1219              		.section	.rodata
 1220              		.align	2
 1221              		.set	.LANCHOR1,. + 0
 1222              		.set	.LANCHOR0,. + 128
 1223              		.set	.LANCHOR2,. + 256
 1224              		.set	.LANCHOR5,. + 384
 1225              		.set	.LANCHOR6,. + 512
 1226              		.set	.LANCHOR7,. + 640
 1229              	lgs:
 1230 0000 5B4D4C47 		.ascii	"[MLG]\000"
 1230      5D00
 1233              	lge:
 1234 0006 0D0A00   		.ascii	"\015\012\000"
 1235              	.LC1:
 1236 0009 4D5F5052 		.ascii	"M_PROV_STARTED\000"
 1236      4F565F53 
 1236      54415254 
 1236      454400
 1237              	.LC2:
 1238 0018 4D5F5052 		.ascii	"M_PROV_SUCCEED\000"
 1238      4F565F53 
 1238      55434345 
 1238      454400
 1239              	.LC3:
 1240 0027 4D5F5052 		.ascii	"M_PROV_FAILED\000"
 1240      4F565F46 
 1240      41494C45 
 1240      4400
 1241              	.LC4:
 1242 0035 4D5F5052 		.ascii	"M_PROV_SUCCEED_APP\000"
 1242      4F565F53 
 1242      55434345 
 1242      45445F41 
 1242      505000
 1245              	ali_app_array:
 1246 0048 00000000 		.word	ali_light_factory_reset
 1247 004c 00000000 		.word	ali_light_prov_state_cb
 1248 0050 00000000 		.word	ali_light_prov_state_get
 1249 0054 00000000 		.word	ali_light_init
 1250 0058 00000000 		.word	ali_light_deinit
 1251 005c 00000000 		.word	ali_light_hal_rx
 1252 0060 00000000 		.word	0
 1253 0064 00000000 		.word	ali_light_factory_reset
 1254 0068 00000000 		.word	ali_light_prov_state_cb
 1255 006c 00000000 		.word	ali_light_prov_state_get
 1256 0070 00000000 		.word	ali_light_init
 1257 0074 00000000 		.word	ali_light_deinit
 1258 0078 00000000 		.word	0
 1259 007c 00000000 		.word	0
 1260 0080 00000000 		.word	ali_socket_factory_reset
 1261 0084 00000000 		.word	ali_socket_prov_state_cb
 1262 0088 00000000 		.word	ali_socket_prov_state_get
 1263 008c 00000000 		.word	ali_socket_init
 1264 0090 00000000 		.word	ali_socket_deinit
 1265 0094 00000000 		.word	0
 1266 0098 00000000 		.word	ali_socket_tick_handler
 1267 009c 00000000 		.word	ali_heating_table_factory_reset
 1268 00a0 00000000 		.word	ali_heating_table_prov_state_cb
 1269 00a4 00000000 		.word	ali_heating_table_prov_state_get
 1270 00a8 00000000 		.word	ali_heating_table_init
 1271 00ac 00000000 		.word	ali_heating_table_deinit
 1272 00b0 00000000 		.word	ali_heating_table_hal_rx
 1273 00b4 00000000 		.word	0
 1274              	.LC6:
 1275 00b8 2E2E2F2E 		.ascii	"../../../mesh/app/app_mesh.c\000"
 1275      2E2F2E2E 
 1275      2F6D6573 
 1275      682F6170 
 1275      702F6170 
 1276              	.LC9:
 1277 00d5 25735B25 		.ascii	"%s[%10s:%d]%s:\000"
 1277      3130733A 
 1277      25645D25 
 1277      733A00
 1280              	__FUNCTION__.9152:
 1281 00e4 6170705F 		.ascii	"app_mesh_enabled_cb\000"
 1281      6D657368 
 1281      5F656E61 
 1281      626C6564 
 1281      5F636200 
 1282              	.LC10:
 1283 00f8 00       		.ascii	"\000"
 1284              	.LC11:
 1285 00f9 257300   		.ascii	"%s\000"
 1288              	__FUNCTION__.9157:
 1289 00fc 6170705F 		.ascii	"app_mesh_disabled_cb\000"
 1289      6D657368 
 1289      5F646973 
 1289      61626C65 
 1289      645F6362 
 1292              	__FUNCTION__.9166:
 1293 0111 6170705F 		.ascii	"app_mesh_prov_state_cb\000"
 1293      6D657368 
 1293      5F70726F 
 1293      765F7374 
 1293      6174655F 
 1294              	.LC32:
 1295 0128 73746174 		.ascii	"state[%s]\000"
 1295      655B2573 
 1295      5D00
 1296              	.LC41:
 1297 0132 70726F76 		.ascii	"prov param req cb\000"
 1297      20706172 
 1297      616D2072 
 1297      65712063 
 1297      6200
 1300              	__FUNCTION__.9179:
 1301 0144 6170705F 		.ascii	"app_mesh_prov_oob_auth_req_cb\000"
 1301      6D657368 
 1301      5F70726F 
 1301      765F6F6F 
 1301      625F6175 
 1302              	.LC47:
 1303 0162 61757468 		.ascii	"auth_method:0x%02x,auth_action:0x%04x,auth_size:0x%"
 1303      5F6D6574 
 1303      686F643A 
 1303      30782530 
 1303      32782C61 
 1304 0195 30327800 		.ascii	"02x\000"
 1305              	.LC48:
 1306 0199 61757468 		.ascii	"auth val request\000"
 1306      2076616C 
 1306      20726571 
 1306      75657374 
 1306      00
 1309              	__FUNCTION__.9184:
 1310 01aa 6170705F 		.ascii	"app_mesh_buf_block_freed_cb\000"
 1310      6D657368 
 1310      5F627566 
 1310      5F626C6F 
 1310      636B5F66 
 1313              	__FUNCTION__.9189:
 1314 01c6 6170705F 		.ascii	"app_mesh_loaded_cb\000"
 1314      6D657368 
 1314      5F6C6F61 
 1314      6465645F 
 1314      636200
 1317              	__FUNCTION__.9199:
 1318 01d9 6170705F 		.ascii	"app_mesh_reset_ind_cb\000"
 1318      6D657368 
 1318      5F726573 
 1318      65745F69 
 1318      6E645F63 
 1321              	__FUNCTION__.9204:
 1322 01ef 6170705F 		.ascii	"app_mesh_compo_data_req_cb\000"
 1322      6D657368 
 1322      5F636F6D 
 1322      706F5F64 
 1322      6174615F 
 1323              	.LC0:
 1324 020a FC       		.byte	-4
 1325 020b 02       		.byte	2
 1326 020c 00       		.byte	0
 1327 020d 00       		.byte	0
 1328 020e 00       		.byte	0
 1329 020f 00       		.byte	0
 1330 0210 08       		.byte	8
 1331 0211 00       		.byte	0
 1332 0212 01       		.byte	1
 1333 0213 00       		.byte	0
 1334 0214 01       		.byte	1
 1335 0215 00       		.byte	0
 1336 0216 05       		.byte	5
 1337 0217 00       		.byte	0
 1338 0218 00       		.byte	0
 1339 0219 00       		.byte	0
 1340 021a 02       		.byte	2
 1341 021b 00       		.byte	0
 1342 021c 00       		.byte	0
 1343 021d 10       		.byte	16
 1344 021e 00       		.byte	0
 1345 021f 13       		.byte	19
 1346 0220 03       		.byte	3
 1347 0221 13       		.byte	19
 1348 0222 0000     		.space	2
 1351              	app_mesh_cb:
 1352 0224 00000000 		.word	app_mesh_enabled_cb
 1353 0228 00000000 		.word	app_mesh_disabled_cb
 1354 022c 00000000 		.word	app_mesh_prov_state_cb
 1355 0230 00000000 		.word	app_mesh_prov_param_req_cb
 1356 0234 00000000 		.word	app_mesh_prov_oob_auth_req_cb
 1357 0238 00000000 		.word	app_mesh_buf_block_freed_cb
 1358 023c 00000000 		.word	app_mesh_loaded_cb
 1359 0240 00000000 		.word	app_mesh_api_update_ind_cb
 1360 0244 00000000 		.word	app_mesh_reset_ind_cb
 1361 0248 00000000 		.word	app_mesh_compo_data_req_cb
 1364              	__FUNCTION__.9213:
 1365 024c 6170705F 		.ascii	"app_mesh_init\000"
 1365      6D657368 
 1365      5F696E69 
 1365      7400
 1366              	.LC103:
 1367 025a 64657669 		.ascii	"device type[%d]\000"
 1367      63652074 
 1367      7970655B 
 1367      25645D00 
 1368              	.LC112:
 1369 026a 61707020 		.ascii	"app mesh start:\015\012\000"
 1369      6D657368 
 1369      20737461 
 1369      72743A0D 
 1369      0A00
 1372              	__FUNCTION__.9236:
 1373 027c 6170705F 		.ascii	"app_mesh_start\000"
 1373      6D657368 
 1373      5F737461 
 1373      727400
 1374              	.LC118:
 1375 028b 6C6F6164 		.ascii	"load stored config data status[%x]\000"
 1375      2073746F 
 1375      72656420 
 1375      636F6E66 
 1375      69672064 
 1376              	.LC120:
 1377 02ae 6D657368 		.ascii	"mesh stack enabled\015\012\000"
 1377      20737461 
 1377      636B2065 
 1377      6E61626C 
 1377      65640D0A 
 1378              		.data
 1379              		.align	2
 1380              		.set	.LANCHOR3,. + 0
 1383              	app_mesh_prov_state_str:
 1384 0000 09000000 		.word	.LC1
 1385 0004 18000000 		.word	.LC2
 1386 0008 27000000 		.word	.LC3
 1387 000c 35000000 		.word	.LC4
 1388              		.bss
 1389              		.align	2
 1390              		.set	.LANCHOR4,. + 0
 1393              	ali_app:
 1394 0000 00000000 		.space	4
 1395              		.text
 1396              	.Letext0:
 1397              		.file 2 "d:\\meshstack\\bc6218\\tools\\gcc-arm-none-eabi-5_4-2016q3-20160926-win32\\arm-none-eabi\
 1398              		.file 3 "d:\\meshstack\\bc6218\\tools\\gcc-arm-none-eabi-5_4-2016q3-20160926-win32\\arm-none-eabi\
 1399              		.file 4 "../../../mesh/api/m_defines.h"
 1400              		.file 5 "../../../mesh/api/m_api.h"
 1401              		.file 6 "../../../mesh/app/ali_config.h"
 1402              		.file 7 "../../../mesh/api/m_api_msg.h"
 1403              		.file 8 "../../../mesh/models/inc/mm_com.h"
 1404              		.file 9 "../../../drivers/hal/inc/bc62xx_timer.h"
 1405              		.file 10 "../../../mesh/app/app_mesh.h"
 1406              		.file 11 "../../../drivers/hal/inc/bc62xx_gpio.h"
 1407              		.file 12 "../../../mesh/common/api/co_log.h"
 1408              		.file 13 "../../../mesh/port/port.h"
 1409              		.file 14 "../../../device/inc/systick.h"
